
BabyAssembly.exe?token=eyJ1c2VyX2lkIjo3MCwidGVhbV9pZCI6bnVsbCwiZmlsZV9pZCI6MTZ9.YErsQQ.bMHTjrmELj4aJLrrPX79_WBk9xk      檔案格式 pei-i386


.text 區段的反組譯：

00411000 <.text>:
  411000:	cc                   	int3   
  411001:	cc                   	int3   
  411002:	cc                   	int3   
  411003:	cc                   	int3   
  411004:	cc                   	int3   
  411005:	e9 86 1e 00 00       	jmp    0x412e90
  41100a:	e9 c7 3d 00 00       	jmp    0x414dd6
  41100f:	e9 f2 3d 00 00       	jmp    0x414e06
  411014:	e9 c7 28 00 00       	jmp    0x4138e0
  411019:	e9 92 0a 00 00       	jmp    0x411ab0
  41101e:	e9 8d 3e 00 00       	jmp    0x414eb0
  411023:	e9 58 3e 00 00       	jmp    0x414e80
  411028:	e9 93 3e 00 00       	jmp    0x414ec0
  41102d:	e9 50 3d 00 00       	jmp    0x414d82
  411032:	e9 89 2d 00 00       	jmp    0x413dc0
  411037:	e9 04 3d 00 00       	jmp    0x414d40
  41103c:	e9 7f 11 00 00       	jmp    0x4121c0
  411041:	e9 5a 11 00 00       	jmp    0x4121a0
  411046:	e9 09 3e 00 00       	jmp    0x414e54
  41104b:	e9 30 3c 00 00       	jmp    0x414c80
  411050:	e9 2b 29 00 00       	jmp    0x413980
  411055:	e9 86 11 00 00       	jmp    0x4121e0
  41105a:	e9 83 3d 00 00       	jmp    0x414de2
  41105f:	e9 30 3d 00 00       	jmp    0x414d94
  411064:	e9 17 3e 00 00       	jmp    0x414e80
  411069:	e9 2c 3d 00 00       	jmp    0x414d9a
  41106e:	e9 fd 06 00 00       	jmp    0x411770
  411073:	e9 88 0c 00 00       	jmp    0x411d00
  411078:	e9 03 2a 00 00       	jmp    0x413a80
  41107d:	e9 9e 3b 00 00       	jmp    0x414c20
  411082:	e9 39 13 00 00       	jmp    0x4123c0
  411087:	e9 64 20 00 00       	jmp    0x4130f0
  41108c:	e9 5f 28 00 00       	jmp    0x4138f0
  411091:	e9 50 3c 00 00       	jmp    0x414ce6
  411096:	e9 05 3e 00 00       	jmp    0x414ea0
  41109b:	e9 00 12 00 00       	jmp    0x4122a0
  4110a0:	e9 a7 3c 00 00       	jmp    0x414d4c
  4110a5:	e9 b6 2b 00 00       	jmp    0x413c60
  4110aa:	e9 01 3e 00 00       	jmp    0x414eb0
  4110af:	e9 6c 28 00 00       	jmp    0x413920
  4110b4:	e9 83 3d 00 00       	jmp    0x414e3c
  4110b9:	e9 b2 3c 00 00       	jmp    0x414d70
  4110be:	e9 9d 26 00 00       	jmp    0x413760
  4110c3:	e9 98 1d 00 00       	jmp    0x412e60
  4110c8:	e9 13 3c 00 00       	jmp    0x414ce0
  4110cd:	e9 58 3d 00 00       	jmp    0x414e2a
  4110d2:	e9 71 3d 00 00       	jmp    0x414e48
  4110d7:	e9 94 29 00 00       	jmp    0x413a70
  4110dc:	e9 2f 3c 00 00       	jmp    0x414d10
  4110e1:	e9 fa 17 00 00       	jmp    0x4128e0
  4110e6:	e9 f5 2c 00 00       	jmp    0x413de0
  4110eb:	e9 40 13 00 00       	jmp    0x412430
  4110f0:	e9 17 3d 00 00       	jmp    0x414e0c
  4110f5:	e9 d6 1a 00 00       	jmp    0x412bd0
  4110fa:	e9 db 3b 00 00       	jmp    0x414cda
  4110ff:	e9 5a 3c 00 00       	jmp    0x414d5e
  411104:	e9 87 3d 00 00       	jmp    0x414e90
  411109:	e9 b2 3d 00 00       	jmp    0x414ec0
  41110e:	e9 03 3c 00 00       	jmp    0x414d16
  411113:	e9 06 3d 00 00       	jmp    0x414e1e
  411118:	e9 71 3c 00 00       	jmp    0x414d8e
  41111d:	e9 0e 29 00 00       	jmp    0x413a30
  411122:	e9 69 37 00 00       	jmp    0x414890
  411127:	e9 64 0b 00 00       	jmp    0x411c90
  41112c:	e9 1f 0c 00 00       	jmp    0x411d50
  411131:	e9 3a 2b 00 00       	jmp    0x413c70
  411136:	e9 d5 0b 00 00       	jmp    0x411d10
  41113b:	e9 f0 1d 00 00       	jmp    0x412f30
  411140:	e9 bb 25 00 00       	jmp    0x413700
  411145:	e9 e6 3c 00 00       	jmp    0x414e30
  41114a:	e9 f1 2b 00 00       	jmp    0x413d40
  41114f:	e9 6c 18 00 00       	jmp    0x4129c0
  411154:	e9 67 1a 00 00       	jmp    0x412bc0
  411159:	e9 42 3d 00 00       	jmp    0x414ea0
  41115e:	e9 df 3c 00 00       	jmp    0x414e42
  411163:	e9 38 3c 00 00       	jmp    0x414da0
  411168:	e9 b3 2b 00 00       	jmp    0x413d20
  41116d:	e9 ae 24 00 00       	jmp    0x413620
  411172:	e9 49 3d 00 00       	jmp    0x414ec0
  411177:	e9 48 3c 00 00       	jmp    0x414dc4
  41117c:	e9 df 1f 00 00       	jmp    0x413160
  411181:	e9 9a 2c 00 00       	jmp    0x413e20
  411186:	e9 c3 3c 00 00       	jmp    0x414e4e
  41118b:	e9 20 28 00 00       	jmp    0x4139b0
  411190:	e9 65 3c 00 00       	jmp    0x414dfa
  411195:	e9 ee 3b 00 00       	jmp    0x414d88
  41119a:	e9 6b 3b 00 00       	jmp    0x414d0a
  41119f:	e9 2c 27 00 00       	jmp    0x4138d0
  4111a4:	e9 37 06 00 00       	jmp    0x4117e0
  4111a9:	e9 f2 1d 00 00       	jmp    0x412fa0
  4111ae:	e9 dd 3c 00 00       	jmp    0x414e90
  4111b3:	e9 58 27 00 00       	jmp    0x413910
  4111b8:	e9 67 3c 00 00       	jmp    0x414e24
  4111bd:	e9 3c 3b 00 00       	jmp    0x414cfe
  4111c2:	e9 b5 3b 00 00       	jmp    0x414d7c
  4111c7:	e9 d4 3c 00 00       	jmp    0x414ea0
  4111cc:	e9 87 3b 00 00       	jmp    0x414d58
  4111d1:	e9 52 3b 00 00       	jmp    0x414d28
  4111d6:	e9 13 3c 00 00       	jmp    0x414dee
  4111db:	e9 50 18 00 00       	jmp    0x412a30
  4111e0:	e9 fb 1a 00 00       	jmp    0x412ce0
  4111e5:	e9 26 05 00 00       	jmp    0x411710
  4111ea:	e9 d1 27 00 00       	jmp    0x4139c0
  4111ef:	e9 b8 3b 00 00       	jmp    0x414dac
  4111f4:	e9 61 3c 00 00       	jmp    0x414e5a
  4111f9:	e9 d2 1c 00 00       	jmp    0x412ed0
  4111fe:	e9 9d 3a 00 00       	jmp    0x414ca0
  411203:	e9 32 3b 00 00       	jmp    0x414d3a
  411208:	e9 c3 27 00 00       	jmp    0x4139d0
  41120d:	e9 1e 26 00 00       	jmp    0x413830
  411212:	e9 99 3c 00 00       	jmp    0x414eb0
  411217:	e9 d8 3b 00 00       	jmp    0x414df4
  41121c:	e9 0f 27 00 00       	jmp    0x413930
  411221:	e9 aa 3b 00 00       	jmp    0x414dd0
  411226:	e9 75 1c 00 00       	jmp    0x412ea0
  41122b:	e9 20 27 00 00       	jmp    0x413950
  411230:	e9 4b 3c 00 00       	jmp    0x414e80
  411235:	e9 16 21 00 00       	jmp    0x413350
  41123a:	e9 f1 1f 00 00       	jmp    0x413230
  41123f:	e9 86 3b 00 00       	jmp    0x414dca
  411244:	e9 a7 08 00 00       	jmp    0x411af0
  411249:	e9 f2 04 00 00       	jmp    0x411740
  41124e:	e9 9d 0a 00 00       	jmp    0x411cf0
  411253:	e9 a8 3b 00 00       	jmp    0x414e00
  411258:	e9 83 27 00 00       	jmp    0x4139e0
  41125d:	e9 be 0e 00 00       	jmp    0x412120
  411262:	e9 f9 05 00 00       	jmp    0x411860
  411267:	e9 04 24 00 00       	jmp    0x413670
  41126c:	e9 b1 3a 00 00       	jmp    0x414d22
  411271:	e9 30 3b 00 00       	jmp    0x414da6
  411276:	e9 15 20 00 00       	jmp    0x413290
  41127b:	e9 90 09 00 00       	jmp    0x411c10
  411280:	e9 97 3a 00 00       	jmp    0x414d1c
  411285:	e9 da 3a 00 00       	jmp    0x414d64
  41128a:	e9 db 3a 00 00       	jmp    0x414d6a
  41128f:	e9 3c 0a 00 00       	jmp    0x411cd0
  411294:	e9 c7 27 00 00       	jmp    0x413a60
  411299:	e9 14 3b 00 00       	jmp    0x414db2
  41129e:	e9 4d 20 00 00       	jmp    0x4132f0
  4112a3:	e9 a8 39 00 00       	jmp    0x414c50
  4112a8:	e9 63 29 00 00       	jmp    0x413c10
  4112ad:	e9 36 3b 00 00       	jmp    0x414de8
  4112b2:	e9 d9 3b 00 00       	jmp    0x414e90
  4112b7:	e9 24 06 00 00       	jmp    0x4118e0
  4112bc:	e9 1b 3b 00 00       	jmp    0x414ddc
  4112c1:	e9 0a 1f 00 00       	jmp    0x4131d0
  4112c6:	e9 45 1f 00 00       	jmp    0x413210
  4112cb:	e9 9c 3b 00 00       	jmp    0x414e6c
  4112d0:	e9 91 3b 00 00       	jmp    0x414e66
  4112d5:	e9 26 1c 00 00       	jmp    0x412f00
  4112da:	e9 25 3a 00 00       	jmp    0x414d04
  4112df:	e9 ec 3b 00 00       	jmp    0x414ed0
  4112e4:	e9 77 2b 00 00       	jmp    0x413e60
  4112e9:	e9 82 17 00 00       	jmp    0x412a70
  4112ee:	e9 5f 3a 00 00       	jmp    0x414d52
  4112f3:	e9 4e 3a 00 00       	jmp    0x414d46
  4112f8:	e9 37 3a 00 00       	jmp    0x414d34
  4112fd:	e9 5e 39 00 00       	jmp    0x414c60
  411302:	e9 27 3a 00 00       	jmp    0x414d2e
  411307:	e9 e0 39 00 00       	jmp    0x414cec
  41130c:	e9 01 3b 00 00       	jmp    0x414e12
  411311:	e9 4a 1c 00 00       	jmp    0x412f60
  411316:	e9 fd 3a 00 00       	jmp    0x414e18
  41131b:	e9 20 0e 00 00       	jmp    0x412140
  411320:	e9 2b 1b 00 00       	jmp    0x412e50
  411325:	e9 d6 16 00 00       	jmp    0x412a00
  41132a:	e9 07 3b 00 00       	jmp    0x414e36
  41132f:	e9 9c 3b 00 00       	jmp    0x414ed0
  411334:	e9 b7 22 00 00       	jmp    0x4135f0
  411339:	e9 32 1b 00 00       	jmp    0x412e70
  41133e:	e9 bd 1d 00 00       	jmp    0x413100
  411343:	e9 76 3a 00 00       	jmp    0x414dbe
  411348:	e9 23 31 00 00       	jmp    0x414470
  41134d:	e9 4e 1e 00 00       	jmp    0x4131a0
  411352:	e9 1f 3a 00 00       	jmp    0x414d76
  411357:	e9 04 3b 00 00       	jmp    0x414e60
  41135c:	e9 3f 04 00 00       	jmp    0x4117a0
  411361:	e9 52 3a 00 00       	jmp    0x414db8
  411366:	e9 95 25 00 00       	jmp    0x413900
  41136b:	e9 60 1f 00 00       	jmp    0x4132d0
  411370:	e9 83 39 00 00       	jmp    0x414cf8
  411375:	e9 f6 20 00 00       	jmp    0x413470
  41137a:	e9 01 0e 00 00       	jmp    0x412180
  41137f:	e9 ec 25 00 00       	jmp    0x413970
  411384:	e9 69 39 00 00       	jmp    0x414cf2
  411389:	cc                   	int3   
  41138a:	cc                   	int3   
  41138b:	cc                   	int3   
  41138c:	cc                   	int3   
  41138d:	cc                   	int3   
  41138e:	cc                   	int3   
  41138f:	cc                   	int3   
  411390:	cc                   	int3   
  411391:	cc                   	int3   
  411392:	cc                   	int3   
  411393:	cc                   	int3   
  411394:	cc                   	int3   
  411395:	cc                   	int3   
  411396:	cc                   	int3   
  411397:	cc                   	int3   
  411398:	cc                   	int3   
  411399:	cc                   	int3   
  41139a:	cc                   	int3   
  41139b:	cc                   	int3   
  41139c:	cc                   	int3   
  41139d:	cc                   	int3   
  41139e:	cc                   	int3   
  41139f:	cc                   	int3   
  4113a0:	cc                   	int3   
  4113a1:	cc                   	int3   
  4113a2:	cc                   	int3   
  4113a3:	cc                   	int3   
  4113a4:	cc                   	int3   
  4113a5:	cc                   	int3   
  4113a6:	cc                   	int3   
  4113a7:	cc                   	int3   
  4113a8:	cc                   	int3   
  4113a9:	cc                   	int3   
  4113aa:	cc                   	int3   
  4113ab:	cc                   	int3   
  4113ac:	cc                   	int3   
  4113ad:	cc                   	int3   
  4113ae:	cc                   	int3   
  4113af:	cc                   	int3   
  4113b0:	cc                   	int3   
  4113b1:	cc                   	int3   
  4113b2:	cc                   	int3   
  4113b3:	cc                   	int3   
  4113b4:	cc                   	int3   
  4113b5:	cc                   	int3   
  4113b6:	cc                   	int3   
  4113b7:	cc                   	int3   
  4113b8:	cc                   	int3   
  4113b9:	cc                   	int3   
  4113ba:	cc                   	int3   
  4113bb:	cc                   	int3   
  4113bc:	cc                   	int3   
  4113bd:	cc                   	int3   
  4113be:	cc                   	int3   
  4113bf:	cc                   	int3   
  4113c0:	cc                   	int3   
  4113c1:	cc                   	int3   
  4113c2:	cc                   	int3   
  4113c3:	cc                   	int3   
  4113c4:	cc                   	int3   
  4113c5:	cc                   	int3   
  4113c6:	cc                   	int3   
  4113c7:	cc                   	int3   
  4113c8:	cc                   	int3   
  4113c9:	cc                   	int3   
  4113ca:	cc                   	int3   
  4113cb:	cc                   	int3   
  4113cc:	cc                   	int3   
  4113cd:	cc                   	int3   
  4113ce:	cc                   	int3   
  4113cf:	cc                   	int3   
  4113d0:	cc                   	int3   
  4113d1:	cc                   	int3   
  4113d2:	cc                   	int3   
  4113d3:	cc                   	int3   
  4113d4:	cc                   	int3   
  4113d5:	cc                   	int3   
  4113d6:	cc                   	int3   
  4113d7:	cc                   	int3   
  4113d8:	cc                   	int3   
  4113d9:	cc                   	int3   
  4113da:	cc                   	int3   
  4113db:	cc                   	int3   
  4113dc:	cc                   	int3   
  4113dd:	cc                   	int3   
  4113de:	cc                   	int3   
  4113df:	cc                   	int3   
  4113e0:	cc                   	int3   
  4113e1:	cc                   	int3   
  4113e2:	cc                   	int3   
  4113e3:	cc                   	int3   
  4113e4:	cc                   	int3   
  4113e5:	cc                   	int3   
  4113e6:	cc                   	int3   
  4113e7:	cc                   	int3   
  4113e8:	cc                   	int3   
  4113e9:	cc                   	int3   
  4113ea:	cc                   	int3   
  4113eb:	cc                   	int3   
  4113ec:	cc                   	int3   
  4113ed:	cc                   	int3   
  4113ee:	cc                   	int3   
  4113ef:	cc                   	int3   
  4113f0:	cc                   	int3   
  4113f1:	cc                   	int3   
  4113f2:	cc                   	int3   
  4113f3:	cc                   	int3   
  4113f4:	cc                   	int3   
  4113f5:	cc                   	int3   
  4113f6:	cc                   	int3   
  4113f7:	cc                   	int3   
  4113f8:	cc                   	int3   
  4113f9:	cc                   	int3   
  4113fa:	cc                   	int3   
  4113fb:	cc                   	int3   
  4113fc:	cc                   	int3   
  4113fd:	cc                   	int3   
  4113fe:	cc                   	int3   
  4113ff:	cc                   	int3   
  411400:	cc                   	int3   
  411401:	cc                   	int3   
  411402:	cc                   	int3   
  411403:	cc                   	int3   
  411404:	cc                   	int3   
  411405:	cc                   	int3   
  411406:	cc                   	int3   
  411407:	cc                   	int3   
  411408:	cc                   	int3   
  411409:	cc                   	int3   
  41140a:	cc                   	int3   
  41140b:	cc                   	int3   
  41140c:	cc                   	int3   
  41140d:	cc                   	int3   
  41140e:	cc                   	int3   
  41140f:	cc                   	int3   
  411410:	cc                   	int3   
  411411:	cc                   	int3   
  411412:	cc                   	int3   
  411413:	cc                   	int3   
  411414:	cc                   	int3   
  411415:	cc                   	int3   
  411416:	cc                   	int3   
  411417:	cc                   	int3   
  411418:	cc                   	int3   
  411419:	cc                   	int3   
  41141a:	cc                   	int3   
  41141b:	cc                   	int3   
  41141c:	cc                   	int3   
  41141d:	cc                   	int3   
  41141e:	cc                   	int3   
  41141f:	cc                   	int3   
  411420:	cc                   	int3   
  411421:	cc                   	int3   
  411422:	cc                   	int3   
  411423:	cc                   	int3   
  411424:	cc                   	int3   
  411425:	cc                   	int3   
  411426:	cc                   	int3   
  411427:	cc                   	int3   
  411428:	cc                   	int3   
  411429:	cc                   	int3   
  41142a:	cc                   	int3   
  41142b:	cc                   	int3   
  41142c:	cc                   	int3   
  41142d:	cc                   	int3   
  41142e:	cc                   	int3   
  41142f:	cc                   	int3   
  411430:	cc                   	int3   
  411431:	cc                   	int3   
  411432:	cc                   	int3   
  411433:	cc                   	int3   
  411434:	cc                   	int3   
  411435:	cc                   	int3   
  411436:	cc                   	int3   
  411437:	cc                   	int3   
  411438:	cc                   	int3   
  411439:	cc                   	int3   
  41143a:	cc                   	int3   
  41143b:	cc                   	int3   
  41143c:	cc                   	int3   
  41143d:	cc                   	int3   
  41143e:	cc                   	int3   
  41143f:	cc                   	int3   
  411440:	cc                   	int3   
  411441:	cc                   	int3   
  411442:	cc                   	int3   
  411443:	cc                   	int3   
  411444:	cc                   	int3   
  411445:	cc                   	int3   
  411446:	cc                   	int3   
  411447:	cc                   	int3   
  411448:	cc                   	int3   
  411449:	cc                   	int3   
  41144a:	cc                   	int3   
  41144b:	cc                   	int3   
  41144c:	cc                   	int3   
  41144d:	cc                   	int3   
  41144e:	cc                   	int3   
  41144f:	cc                   	int3   
  411450:	cc                   	int3   
  411451:	cc                   	int3   
  411452:	cc                   	int3   
  411453:	cc                   	int3   
  411454:	cc                   	int3   
  411455:	cc                   	int3   
  411456:	cc                   	int3   
  411457:	cc                   	int3   
  411458:	cc                   	int3   
  411459:	cc                   	int3   
  41145a:	cc                   	int3   
  41145b:	cc                   	int3   
  41145c:	cc                   	int3   
  41145d:	cc                   	int3   
  41145e:	cc                   	int3   
  41145f:	cc                   	int3   
  411460:	cc                   	int3   
  411461:	cc                   	int3   
  411462:	cc                   	int3   
  411463:	cc                   	int3   
  411464:	cc                   	int3   
  411465:	cc                   	int3   
  411466:	cc                   	int3   
  411467:	cc                   	int3   
  411468:	cc                   	int3   
  411469:	cc                   	int3   
  41146a:	cc                   	int3   
  41146b:	cc                   	int3   
  41146c:	cc                   	int3   
  41146d:	cc                   	int3   
  41146e:	cc                   	int3   
  41146f:	cc                   	int3   
  411470:	cc                   	int3   
  411471:	cc                   	int3   
  411472:	cc                   	int3   
  411473:	cc                   	int3   
  411474:	cc                   	int3   
  411475:	cc                   	int3   
  411476:	cc                   	int3   
  411477:	cc                   	int3   
  411478:	cc                   	int3   
  411479:	cc                   	int3   
  41147a:	cc                   	int3   
  41147b:	cc                   	int3   
  41147c:	cc                   	int3   
  41147d:	cc                   	int3   
  41147e:	cc                   	int3   
  41147f:	cc                   	int3   
  411480:	cc                   	int3   
  411481:	cc                   	int3   
  411482:	cc                   	int3   
  411483:	cc                   	int3   
  411484:	cc                   	int3   
  411485:	cc                   	int3   
  411486:	cc                   	int3   
  411487:	cc                   	int3   
  411488:	cc                   	int3   
  411489:	cc                   	int3   
  41148a:	cc                   	int3   
  41148b:	cc                   	int3   
  41148c:	cc                   	int3   
  41148d:	cc                   	int3   
  41148e:	cc                   	int3   
  41148f:	cc                   	int3   
  411490:	cc                   	int3   
  411491:	cc                   	int3   
  411492:	cc                   	int3   
  411493:	cc                   	int3   
  411494:	cc                   	int3   
  411495:	cc                   	int3   
  411496:	cc                   	int3   
  411497:	cc                   	int3   
  411498:	cc                   	int3   
  411499:	cc                   	int3   
  41149a:	cc                   	int3   
  41149b:	cc                   	int3   
  41149c:	cc                   	int3   
  41149d:	cc                   	int3   
  41149e:	cc                   	int3   
  41149f:	cc                   	int3   
  4114a0:	cc                   	int3   
  4114a1:	cc                   	int3   
  4114a2:	cc                   	int3   
  4114a3:	cc                   	int3   
  4114a4:	cc                   	int3   
  4114a5:	cc                   	int3   
  4114a6:	cc                   	int3   
  4114a7:	cc                   	int3   
  4114a8:	cc                   	int3   
  4114a9:	cc                   	int3   
  4114aa:	cc                   	int3   
  4114ab:	cc                   	int3   
  4114ac:	cc                   	int3   
  4114ad:	cc                   	int3   
  4114ae:	cc                   	int3   
  4114af:	cc                   	int3   
  4114b0:	cc                   	int3   
  4114b1:	cc                   	int3   
  4114b2:	cc                   	int3   
  4114b3:	cc                   	int3   
  4114b4:	cc                   	int3   
  4114b5:	cc                   	int3   
  4114b6:	cc                   	int3   
  4114b7:	cc                   	int3   
  4114b8:	cc                   	int3   
  4114b9:	cc                   	int3   
  4114ba:	cc                   	int3   
  4114bb:	cc                   	int3   
  4114bc:	cc                   	int3   
  4114bd:	cc                   	int3   
  4114be:	cc                   	int3   
  4114bf:	cc                   	int3   
  4114c0:	cc                   	int3   
  4114c1:	cc                   	int3   
  4114c2:	cc                   	int3   
  4114c3:	cc                   	int3   
  4114c4:	cc                   	int3   
  4114c5:	cc                   	int3   
  4114c6:	cc                   	int3   
  4114c7:	cc                   	int3   
  4114c8:	cc                   	int3   
  4114c9:	cc                   	int3   
  4114ca:	cc                   	int3   
  4114cb:	cc                   	int3   
  4114cc:	cc                   	int3   
  4114cd:	cc                   	int3   
  4114ce:	cc                   	int3   
  4114cf:	cc                   	int3   
  4114d0:	cc                   	int3   
  4114d1:	cc                   	int3   
  4114d2:	cc                   	int3   
  4114d3:	cc                   	int3   
  4114d4:	cc                   	int3   
  4114d5:	cc                   	int3   
  4114d6:	cc                   	int3   
  4114d7:	cc                   	int3   
  4114d8:	cc                   	int3   
  4114d9:	cc                   	int3   
  4114da:	cc                   	int3   
  4114db:	cc                   	int3   
  4114dc:	cc                   	int3   
  4114dd:	cc                   	int3   
  4114de:	cc                   	int3   
  4114df:	cc                   	int3   
  4114e0:	cc                   	int3   
  4114e1:	cc                   	int3   
  4114e2:	cc                   	int3   
  4114e3:	cc                   	int3   
  4114e4:	cc                   	int3   
  4114e5:	cc                   	int3   
  4114e6:	cc                   	int3   
  4114e7:	cc                   	int3   
  4114e8:	cc                   	int3   
  4114e9:	cc                   	int3   
  4114ea:	cc                   	int3   
  4114eb:	cc                   	int3   
  4114ec:	cc                   	int3   
  4114ed:	cc                   	int3   
  4114ee:	cc                   	int3   
  4114ef:	cc                   	int3   
  4114f0:	cc                   	int3   
  4114f1:	cc                   	int3   
  4114f2:	cc                   	int3   
  4114f3:	cc                   	int3   
  4114f4:	cc                   	int3   
  4114f5:	cc                   	int3   
  4114f6:	cc                   	int3   
  4114f7:	cc                   	int3   
  4114f8:	cc                   	int3   
  4114f9:	cc                   	int3   
  4114fa:	cc                   	int3   
  4114fb:	cc                   	int3   
  4114fc:	cc                   	int3   
  4114fd:	cc                   	int3   
  4114fe:	cc                   	int3   
  4114ff:	cc                   	int3   
  411500:	cc                   	int3   
  411501:	cc                   	int3   
  411502:	cc                   	int3   
  411503:	cc                   	int3   
  411504:	cc                   	int3   
  411505:	cc                   	int3   
  411506:	cc                   	int3   
  411507:	cc                   	int3   
  411508:	cc                   	int3   
  411509:	cc                   	int3   
  41150a:	cc                   	int3   
  41150b:	cc                   	int3   
  41150c:	cc                   	int3   
  41150d:	cc                   	int3   
  41150e:	cc                   	int3   
  41150f:	cc                   	int3   
  411510:	cc                   	int3   
  411511:	cc                   	int3   
  411512:	cc                   	int3   
  411513:	cc                   	int3   
  411514:	cc                   	int3   
  411515:	cc                   	int3   
  411516:	cc                   	int3   
  411517:	cc                   	int3   
  411518:	cc                   	int3   
  411519:	cc                   	int3   
  41151a:	cc                   	int3   
  41151b:	cc                   	int3   
  41151c:	cc                   	int3   
  41151d:	cc                   	int3   
  41151e:	cc                   	int3   
  41151f:	cc                   	int3   
  411520:	cc                   	int3   
  411521:	cc                   	int3   
  411522:	cc                   	int3   
  411523:	cc                   	int3   
  411524:	cc                   	int3   
  411525:	cc                   	int3   
  411526:	cc                   	int3   
  411527:	cc                   	int3   
  411528:	cc                   	int3   
  411529:	cc                   	int3   
  41152a:	cc                   	int3   
  41152b:	cc                   	int3   
  41152c:	cc                   	int3   
  41152d:	cc                   	int3   
  41152e:	cc                   	int3   
  41152f:	cc                   	int3   
  411530:	cc                   	int3   
  411531:	cc                   	int3   
  411532:	cc                   	int3   
  411533:	cc                   	int3   
  411534:	cc                   	int3   
  411535:	cc                   	int3   
  411536:	cc                   	int3   
  411537:	cc                   	int3   
  411538:	cc                   	int3   
  411539:	cc                   	int3   
  41153a:	cc                   	int3   
  41153b:	cc                   	int3   
  41153c:	cc                   	int3   
  41153d:	cc                   	int3   
  41153e:	cc                   	int3   
  41153f:	cc                   	int3   
  411540:	cc                   	int3   
  411541:	cc                   	int3   
  411542:	cc                   	int3   
  411543:	cc                   	int3   
  411544:	cc                   	int3   
  411545:	cc                   	int3   
  411546:	cc                   	int3   
  411547:	cc                   	int3   
  411548:	cc                   	int3   
  411549:	cc                   	int3   
  41154a:	cc                   	int3   
  41154b:	cc                   	int3   
  41154c:	cc                   	int3   
  41154d:	cc                   	int3   
  41154e:	cc                   	int3   
  41154f:	cc                   	int3   
  411550:	cc                   	int3   
  411551:	cc                   	int3   
  411552:	cc                   	int3   
  411553:	cc                   	int3   
  411554:	cc                   	int3   
  411555:	cc                   	int3   
  411556:	cc                   	int3   
  411557:	cc                   	int3   
  411558:	cc                   	int3   
  411559:	cc                   	int3   
  41155a:	cc                   	int3   
  41155b:	cc                   	int3   
  41155c:	cc                   	int3   
  41155d:	cc                   	int3   
  41155e:	cc                   	int3   
  41155f:	cc                   	int3   
  411560:	cc                   	int3   
  411561:	cc                   	int3   
  411562:	cc                   	int3   
  411563:	cc                   	int3   
  411564:	cc                   	int3   
  411565:	cc                   	int3   
  411566:	cc                   	int3   
  411567:	cc                   	int3   
  411568:	cc                   	int3   
  411569:	cc                   	int3   
  41156a:	cc                   	int3   
  41156b:	cc                   	int3   
  41156c:	cc                   	int3   
  41156d:	cc                   	int3   
  41156e:	cc                   	int3   
  41156f:	cc                   	int3   
  411570:	cc                   	int3   
  411571:	cc                   	int3   
  411572:	cc                   	int3   
  411573:	cc                   	int3   
  411574:	cc                   	int3   
  411575:	cc                   	int3   
  411576:	cc                   	int3   
  411577:	cc                   	int3   
  411578:	cc                   	int3   
  411579:	cc                   	int3   
  41157a:	cc                   	int3   
  41157b:	cc                   	int3   
  41157c:	cc                   	int3   
  41157d:	cc                   	int3   
  41157e:	cc                   	int3   
  41157f:	cc                   	int3   
  411580:	cc                   	int3   
  411581:	cc                   	int3   
  411582:	cc                   	int3   
  411583:	cc                   	int3   
  411584:	cc                   	int3   
  411585:	cc                   	int3   
  411586:	cc                   	int3   
  411587:	cc                   	int3   
  411588:	cc                   	int3   
  411589:	cc                   	int3   
  41158a:	cc                   	int3   
  41158b:	cc                   	int3   
  41158c:	cc                   	int3   
  41158d:	cc                   	int3   
  41158e:	cc                   	int3   
  41158f:	cc                   	int3   
  411590:	cc                   	int3   
  411591:	cc                   	int3   
  411592:	cc                   	int3   
  411593:	cc                   	int3   
  411594:	cc                   	int3   
  411595:	cc                   	int3   
  411596:	cc                   	int3   
  411597:	cc                   	int3   
  411598:	cc                   	int3   
  411599:	cc                   	int3   
  41159a:	cc                   	int3   
  41159b:	cc                   	int3   
  41159c:	cc                   	int3   
  41159d:	cc                   	int3   
  41159e:	cc                   	int3   
  41159f:	cc                   	int3   
  4115a0:	cc                   	int3   
  4115a1:	cc                   	int3   
  4115a2:	cc                   	int3   
  4115a3:	cc                   	int3   
  4115a4:	cc                   	int3   
  4115a5:	cc                   	int3   
  4115a6:	cc                   	int3   
  4115a7:	cc                   	int3   
  4115a8:	cc                   	int3   
  4115a9:	cc                   	int3   
  4115aa:	cc                   	int3   
  4115ab:	cc                   	int3   
  4115ac:	cc                   	int3   
  4115ad:	cc                   	int3   
  4115ae:	cc                   	int3   
  4115af:	cc                   	int3   
  4115b0:	cc                   	int3   
  4115b1:	cc                   	int3   
  4115b2:	cc                   	int3   
  4115b3:	cc                   	int3   
  4115b4:	cc                   	int3   
  4115b5:	cc                   	int3   
  4115b6:	cc                   	int3   
  4115b7:	cc                   	int3   
  4115b8:	cc                   	int3   
  4115b9:	cc                   	int3   
  4115ba:	cc                   	int3   
  4115bb:	cc                   	int3   
  4115bc:	cc                   	int3   
  4115bd:	cc                   	int3   
  4115be:	cc                   	int3   
  4115bf:	cc                   	int3   
  4115c0:	cc                   	int3   
  4115c1:	cc                   	int3   
  4115c2:	cc                   	int3   
  4115c3:	cc                   	int3   
  4115c4:	cc                   	int3   
  4115c5:	cc                   	int3   
  4115c6:	cc                   	int3   
  4115c7:	cc                   	int3   
  4115c8:	cc                   	int3   
  4115c9:	cc                   	int3   
  4115ca:	cc                   	int3   
  4115cb:	cc                   	int3   
  4115cc:	cc                   	int3   
  4115cd:	cc                   	int3   
  4115ce:	cc                   	int3   
  4115cf:	cc                   	int3   
  4115d0:	cc                   	int3   
  4115d1:	cc                   	int3   
  4115d2:	cc                   	int3   
  4115d3:	cc                   	int3   
  4115d4:	cc                   	int3   
  4115d5:	cc                   	int3   
  4115d6:	cc                   	int3   
  4115d7:	cc                   	int3   
  4115d8:	cc                   	int3   
  4115d9:	cc                   	int3   
  4115da:	cc                   	int3   
  4115db:	cc                   	int3   
  4115dc:	cc                   	int3   
  4115dd:	cc                   	int3   
  4115de:	cc                   	int3   
  4115df:	cc                   	int3   
  4115e0:	cc                   	int3   
  4115e1:	cc                   	int3   
  4115e2:	cc                   	int3   
  4115e3:	cc                   	int3   
  4115e4:	cc                   	int3   
  4115e5:	cc                   	int3   
  4115e6:	cc                   	int3   
  4115e7:	cc                   	int3   
  4115e8:	cc                   	int3   
  4115e9:	cc                   	int3   
  4115ea:	cc                   	int3   
  4115eb:	cc                   	int3   
  4115ec:	cc                   	int3   
  4115ed:	cc                   	int3   
  4115ee:	cc                   	int3   
  4115ef:	cc                   	int3   
  4115f0:	cc                   	int3   
  4115f1:	cc                   	int3   
  4115f2:	cc                   	int3   
  4115f3:	cc                   	int3   
  4115f4:	cc                   	int3   
  4115f5:	cc                   	int3   
  4115f6:	cc                   	int3   
  4115f7:	cc                   	int3   
  4115f8:	cc                   	int3   
  4115f9:	cc                   	int3   
  4115fa:	cc                   	int3   
  4115fb:	cc                   	int3   
  4115fc:	cc                   	int3   
  4115fd:	cc                   	int3   
  4115fe:	cc                   	int3   
  4115ff:	cc                   	int3   
  411600:	cc                   	int3   
  411601:	cc                   	int3   
  411602:	cc                   	int3   
  411603:	cc                   	int3   
  411604:	cc                   	int3   
  411605:	cc                   	int3   
  411606:	cc                   	int3   
  411607:	cc                   	int3   
  411608:	cc                   	int3   
  411609:	cc                   	int3   
  41160a:	cc                   	int3   
  41160b:	cc                   	int3   
  41160c:	cc                   	int3   
  41160d:	cc                   	int3   
  41160e:	cc                   	int3   
  41160f:	cc                   	int3   
  411610:	cc                   	int3   
  411611:	cc                   	int3   
  411612:	cc                   	int3   
  411613:	cc                   	int3   
  411614:	cc                   	int3   
  411615:	cc                   	int3   
  411616:	cc                   	int3   
  411617:	cc                   	int3   
  411618:	cc                   	int3   
  411619:	cc                   	int3   
  41161a:	cc                   	int3   
  41161b:	cc                   	int3   
  41161c:	cc                   	int3   
  41161d:	cc                   	int3   
  41161e:	cc                   	int3   
  41161f:	cc                   	int3   
  411620:	cc                   	int3   
  411621:	cc                   	int3   
  411622:	cc                   	int3   
  411623:	cc                   	int3   
  411624:	cc                   	int3   
  411625:	cc                   	int3   
  411626:	cc                   	int3   
  411627:	cc                   	int3   
  411628:	cc                   	int3   
  411629:	cc                   	int3   
  41162a:	cc                   	int3   
  41162b:	cc                   	int3   
  41162c:	cc                   	int3   
  41162d:	cc                   	int3   
  41162e:	cc                   	int3   
  41162f:	cc                   	int3   
  411630:	cc                   	int3   
  411631:	cc                   	int3   
  411632:	cc                   	int3   
  411633:	cc                   	int3   
  411634:	cc                   	int3   
  411635:	cc                   	int3   
  411636:	cc                   	int3   
  411637:	cc                   	int3   
  411638:	cc                   	int3   
  411639:	cc                   	int3   
  41163a:	cc                   	int3   
  41163b:	cc                   	int3   
  41163c:	cc                   	int3   
  41163d:	cc                   	int3   
  41163e:	cc                   	int3   
  41163f:	cc                   	int3   
  411640:	cc                   	int3   
  411641:	cc                   	int3   
  411642:	cc                   	int3   
  411643:	cc                   	int3   
  411644:	cc                   	int3   
  411645:	cc                   	int3   
  411646:	cc                   	int3   
  411647:	cc                   	int3   
  411648:	cc                   	int3   
  411649:	cc                   	int3   
  41164a:	cc                   	int3   
  41164b:	cc                   	int3   
  41164c:	cc                   	int3   
  41164d:	cc                   	int3   
  41164e:	cc                   	int3   
  41164f:	cc                   	int3   
  411650:	cc                   	int3   
  411651:	cc                   	int3   
  411652:	cc                   	int3   
  411653:	cc                   	int3   
  411654:	cc                   	int3   
  411655:	cc                   	int3   
  411656:	cc                   	int3   
  411657:	cc                   	int3   
  411658:	cc                   	int3   
  411659:	cc                   	int3   
  41165a:	cc                   	int3   
  41165b:	cc                   	int3   
  41165c:	cc                   	int3   
  41165d:	cc                   	int3   
  41165e:	cc                   	int3   
  41165f:	cc                   	int3   
  411660:	cc                   	int3   
  411661:	cc                   	int3   
  411662:	cc                   	int3   
  411663:	cc                   	int3   
  411664:	cc                   	int3   
  411665:	cc                   	int3   
  411666:	cc                   	int3   
  411667:	cc                   	int3   
  411668:	cc                   	int3   
  411669:	cc                   	int3   
  41166a:	cc                   	int3   
  41166b:	cc                   	int3   
  41166c:	cc                   	int3   
  41166d:	cc                   	int3   
  41166e:	cc                   	int3   
  41166f:	cc                   	int3   
  411670:	cc                   	int3   
  411671:	cc                   	int3   
  411672:	cc                   	int3   
  411673:	cc                   	int3   
  411674:	cc                   	int3   
  411675:	cc                   	int3   
  411676:	cc                   	int3   
  411677:	cc                   	int3   
  411678:	cc                   	int3   
  411679:	cc                   	int3   
  41167a:	cc                   	int3   
  41167b:	cc                   	int3   
  41167c:	cc                   	int3   
  41167d:	cc                   	int3   
  41167e:	cc                   	int3   
  41167f:	cc                   	int3   
  411680:	cc                   	int3   
  411681:	cc                   	int3   
  411682:	cc                   	int3   
  411683:	cc                   	int3   
  411684:	cc                   	int3   
  411685:	cc                   	int3   
  411686:	cc                   	int3   
  411687:	cc                   	int3   
  411688:	cc                   	int3   
  411689:	cc                   	int3   
  41168a:	cc                   	int3   
  41168b:	cc                   	int3   
  41168c:	cc                   	int3   
  41168d:	cc                   	int3   
  41168e:	cc                   	int3   
  41168f:	cc                   	int3   
  411690:	cc                   	int3   
  411691:	cc                   	int3   
  411692:	cc                   	int3   
  411693:	cc                   	int3   
  411694:	cc                   	int3   
  411695:	cc                   	int3   
  411696:	cc                   	int3   
  411697:	cc                   	int3   
  411698:	cc                   	int3   
  411699:	cc                   	int3   
  41169a:	cc                   	int3   
  41169b:	cc                   	int3   
  41169c:	cc                   	int3   
  41169d:	cc                   	int3   
  41169e:	cc                   	int3   
  41169f:	cc                   	int3   
  4116a0:	cc                   	int3   
  4116a1:	cc                   	int3   
  4116a2:	cc                   	int3   
  4116a3:	cc                   	int3   
  4116a4:	cc                   	int3   
  4116a5:	cc                   	int3   
  4116a6:	cc                   	int3   
  4116a7:	cc                   	int3   
  4116a8:	cc                   	int3   
  4116a9:	cc                   	int3   
  4116aa:	cc                   	int3   
  4116ab:	cc                   	int3   
  4116ac:	cc                   	int3   
  4116ad:	cc                   	int3   
  4116ae:	cc                   	int3   
  4116af:	cc                   	int3   
  4116b0:	cc                   	int3   
  4116b1:	cc                   	int3   
  4116b2:	cc                   	int3   
  4116b3:	cc                   	int3   
  4116b4:	cc                   	int3   
  4116b5:	cc                   	int3   
  4116b6:	cc                   	int3   
  4116b7:	cc                   	int3   
  4116b8:	cc                   	int3   
  4116b9:	cc                   	int3   
  4116ba:	cc                   	int3   
  4116bb:	cc                   	int3   
  4116bc:	cc                   	int3   
  4116bd:	cc                   	int3   
  4116be:	cc                   	int3   
  4116bf:	cc                   	int3   
  4116c0:	cc                   	int3   
  4116c1:	cc                   	int3   
  4116c2:	cc                   	int3   
  4116c3:	cc                   	int3   
  4116c4:	cc                   	int3   
  4116c5:	cc                   	int3   
  4116c6:	cc                   	int3   
  4116c7:	cc                   	int3   
  4116c8:	cc                   	int3   
  4116c9:	cc                   	int3   
  4116ca:	cc                   	int3   
  4116cb:	cc                   	int3   
  4116cc:	cc                   	int3   
  4116cd:	cc                   	int3   
  4116ce:	cc                   	int3   
  4116cf:	cc                   	int3   
  4116d0:	cc                   	int3   
  4116d1:	cc                   	int3   
  4116d2:	cc                   	int3   
  4116d3:	cc                   	int3   
  4116d4:	cc                   	int3   
  4116d5:	cc                   	int3   
  4116d6:	cc                   	int3   
  4116d7:	cc                   	int3   
  4116d8:	cc                   	int3   
  4116d9:	cc                   	int3   
  4116da:	cc                   	int3   
  4116db:	cc                   	int3   
  4116dc:	cc                   	int3   
  4116dd:	cc                   	int3   
  4116de:	cc                   	int3   
  4116df:	cc                   	int3   
  4116e0:	cc                   	int3   
  4116e1:	cc                   	int3   
  4116e2:	cc                   	int3   
  4116e3:	cc                   	int3   
  4116e4:	cc                   	int3   
  4116e5:	cc                   	int3   
  4116e6:	cc                   	int3   
  4116e7:	cc                   	int3   
  4116e8:	cc                   	int3   
  4116e9:	cc                   	int3   
  4116ea:	cc                   	int3   
  4116eb:	cc                   	int3   
  4116ec:	cc                   	int3   
  4116ed:	cc                   	int3   
  4116ee:	cc                   	int3   
  4116ef:	cc                   	int3   
  4116f0:	cc                   	int3   
  4116f1:	cc                   	int3   
  4116f2:	cc                   	int3   
  4116f3:	cc                   	int3   
  4116f4:	cc                   	int3   
  4116f5:	cc                   	int3   
  4116f6:	cc                   	int3   
  4116f7:	cc                   	int3   
  4116f8:	cc                   	int3   
  4116f9:	cc                   	int3   
  4116fa:	cc                   	int3   
  4116fb:	cc                   	int3   
  4116fc:	cc                   	int3   
  4116fd:	cc                   	int3   
  4116fe:	cc                   	int3   
  4116ff:	cc                   	int3   
  411700:	cc                   	int3   
  411701:	cc                   	int3   
  411702:	cc                   	int3   
  411703:	cc                   	int3   
  411704:	cc                   	int3   
  411705:	cc                   	int3   
  411706:	cc                   	int3   
  411707:	cc                   	int3   
  411708:	cc                   	int3   
  411709:	cc                   	int3   
  41170a:	cc                   	int3   
  41170b:	cc                   	int3   
  41170c:	cc                   	int3   
  41170d:	cc                   	int3   
  41170e:	cc                   	int3   
  41170f:	cc                   	int3   
  411710:	55                   	push   %ebp
  411711:	8b ec                	mov    %esp,%ebp
  411713:	81 ec c0 00 00 00    	sub    $0xc0,%esp
  411719:	53                   	push   %ebx
  41171a:	56                   	push   %esi
  41171b:	57                   	push   %edi
  41171c:	8d bd 40 ff ff ff    	lea    -0xc0(%ebp),%edi
  411722:	b9 30 00 00 00       	mov    $0x30,%ecx
  411727:	b8 cc cc cc cc       	mov    $0xcccccccc,%eax
  41172c:	f3 ab                	rep stos %eax,%es:(%edi)
  41172e:	5f                   	pop    %edi
  41172f:	5e                   	pop    %esi
  411730:	5b                   	pop    %ebx
  411731:	8b e5                	mov    %ebp,%esp
  411733:	5d                   	pop    %ebp
  411734:	c3                   	ret    
  411735:	cc                   	int3   
  411736:	cc                   	int3   
  411737:	cc                   	int3   
  411738:	cc                   	int3   
  411739:	cc                   	int3   
  41173a:	cc                   	int3   
  41173b:	cc                   	int3   
  41173c:	cc                   	int3   
  41173d:	cc                   	int3   
  41173e:	cc                   	int3   
  41173f:	cc                   	int3   
  411740:	55                   	push   %ebp
  411741:	8b ec                	mov    %esp,%ebp
  411743:	81 ec c0 00 00 00    	sub    $0xc0,%esp
  411749:	53                   	push   %ebx
  41174a:	56                   	push   %esi
  41174b:	57                   	push   %edi
  41174c:	8d bd 40 ff ff ff    	lea    -0xc0(%ebp),%edi
  411752:	b9 30 00 00 00       	mov    $0x30,%ecx
  411757:	b8 cc cc cc cc       	mov    $0xcccccccc,%eax
  41175c:	f3 ab                	rep stos %eax,%es:(%edi)
  41175e:	5f                   	pop    %edi
  41175f:	5e                   	pop    %esi
  411760:	5b                   	pop    %ebx
  411761:	8b e5                	mov    %ebp,%esp
  411763:	5d                   	pop    %ebp
  411764:	c3                   	ret    
  411765:	cc                   	int3   
  411766:	cc                   	int3   
  411767:	cc                   	int3   
  411768:	cc                   	int3   
  411769:	cc                   	int3   
  41176a:	cc                   	int3   
  41176b:	cc                   	int3   
  41176c:	cc                   	int3   
  41176d:	cc                   	int3   
  41176e:	cc                   	int3   
  41176f:	cc                   	int3   
  411770:	55                   	push   %ebp
  411771:	8b ec                	mov    %esp,%ebp
  411773:	81 ec c0 00 00 00    	sub    $0xc0,%esp
  411779:	53                   	push   %ebx
  41177a:	56                   	push   %esi
  41177b:	57                   	push   %edi
  41177c:	8d bd 40 ff ff ff    	lea    -0xc0(%ebp),%edi
  411782:	b9 30 00 00 00       	mov    $0x30,%ecx
  411787:	b8 cc cc cc cc       	mov    $0xcccccccc,%eax
  41178c:	f3 ab                	rep stos %eax,%es:(%edi)
  41178e:	5f                   	pop    %edi
  41178f:	5e                   	pop    %esi
  411790:	5b                   	pop    %ebx
  411791:	8b e5                	mov    %ebp,%esp
  411793:	5d                   	pop    %ebp
  411794:	c3                   	ret    
  411795:	cc                   	int3   
  411796:	cc                   	int3   
  411797:	cc                   	int3   
  411798:	cc                   	int3   
  411799:	cc                   	int3   
  41179a:	cc                   	int3   
  41179b:	cc                   	int3   
  41179c:	cc                   	int3   
  41179d:	cc                   	int3   
  41179e:	cc                   	int3   
  41179f:	cc                   	int3   
  4117a0:	55                   	push   %ebp
  4117a1:	8b ec                	mov    %esp,%ebp
  4117a3:	81 ec c0 00 00 00    	sub    $0xc0,%esp
  4117a9:	53                   	push   %ebx
  4117aa:	56                   	push   %esi
  4117ab:	57                   	push   %edi
  4117ac:	8d bd 40 ff ff ff    	lea    -0xc0(%ebp),%edi
  4117b2:	b9 30 00 00 00       	mov    $0x30,%ecx
  4117b7:	b8 cc cc cc cc       	mov    $0xcccccccc,%eax
  4117bc:	f3 ab                	rep stos %eax,%es:(%edi)
  4117be:	b8 38 a1 41 00       	mov    $0x41a138,%eax
  4117c3:	5f                   	pop    %edi
  4117c4:	5e                   	pop    %esi
  4117c5:	5b                   	pop    %ebx
  4117c6:	8b e5                	mov    %ebp,%esp
  4117c8:	5d                   	pop    %ebp
  4117c9:	c3                   	ret    
  4117ca:	cc                   	int3   
  4117cb:	cc                   	int3   
  4117cc:	cc                   	int3   
  4117cd:	cc                   	int3   
  4117ce:	cc                   	int3   
  4117cf:	cc                   	int3   
  4117d0:	cc                   	int3   
  4117d1:	cc                   	int3   
  4117d2:	cc                   	int3   
  4117d3:	cc                   	int3   
  4117d4:	cc                   	int3   
  4117d5:	cc                   	int3   
  4117d6:	cc                   	int3   
  4117d7:	cc                   	int3   
  4117d8:	cc                   	int3   
  4117d9:	cc                   	int3   
  4117da:	cc                   	int3   
  4117db:	cc                   	int3   
  4117dc:	cc                   	int3   
  4117dd:	cc                   	int3   
  4117de:	cc                   	int3   
  4117df:	cc                   	int3   
  4117e0:	55                   	push   %ebp
  4117e1:	8b ec                	mov    %esp,%ebp
  4117e3:	81 ec c0 00 00 00    	sub    $0xc0,%esp
  4117e9:	53                   	push   %ebx
  4117ea:	56                   	push   %esi
  4117eb:	57                   	push   %edi
  4117ec:	8d bd 40 ff ff ff    	lea    -0xc0(%ebp),%edi
  4117f2:	b9 30 00 00 00       	mov    $0x30,%ecx
  4117f7:	b8 cc cc cc cc       	mov    $0xcccccccc,%eax
  4117fc:	f3 ab                	rep stos %eax,%es:(%edi)
  4117fe:	8b f4                	mov    %esp,%esi
  411800:	8b 45 14             	mov    0x14(%ebp),%eax
  411803:	50                   	push   %eax
  411804:	8b 4d 10             	mov    0x10(%ebp),%ecx
  411807:	51                   	push   %ecx
  411808:	8b 55 0c             	mov    0xc(%ebp),%edx
  41180b:	52                   	push   %edx
  41180c:	8b 45 08             	mov    0x8(%ebp),%eax
  41180f:	50                   	push   %eax
  411810:	e8 47 fb ff ff       	call   0x41135c
  411815:	8b 48 04             	mov    0x4(%eax),%ecx
  411818:	51                   	push   %ecx
  411819:	8b 10                	mov    (%eax),%edx
  41181b:	52                   	push   %edx
  41181c:	ff 15 6c b1 41 00    	call   *0x41b16c
  411822:	83 c4 18             	add    $0x18,%esp
  411825:	3b f4                	cmp    %esp,%esi
  411827:	e8 fb f8 ff ff       	call   0x411127
  41182c:	5f                   	pop    %edi
  41182d:	5e                   	pop    %esi
  41182e:	5b                   	pop    %ebx
  41182f:	81 c4 c0 00 00 00    	add    $0xc0,%esp
  411835:	3b ec                	cmp    %esp,%ebp
  411837:	e8 eb f8 ff ff       	call   0x411127
  41183c:	8b e5                	mov    %ebp,%esp
  41183e:	5d                   	pop    %ebp
  41183f:	c3                   	ret    
  411840:	cc                   	int3   
  411841:	cc                   	int3   
  411842:	cc                   	int3   
  411843:	cc                   	int3   
  411844:	cc                   	int3   
  411845:	cc                   	int3   
  411846:	cc                   	int3   
  411847:	cc                   	int3   
  411848:	cc                   	int3   
  411849:	cc                   	int3   
  41184a:	cc                   	int3   
  41184b:	cc                   	int3   
  41184c:	cc                   	int3   
  41184d:	cc                   	int3   
  41184e:	cc                   	int3   
  41184f:	cc                   	int3   
  411850:	cc                   	int3   
  411851:	cc                   	int3   
  411852:	cc                   	int3   
  411853:	cc                   	int3   
  411854:	cc                   	int3   
  411855:	cc                   	int3   
  411856:	cc                   	int3   
  411857:	cc                   	int3   
  411858:	cc                   	int3   
  411859:	cc                   	int3   
  41185a:	cc                   	int3   
  41185b:	cc                   	int3   
  41185c:	cc                   	int3   
  41185d:	cc                   	int3   
  41185e:	cc                   	int3   
  41185f:	cc                   	int3   
  411860:	55                   	push   %ebp
  411861:	8b ec                	mov    %esp,%ebp
  411863:	81 ec d8 00 00 00    	sub    $0xd8,%esp
  411869:	53                   	push   %ebx
  41186a:	56                   	push   %esi
  41186b:	57                   	push   %edi
  41186c:	8d bd 28 ff ff ff    	lea    -0xd8(%ebp),%edi
  411872:	b9 36 00 00 00       	mov    $0x36,%ecx
  411877:	b8 cc cc cc cc       	mov    $0xcccccccc,%eax
  41187c:	f3 ab                	rep stos %eax,%es:(%edi)
  41187e:	e8 62 f9 ff ff       	call   0x4111e5
  411883:	8d 45 10             	lea    0x10(%ebp),%eax
  411886:	89 45 ec             	mov    %eax,-0x14(%ebp)
  411889:	8b 45 ec             	mov    -0x14(%ebp),%eax
  41188c:	50                   	push   %eax
  41188d:	6a 00                	push   $0x0
  41188f:	8b 4d 0c             	mov    0xc(%ebp),%ecx
  411892:	51                   	push   %ecx
  411893:	8b 55 08             	mov    0x8(%ebp),%edx
  411896:	52                   	push   %edx
  411897:	e8 08 f9 ff ff       	call   0x4111a4
  41189c:	83 c4 10             	add    $0x10,%esp
  41189f:	89 45 f8             	mov    %eax,-0x8(%ebp)
  4118a2:	c7 45 ec 00 00 00 00 	movl   $0x0,-0x14(%ebp)
  4118a9:	8b 45 f8             	mov    -0x8(%ebp),%eax
  4118ac:	5f                   	pop    %edi
  4118ad:	5e                   	pop    %esi
  4118ae:	5b                   	pop    %ebx
  4118af:	81 c4 d8 00 00 00    	add    $0xd8,%esp
  4118b5:	3b ec                	cmp    %esp,%ebp
  4118b7:	e8 6b f8 ff ff       	call   0x411127
  4118bc:	8b e5                	mov    %ebp,%esp
  4118be:	5d                   	pop    %ebp
  4118bf:	c3                   	ret    
  4118c0:	cc                   	int3   
  4118c1:	cc                   	int3   
  4118c2:	cc                   	int3   
  4118c3:	cc                   	int3   
  4118c4:	cc                   	int3   
  4118c5:	cc                   	int3   
  4118c6:	cc                   	int3   
  4118c7:	cc                   	int3   
  4118c8:	cc                   	int3   
  4118c9:	cc                   	int3   
  4118ca:	cc                   	int3   
  4118cb:	cc                   	int3   
  4118cc:	cc                   	int3   
  4118cd:	cc                   	int3   
  4118ce:	cc                   	int3   
  4118cf:	cc                   	int3   
  4118d0:	cc                   	int3   
  4118d1:	cc                   	int3   
  4118d2:	cc                   	int3   
  4118d3:	cc                   	int3   
  4118d4:	cc                   	int3   
  4118d5:	cc                   	int3   
  4118d6:	cc                   	int3   
  4118d7:	cc                   	int3   
  4118d8:	cc                   	int3   
  4118d9:	cc                   	int3   
  4118da:	cc                   	int3   
  4118db:	cc                   	int3   
  4118dc:	cc                   	int3   
  4118dd:	cc                   	int3   
  4118de:	cc                   	int3   
  4118df:	cc                   	int3   
  4118e0:	55                   	push   %ebp
  4118e1:	8b ec                	mov    %esp,%ebp
  4118e3:	81 ec 14 01 00 00    	sub    $0x114,%esp
  4118e9:	53                   	push   %ebx
  4118ea:	56                   	push   %esi
  4118eb:	57                   	push   %edi
  4118ec:	8d bd ec fe ff ff    	lea    -0x114(%ebp),%edi
  4118f2:	b9 45 00 00 00       	mov    $0x45,%ecx
  4118f7:	b8 cc cc cc cc       	mov    $0xcccccccc,%eax
  4118fc:	f3 ab                	rep stos %eax,%es:(%edi)
  4118fe:	a1 00 a0 41 00       	mov    0x41a000,%eax
  411903:	33 c5                	xor    %ebp,%eax
  411905:	89 45 fc             	mov    %eax,-0x4(%ebp)
  411908:	c7 45 f4 00 00 00 00 	movl   $0x0,-0xc(%ebp)
  41190f:	c7 45 c8 42 72 65 61 	movl   $0x61657242,-0x38(%ebp)
  411916:	c7 45 cc 6b 41 6c 6c 	movl   $0x6c6c416b,-0x34(%ebp)
  41191d:	c7 45 d0 43 54 46 7b 	movl   $0x7b465443,-0x30(%ebp)
  411924:	c7 45 d4 59 33 35 5f 	movl   $0x5f353359,-0x2c(%ebp)
  41192b:	c7 45 d8 31 5f 6d 33 	movl   $0x336d5f31,-0x28(%ebp)
  411932:	c7 45 dc 61 6e 5f 37 	movl   $0x375f6e61,-0x24(%ebp)
  411939:	c7 45 e0 68 31 73 5f 	movl   $0x5f733168,-0x20(%ebp)
  411940:	c7 45 e4 30 6e 33 7d 	movl   $0x7d336e30,-0x1c(%ebp)
  411947:	c7 45 e8 00 00 00 00 	movl   $0x0,-0x18(%ebp)
  41194e:	8b f4                	mov    %esp,%esi
  411950:	68 30 7b 41 00       	push   $0x417b30
  411955:	68 34 7b 41 00       	push   $0x417b34
  41195a:	ff 15 74 b1 41 00    	call   *0x41b174
  411960:	83 c4 08             	add    $0x8,%esp
  411963:	3b f4                	cmp    %esp,%esi
  411965:	e8 bd f7 ff ff       	call   0x411127
  41196a:	89 45 bc             	mov    %eax,-0x44(%ebp)
  41196d:	83 7d bc 00          	cmpl   $0x0,-0x44(%ebp)
  411971:	74 4f                	je     0x4119c2
  411973:	8b f4                	mov    %esp,%esi
  411975:	68 60 7b 41 00       	push   $0x417b60
  41197a:	ff 15 70 b1 41 00    	call   *0x41b170
  411980:	83 c4 04             	add    $0x4,%esp
  411983:	3b f4                	cmp    %esp,%esi
  411985:	e8 9d f7 ff ff       	call   0x411127
  41198a:	8d 45 c8             	lea    -0x38(%ebp),%eax
  41198d:	89 45 b0             	mov    %eax,-0x50(%ebp)
  411990:	8b 45 b0             	mov    -0x50(%ebp),%eax
  411993:	83 38 00             	cmpl   $0x0,(%eax)
  411996:	74 28                	je     0x4119c0
  411998:	8b 45 b0             	mov    -0x50(%ebp),%eax
  41199b:	8b 08                	mov    (%eax),%ecx
  41199d:	89 4d f4             	mov    %ecx,-0xc(%ebp)
  4119a0:	8b 55 b0             	mov    -0x50(%ebp),%edx
  4119a3:	83 c2 04             	add    $0x4,%edx
  4119a6:	89 55 b0             	mov    %edx,-0x50(%ebp)
  4119a9:	8d 45 f4             	lea    -0xc(%ebp),%eax
  4119ac:	50                   	push   %eax
  4119ad:	68 94 7b 41 00       	push   $0x417b94
  4119b2:	8b 4d bc             	mov    -0x44(%ebp),%ecx
  4119b5:	51                   	push   %ecx
  4119b6:	e8 a7 f8 ff ff       	call   0x411262
  4119bb:	83 c4 0c             	add    $0xc,%esp
  4119be:	eb d0                	jmp    0x411990
  4119c0:	eb 17                	jmp    0x4119d9
  4119c2:	8b f4                	mov    %esp,%esi
  4119c4:	68 9c 7b 41 00       	push   $0x417b9c
  4119c9:	ff 15 70 b1 41 00    	call   *0x41b170
  4119cf:	83 c4 04             	add    $0x4,%esp
  4119d2:	3b f4                	cmp    %esp,%esi
  4119d4:	e8 4e f7 ff ff       	call   0x411127
  4119d9:	8b f4                	mov    %esp,%esi
  4119db:	68 c0 7b 41 00       	push   $0x417bc0
  4119e0:	ff 15 68 b1 41 00    	call   *0x41b168
  4119e6:	83 c4 04             	add    $0x4,%esp
  4119e9:	3b f4                	cmp    %esp,%esi
  4119eb:	e8 37 f7 ff ff       	call   0x411127
  4119f0:	33 c0                	xor    %eax,%eax
  4119f2:	52                   	push   %edx
  4119f3:	8b cd                	mov    %ebp,%ecx
  4119f5:	50                   	push   %eax
  4119f6:	8d 15 24 1a 41 00    	lea    0x411a24,%edx
  4119fc:	e8 7a f8 ff ff       	call   0x41127b
  411a01:	58                   	pop    %eax
  411a02:	5a                   	pop    %edx
  411a03:	5f                   	pop    %edi
  411a04:	5e                   	pop    %esi
  411a05:	5b                   	pop    %ebx
  411a06:	8b 4d fc             	mov    -0x4(%ebp),%ecx
  411a09:	33 cd                	xor    %ebp,%ecx
  411a0b:	e8 7f f8 ff ff       	call   0x41128f
  411a10:	81 c4 14 01 00 00    	add    $0x114,%esp
  411a16:	3b ec                	cmp    %esp,%ebp
  411a18:	e8 0a f7 ff ff       	call   0x411127
  411a1d:	8b e5                	mov    %ebp,%esp
  411a1f:	5d                   	pop    %ebp
  411a20:	c3                   	ret    
  411a21:	0f 1f 00             	nopl   (%eax)
  411a24:	02 00                	add    (%eax),%al
  411a26:	00 00                	add    %al,(%eax)
  411a28:	2c 1a                	sub    $0x1a,%al
  411a2a:	41                   	inc    %ecx
  411a2b:	00 f4                	add    %dh,%ah
  411a2d:	ff                   	(bad)  
  411a2e:	ff                   	(bad)  
  411a2f:	ff 04 00             	incl   (%eax,%eax,1)
  411a32:	00 00                	add    %al,(%eax)
  411a34:	48                   	dec    %eax
  411a35:	1a 41 00             	sbb    0x0(%ecx),%al
  411a38:	c8 ff ff ff          	enter  $0xffff,$0xff
  411a3c:	24 00                	and    $0x0,%al
  411a3e:	00 00                	add    %al,(%eax)
  411a40:	44                   	inc    %esp
  411a41:	1a 41 00             	sbb    0x0(%ecx),%al
  411a44:	61                   	popa   
  411a45:	72 72                	jb     0x411ab9
  411a47:	00 74 6d 70          	add    %dh,0x70(%ebp,%ebp,2)
  411a4b:	00 cc                	add    %cl,%ah
  411a4d:	cc                   	int3   
  411a4e:	cc                   	int3   
  411a4f:	cc                   	int3   
  411a50:	cc                   	int3   
  411a51:	cc                   	int3   
  411a52:	cc                   	int3   
  411a53:	cc                   	int3   
  411a54:	cc                   	int3   
  411a55:	cc                   	int3   
  411a56:	cc                   	int3   
  411a57:	cc                   	int3   
  411a58:	cc                   	int3   
  411a59:	cc                   	int3   
  411a5a:	cc                   	int3   
  411a5b:	cc                   	int3   
  411a5c:	cc                   	int3   
  411a5d:	cc                   	int3   
  411a5e:	cc                   	int3   
  411a5f:	cc                   	int3   
  411a60:	cc                   	int3   
  411a61:	cc                   	int3   
  411a62:	cc                   	int3   
  411a63:	cc                   	int3   
  411a64:	cc                   	int3   
  411a65:	cc                   	int3   
  411a66:	cc                   	int3   
  411a67:	cc                   	int3   
  411a68:	cc                   	int3   
  411a69:	cc                   	int3   
  411a6a:	cc                   	int3   
  411a6b:	cc                   	int3   
  411a6c:	cc                   	int3   
  411a6d:	cc                   	int3   
  411a6e:	cc                   	int3   
  411a6f:	cc                   	int3   
  411a70:	cc                   	int3   
  411a71:	cc                   	int3   
  411a72:	cc                   	int3   
  411a73:	cc                   	int3   
  411a74:	cc                   	int3   
  411a75:	cc                   	int3   
  411a76:	cc                   	int3   
  411a77:	cc                   	int3   
  411a78:	cc                   	int3   
  411a79:	cc                   	int3   
  411a7a:	cc                   	int3   
  411a7b:	cc                   	int3   
  411a7c:	cc                   	int3   
  411a7d:	cc                   	int3   
  411a7e:	cc                   	int3   
  411a7f:	cc                   	int3   
  411a80:	cc                   	int3   
  411a81:	cc                   	int3   
  411a82:	cc                   	int3   
  411a83:	cc                   	int3   
  411a84:	cc                   	int3   
  411a85:	cc                   	int3   
  411a86:	cc                   	int3   
  411a87:	cc                   	int3   
  411a88:	cc                   	int3   
  411a89:	cc                   	int3   
  411a8a:	cc                   	int3   
  411a8b:	cc                   	int3   
  411a8c:	cc                   	int3   
  411a8d:	cc                   	int3   
  411a8e:	cc                   	int3   
  411a8f:	cc                   	int3   
  411a90:	cc                   	int3   
  411a91:	cc                   	int3   
  411a92:	cc                   	int3   
  411a93:	cc                   	int3   
  411a94:	cc                   	int3   
  411a95:	cc                   	int3   
  411a96:	cc                   	int3   
  411a97:	cc                   	int3   
  411a98:	cc                   	int3   
  411a99:	cc                   	int3   
  411a9a:	cc                   	int3   
  411a9b:	cc                   	int3   
  411a9c:	cc                   	int3   
  411a9d:	cc                   	int3   
  411a9e:	cc                   	int3   
  411a9f:	cc                   	int3   
  411aa0:	cc                   	int3   
  411aa1:	cc                   	int3   
  411aa2:	cc                   	int3   
  411aa3:	cc                   	int3   
  411aa4:	cc                   	int3   
  411aa5:	cc                   	int3   
  411aa6:	cc                   	int3   
  411aa7:	cc                   	int3   
  411aa8:	cc                   	int3   
  411aa9:	cc                   	int3   
  411aaa:	cc                   	int3   
  411aab:	cc                   	int3   
  411aac:	cc                   	int3   
  411aad:	cc                   	int3   
  411aae:	cc                   	int3   
  411aaf:	cc                   	int3   
  411ab0:	55                   	push   %ebp
  411ab1:	8b ec                	mov    %esp,%ebp
  411ab3:	53                   	push   %ebx
  411ab4:	56                   	push   %esi
  411ab5:	8b f1                	mov    %ecx,%esi
  411ab7:	8b da                	mov    %edx,%ebx
  411ab9:	85 f6                	test   %esi,%esi
  411abb:	74 1f                	je     0x411adc
  411abd:	85 db                	test   %ebx,%ebx
  411abf:	74 1b                	je     0x411adc
  411ac1:	8b 55 08             	mov    0x8(%ebp),%edx
  411ac4:	85 d2                	test   %edx,%edx
  411ac6:	74 14                	je     0x411adc
  411ac8:	57                   	push   %edi
  411ac9:	b0 cc                	mov    $0xcc,%al
  411acb:	8b fe                	mov    %esi,%edi
  411acd:	8b cb                	mov    %ebx,%ecx
  411acf:	f3 aa                	rep stos %al,%es:(%edi)
  411ad1:	8b 02                	mov    (%edx),%eax
  411ad3:	89 46 04             	mov    %eax,0x4(%esi)
  411ad6:	89 5e 0c             	mov    %ebx,0xc(%esi)
  411ad9:	89 32                	mov    %esi,(%edx)
  411adb:	5f                   	pop    %edi
  411adc:	5e                   	pop    %esi
  411add:	5b                   	pop    %ebx
  411ade:	5d                   	pop    %ebp
  411adf:	c2 04 00             	ret    $0x4
  411ae2:	cc                   	int3   
  411ae3:	cc                   	int3   
  411ae4:	cc                   	int3   
  411ae5:	cc                   	int3   
  411ae6:	cc                   	int3   
  411ae7:	cc                   	int3   
  411ae8:	cc                   	int3   
  411ae9:	cc                   	int3   
  411aea:	cc                   	int3   
  411aeb:	cc                   	int3   
  411aec:	cc                   	int3   
  411aed:	cc                   	int3   
  411aee:	cc                   	int3   
  411aef:	cc                   	int3   
  411af0:	55                   	push   %ebp
  411af1:	8b ec                	mov    %esp,%ebp
  411af3:	83 ec 08             	sub    $0x8,%esp
  411af6:	53                   	push   %ebx
  411af7:	8b da                	mov    %edx,%ebx
  411af9:	8b c1                	mov    %ecx,%eax
  411afb:	89 45 f8             	mov    %eax,-0x8(%ebp)
  411afe:	56                   	push   %esi
  411aff:	57                   	push   %edi
  411b00:	85 db                	test   %ebx,%ebx
  411b02:	74 4a                	je     0x411b4e
  411b04:	33 f6                	xor    %esi,%esi
  411b06:	39 33                	cmp    %esi,(%ebx)
  411b08:	7e 44                	jle    0x411b4e
  411b0a:	83 c0 fc             	add    $0xfffffffc,%eax
  411b0d:	33 ff                	xor    %edi,%edi
  411b0f:	89 45 fc             	mov    %eax,-0x4(%ebp)
  411b12:	8b 4b 04             	mov    0x4(%ebx),%ecx
  411b15:	8b 45 fc             	mov    -0x4(%ebp),%eax
  411b18:	8b 14 39             	mov    (%ecx,%edi,1),%edx
  411b1b:	81 3c 02 cc cc cc cc 	cmpl   $0xcccccccc,(%edx,%eax,1)
  411b22:	75 12                	jne    0x411b36
  411b24:	8b 44 39 04          	mov    0x4(%ecx,%edi,1),%eax
  411b28:	03 c2                	add    %edx,%eax
  411b2a:	8b 55 f8             	mov    -0x8(%ebp),%edx
  411b2d:	81 3c 10 cc cc cc cc 	cmpl   $0xcccccccc,(%eax,%edx,1)
  411b34:	74 10                	je     0x411b46
  411b36:	ff 74 39 08          	pushl  0x8(%ecx,%edi,1)
  411b3a:	8b 45 04             	mov    0x4(%ebp),%eax
  411b3d:	50                   	push   %eax
  411b3e:	e8 a8 f5 ff ff       	call   0x4110eb
  411b43:	83 c4 08             	add    $0x8,%esp
  411b46:	46                   	inc    %esi
  411b47:	83 c7 0c             	add    $0xc,%edi
  411b4a:	3b 33                	cmp    (%ebx),%esi
  411b4c:	7c c4                	jl     0x411b12
  411b4e:	8b 75 08             	mov    0x8(%ebp),%esi
  411b51:	33 ff                	xor    %edi,%edi
  411b53:	8b c6                	mov    %esi,%eax
  411b55:	85 f6                	test   %esi,%esi
  411b57:	74 6b                	je     0x411bc4
  411b59:	8d a4 24 00 00 00 00 	lea    0x0(%esp),%esp
  411b60:	8b 40 04             	mov    0x4(%eax),%eax
  411b63:	47                   	inc    %edi
  411b64:	85 c0                	test   %eax,%eax
  411b66:	75 f8                	jne    0x411b60
  411b68:	85 f6                	test   %esi,%esi
  411b6a:	74 58                	je     0x411bc4
  411b6c:	8d 64 24 00          	lea    0x0(%esp),%esp
  411b70:	81 3e cc cc cc cc    	cmpl   $0xcccccccc,(%esi)
  411b76:	75 1b                	jne    0x411b93
  411b78:	81 7e 14 cc cc cc cc 	cmpl   $0xcccccccc,0x14(%esi)
  411b7f:	75 12                	jne    0x411b93
  411b81:	81 7e 18 cc cc cc cc 	cmpl   $0xcccccccc,0x18(%esi)
  411b88:	75 09                	jne    0x411b93
  411b8a:	81 7e 1c cc cc cc cc 	cmpl   $0xcccccccc,0x1c(%esi)
  411b91:	74 0e                	je     0x411ba1
  411b93:	8b 45 04             	mov    0x4(%ebp),%eax
  411b96:	57                   	push   %edi
  411b97:	56                   	push   %esi
  411b98:	50                   	push   %eax
  411b99:	e8 fd f4 ff ff       	call   0x41109b
  411b9e:	83 c4 0c             	add    $0xc,%esp
  411ba1:	8b 46 0c             	mov    0xc(%esi),%eax
  411ba4:	81 7c 30 fc cc cc cc 	cmpl   $0xcccccccc,-0x4(%eax,%esi,1)
  411bab:	cc 
  411bac:	74 0e                	je     0x411bbc
  411bae:	8b 45 04             	mov    0x4(%ebp),%eax
  411bb1:	57                   	push   %edi
  411bb2:	56                   	push   %esi
  411bb3:	50                   	push   %eax
  411bb4:	e8 e2 f4 ff ff       	call   0x41109b
  411bb9:	83 c4 0c             	add    $0xc,%esp
  411bbc:	8b 76 04             	mov    0x4(%esi),%esi
  411bbf:	4f                   	dec    %edi
  411bc0:	85 f6                	test   %esi,%esi
  411bc2:	75 ac                	jne    0x411b70
  411bc4:	5f                   	pop    %edi
  411bc5:	5e                   	pop    %esi
  411bc6:	5b                   	pop    %ebx
  411bc7:	8b e5                	mov    %ebp,%esp
  411bc9:	5d                   	pop    %ebp
  411bca:	c2 04 00             	ret    $0x4
  411bcd:	cc                   	int3   
  411bce:	cc                   	int3   
  411bcf:	cc                   	int3   
  411bd0:	cc                   	int3   
  411bd1:	cc                   	int3   
  411bd2:	cc                   	int3   
  411bd3:	cc                   	int3   
  411bd4:	cc                   	int3   
  411bd5:	cc                   	int3   
  411bd6:	cc                   	int3   
  411bd7:	cc                   	int3   
  411bd8:	cc                   	int3   
  411bd9:	cc                   	int3   
  411bda:	cc                   	int3   
  411bdb:	cc                   	int3   
  411bdc:	cc                   	int3   
  411bdd:	cc                   	int3   
  411bde:	cc                   	int3   
  411bdf:	cc                   	int3   
  411be0:	cc                   	int3   
  411be1:	cc                   	int3   
  411be2:	cc                   	int3   
  411be3:	cc                   	int3   
  411be4:	cc                   	int3   
  411be5:	cc                   	int3   
  411be6:	cc                   	int3   
  411be7:	cc                   	int3   
  411be8:	cc                   	int3   
  411be9:	cc                   	int3   
  411bea:	cc                   	int3   
  411beb:	cc                   	int3   
  411bec:	cc                   	int3   
  411bed:	cc                   	int3   
  411bee:	cc                   	int3   
  411bef:	cc                   	int3   
  411bf0:	cc                   	int3   
  411bf1:	cc                   	int3   
  411bf2:	cc                   	int3   
  411bf3:	cc                   	int3   
  411bf4:	cc                   	int3   
  411bf5:	cc                   	int3   
  411bf6:	cc                   	int3   
  411bf7:	cc                   	int3   
  411bf8:	cc                   	int3   
  411bf9:	cc                   	int3   
  411bfa:	cc                   	int3   
  411bfb:	cc                   	int3   
  411bfc:	cc                   	int3   
  411bfd:	cc                   	int3   
  411bfe:	cc                   	int3   
  411bff:	cc                   	int3   
  411c00:	cc                   	int3   
  411c01:	cc                   	int3   
  411c02:	cc                   	int3   
  411c03:	cc                   	int3   
  411c04:	cc                   	int3   
  411c05:	cc                   	int3   
  411c06:	cc                   	int3   
  411c07:	cc                   	int3   
  411c08:	cc                   	int3   
  411c09:	cc                   	int3   
  411c0a:	cc                   	int3   
  411c0b:	cc                   	int3   
  411c0c:	cc                   	int3   
  411c0d:	cc                   	int3   
  411c0e:	cc                   	int3   
  411c0f:	cc                   	int3   
  411c10:	55                   	push   %ebp
  411c11:	8b ec                	mov    %esp,%ebp
  411c13:	83 ec 08             	sub    $0x8,%esp
  411c16:	53                   	push   %ebx
  411c17:	8b da                	mov    %edx,%ebx
  411c19:	8b c1                	mov    %ecx,%eax
  411c1b:	56                   	push   %esi
  411c1c:	33 f6                	xor    %esi,%esi
  411c1e:	89 45 f8             	mov    %eax,-0x8(%ebp)
  411c21:	39 33                	cmp    %esi,(%ebx)
  411c23:	7e 48                	jle    0x411c6d
  411c25:	83 c0 fc             	add    $0xfffffffc,%eax
  411c28:	57                   	push   %edi
  411c29:	89 45 fc             	mov    %eax,-0x4(%ebp)
  411c2c:	33 ff                	xor    %edi,%edi
  411c2e:	8b ff                	mov    %edi,%edi
  411c30:	8b 4b 04             	mov    0x4(%ebx),%ecx
  411c33:	8b 45 fc             	mov    -0x4(%ebp),%eax
  411c36:	8b 14 39             	mov    (%ecx,%edi,1),%edx
  411c39:	81 3c 02 cc cc cc cc 	cmpl   $0xcccccccc,(%edx,%eax,1)
  411c40:	75 12                	jne    0x411c54
  411c42:	8b 44 39 04          	mov    0x4(%ecx,%edi,1),%eax
  411c46:	03 c2                	add    %edx,%eax
  411c48:	8b 55 f8             	mov    -0x8(%ebp),%edx
  411c4b:	81 3c 10 cc cc cc cc 	cmpl   $0xcccccccc,(%eax,%edx,1)
  411c52:	74 10                	je     0x411c64
  411c54:	ff 74 39 08          	pushl  0x8(%ecx,%edi,1)
  411c58:	8b 45 04             	mov    0x4(%ebp),%eax
  411c5b:	50                   	push   %eax
  411c5c:	e8 8a f4 ff ff       	call   0x4110eb
  411c61:	83 c4 08             	add    $0x8,%esp
  411c64:	46                   	inc    %esi
  411c65:	83 c7 0c             	add    $0xc,%edi
  411c68:	3b 33                	cmp    (%ebx),%esi
  411c6a:	7c c4                	jl     0x411c30
  411c6c:	5f                   	pop    %edi
  411c6d:	5e                   	pop    %esi
  411c6e:	5b                   	pop    %ebx
  411c6f:	8b e5                	mov    %ebp,%esp
  411c71:	5d                   	pop    %ebp
  411c72:	c3                   	ret    
  411c73:	cc                   	int3   
  411c74:	cc                   	int3   
  411c75:	cc                   	int3   
  411c76:	cc                   	int3   
  411c77:	cc                   	int3   
  411c78:	cc                   	int3   
  411c79:	cc                   	int3   
  411c7a:	cc                   	int3   
  411c7b:	cc                   	int3   
  411c7c:	cc                   	int3   
  411c7d:	cc                   	int3   
  411c7e:	cc                   	int3   
  411c7f:	cc                   	int3   
  411c80:	cc                   	int3   
  411c81:	cc                   	int3   
  411c82:	cc                   	int3   
  411c83:	cc                   	int3   
  411c84:	cc                   	int3   
  411c85:	cc                   	int3   
  411c86:	cc                   	int3   
  411c87:	cc                   	int3   
  411c88:	cc                   	int3   
  411c89:	cc                   	int3   
  411c8a:	cc                   	int3   
  411c8b:	cc                   	int3   
  411c8c:	cc                   	int3   
  411c8d:	cc                   	int3   
  411c8e:	cc                   	int3   
  411c8f:	cc                   	int3   
  411c90:	f2 75 02             	bnd jne 0x411c95
  411c93:	f2 c3                	bnd ret 
  411c95:	55                   	push   %ebp
  411c96:	8b ec                	mov    %esp,%ebp
  411c98:	83 ec 00             	sub    $0x0,%esp
  411c9b:	50                   	push   %eax
  411c9c:	0f 1b 04 04          	bndstx %bnd0,(%esp,%eax,1)
  411ca0:	52                   	push   %edx
  411ca1:	53                   	push   %ebx
  411ca2:	56                   	push   %esi
  411ca3:	57                   	push   %edi
  411ca4:	8b 45 04             	mov    0x4(%ebp),%eax
  411ca7:	6a 00                	push   $0x0
  411ca9:	50                   	push   %eax
  411caa:	e8 d3 f3 ff ff       	call   0x411082
  411caf:	83 c4 08             	add    $0x8,%esp
  411cb2:	5f                   	pop    %edi
  411cb3:	5e                   	pop    %esi
  411cb4:	5b                   	pop    %ebx
  411cb5:	5a                   	pop    %edx
  411cb6:	58                   	pop    %eax
  411cb7:	0f 1a 44 04 fc       	bndldx -0x4(%esp,%eax,1),%bnd0
  411cbc:	8b e5                	mov    %ebp,%esp
  411cbe:	5d                   	pop    %ebp
  411cbf:	f2 c3                	bnd ret 
  411cc1:	cc                   	int3   
  411cc2:	cc                   	int3   
  411cc3:	cc                   	int3   
  411cc4:	cc                   	int3   
  411cc5:	cc                   	int3   
  411cc6:	cc                   	int3   
  411cc7:	cc                   	int3   
  411cc8:	cc                   	int3   
  411cc9:	cc                   	int3   
  411cca:	cc                   	int3   
  411ccb:	cc                   	int3   
  411ccc:	cc                   	int3   
  411ccd:	cc                   	int3   
  411cce:	cc                   	int3   
  411ccf:	cc                   	int3   
  411cd0:	3b 0d 00 a0 41 00    	cmp    0x41a000,%ecx
  411cd6:	f2 75 02             	bnd jne 0x411cdb
  411cd9:	f2 c3                	bnd ret 
  411cdb:	f2 e9 08 f6 ff ff    	bnd jmp 0x4112e9
  411ce1:	cc                   	int3   
  411ce2:	cc                   	int3   
  411ce3:	cc                   	int3   
  411ce4:	cc                   	int3   
  411ce5:	cc                   	int3   
  411ce6:	cc                   	int3   
  411ce7:	cc                   	int3   
  411ce8:	cc                   	int3   
  411ce9:	cc                   	int3   
  411cea:	cc                   	int3   
  411ceb:	cc                   	int3   
  411cec:	cc                   	int3   
  411ced:	cc                   	int3   
  411cee:	cc                   	int3   
  411cef:	cc                   	int3   
  411cf0:	b8 0e 11 41 00       	mov    $0x41110e,%eax
  411cf5:	c3                   	ret    
  411cf6:	cc                   	int3   
  411cf7:	cc                   	int3   
  411cf8:	cc                   	int3   
  411cf9:	cc                   	int3   
  411cfa:	cc                   	int3   
  411cfb:	cc                   	int3   
  411cfc:	cc                   	int3   
  411cfd:	cc                   	int3   
  411cfe:	cc                   	int3   
  411cff:	cc                   	int3   
  411d00:	b8 80 12 41 00       	mov    $0x411280,%eax
  411d05:	c3                   	ret    
  411d06:	cc                   	int3   
  411d07:	cc                   	int3   
  411d08:	cc                   	int3   
  411d09:	cc                   	int3   
  411d0a:	cc                   	int3   
  411d0b:	cc                   	int3   
  411d0c:	cc                   	int3   
  411d0d:	cc                   	int3   
  411d0e:	cc                   	int3   
  411d0f:	cc                   	int3   
  411d10:	80 3d 41 a1 41 00 00 	cmpb   $0x0,0x41a141
  411d17:	75 1f                	jne    0x411d38
  411d19:	6a 00                	push   $0x0
  411d1b:	6a 01                	push   $0x1
  411d1d:	6a 00                	push   $0x0
  411d1f:	6a 00                	push   $0x0
  411d21:	6a 00                	push   $0x0
  411d23:	c6 05 41 a1 41 00 01 	movb   $0x1,0x41a141
  411d2a:	e8 44 f3 ff ff       	call   0x411073
  411d2f:	50                   	push   %eax
  411d30:	e8 c4 f4 ff ff       	call   0x4111f9
  411d35:	83 c4 18             	add    $0x18,%esp
  411d38:	c3                   	ret    
  411d39:	cc                   	int3   
  411d3a:	cc                   	int3   
  411d3b:	cc                   	int3   
  411d3c:	cc                   	int3   
  411d3d:	cc                   	int3   
  411d3e:	cc                   	int3   
  411d3f:	cc                   	int3   
  411d40:	cc                   	int3   
  411d41:	cc                   	int3   
  411d42:	cc                   	int3   
  411d43:	cc                   	int3   
  411d44:	cc                   	int3   
  411d45:	cc                   	int3   
  411d46:	cc                   	int3   
  411d47:	cc                   	int3   
  411d48:	cc                   	int3   
  411d49:	cc                   	int3   
  411d4a:	cc                   	int3   
  411d4b:	cc                   	int3   
  411d4c:	cc                   	int3   
  411d4d:	cc                   	int3   
  411d4e:	cc                   	int3   
  411d4f:	cc                   	int3   
  411d50:	6a 01                	push   $0x1
  411d52:	6a 01                	push   $0x1
  411d54:	6a 00                	push   $0x0
  411d56:	6a 00                	push   $0x0
  411d58:	6a 00                	push   $0x0
  411d5a:	e8 14 f3 ff ff       	call   0x411073
  411d5f:	83 c4 14             	add    $0x14,%esp
  411d62:	c3                   	ret    
  411d63:	cc                   	int3   
  411d64:	cc                   	int3   
  411d65:	cc                   	int3   
  411d66:	cc                   	int3   
  411d67:	cc                   	int3   
  411d68:	cc                   	int3   
  411d69:	cc                   	int3   
  411d6a:	cc                   	int3   
  411d6b:	cc                   	int3   
  411d6c:	cc                   	int3   
  411d6d:	cc                   	int3   
  411d6e:	cc                   	int3   
  411d6f:	cc                   	int3   
  411d70:	55                   	push   %ebp
  411d71:	8b ec                	mov    %esp,%ebp
  411d73:	e8 02 f6 ff ff       	call   0x41137a
  411d78:	e8 bf f2 ff ff       	call   0x41103c
  411d7d:	e8 bf f2 ff ff       	call   0x411041
  411d82:	6a 01                	push   $0x1
  411d84:	e8 ac f4 ff ff       	call   0x411235
  411d89:	83 c4 04             	add    $0x4,%esp
  411d8c:	0f b6 c0             	movzbl %al,%eax
  411d8f:	85 c0                	test   %eax,%eax
  411d91:	75 07                	jne    0x411d9a
  411d93:	6a 07                	push   $0x7
  411d95:	e8 de f2 ff ff       	call   0x411078
  411d9a:	db e2                	fnclex 
  411d9c:	e8 45 f3 ff ff       	call   0x4110e6
  411da1:	68 81 11 41 00       	push   $0x411181
  411da6:	e8 13 f3 ff ff       	call   0x4110be
  411dab:	83 c4 04             	add    $0x4,%esp
  411dae:	e8 aa f4 ff ff       	call   0x41125d
  411db3:	85 c0                	test   %eax,%eax
  411db5:	74 07                	je     0x411dbe
  411db7:	6a 07                	push   $0x7
  411db9:	e8 ba f2 ff ff       	call   0x411078
  411dbe:	e8 59 f4 ff ff       	call   0x41121c
  411dc3:	e8 55 f3 ff ff       	call   0x41111d
  411dc8:	85 c0                	test   %eax,%eax
  411dca:	74 0d                	je     0x411dd9
  411dcc:	68 9f 11 41 00       	push   $0x41119f
  411dd1:	e8 2c f5 ff ff       	call   0x411302
  411dd6:	83 c4 04             	add    $0x4,%esp
  411dd9:	e8 ad f3 ff ff       	call   0x41118b
  411dde:	e8 07 f4 ff ff       	call   0x4111ea
  411de3:	e8 68 f2 ff ff       	call   0x411050
  411de8:	e8 c2 f2 ff ff       	call   0x4110af
  411ded:	50                   	push   %eax
  411dee:	e8 3a f2 ff ff       	call   0x41102d
  411df3:	83 c4 04             	add    $0x4,%esp
  411df6:	e8 84 f5 ff ff       	call   0x41137f
  411dfb:	0f b6 c8             	movzbl %al,%ecx
  411dfe:	85 c9                	test   %ecx,%ecx
  411e00:	74 05                	je     0x411e07
  411e02:	e8 14 f5 ff ff       	call   0x41131b
  411e07:	e8 99 f2 ff ff       	call   0x4110a5
  411e0c:	33 c0                	xor    %eax,%eax
  411e0e:	5d                   	pop    %ebp
  411e0f:	c3                   	ret    
  411e10:	cc                   	int3   
  411e11:	cc                   	int3   
  411e12:	cc                   	int3   
  411e13:	cc                   	int3   
  411e14:	cc                   	int3   
  411e15:	cc                   	int3   
  411e16:	cc                   	int3   
  411e17:	cc                   	int3   
  411e18:	cc                   	int3   
  411e19:	cc                   	int3   
  411e1a:	cc                   	int3   
  411e1b:	cc                   	int3   
  411e1c:	cc                   	int3   
  411e1d:	cc                   	int3   
  411e1e:	cc                   	int3   
  411e1f:	cc                   	int3   
  411e20:	cc                   	int3   
  411e21:	cc                   	int3   
  411e22:	cc                   	int3   
  411e23:	cc                   	int3   
  411e24:	cc                   	int3   
  411e25:	cc                   	int3   
  411e26:	cc                   	int3   
  411e27:	cc                   	int3   
  411e28:	cc                   	int3   
  411e29:	cc                   	int3   
  411e2a:	cc                   	int3   
  411e2b:	cc                   	int3   
  411e2c:	cc                   	int3   
  411e2d:	cc                   	int3   
  411e2e:	cc                   	int3   
  411e2f:	cc                   	int3   
  411e30:	cc                   	int3   
  411e31:	cc                   	int3   
  411e32:	cc                   	int3   
  411e33:	cc                   	int3   
  411e34:	cc                   	int3   
  411e35:	cc                   	int3   
  411e36:	cc                   	int3   
  411e37:	cc                   	int3   
  411e38:	cc                   	int3   
  411e39:	cc                   	int3   
  411e3a:	cc                   	int3   
  411e3b:	cc                   	int3   
  411e3c:	cc                   	int3   
  411e3d:	cc                   	int3   
  411e3e:	cc                   	int3   
  411e3f:	cc                   	int3   
  411e40:	55                   	push   %ebp
  411e41:	8b ec                	mov    %esp,%ebp
  411e43:	e8 10 f4 ff ff       	call   0x411258
  411e48:	33 c0                	xor    %eax,%eax
  411e4a:	5d                   	pop    %ebp
  411e4b:	c3                   	ret    
  411e4c:	cc                   	int3   
  411e4d:	cc                   	int3   
  411e4e:	cc                   	int3   
  411e4f:	cc                   	int3   
  411e50:	55                   	push   %ebp
  411e51:	8b ec                	mov    %esp,%ebp
  411e53:	e8 10 f3 ff ff       	call   0x411168
  411e58:	e8 56 f3 ff ff       	call   0x4111b3
  411e5d:	50                   	push   %eax
  411e5e:	e8 32 f3 ff ff       	call   0x411195
  411e63:	83 c4 04             	add    $0x4,%esp
  411e66:	5d                   	pop    %ebp
  411e67:	c3                   	ret    
  411e68:	cc                   	int3   
  411e69:	cc                   	int3   
  411e6a:	cc                   	int3   
  411e6b:	cc                   	int3   
  411e6c:	cc                   	int3   
  411e6d:	cc                   	int3   
  411e6e:	cc                   	int3   
  411e6f:	cc                   	int3   
  411e70:	55                   	push   %ebp
  411e71:	8b ec                	mov    %esp,%ebp
  411e73:	e8 95 f3 ff ff       	call   0x41120d
  411e78:	e8 13 00 00 00       	call   0x411e90
  411e7d:	5d                   	pop    %ebp
  411e7e:	c3                   	ret    
  411e7f:	cc                   	int3   
  411e80:	cc                   	int3   
  411e81:	cc                   	int3   
  411e82:	cc                   	int3   
  411e83:	cc                   	int3   
  411e84:	cc                   	int3   
  411e85:	cc                   	int3   
  411e86:	cc                   	int3   
  411e87:	cc                   	int3   
  411e88:	cc                   	int3   
  411e89:	cc                   	int3   
  411e8a:	cc                   	int3   
  411e8b:	cc                   	int3   
  411e8c:	cc                   	int3   
  411e8d:	cc                   	int3   
  411e8e:	cc                   	int3   
  411e8f:	cc                   	int3   
  411e90:	55                   	push   %ebp
  411e91:	8b ec                	mov    %esp,%ebp
  411e93:	6a fe                	push   $0xfffffffe
  411e95:	68 50 8f 41 00       	push   $0x418f50
  411e9a:	68 80 3e 41 00       	push   $0x413e80
  411e9f:	64 a1 00 00 00 00    	mov    %fs:0x0,%eax
  411ea5:	50                   	push   %eax
  411ea6:	83 c4 d0             	add    $0xffffffd0,%esp
  411ea9:	53                   	push   %ebx
  411eaa:	56                   	push   %esi
  411eab:	57                   	push   %edi
  411eac:	a1 00 a0 41 00       	mov    0x41a000,%eax
  411eb1:	31 45 f8             	xor    %eax,-0x8(%ebp)
  411eb4:	33 c5                	xor    %ebp,%eax
  411eb6:	50                   	push   %eax
  411eb7:	8d 45 f0             	lea    -0x10(%ebp),%eax
  411eba:	64 a3 00 00 00 00    	mov    %eax,%fs:0x0
  411ec0:	89 65 e8             	mov    %esp,-0x18(%ebp)
  411ec3:	6a 01                	push   $0x1
  411ec5:	e8 d4 f3 ff ff       	call   0x41129e
  411eca:	83 c4 04             	add    $0x4,%esp
  411ecd:	0f b6 c0             	movzbl %al,%eax
  411ed0:	85 c0                	test   %eax,%eax
  411ed2:	75 07                	jne    0x411edb
  411ed4:	6a 07                	push   $0x7
  411ed6:	e8 9d f1 ff ff       	call   0x411078
  411edb:	c6 45 e7 00          	movb   $0x0,-0x19(%ebp)
  411edf:	c7 45 fc 00 00 00 00 	movl   $0x0,-0x4(%ebp)
  411ee6:	e8 53 f4 ff ff       	call   0x41133e
  411eeb:	88 45 e6             	mov    %al,-0x1a(%ebp)
  411eee:	83 3d 10 a5 41 00 01 	cmpl   $0x1,0x41a510
  411ef5:	75 09                	jne    0x411f00
  411ef7:	6a 07                	push   $0x7
  411ef9:	e8 7a f1 ff ff       	call   0x411078
  411efe:	eb 61                	jmp    0x411f61
  411f00:	83 3d 10 a5 41 00 00 	cmpl   $0x0,0x41a510
  411f07:	75 54                	jne    0x411f5d
  411f09:	c7 05 10 a5 41 00 01 	movl   $0x1,0x41a510
  411f10:	00 00 00 
  411f13:	68 18 76 41 00       	push   $0x417618
  411f18:	68 0c 73 41 00       	push   $0x41730c
  411f1d:	e8 7e f1 ff ff       	call   0x4110a0
  411f22:	83 c4 08             	add    $0x8,%esp
  411f25:	85 c0                	test   %eax,%eax
  411f27:	74 16                	je     0x411f3f
  411f29:	c7 45 c8 ff 00 00 00 	movl   $0xff,-0x38(%ebp)
  411f30:	c7 45 fc fe ff ff ff 	movl   $0xfffffffe,-0x4(%ebp)
  411f37:	8b 45 c8             	mov    -0x38(%ebp),%eax
  411f3a:	e9 4c 01 00 00       	jmp    0x41208b
  411f3f:	68 08 72 41 00       	push   $0x417208
  411f44:	68 00 70 41 00       	push   $0x417000
  411f49:	e8 a5 f3 ff ff       	call   0x4112f3
  411f4e:	83 c4 08             	add    $0x8,%esp
  411f51:	c7 05 10 a5 41 00 02 	movl   $0x2,0x41a510
  411f58:	00 00 00 
  411f5b:	eb 04                	jmp    0x411f61
  411f5d:	c6 45 e7 01          	movb   $0x1,-0x19(%ebp)
  411f61:	0f b6 4d e6          	movzbl -0x1a(%ebp),%ecx
  411f65:	51                   	push   %ecx
  411f66:	e8 c9 f3 ff ff       	call   0x411334
  411f6b:	83 c4 04             	add    $0x4,%esp
  411f6e:	e8 21 f3 ff ff       	call   0x411294
  411f73:	89 45 e0             	mov    %eax,-0x20(%ebp)
  411f76:	8b 55 e0             	mov    -0x20(%ebp),%edx
  411f79:	83 3a 00             	cmpl   $0x0,(%edx)
  411f7c:	74 2c                	je     0x411faa
  411f7e:	8b 45 e0             	mov    -0x20(%ebp),%eax
  411f81:	50                   	push   %eax
  411f82:	e8 ee f3 ff ff       	call   0x411375
  411f87:	83 c4 04             	add    $0x4,%esp
  411f8a:	0f b6 c8             	movzbl %al,%ecx
  411f8d:	85 c9                	test   %ecx,%ecx
  411f8f:	74 19                	je     0x411faa
  411f91:	6a 00                	push   $0x0
  411f93:	6a 02                	push   $0x2
  411f95:	6a 00                	push   $0x0
  411f97:	8b 55 e0             	mov    -0x20(%ebp),%edx
  411f9a:	8b 02                	mov    (%edx),%eax
  411f9c:	89 45 d8             	mov    %eax,-0x28(%ebp)
  411f9f:	8b 4d d8             	mov    -0x28(%ebp),%ecx
  411fa2:	e8 3d f3 ff ff       	call   0x4112e4
  411fa7:	ff 55 d8             	call   *-0x28(%ebp)
  411faa:	e8 28 f1 ff ff       	call   0x4110d7
  411faf:	89 45 dc             	mov    %eax,-0x24(%ebp)
  411fb2:	8b 4d dc             	mov    -0x24(%ebp),%ecx
  411fb5:	83 39 00             	cmpl   $0x0,(%ecx)
  411fb8:	74 21                	je     0x411fdb
  411fba:	8b 55 dc             	mov    -0x24(%ebp),%edx
  411fbd:	52                   	push   %edx
  411fbe:	e8 b2 f3 ff ff       	call   0x411375
  411fc3:	83 c4 04             	add    $0x4,%esp
  411fc6:	0f b6 c0             	movzbl %al,%eax
  411fc9:	85 c0                	test   %eax,%eax
  411fcb:	74 0e                	je     0x411fdb
  411fcd:	8b 4d dc             	mov    -0x24(%ebp),%ecx
  411fd0:	8b 11                	mov    (%ecx),%edx
  411fd2:	52                   	push   %edx
  411fd3:	e8 ea f1 ff ff       	call   0x4111c2
  411fd8:	83 c4 04             	add    $0x4,%esp
  411fdb:	e8 70 01 00 00       	call   0x412150
  411fe0:	89 45 d4             	mov    %eax,-0x2c(%ebp)
  411fe3:	e8 49 f1 ff ff       	call   0x411131
  411fe8:	0f b6 c0             	movzbl %al,%eax
  411feb:	85 c0                	test   %eax,%eax
  411fed:	75 09                	jne    0x411ff8
  411fef:	8b 4d d4             	mov    -0x2c(%ebp),%ecx
  411ff2:	51                   	push   %ecx
  411ff3:	e8 f6 f2 ff ff       	call   0x4112ee
  411ff8:	0f b6 55 e7          	movzbl -0x19(%ebp),%edx
  411ffc:	85 d2                	test   %edx,%edx
  411ffe:	75 05                	jne    0x412005
  412000:	e8 b4 f0 ff ff       	call   0x4110b9
  412005:	6a 00                	push   $0x0
  412007:	6a 01                	push   $0x1
  412009:	e8 5f f1 ff ff       	call   0x41116d
  41200e:	83 c4 08             	add    $0x8,%esp
  412011:	8b 45 d4             	mov    -0x2c(%ebp),%eax
  412014:	89 45 c4             	mov    %eax,-0x3c(%ebp)
  412017:	c7 45 fc fe ff ff ff 	movl   $0xfffffffe,-0x4(%ebp)
  41201e:	8b 45 c4             	mov    -0x3c(%ebp),%eax
  412021:	eb 68                	jmp    0x41208b
  412023:	c7 45 fc fe ff ff ff 	movl   $0xfffffffe,-0x4(%ebp)
  41202a:	eb 5f                	jmp    0x41208b
  41202c:	8b 4d ec             	mov    -0x14(%ebp),%ecx
  41202f:	8b 11                	mov    (%ecx),%edx
  412031:	8b 02                	mov    (%edx),%eax
  412033:	89 45 d0             	mov    %eax,-0x30(%ebp)
  412036:	8b 4d ec             	mov    -0x14(%ebp),%ecx
  412039:	51                   	push   %ecx
  41203a:	8b 55 d0             	mov    -0x30(%ebp),%edx
  41203d:	52                   	push   %edx
  41203e:	e8 29 f2 ff ff       	call   0x41126c
  412043:	83 c4 08             	add    $0x8,%esp
  412046:	c3                   	ret    
  412047:	8b 65 e8             	mov    -0x18(%ebp),%esp
  41204a:	8b 45 d0             	mov    -0x30(%ebp),%eax
  41204d:	89 45 cc             	mov    %eax,-0x34(%ebp)
  412050:	e8 dc f0 ff ff       	call   0x411131
  412055:	0f b6 c8             	movzbl %al,%ecx
  412058:	85 c9                	test   %ecx,%ecx
  41205a:	75 09                	jne    0x412065
  41205c:	8b 55 cc             	mov    -0x34(%ebp),%edx
  41205f:	52                   	push   %edx
  412060:	e8 67 f1 ff ff       	call   0x4111cc
  412065:	0f b6 45 e7          	movzbl -0x19(%ebp),%eax
  412069:	85 c0                	test   %eax,%eax
  41206b:	75 05                	jne    0x412072
  41206d:	e8 e0 f2 ff ff       	call   0x411352
  412072:	8b 4d cc             	mov    -0x34(%ebp),%ecx
  412075:	89 4d c0             	mov    %ecx,-0x40(%ebp)
  412078:	c7 45 fc fe ff ff ff 	movl   $0xfffffffe,-0x4(%ebp)
  41207f:	8b 45 c0             	mov    -0x40(%ebp),%eax
  412082:	eb 07                	jmp    0x41208b
  412084:	c7 45 fc fe ff ff ff 	movl   $0xfffffffe,-0x4(%ebp)
  41208b:	8b 4d f0             	mov    -0x10(%ebp),%ecx
  41208e:	64 89 0d 00 00 00 00 	mov    %ecx,%fs:0x0
  412095:	59                   	pop    %ecx
  412096:	5f                   	pop    %edi
  412097:	5e                   	pop    %esi
  412098:	5b                   	pop    %ebx
  412099:	8b e5                	mov    %ebp,%esp
  41209b:	5d                   	pop    %ebp
  41209c:	c3                   	ret    
  41209d:	cc                   	int3   
  41209e:	cc                   	int3   
  41209f:	cc                   	int3   
  4120a0:	cc                   	int3   
  4120a1:	cc                   	int3   
  4120a2:	cc                   	int3   
  4120a3:	cc                   	int3   
  4120a4:	cc                   	int3   
  4120a5:	cc                   	int3   
  4120a6:	cc                   	int3   
  4120a7:	cc                   	int3   
  4120a8:	cc                   	int3   
  4120a9:	cc                   	int3   
  4120aa:	cc                   	int3   
  4120ab:	cc                   	int3   
  4120ac:	cc                   	int3   
  4120ad:	cc                   	int3   
  4120ae:	cc                   	int3   
  4120af:	cc                   	int3   
  4120b0:	cc                   	int3   
  4120b1:	cc                   	int3   
  4120b2:	cc                   	int3   
  4120b3:	cc                   	int3   
  4120b4:	cc                   	int3   
  4120b5:	cc                   	int3   
  4120b6:	cc                   	int3   
  4120b7:	cc                   	int3   
  4120b8:	cc                   	int3   
  4120b9:	cc                   	int3   
  4120ba:	cc                   	int3   
  4120bb:	cc                   	int3   
  4120bc:	cc                   	int3   
  4120bd:	cc                   	int3   
  4120be:	cc                   	int3   
  4120bf:	cc                   	int3   
  4120c0:	cc                   	int3   
  4120c1:	cc                   	int3   
  4120c2:	cc                   	int3   
  4120c3:	cc                   	int3   
  4120c4:	cc                   	int3   
  4120c5:	cc                   	int3   
  4120c6:	cc                   	int3   
  4120c7:	cc                   	int3   
  4120c8:	cc                   	int3   
  4120c9:	cc                   	int3   
  4120ca:	cc                   	int3   
  4120cb:	cc                   	int3   
  4120cc:	cc                   	int3   
  4120cd:	cc                   	int3   
  4120ce:	cc                   	int3   
  4120cf:	cc                   	int3   
  4120d0:	cc                   	int3   
  4120d1:	cc                   	int3   
  4120d2:	cc                   	int3   
  4120d3:	cc                   	int3   
  4120d4:	cc                   	int3   
  4120d5:	cc                   	int3   
  4120d6:	cc                   	int3   
  4120d7:	cc                   	int3   
  4120d8:	cc                   	int3   
  4120d9:	cc                   	int3   
  4120da:	cc                   	int3   
  4120db:	cc                   	int3   
  4120dc:	cc                   	int3   
  4120dd:	cc                   	int3   
  4120de:	cc                   	int3   
  4120df:	cc                   	int3   
  4120e0:	cc                   	int3   
  4120e1:	cc                   	int3   
  4120e2:	cc                   	int3   
  4120e3:	cc                   	int3   
  4120e4:	cc                   	int3   
  4120e5:	cc                   	int3   
  4120e6:	cc                   	int3   
  4120e7:	cc                   	int3   
  4120e8:	cc                   	int3   
  4120e9:	cc                   	int3   
  4120ea:	cc                   	int3   
  4120eb:	cc                   	int3   
  4120ec:	cc                   	int3   
  4120ed:	cc                   	int3   
  4120ee:	cc                   	int3   
  4120ef:	cc                   	int3   
  4120f0:	cc                   	int3   
  4120f1:	cc                   	int3   
  4120f2:	cc                   	int3   
  4120f3:	cc                   	int3   
  4120f4:	cc                   	int3   
  4120f5:	cc                   	int3   
  4120f6:	cc                   	int3   
  4120f7:	cc                   	int3   
  4120f8:	cc                   	int3   
  4120f9:	cc                   	int3   
  4120fa:	cc                   	int3   
  4120fb:	cc                   	int3   
  4120fc:	cc                   	int3   
  4120fd:	cc                   	int3   
  4120fe:	cc                   	int3   
  4120ff:	cc                   	int3   
  412100:	cc                   	int3   
  412101:	cc                   	int3   
  412102:	cc                   	int3   
  412103:	cc                   	int3   
  412104:	cc                   	int3   
  412105:	cc                   	int3   
  412106:	cc                   	int3   
  412107:	cc                   	int3   
  412108:	cc                   	int3   
  412109:	cc                   	int3   
  41210a:	cc                   	int3   
  41210b:	cc                   	int3   
  41210c:	cc                   	int3   
  41210d:	cc                   	int3   
  41210e:	cc                   	int3   
  41210f:	cc                   	int3   
  412110:	cc                   	int3   
  412111:	cc                   	int3   
  412112:	cc                   	int3   
  412113:	cc                   	int3   
  412114:	cc                   	int3   
  412115:	cc                   	int3   
  412116:	cc                   	int3   
  412117:	cc                   	int3   
  412118:	cc                   	int3   
  412119:	cc                   	int3   
  41211a:	cc                   	int3   
  41211b:	cc                   	int3   
  41211c:	cc                   	int3   
  41211d:	cc                   	int3   
  41211e:	cc                   	int3   
  41211f:	cc                   	int3   
  412120:	55                   	push   %ebp
  412121:	8b ec                	mov    %esp,%ebp
  412123:	e8 ec ee ff ff       	call   0x411014
  412128:	50                   	push   %eax
  412129:	e8 ca f1 ff ff       	call   0x4112f8
  41212e:	83 c4 04             	add    $0x4,%esp
  412131:	5d                   	pop    %ebp
  412132:	c3                   	ret    
  412133:	cc                   	int3   
  412134:	cc                   	int3   
  412135:	cc                   	int3   
  412136:	cc                   	int3   
  412137:	cc                   	int3   
  412138:	cc                   	int3   
  412139:	cc                   	int3   
  41213a:	cc                   	int3   
  41213b:	cc                   	int3   
  41213c:	cc                   	int3   
  41213d:	cc                   	int3   
  41213e:	cc                   	int3   
  41213f:	cc                   	int3   
  412140:	55                   	push   %ebp
  412141:	8b ec                	mov    %esp,%ebp
  412143:	e8 bb f0 ff ff       	call   0x411203
  412148:	5d                   	pop    %ebp
  412149:	c3                   	ret    
  41214a:	cc                   	int3   
  41214b:	cc                   	int3   
  41214c:	cc                   	int3   
  41214d:	cc                   	int3   
  41214e:	cc                   	int3   
  41214f:	cc                   	int3   
  412150:	55                   	push   %ebp
  412151:	8b ec                	mov    %esp,%ebp
  412153:	e8 df ee ff ff       	call   0x411037
  412158:	50                   	push   %eax
  412159:	e8 2c f1 ff ff       	call   0x41128a
  41215e:	8b 00                	mov    (%eax),%eax
  412160:	50                   	push   %eax
  412161:	e8 1f f1 ff ff       	call   0x411285
  412166:	8b 08                	mov    (%eax),%ecx
  412168:	51                   	push   %ecx
  412169:	e8 49 f1 ff ff       	call   0x4112b7
  41216e:	83 c4 0c             	add    $0xc,%esp
  412171:	5d                   	pop    %ebp
  412172:	c3                   	ret    
  412173:	cc                   	int3   
  412174:	cc                   	int3   
  412175:	cc                   	int3   
  412176:	cc                   	int3   
  412177:	cc                   	int3   
  412178:	cc                   	int3   
  412179:	cc                   	int3   
  41217a:	cc                   	int3   
  41217b:	cc                   	int3   
  41217c:	cc                   	int3   
  41217d:	cc                   	int3   
  41217e:	cc                   	int3   
  41217f:	cc                   	int3   
  412180:	55                   	push   %ebp
  412181:	8b ec                	mov    %esp,%ebp
  412183:	6a 01                	push   $0x1
  412185:	e8 47 f0 ff ff       	call   0x4111d1
  41218a:	83 c4 04             	add    $0x4,%esp
  41218d:	5d                   	pop    %ebp
  41218e:	c3                   	ret    
  41218f:	cc                   	int3   
  412190:	cc                   	int3   
  412191:	cc                   	int3   
  412192:	cc                   	int3   
  412193:	cc                   	int3   
  412194:	cc                   	int3   
  412195:	cc                   	int3   
  412196:	cc                   	int3   
  412197:	cc                   	int3   
  412198:	cc                   	int3   
  412199:	cc                   	int3   
  41219a:	cc                   	int3   
  41219b:	cc                   	int3   
  41219c:	cc                   	int3   
  41219d:	cc                   	int3   
  41219e:	cc                   	int3   
  41219f:	cc                   	int3   
  4121a0:	55                   	push   %ebp
  4121a1:	8b ec                	mov    %esp,%ebp
  4121a3:	56                   	push   %esi
  4121a4:	e8 e3 ee ff ff       	call   0x41108c
  4121a9:	8b f0                	mov    %eax,%esi
  4121ab:	e8 68 ef ff ff       	call   0x411118
  4121b0:	89 30                	mov    %esi,(%eax)
  4121b2:	5e                   	pop    %esi
  4121b3:	5d                   	pop    %ebp
  4121b4:	c3                   	ret    
  4121b5:	cc                   	int3   
  4121b6:	cc                   	int3   
  4121b7:	cc                   	int3   
  4121b8:	cc                   	int3   
  4121b9:	cc                   	int3   
  4121ba:	cc                   	int3   
  4121bb:	cc                   	int3   
  4121bc:	cc                   	int3   
  4121bd:	cc                   	int3   
  4121be:	cc                   	int3   
  4121bf:	cc                   	int3   
  4121c0:	55                   	push   %ebp
  4121c1:	8b ec                	mov    %esp,%ebp
  4121c3:	e8 9e f1 ff ff       	call   0x411366
  4121c8:	50                   	push   %eax
  4121c9:	e8 31 ef ff ff       	call   0x4110ff
  4121ce:	83 c4 04             	add    $0x4,%esp
  4121d1:	5d                   	pop    %ebp
  4121d2:	c3                   	ret    
  4121d3:	cc                   	int3   
  4121d4:	cc                   	int3   
  4121d5:	cc                   	int3   
  4121d6:	cc                   	int3   
  4121d7:	cc                   	int3   
  4121d8:	cc                   	int3   
  4121d9:	cc                   	int3   
  4121da:	cc                   	int3   
  4121db:	cc                   	int3   
  4121dc:	cc                   	int3   
  4121dd:	cc                   	int3   
  4121de:	cc                   	int3   
  4121df:	cc                   	int3   
  4121e0:	55                   	push   %ebp
  4121e1:	8b ec                	mov    %esp,%ebp
  4121e3:	e8 88 fc ff ff       	call   0x411e70
  4121e8:	5d                   	pop    %ebp
  4121e9:	c3                   	ret    
  4121ea:	cc                   	int3   
  4121eb:	cc                   	int3   
  4121ec:	cc                   	int3   
  4121ed:	cc                   	int3   
  4121ee:	cc                   	int3   
  4121ef:	cc                   	int3   
  4121f0:	55                   	push   %ebp
  4121f1:	8b ec                	mov    %esp,%ebp
  4121f3:	83 ec 1c             	sub    $0x1c,%esp
  4121f6:	8b 45 08             	mov    0x8(%ebp),%eax
  4121f9:	89 45 e8             	mov    %eax,-0x18(%ebp)
  4121fc:	8d 45 ff             	lea    -0x1(%ebp),%eax
  4121ff:	89 45 ec             	mov    %eax,-0x14(%ebp)
  412202:	8d 45 e4             	lea    -0x1c(%ebp),%eax
  412205:	50                   	push   %eax
  412206:	c6 45 ff 00          	movb   $0x0,-0x1(%ebp)
  41220a:	c7 45 e4 01 10 00 00 	movl   $0x1001,-0x1c(%ebp)
  412211:	e8 2a 06 00 00       	call   0x412840
  412216:	83 c4 04             	add    $0x4,%esp
  412219:	80 7d ff 00          	cmpb   $0x0,-0x1(%ebp)
  41221d:	0f 95 c0             	setne  %al
  412220:	8b e5                	mov    %ebp,%esp
  412222:	5d                   	pop    %ebp
  412223:	c3                   	ret    
  412224:	cc                   	int3   
  412225:	cc                   	int3   
  412226:	cc                   	int3   
  412227:	cc                   	int3   
  412228:	cc                   	int3   
  412229:	cc                   	int3   
  41222a:	cc                   	int3   
  41222b:	cc                   	int3   
  41222c:	cc                   	int3   
  41222d:	cc                   	int3   
  41222e:	cc                   	int3   
  41222f:	cc                   	int3   
  412230:	cc                   	int3   
  412231:	cc                   	int3   
  412232:	cc                   	int3   
  412233:	cc                   	int3   
  412234:	cc                   	int3   
  412235:	cc                   	int3   
  412236:	cc                   	int3   
  412237:	cc                   	int3   
  412238:	cc                   	int3   
  412239:	cc                   	int3   
  41223a:	cc                   	int3   
  41223b:	cc                   	int3   
  41223c:	cc                   	int3   
  41223d:	cc                   	int3   
  41223e:	cc                   	int3   
  41223f:	cc                   	int3   
  412240:	55                   	push   %ebp
  412241:	8b ec                	mov    %esp,%ebp
  412243:	83 ec 1c             	sub    $0x1c,%esp
  412246:	8b 45 08             	mov    0x8(%ebp),%eax
  412249:	89 45 e8             	mov    %eax,-0x18(%ebp)
  41224c:	8b 45 0c             	mov    0xc(%ebp),%eax
  41224f:	89 45 ec             	mov    %eax,-0x14(%ebp)
  412252:	8b 45 10             	mov    0x10(%ebp),%eax
  412255:	89 45 f0             	mov    %eax,-0x10(%ebp)
  412258:	8d 45 ff             	lea    -0x1(%ebp),%eax
  41225b:	89 45 f4             	mov    %eax,-0xc(%ebp)
  41225e:	8b 45 14             	mov    0x14(%ebp),%eax
  412261:	89 45 f8             	mov    %eax,-0x8(%ebp)
  412264:	8d 45 e4             	lea    -0x1c(%ebp),%eax
  412267:	50                   	push   %eax
  412268:	c6 45 ff 00          	movb   $0x0,-0x1(%ebp)
  41226c:	c7 45 e4 02 10 00 00 	movl   $0x1002,-0x1c(%ebp)
  412273:	e8 c8 05 00 00       	call   0x412840
  412278:	83 c4 04             	add    $0x4,%esp
  41227b:	80 7d ff 00          	cmpb   $0x0,-0x1(%ebp)
  41227f:	0f 95 c0             	setne  %al
  412282:	8b e5                	mov    %ebp,%esp
  412284:	5d                   	pop    %ebp
  412285:	c3                   	ret    
  412286:	cc                   	int3   
  412287:	cc                   	int3   
  412288:	cc                   	int3   
  412289:	cc                   	int3   
  41228a:	cc                   	int3   
  41228b:	cc                   	int3   
  41228c:	cc                   	int3   
  41228d:	cc                   	int3   
  41228e:	cc                   	int3   
  41228f:	cc                   	int3   
  412290:	cc                   	int3   
  412291:	cc                   	int3   
  412292:	cc                   	int3   
  412293:	cc                   	int3   
  412294:	cc                   	int3   
  412295:	cc                   	int3   
  412296:	cc                   	int3   
  412297:	cc                   	int3   
  412298:	cc                   	int3   
  412299:	cc                   	int3   
  41229a:	cc                   	int3   
  41229b:	cc                   	int3   
  41229c:	cc                   	int3   
  41229d:	cc                   	int3   
  41229e:	cc                   	int3   
  41229f:	cc                   	int3   
  4122a0:	55                   	push   %ebp
  4122a1:	8b ec                	mov    %esp,%ebp
  4122a3:	81 ec 44 01 00 00    	sub    $0x144,%esp
  4122a9:	a1 00 a0 41 00       	mov    0x41a000,%eax
  4122ae:	33 c5                	xor    %ebp,%eax
  4122b0:	89 45 fc             	mov    %eax,-0x4(%ebp)
  4122b3:	8b 45 08             	mov    0x8(%ebp),%eax
  4122b6:	53                   	push   %ebx
  4122b7:	8b 5d 0c             	mov    0xc(%ebp),%ebx
  4122ba:	57                   	push   %edi
  4122bb:	8b 3d 1c a0 41 00    	mov    0x41a01c,%edi
  4122c1:	89 85 bc fe ff ff    	mov    %eax,-0x144(%ebp)
  4122c7:	83 ff ff             	cmp    $0xffffffff,%edi
  4122ca:	0f 84 a6 00 00 00    	je     0x412376
  4122d0:	85 db                	test   %ebx,%ebx
  4122d2:	75 21                	jne    0x4122f5
  4122d4:	68 10 81 41 00       	push   $0x418110
  4122d9:	6a 04                	push   $0x4
  4122db:	57                   	push   %edi
  4122dc:	50                   	push   %eax
  4122dd:	e8 de 02 00 00       	call   0x4125c0
  4122e2:	83 c4 10             	add    $0x10,%esp
  4122e5:	5f                   	pop    %edi
  4122e6:	5b                   	pop    %ebx
  4122e7:	8b 4d fc             	mov    -0x4(%ebp),%ecx
  4122ea:	33 cd                	xor    %ebp,%ecx
  4122ec:	e8 9e ef ff ff       	call   0x41128f
  4122f1:	8b e5                	mov    %ebp,%esp
  4122f3:	5d                   	pop    %ebp
  4122f4:	c3                   	ret    
  4122f5:	8b 43 0c             	mov    0xc(%ebx),%eax
  4122f8:	56                   	push   %esi
  4122f9:	83 e8 24             	sub    $0x24,%eax
  4122fc:	8d 73 20             	lea    0x20(%ebx),%esi
  4122ff:	50                   	push   %eax
  412300:	56                   	push   %esi
  412301:	8d 45 b4             	lea    -0x4c(%ebp),%eax
  412304:	50                   	push   %eax
  412305:	8d 45 e8             	lea    -0x18(%ebp),%eax
  412308:	50                   	push   %eax
  412309:	e8 02 02 00 00       	call   0x412510
  41230e:	68 68 81 41 00       	push   $0x418168
  412313:	8d 45 b4             	lea    -0x4c(%ebp),%eax
  412316:	50                   	push   %eax
  412317:	68 6c 81 41 00       	push   $0x41816c
  41231c:	8d 45 e8             	lea    -0x18(%ebp),%eax
  41231f:	50                   	push   %eax
  412320:	8b 43 0c             	mov    0xc(%ebx),%eax
  412323:	68 70 81 41 00       	push   $0x418170
  412328:	ff 75 10             	pushl  0x10(%ebp)
  41232b:	83 e8 24             	sub    $0x24,%eax
  41232e:	68 7c 81 41 00       	push   $0x41817c
  412333:	50                   	push   %eax
  412334:	68 b0 81 41 00       	push   $0x4181b0
  412339:	56                   	push   %esi
  41233a:	68 bc 81 41 00       	push   $0x4181bc
  41233f:	68 d0 81 41 00       	push   $0x4181d0
  412344:	68 28 82 41 00       	push   $0x418228
  412349:	8d 85 c0 fe ff ff    	lea    -0x140(%ebp),%eax
  41234f:	68 f4 00 00 00       	push   $0xf4
  412354:	50                   	push   %eax
  412355:	e8 cb ef ff ff       	call   0x411325
  41235a:	83 c4 4c             	add    $0x4c,%esp
  41235d:	8d 85 c0 fe ff ff    	lea    -0x140(%ebp),%eax
  412363:	50                   	push   %eax
  412364:	6a 04                	push   $0x4
  412366:	57                   	push   %edi
  412367:	ff b5 bc fe ff ff    	pushl  -0x144(%ebp)
  41236d:	e8 4e 02 00 00       	call   0x4125c0
  412372:	83 c4 10             	add    $0x10,%esp
  412375:	5e                   	pop    %esi
  412376:	8b 4d fc             	mov    -0x4(%ebp),%ecx
  412379:	5f                   	pop    %edi
  41237a:	33 cd                	xor    %ebp,%ecx
  41237c:	5b                   	pop    %ebx
  41237d:	e8 0d ef ff ff       	call   0x41128f
  412382:	8b e5                	mov    %ebp,%esp
  412384:	5d                   	pop    %ebp
  412385:	c3                   	ret    
  412386:	cc                   	int3   
  412387:	cc                   	int3   
  412388:	cc                   	int3   
  412389:	cc                   	int3   
  41238a:	cc                   	int3   
  41238b:	cc                   	int3   
  41238c:	cc                   	int3   
  41238d:	cc                   	int3   
  41238e:	cc                   	int3   
  41238f:	cc                   	int3   
  412390:	cc                   	int3   
  412391:	cc                   	int3   
  412392:	cc                   	int3   
  412393:	cc                   	int3   
  412394:	cc                   	int3   
  412395:	cc                   	int3   
  412396:	cc                   	int3   
  412397:	cc                   	int3   
  412398:	cc                   	int3   
  412399:	cc                   	int3   
  41239a:	cc                   	int3   
  41239b:	cc                   	int3   
  41239c:	cc                   	int3   
  41239d:	cc                   	int3   
  41239e:	cc                   	int3   
  41239f:	cc                   	int3   
  4123a0:	cc                   	int3   
  4123a1:	cc                   	int3   
  4123a2:	cc                   	int3   
  4123a3:	cc                   	int3   
  4123a4:	cc                   	int3   
  4123a5:	cc                   	int3   
  4123a6:	cc                   	int3   
  4123a7:	cc                   	int3   
  4123a8:	cc                   	int3   
  4123a9:	cc                   	int3   
  4123aa:	cc                   	int3   
  4123ab:	cc                   	int3   
  4123ac:	cc                   	int3   
  4123ad:	cc                   	int3   
  4123ae:	cc                   	int3   
  4123af:	cc                   	int3   
  4123b0:	cc                   	int3   
  4123b1:	cc                   	int3   
  4123b2:	cc                   	int3   
  4123b3:	cc                   	int3   
  4123b4:	cc                   	int3   
  4123b5:	cc                   	int3   
  4123b6:	cc                   	int3   
  4123b7:	cc                   	int3   
  4123b8:	cc                   	int3   
  4123b9:	cc                   	int3   
  4123ba:	cc                   	int3   
  4123bb:	cc                   	int3   
  4123bc:	cc                   	int3   
  4123bd:	cc                   	int3   
  4123be:	cc                   	int3   
  4123bf:	cc                   	int3   
  4123c0:	55                   	push   %ebp
  4123c1:	8b ec                	mov    %esp,%ebp
  4123c3:	8b 45 0c             	mov    0xc(%ebp),%eax
  4123c6:	83 f8 04             	cmp    $0x4,%eax
  4123c9:	77 23                	ja     0x4123ee
  4123cb:	8b 0c 85 0c a0 41 00 	mov    0x41a00c(,%eax,4),%ecx
  4123d2:	8b 14 85 c8 7b 41 00 	mov    0x417bc8(,%eax,4),%edx
  4123d9:	83 f9 ff             	cmp    $0xffffffff,%ecx
  4123dc:	74 2e                	je     0x41240c
  4123de:	52                   	push   %edx
  4123df:	50                   	push   %eax
  4123e0:	51                   	push   %ecx
  4123e1:	ff 75 08             	pushl  0x8(%ebp)
  4123e4:	e8 d7 01 00 00       	call   0x4125c0
  4123e9:	83 c4 10             	add    $0x10,%esp
  4123ec:	5d                   	pop    %ebp
  4123ed:	c3                   	ret    
  4123ee:	8b 15 dc 7b 41 00    	mov    0x417bdc,%edx
  4123f4:	b8 05 00 00 00       	mov    $0x5,%eax
  4123f9:	52                   	push   %edx
  4123fa:	50                   	push   %eax
  4123fb:	b9 01 00 00 00       	mov    $0x1,%ecx
  412400:	51                   	push   %ecx
  412401:	ff 75 08             	pushl  0x8(%ebp)
  412404:	e8 b7 01 00 00       	call   0x4125c0
  412409:	83 c4 10             	add    $0x10,%esp
  41240c:	5d                   	pop    %ebp
  41240d:	c3                   	ret    
  41240e:	cc                   	int3   
  41240f:	cc                   	int3   
  412410:	cc                   	int3   
  412411:	cc                   	int3   
  412412:	cc                   	int3   
  412413:	cc                   	int3   
  412414:	cc                   	int3   
  412415:	cc                   	int3   
  412416:	cc                   	int3   
  412417:	cc                   	int3   
  412418:	cc                   	int3   
  412419:	cc                   	int3   
  41241a:	cc                   	int3   
  41241b:	cc                   	int3   
  41241c:	cc                   	int3   
  41241d:	cc                   	int3   
  41241e:	cc                   	int3   
  41241f:	cc                   	int3   
  412420:	cc                   	int3   
  412421:	cc                   	int3   
  412422:	cc                   	int3   
  412423:	cc                   	int3   
  412424:	cc                   	int3   
  412425:	cc                   	int3   
  412426:	cc                   	int3   
  412427:	cc                   	int3   
  412428:	cc                   	int3   
  412429:	cc                   	int3   
  41242a:	cc                   	int3   
  41242b:	cc                   	int3   
  41242c:	cc                   	int3   
  41242d:	cc                   	int3   
  41242e:	cc                   	int3   
  41242f:	cc                   	int3   
  412430:	55                   	push   %ebp
  412431:	8b ec                	mov    %esp,%ebp
  412433:	81 ec 04 04 00 00    	sub    $0x404,%esp
  412439:	a1 00 a0 41 00       	mov    0x41a000,%eax
  41243e:	33 c5                	xor    %ebp,%eax
  412440:	89 45 fc             	mov    %eax,-0x4(%ebp)
  412443:	53                   	push   %ebx
  412444:	8b 5d 08             	mov    0x8(%ebp),%ebx
  412447:	56                   	push   %esi
  412448:	8b 75 0c             	mov    0xc(%ebp),%esi
  41244b:	57                   	push   %edi
  41244c:	8b 3d 14 a0 41 00    	mov    0x41a014,%edi
  412452:	83 ff ff             	cmp    $0xffffffff,%edi
  412455:	74 73                	je     0x4124ca
  412457:	80 3e 00             	cmpb   $0x0,(%esi)
  41245a:	74 5c                	je     0x4124b8
  41245c:	56                   	push   %esi
  41245d:	e8 3e 01 00 00       	call   0x4125a0
  412462:	83 c0 2d             	add    $0x2d,%eax
  412465:	83 c4 04             	add    $0x4,%esp
  412468:	3d 00 04 00 00       	cmp    $0x400,%eax
  41246d:	77 49                	ja     0x4124b8
  41246f:	68 f8 7b 41 00       	push   $0x417bf8
  412474:	8d 85 fc fb ff ff    	lea    -0x404(%ebp),%eax
  41247a:	68 00 04 00 00       	push   $0x400
  41247f:	50                   	push   %eax
  412480:	e8 da eb ff ff       	call   0x41105f
  412485:	56                   	push   %esi
  412486:	8d 85 fc fb ff ff    	lea    -0x404(%ebp),%eax
  41248c:	68 00 04 00 00       	push   $0x400
  412491:	50                   	push   %eax
  412492:	e8 d2 eb ff ff       	call   0x411069
  412497:	68 14 7c 41 00       	push   $0x417c14
  41249c:	8d 85 fc fb ff ff    	lea    -0x404(%ebp),%eax
  4124a2:	68 00 04 00 00       	push   $0x400
  4124a7:	50                   	push   %eax
  4124a8:	e8 bc eb ff ff       	call   0x411069
  4124ad:	83 c4 24             	add    $0x24,%esp
  4124b0:	8d 85 fc fb ff ff    	lea    -0x404(%ebp),%eax
  4124b6:	eb 05                	jmp    0x4124bd
  4124b8:	b8 d8 80 41 00       	mov    $0x4180d8,%eax
  4124bd:	50                   	push   %eax
  4124be:	6a 02                	push   $0x2
  4124c0:	57                   	push   %edi
  4124c1:	53                   	push   %ebx
  4124c2:	e8 f9 00 00 00       	call   0x4125c0
  4124c7:	83 c4 10             	add    $0x10,%esp
  4124ca:	8b 4d fc             	mov    -0x4(%ebp),%ecx
  4124cd:	5f                   	pop    %edi
  4124ce:	5e                   	pop    %esi
  4124cf:	33 cd                	xor    %ebp,%ecx
  4124d1:	5b                   	pop    %ebx
  4124d2:	e8 b8 ed ff ff       	call   0x41128f
  4124d7:	8b e5                	mov    %ebp,%esp
  4124d9:	5d                   	pop    %ebp
  4124da:	c3                   	ret    
  4124db:	cc                   	int3   
  4124dc:	cc                   	int3   
  4124dd:	cc                   	int3   
  4124de:	cc                   	int3   
  4124df:	cc                   	int3   
  4124e0:	cc                   	int3   
  4124e1:	cc                   	int3   
  4124e2:	cc                   	int3   
  4124e3:	cc                   	int3   
  4124e4:	cc                   	int3   
  4124e5:	cc                   	int3   
  4124e6:	cc                   	int3   
  4124e7:	cc                   	int3   
  4124e8:	cc                   	int3   
  4124e9:	cc                   	int3   
  4124ea:	cc                   	int3   
  4124eb:	cc                   	int3   
  4124ec:	cc                   	int3   
  4124ed:	cc                   	int3   
  4124ee:	cc                   	int3   
  4124ef:	cc                   	int3   
  4124f0:	cc                   	int3   
  4124f1:	cc                   	int3   
  4124f2:	cc                   	int3   
  4124f3:	cc                   	int3   
  4124f4:	cc                   	int3   
  4124f5:	cc                   	int3   
  4124f6:	cc                   	int3   
  4124f7:	cc                   	int3   
  4124f8:	cc                   	int3   
  4124f9:	cc                   	int3   
  4124fa:	cc                   	int3   
  4124fb:	cc                   	int3   
  4124fc:	cc                   	int3   
  4124fd:	cc                   	int3   
  4124fe:	cc                   	int3   
  4124ff:	cc                   	int3   
  412500:	cc                   	int3   
  412501:	cc                   	int3   
  412502:	cc                   	int3   
  412503:	cc                   	int3   
  412504:	cc                   	int3   
  412505:	cc                   	int3   
  412506:	cc                   	int3   
  412507:	cc                   	int3   
  412508:	cc                   	int3   
  412509:	cc                   	int3   
  41250a:	cc                   	int3   
  41250b:	cc                   	int3   
  41250c:	cc                   	int3   
  41250d:	cc                   	int3   
  41250e:	cc                   	int3   
  41250f:	cc                   	int3   
  412510:	55                   	push   %ebp
  412511:	8b ec                	mov    %esp,%ebp
  412513:	83 ec 08             	sub    $0x8,%esp
  412516:	33 c9                	xor    %ecx,%ecx
  412518:	53                   	push   %ebx
  412519:	8b 5d 10             	mov    0x10(%ebp),%ebx
  41251c:	8d 51 31             	lea    0x31(%ecx),%edx
  41251f:	56                   	push   %esi
  412520:	8b 75 08             	mov    0x8(%ebp),%esi
  412523:	2b de                	sub    %esi,%ebx
  412525:	57                   	push   %edi
  412526:	8b 7d 0c             	mov    0xc(%ebp),%edi
  412529:	89 5d 10             	mov    %ebx,0x10(%ebp)
  41252c:	8b 45 14             	mov    0x14(%ebp),%eax
  41252f:	89 55 f8             	mov    %edx,-0x8(%ebp)
  412532:	89 4d fc             	mov    %ecx,-0x4(%ebp)
  412535:	83 f8 10             	cmp    $0x10,%eax
  412538:	72 05                	jb     0x41253f
  41253a:	b8 10 00 00 00       	mov    $0x10,%eax
  41253f:	3b c8                	cmp    %eax,%ecx
  412541:	73 2b                	jae    0x41256e
  412543:	8a 1c 33             	mov    (%ebx,%esi,1),%bl
  412546:	0f b6 c3             	movzbl %bl,%eax
  412549:	50                   	push   %eax
  41254a:	68 08 81 41 00       	push   $0x418108
  41254f:	52                   	push   %edx
  412550:	57                   	push   %edi
  412551:	e8 cf ed ff ff       	call   0x411325
  412556:	8b 4d fc             	mov    -0x4(%ebp),%ecx
  412559:	83 c4 10             	add    $0x10,%esp
  41255c:	8b 55 f8             	mov    -0x8(%ebp),%edx
  41255f:	41                   	inc    %ecx
  412560:	88 1e                	mov    %bl,(%esi)
  412562:	83 c7 03             	add    $0x3,%edi
  412565:	8b 5d 10             	mov    0x10(%ebp),%ebx
  412568:	46                   	inc    %esi
  412569:	83 ea 03             	sub    $0x3,%edx
  41256c:	eb be                	jmp    0x41252c
  41256e:	c6 06 00             	movb   $0x0,(%esi)
  412571:	c6 07 00             	movb   $0x0,(%edi)
  412574:	5f                   	pop    %edi
  412575:	5e                   	pop    %esi
  412576:	5b                   	pop    %ebx
  412577:	8b e5                	mov    %ebp,%esp
  412579:	5d                   	pop    %ebp
  41257a:	c3                   	ret    
  41257b:	cc                   	int3   
  41257c:	cc                   	int3   
  41257d:	cc                   	int3   
  41257e:	cc                   	int3   
  41257f:	cc                   	int3   
  412580:	cc                   	int3   
  412581:	cc                   	int3   
  412582:	cc                   	int3   
  412583:	cc                   	int3   
  412584:	cc                   	int3   
  412585:	cc                   	int3   
  412586:	cc                   	int3   
  412587:	cc                   	int3   
  412588:	cc                   	int3   
  412589:	cc                   	int3   
  41258a:	cc                   	int3   
  41258b:	cc                   	int3   
  41258c:	cc                   	int3   
  41258d:	cc                   	int3   
  41258e:	cc                   	int3   
  41258f:	cc                   	int3   
  412590:	cc                   	int3   
  412591:	cc                   	int3   
  412592:	cc                   	int3   
  412593:	cc                   	int3   
  412594:	cc                   	int3   
  412595:	cc                   	int3   
  412596:	cc                   	int3   
  412597:	cc                   	int3   
  412598:	cc                   	int3   
  412599:	cc                   	int3   
  41259a:	cc                   	int3   
  41259b:	cc                   	int3   
  41259c:	cc                   	int3   
  41259d:	cc                   	int3   
  41259e:	cc                   	int3   
  41259f:	cc                   	int3   
  4125a0:	55                   	push   %ebp
  4125a1:	8b ec                	mov    %esp,%ebp
  4125a3:	8b 55 08             	mov    0x8(%ebp),%edx
  4125a6:	8b c2                	mov    %edx,%eax
  4125a8:	8a 08                	mov    (%eax),%cl
  4125aa:	40                   	inc    %eax
  4125ab:	84 c9                	test   %cl,%cl
  4125ad:	75 f9                	jne    0x4125a8
  4125af:	2b c2                	sub    %edx,%eax
  4125b1:	48                   	dec    %eax
  4125b2:	5d                   	pop    %ebp
  4125b3:	c3                   	ret    
  4125b4:	cc                   	int3   
  4125b5:	cc                   	int3   
  4125b6:	cc                   	int3   
  4125b7:	cc                   	int3   
  4125b8:	cc                   	int3   
  4125b9:	cc                   	int3   
  4125ba:	cc                   	int3   
  4125bb:	cc                   	int3   
  4125bc:	cc                   	int3   
  4125bd:	cc                   	int3   
  4125be:	cc                   	int3   
  4125bf:	cc                   	int3   
  4125c0:	55                   	push   %ebp
  4125c1:	8b ec                	mov    %esp,%ebp
  4125c3:	81 ec 3c 0e 00 00    	sub    $0xe3c,%esp
  4125c9:	a1 00 a0 41 00       	mov    0x41a000,%eax
  4125ce:	33 c5                	xor    %ebp,%eax
  4125d0:	89 45 fc             	mov    %eax,-0x4(%ebp)
  4125d3:	8b 45 10             	mov    0x10(%ebp),%eax
  4125d6:	53                   	push   %ebx
  4125d7:	8b 5d 14             	mov    0x14(%ebp),%ebx
  4125da:	56                   	push   %esi
  4125db:	8b 75 08             	mov    0x8(%ebp),%esi
  4125de:	57                   	push   %edi
  4125df:	56                   	push   %esi
  4125e0:	89 85 d0 f1 ff ff    	mov    %eax,-0xe30(%ebp)
  4125e6:	89 9d c4 f1 ff ff    	mov    %ebx,-0xe3c(%ebp)
  4125ec:	c7 85 cc f1 ff ff 00 	movl   $0x0,-0xe34(%ebp)
  4125f3:	00 00 00 
  4125f6:	e8 c8 ea ff ff       	call   0x4110c3
  4125fb:	8b f8                	mov    %eax,%edi
  4125fd:	83 c4 04             	add    $0x4,%esp
  412600:	85 ff                	test   %edi,%edi
  412602:	75 0f                	jne    0x412613
  412604:	56                   	push   %esi
  412605:	e8 16 ed ff ff       	call   0x411320
  41260a:	83 c4 04             	add    $0x4,%esp
  41260d:	89 85 cc f1 ff ff    	mov    %eax,-0xe34(%ebp)
  412613:	6a 00                	push   $0x0
  412615:	6a 00                	push   $0x0
  412617:	6a ff                	push   $0xffffffff
  412619:	53                   	push   %ebx
  41261a:	6a 00                	push   $0x0
  41261c:	68 e9 fd 00 00       	push   $0xfde9
  412621:	ff 15 08 b0 41 00    	call   *0x41b008
  412627:	3d 00 02 00 00       	cmp    $0x200,%eax
  41262c:	73 22                	jae    0x412650
  41262e:	50                   	push   %eax
  41262f:	8d 85 d4 f1 ff ff    	lea    -0xe2c(%ebp),%eax
  412635:	50                   	push   %eax
  412636:	6a ff                	push   $0xffffffff
  412638:	53                   	push   %ebx
  412639:	6a 00                	push   $0x0
  41263b:	68 e9 fd 00 00       	push   $0xfde9
  412640:	ff 15 08 b0 41 00    	call   *0x41b008
  412646:	8d 9d d4 f1 ff ff    	lea    -0xe2c(%ebp),%ebx
  41264c:	85 c0                	test   %eax,%eax
  41264e:	75 05                	jne    0x412655
  412650:	bb b0 7f 41 00       	mov    $0x417fb0,%ebx
  412655:	68 02 10 00 00       	push   $0x1002
  41265a:	e8 91 fb ff ff       	call   0x4121f0
  41265f:	83 c4 04             	add    $0x4,%esp
  412662:	84 c0                	test   %al,%al
  412664:	74 22                	je     0x412688
  412666:	8b 85 d0 f1 ff ff    	mov    -0xe30(%ebp),%eax
  41266c:	53                   	push   %ebx
  41266d:	56                   	push   %esi
  41266e:	ff 34 85 e0 7b 41 00 	pushl  0x417be0(,%eax,4)
  412675:	50                   	push   %eax
  412676:	e8 c5 fb ff ff       	call   0x412240
  41267b:	83 c4 10             	add    $0x10,%esp
  41267e:	84 c0                	test   %al,%al
  412680:	0f 85 25 01 00 00    	jne    0x4127ab
  412686:	eb 02                	jmp    0x41268a
  412688:	b0 01                	mov    $0x1,%al
  41268a:	83 bd cc f1 ff ff 00 	cmpl   $0x0,-0xe34(%ebp)
  412691:	75 08                	jne    0x41269b
  412693:	85 ff                	test   %edi,%edi
  412695:	0f 84 0f 01 00 00    	je     0x4127aa
  41269b:	84 c0                	test   %al,%al
  41269d:	74 0e                	je     0x4126ad
  41269f:	ff 15 38 b0 41 00    	call   *0x41b038
  4126a5:	85 c0                	test   %eax,%eax
  4126a7:	0f 85 fd 00 00 00    	jne    0x4127aa
  4126ad:	68 04 01 00 00       	push   $0x104
  4126b2:	8d 85 ec fb ff ff    	lea    -0x414(%ebp),%eax
  4126b8:	50                   	push   %eax
  4126b9:	8d 85 c8 f1 ff ff    	lea    -0xe38(%ebp),%eax
  4126bf:	50                   	push   %eax
  4126c0:	68 04 01 00 00       	push   $0x104
  4126c5:	8d 85 f4 fd ff ff    	lea    -0x20c(%ebp),%eax
  4126cb:	50                   	push   %eax
  4126cc:	8d 46 fb             	lea    -0x5(%esi),%eax
  4126cf:	50                   	push   %eax
  4126d0:	e8 73 ec ff ff       	call   0x411348
  4126d5:	83 c4 18             	add    $0x18,%esp
  4126d8:	85 ff                	test   %edi,%edi
  4126da:	74 31                	je     0x41270d
  4126dc:	53                   	push   %ebx
  4126dd:	ff b5 d0 f1 ff ff    	pushl  -0xe30(%ebp)
  4126e3:	8d 85 ec fb ff ff    	lea    -0x414(%ebp),%eax
  4126e9:	8b cf                	mov    %edi,%ecx
  4126eb:	68 38 80 41 00       	push   $0x418038
  4126f0:	50                   	push   %eax
  4126f1:	ff b5 c8 f1 ff ff    	pushl  -0xe38(%ebp)
  4126f7:	8d 85 f4 fd ff ff    	lea    -0x20c(%ebp),%eax
  4126fd:	50                   	push   %eax
  4126fe:	ff 75 0c             	pushl  0xc(%ebp)
  412701:	e8 de eb ff ff       	call   0x4112e4
  412706:	ff d7                	call   *%edi
  412708:	e9 95 00 00 00       	jmp    0x4127a2
  41270d:	6a 00                	push   $0x0
  41270f:	6a 00                	push   $0x0
  412711:	68 0a 03 00 00       	push   $0x30a
  412716:	8d 85 e0 f8 ff ff    	lea    -0x720(%ebp),%eax
  41271c:	be 84 80 41 00       	mov    $0x418084,%esi
  412721:	50                   	push   %eax
  412722:	6a ff                	push   $0xffffffff
  412724:	8d 85 f4 fd ff ff    	lea    -0x20c(%ebp),%eax
  41272a:	50                   	push   %eax
  41272b:	6a 00                	push   $0x0
  41272d:	68 e9 fd 00 00       	push   $0xfde9
  412732:	ff 15 0c b0 41 00    	call   *0x41b00c
  412738:	85 c0                	test   %eax,%eax
  41273a:	74 06                	je     0x412742
  41273c:	8d b5 e0 f8 ff ff    	lea    -0x720(%ebp),%esi
  412742:	6a 00                	push   $0x0
  412744:	6a 00                	push   $0x0
  412746:	68 0a 03 00 00       	push   $0x30a
  41274b:	8d 85 d4 f5 ff ff    	lea    -0xa2c(%ebp),%eax
  412751:	bf 98 80 41 00       	mov    $0x418098,%edi
  412756:	50                   	push   %eax
  412757:	6a ff                	push   $0xffffffff
  412759:	8d 85 ec fb ff ff    	lea    -0x414(%ebp),%eax
  41275f:	50                   	push   %eax
  412760:	6a 00                	push   $0x0
  412762:	68 e9 fd 00 00       	push   $0xfde9
  412767:	ff 15 0c b0 41 00    	call   *0x41b00c
  41276d:	85 c0                	test   %eax,%eax
  41276f:	74 06                	je     0x412777
  412771:	8d bd d4 f5 ff ff    	lea    -0xa2c(%ebp),%edi
  412777:	ff b5 c4 f1 ff ff    	pushl  -0xe3c(%ebp)
  41277d:	8b 9d cc f1 ff ff    	mov    -0xe34(%ebp),%ebx
  412783:	8b cb                	mov    %ebx,%ecx
  412785:	ff b5 d0 f1 ff ff    	pushl  -0xe30(%ebp)
  41278b:	68 b0 80 41 00       	push   $0x4180b0
  412790:	57                   	push   %edi
  412791:	ff b5 c8 f1 ff ff    	pushl  -0xe38(%ebp)
  412797:	56                   	push   %esi
  412798:	ff 75 0c             	pushl  0xc(%ebp)
  41279b:	e8 44 eb ff ff       	call   0x4112e4
  4127a0:	ff d3                	call   *%ebx
  4127a2:	83 c4 1c             	add    $0x1c,%esp
  4127a5:	83 f8 01             	cmp    $0x1,%eax
  4127a8:	75 01                	jne    0x4127ab
  4127aa:	cc                   	int3   
  4127ab:	8b 4d fc             	mov    -0x4(%ebp),%ecx
  4127ae:	5f                   	pop    %edi
  4127af:	5e                   	pop    %esi
  4127b0:	33 cd                	xor    %ebp,%ecx
  4127b2:	5b                   	pop    %ebx
  4127b3:	e8 d7 ea ff ff       	call   0x41128f
  4127b8:	8b e5                	mov    %ebp,%esp
  4127ba:	5d                   	pop    %ebp
  4127bb:	c3                   	ret    
  4127bc:	cc                   	int3   
  4127bd:	cc                   	int3   
  4127be:	cc                   	int3   
  4127bf:	cc                   	int3   
  4127c0:	cc                   	int3   
  4127c1:	cc                   	int3   
  4127c2:	cc                   	int3   
  4127c3:	cc                   	int3   
  4127c4:	cc                   	int3   
  4127c5:	cc                   	int3   
  4127c6:	cc                   	int3   
  4127c7:	cc                   	int3   
  4127c8:	cc                   	int3   
  4127c9:	cc                   	int3   
  4127ca:	cc                   	int3   
  4127cb:	cc                   	int3   
  4127cc:	cc                   	int3   
  4127cd:	cc                   	int3   
  4127ce:	cc                   	int3   
  4127cf:	cc                   	int3   
  4127d0:	cc                   	int3   
  4127d1:	cc                   	int3   
  4127d2:	cc                   	int3   
  4127d3:	cc                   	int3   
  4127d4:	cc                   	int3   
  4127d5:	cc                   	int3   
  4127d6:	cc                   	int3   
  4127d7:	cc                   	int3   
  4127d8:	cc                   	int3   
  4127d9:	cc                   	int3   
  4127da:	cc                   	int3   
  4127db:	cc                   	int3   
  4127dc:	cc                   	int3   
  4127dd:	cc                   	int3   
  4127de:	cc                   	int3   
  4127df:	cc                   	int3   
  4127e0:	cc                   	int3   
  4127e1:	cc                   	int3   
  4127e2:	cc                   	int3   
  4127e3:	cc                   	int3   
  4127e4:	cc                   	int3   
  4127e5:	cc                   	int3   
  4127e6:	cc                   	int3   
  4127e7:	cc                   	int3   
  4127e8:	cc                   	int3   
  4127e9:	cc                   	int3   
  4127ea:	cc                   	int3   
  4127eb:	cc                   	int3   
  4127ec:	cc                   	int3   
  4127ed:	cc                   	int3   
  4127ee:	cc                   	int3   
  4127ef:	cc                   	int3   
  4127f0:	cc                   	int3   
  4127f1:	cc                   	int3   
  4127f2:	cc                   	int3   
  4127f3:	cc                   	int3   
  4127f4:	cc                   	int3   
  4127f5:	cc                   	int3   
  4127f6:	cc                   	int3   
  4127f7:	cc                   	int3   
  4127f8:	cc                   	int3   
  4127f9:	cc                   	int3   
  4127fa:	cc                   	int3   
  4127fb:	cc                   	int3   
  4127fc:	cc                   	int3   
  4127fd:	cc                   	int3   
  4127fe:	cc                   	int3   
  4127ff:	cc                   	int3   
  412800:	cc                   	int3   
  412801:	cc                   	int3   
  412802:	cc                   	int3   
  412803:	cc                   	int3   
  412804:	cc                   	int3   
  412805:	cc                   	int3   
  412806:	cc                   	int3   
  412807:	cc                   	int3   
  412808:	cc                   	int3   
  412809:	cc                   	int3   
  41280a:	cc                   	int3   
  41280b:	cc                   	int3   
  41280c:	cc                   	int3   
  41280d:	cc                   	int3   
  41280e:	cc                   	int3   
  41280f:	cc                   	int3   
  412810:	cc                   	int3   
  412811:	cc                   	int3   
  412812:	cc                   	int3   
  412813:	cc                   	int3   
  412814:	cc                   	int3   
  412815:	cc                   	int3   
  412816:	cc                   	int3   
  412817:	cc                   	int3   
  412818:	cc                   	int3   
  412819:	cc                   	int3   
  41281a:	cc                   	int3   
  41281b:	cc                   	int3   
  41281c:	cc                   	int3   
  41281d:	cc                   	int3   
  41281e:	cc                   	int3   
  41281f:	cc                   	int3   
  412820:	cc                   	int3   
  412821:	cc                   	int3   
  412822:	cc                   	int3   
  412823:	cc                   	int3   
  412824:	cc                   	int3   
  412825:	cc                   	int3   
  412826:	cc                   	int3   
  412827:	cc                   	int3   
  412828:	cc                   	int3   
  412829:	cc                   	int3   
  41282a:	cc                   	int3   
  41282b:	cc                   	int3   
  41282c:	cc                   	int3   
  41282d:	cc                   	int3   
  41282e:	cc                   	int3   
  41282f:	cc                   	int3   
  412830:	cc                   	int3   
  412831:	cc                   	int3   
  412832:	cc                   	int3   
  412833:	cc                   	int3   
  412834:	cc                   	int3   
  412835:	cc                   	int3   
  412836:	cc                   	int3   
  412837:	cc                   	int3   
  412838:	cc                   	int3   
  412839:	cc                   	int3   
  41283a:	cc                   	int3   
  41283b:	cc                   	int3   
  41283c:	cc                   	int3   
  41283d:	cc                   	int3   
  41283e:	cc                   	int3   
  41283f:	cc                   	int3   
  412840:	55                   	push   %ebp
  412841:	8b ec                	mov    %esp,%ebp
  412843:	6a fe                	push   $0xfffffffe
  412845:	68 70 8f 41 00       	push   $0x418f70
  41284a:	68 80 3e 41 00       	push   $0x413e80
  41284f:	64 a1 00 00 00 00    	mov    %fs:0x0,%eax
  412855:	50                   	push   %eax
  412856:	83 ec 08             	sub    $0x8,%esp
  412859:	53                   	push   %ebx
  41285a:	56                   	push   %esi
  41285b:	57                   	push   %edi
  41285c:	a1 00 a0 41 00       	mov    0x41a000,%eax
  412861:	31 45 f8             	xor    %eax,-0x8(%ebp)
  412864:	33 c5                	xor    %ebp,%eax
  412866:	50                   	push   %eax
  412867:	8d 45 f0             	lea    -0x10(%ebp),%eax
  41286a:	64 a3 00 00 00 00    	mov    %eax,%fs:0x0
  412870:	89 65 e8             	mov    %esp,-0x18(%ebp)
  412873:	c7 45 fc 00 00 00 00 	movl   $0x0,-0x4(%ebp)
  41287a:	ff 75 08             	pushl  0x8(%ebp)
  41287d:	6a 06                	push   $0x6
  41287f:	6a 00                	push   $0x0
  412881:	68 88 13 6d 40       	push   $0x406d1388
  412886:	ff 15 04 b0 41 00    	call   *0x41b004
  41288c:	eb 16                	jmp    0x4128a4
  41288e:	8b 45 ec             	mov    -0x14(%ebp),%eax
  412891:	8b 00                	mov    (%eax),%eax
  412893:	33 c9                	xor    %ecx,%ecx
  412895:	81 38 88 13 6d 40    	cmpl   $0x406d1388,(%eax)
  41289b:	0f 94 c1             	sete   %cl
  41289e:	8b c1                	mov    %ecx,%eax
  4128a0:	c3                   	ret    
  4128a1:	8b 65 e8             	mov    -0x18(%ebp),%esp
  4128a4:	c7 45 fc fe ff ff ff 	movl   $0xfffffffe,-0x4(%ebp)
  4128ab:	8b 4d f0             	mov    -0x10(%ebp),%ecx
  4128ae:	64 89 0d 00 00 00 00 	mov    %ecx,%fs:0x0
  4128b5:	59                   	pop    %ecx
  4128b6:	5f                   	pop    %edi
  4128b7:	5e                   	pop    %esi
  4128b8:	5b                   	pop    %ebx
  4128b9:	8b e5                	mov    %ebp,%esp
  4128bb:	5d                   	pop    %ebp
  4128bc:	c3                   	ret    
  4128bd:	cc                   	int3   
  4128be:	cc                   	int3   
  4128bf:	cc                   	int3   
  4128c0:	cc                   	int3   
  4128c1:	cc                   	int3   
  4128c2:	cc                   	int3   
  4128c3:	cc                   	int3   
  4128c4:	cc                   	int3   
  4128c5:	cc                   	int3   
  4128c6:	cc                   	int3   
  4128c7:	cc                   	int3   
  4128c8:	cc                   	int3   
  4128c9:	cc                   	int3   
  4128ca:	cc                   	int3   
  4128cb:	cc                   	int3   
  4128cc:	cc                   	int3   
  4128cd:	cc                   	int3   
  4128ce:	cc                   	int3   
  4128cf:	cc                   	int3   
  4128d0:	cc                   	int3   
  4128d1:	cc                   	int3   
  4128d2:	cc                   	int3   
  4128d3:	cc                   	int3   
  4128d4:	cc                   	int3   
  4128d5:	cc                   	int3   
  4128d6:	cc                   	int3   
  4128d7:	cc                   	int3   
  4128d8:	cc                   	int3   
  4128d9:	cc                   	int3   
  4128da:	cc                   	int3   
  4128db:	cc                   	int3   
  4128dc:	cc                   	int3   
  4128dd:	cc                   	int3   
  4128de:	cc                   	int3   
  4128df:	cc                   	int3   
  4128e0:	55                   	push   %ebp
  4128e1:	8b ec                	mov    %esp,%ebp
  4128e3:	81 ec 04 04 00 00    	sub    $0x404,%esp
  4128e9:	a1 00 a0 41 00       	mov    0x41a000,%eax
  4128ee:	33 c5                	xor    %ebp,%eax
  4128f0:	89 45 fc             	mov    %eax,-0x4(%ebp)
  4128f3:	56                   	push   %esi
  4128f4:	8b 75 08             	mov    0x8(%ebp),%esi
  4128f7:	57                   	push   %edi
  4128f8:	8b 3d 18 a0 41 00    	mov    0x41a018,%edi
  4128fe:	83 ff ff             	cmp    $0xffffffff,%edi
  412901:	74 75                	je     0x412978
  412903:	85 f6                	test   %esi,%esi
  412905:	74 5c                	je     0x412963
  412907:	56                   	push   %esi
  412908:	e8 93 fc ff ff       	call   0x4125a0
  41290d:	83 c0 3a             	add    $0x3a,%eax
  412910:	83 c4 04             	add    $0x4,%esp
  412913:	3d 00 04 00 00       	cmp    $0x400,%eax
  412918:	77 49                	ja     0x412963
  41291a:	68 28 7c 41 00       	push   $0x417c28
  41291f:	8d 85 fc fb ff ff    	lea    -0x404(%ebp),%eax
  412925:	68 00 04 00 00       	push   $0x400
  41292a:	50                   	push   %eax
  41292b:	e8 2f e7 ff ff       	call   0x41105f
  412930:	56                   	push   %esi
  412931:	8d 85 fc fb ff ff    	lea    -0x404(%ebp),%eax
  412937:	68 00 04 00 00       	push   $0x400
  41293c:	50                   	push   %eax
  41293d:	e8 27 e7 ff ff       	call   0x411069
  412942:	68 38 7c 41 00       	push   $0x417c38
  412947:	8d 85 fc fb ff ff    	lea    -0x404(%ebp),%eax
  41294d:	68 00 04 00 00       	push   $0x400
  412952:	50                   	push   %eax
  412953:	e8 11 e7 ff ff       	call   0x411069
  412958:	83 c4 24             	add    $0x24,%esp
  41295b:	8d 85 fc fb ff ff    	lea    -0x404(%ebp),%eax
  412961:	eb 05                	jmp    0x412968
  412963:	b8 48 82 41 00       	mov    $0x418248,%eax
  412968:	50                   	push   %eax
  412969:	8b 45 04             	mov    0x4(%ebp),%eax
  41296c:	6a 03                	push   $0x3
  41296e:	57                   	push   %edi
  41296f:	50                   	push   %eax
  412970:	e8 4b fc ff ff       	call   0x4125c0
  412975:	83 c4 10             	add    $0x10,%esp
  412978:	8b 4d fc             	mov    -0x4(%ebp),%ecx
  41297b:	5f                   	pop    %edi
  41297c:	33 cd                	xor    %ebp,%ecx
  41297e:	5e                   	pop    %esi
  41297f:	e8 0b e9 ff ff       	call   0x41128f
  412984:	8b e5                	mov    %ebp,%esp
  412986:	5d                   	pop    %ebp
  412987:	c3                   	ret    
  412988:	cc                   	int3   
  412989:	cc                   	int3   
  41298a:	cc                   	int3   
  41298b:	cc                   	int3   
  41298c:	cc                   	int3   
  41298d:	cc                   	int3   
  41298e:	cc                   	int3   
  41298f:	cc                   	int3   
  412990:	cc                   	int3   
  412991:	cc                   	int3   
  412992:	cc                   	int3   
  412993:	cc                   	int3   
  412994:	cc                   	int3   
  412995:	cc                   	int3   
  412996:	cc                   	int3   
  412997:	cc                   	int3   
  412998:	cc                   	int3   
  412999:	cc                   	int3   
  41299a:	cc                   	int3   
  41299b:	cc                   	int3   
  41299c:	cc                   	int3   
  41299d:	cc                   	int3   
  41299e:	cc                   	int3   
  41299f:	cc                   	int3   
  4129a0:	cc                   	int3   
  4129a1:	cc                   	int3   
  4129a2:	cc                   	int3   
  4129a3:	cc                   	int3   
  4129a4:	cc                   	int3   
  4129a5:	cc                   	int3   
  4129a6:	cc                   	int3   
  4129a7:	cc                   	int3   
  4129a8:	cc                   	int3   
  4129a9:	cc                   	int3   
  4129aa:	cc                   	int3   
  4129ab:	cc                   	int3   
  4129ac:	cc                   	int3   
  4129ad:	cc                   	int3   
  4129ae:	cc                   	int3   
  4129af:	cc                   	int3   
  4129b0:	cc                   	int3   
  4129b1:	cc                   	int3   
  4129b2:	cc                   	int3   
  4129b3:	cc                   	int3   
  4129b4:	cc                   	int3   
  4129b5:	cc                   	int3   
  4129b6:	cc                   	int3   
  4129b7:	cc                   	int3   
  4129b8:	cc                   	int3   
  4129b9:	cc                   	int3   
  4129ba:	cc                   	int3   
  4129bb:	cc                   	int3   
  4129bc:	cc                   	int3   
  4129bd:	cc                   	int3   
  4129be:	cc                   	int3   
  4129bf:	cc                   	int3   
  4129c0:	55                   	push   %ebp
  4129c1:	8b ec                	mov    %esp,%ebp
  4129c3:	e8 94 e9 ff ff       	call   0x41135c
  4129c8:	ff 75 18             	pushl  0x18(%ebp)
  4129cb:	ff 75 14             	pushl  0x14(%ebp)
  4129ce:	ff 75 10             	pushl  0x10(%ebp)
  4129d1:	ff 75 0c             	pushl  0xc(%ebp)
  4129d4:	ff 75 08             	pushl  0x8(%ebp)
  4129d7:	ff 70 04             	pushl  0x4(%eax)
  4129da:	ff 30                	pushl  (%eax)
  4129dc:	e8 82 e7 ff ff       	call   0x411163
  4129e1:	83 c4 1c             	add    $0x1c,%esp
  4129e4:	85 c0                	test   %eax,%eax
  4129e6:	79 03                	jns    0x4129eb
  4129e8:	83 c8 ff             	or     $0xffffffff,%eax
  4129eb:	5d                   	pop    %ebp
  4129ec:	c3                   	ret    
  4129ed:	cc                   	int3   
  4129ee:	cc                   	int3   
  4129ef:	cc                   	int3   
  4129f0:	cc                   	int3   
  4129f1:	cc                   	int3   
  4129f2:	cc                   	int3   
  4129f3:	cc                   	int3   
  4129f4:	cc                   	int3   
  4129f5:	cc                   	int3   
  4129f6:	cc                   	int3   
  4129f7:	cc                   	int3   
  4129f8:	cc                   	int3   
  4129f9:	cc                   	int3   
  4129fa:	cc                   	int3   
  4129fb:	cc                   	int3   
  4129fc:	cc                   	int3   
  4129fd:	cc                   	int3   
  4129fe:	cc                   	int3   
  4129ff:	cc                   	int3   
  412a00:	55                   	push   %ebp
  412a01:	8b ec                	mov    %esp,%ebp
  412a03:	e8 dd e7 ff ff       	call   0x4111e5
  412a08:	8d 45 14             	lea    0x14(%ebp),%eax
  412a0b:	50                   	push   %eax
  412a0c:	6a 00                	push   $0x0
  412a0e:	ff 75 10             	pushl  0x10(%ebp)
  412a11:	ff 75 0c             	pushl  0xc(%ebp)
  412a14:	ff 75 08             	pushl  0x8(%ebp)
  412a17:	e8 33 e7 ff ff       	call   0x41114f
  412a1c:	83 c4 14             	add    $0x14,%esp
  412a1f:	5d                   	pop    %ebp
  412a20:	c3                   	ret    
  412a21:	cc                   	int3   
  412a22:	cc                   	int3   
  412a23:	cc                   	int3   
  412a24:	cc                   	int3   
  412a25:	cc                   	int3   
  412a26:	cc                   	int3   
  412a27:	cc                   	int3   
  412a28:	cc                   	int3   
  412a29:	cc                   	int3   
  412a2a:	cc                   	int3   
  412a2b:	cc                   	int3   
  412a2c:	cc                   	int3   
  412a2d:	cc                   	int3   
  412a2e:	cc                   	int3   
  412a2f:	cc                   	int3   
  412a30:	55                   	push   %ebp
  412a31:	8b ec                	mov    %esp,%ebp
  412a33:	6a 00                	push   $0x0
  412a35:	ff 15 14 b0 41 00    	call   *0x41b014
  412a3b:	8b 45 08             	mov    0x8(%ebp),%eax
  412a3e:	50                   	push   %eax
  412a3f:	ff 15 10 b0 41 00    	call   *0x41b010
  412a45:	68 09 04 00 c0       	push   $0xc0000409
  412a4a:	ff 15 58 b0 41 00    	call   *0x41b058
  412a50:	50                   	push   %eax
  412a51:	ff 15 54 b0 41 00    	call   *0x41b054
  412a57:	5d                   	pop    %ebp
  412a58:	c3                   	ret    
  412a59:	cc                   	int3   
  412a5a:	cc                   	int3   
  412a5b:	cc                   	int3   
  412a5c:	cc                   	int3   
  412a5d:	cc                   	int3   
  412a5e:	cc                   	int3   
  412a5f:	cc                   	int3   
  412a60:	cc                   	int3   
  412a61:	cc                   	int3   
  412a62:	cc                   	int3   
  412a63:	cc                   	int3   
  412a64:	cc                   	int3   
  412a65:	cc                   	int3   
  412a66:	cc                   	int3   
  412a67:	cc                   	int3   
  412a68:	cc                   	int3   
  412a69:	cc                   	int3   
  412a6a:	cc                   	int3   
  412a6b:	cc                   	int3   
  412a6c:	cc                   	int3   
  412a6d:	cc                   	int3   
  412a6e:	cc                   	int3   
  412a6f:	cc                   	int3   
  412a70:	55                   	push   %ebp
  412a71:	8b ec                	mov    %esp,%ebp
  412a73:	81 ec 24 03 00 00    	sub    $0x324,%esp
  412a79:	6a 17                	push   $0x17
  412a7b:	e8 96 e8 ff ff       	call   0x411316
  412a80:	85 c0                	test   %eax,%eax
  412a82:	74 07                	je     0x412a8b
  412a84:	b9 02 00 00 00       	mov    $0x2,%ecx
  412a89:	cd 29                	int    $0x29
  412a8b:	a3 48 a2 41 00       	mov    %eax,0x41a248
  412a90:	89 0d 44 a2 41 00    	mov    %ecx,0x41a244
  412a96:	89 15 40 a2 41 00    	mov    %edx,0x41a240
  412a9c:	89 1d 3c a2 41 00    	mov    %ebx,0x41a23c
  412aa2:	89 35 38 a2 41 00    	mov    %esi,0x41a238
  412aa8:	89 3d 34 a2 41 00    	mov    %edi,0x41a234
  412aae:	66 8c 15 60 a2 41 00 	data16 mov %ss,0x41a260
  412ab5:	66 8c 0d 54 a2 41 00 	data16 mov %cs,0x41a254
  412abc:	66 8c 1d 30 a2 41 00 	data16 mov %ds,0x41a230
  412ac3:	66 8c 05 2c a2 41 00 	data16 mov %es,0x41a22c
  412aca:	66 8c 25 28 a2 41 00 	data16 mov %fs,0x41a228
  412ad1:	66 8c 2d 24 a2 41 00 	data16 mov %gs,0x41a224
  412ad8:	9c                   	pushf  
  412ad9:	8f 05 58 a2 41 00    	popl   0x41a258
  412adf:	8b 45 00             	mov    0x0(%ebp),%eax
  412ae2:	a3 4c a2 41 00       	mov    %eax,0x41a24c
  412ae7:	8b 45 04             	mov    0x4(%ebp),%eax
  412aea:	a3 50 a2 41 00       	mov    %eax,0x41a250
  412aef:	8d 45 08             	lea    0x8(%ebp),%eax
  412af2:	a3 5c a2 41 00       	mov    %eax,0x41a25c
  412af7:	8b 85 dc fc ff ff    	mov    -0x324(%ebp),%eax
  412afd:	c7 05 98 a1 41 00 01 	movl   $0x10001,0x41a198
  412b04:	00 01 00 
  412b07:	a1 50 a2 41 00       	mov    0x41a250,%eax
  412b0c:	a3 54 a1 41 00       	mov    %eax,0x41a154
  412b11:	c7 05 48 a1 41 00 09 	movl   $0xc0000409,0x41a148
  412b18:	04 00 c0 
  412b1b:	c7 05 4c a1 41 00 01 	movl   $0x1,0x41a14c
  412b22:	00 00 00 
  412b25:	c7 05 58 a1 41 00 01 	movl   $0x1,0x41a158
  412b2c:	00 00 00 
  412b2f:	b9 04 00 00 00       	mov    $0x4,%ecx
  412b34:	6b d1 00             	imul   $0x0,%ecx,%edx
  412b37:	c7 82 5c a1 41 00 02 	movl   $0x2,0x41a15c(%edx)
  412b3e:	00 00 00 
  412b41:	b8 04 00 00 00       	mov    $0x4,%eax
  412b46:	6b c8 00             	imul   $0x0,%eax,%ecx
  412b49:	8b 15 00 a0 41 00    	mov    0x41a000,%edx
  412b4f:	89 54 0d f8          	mov    %edx,-0x8(%ebp,%ecx,1)
  412b53:	b8 04 00 00 00       	mov    $0x4,%eax
  412b58:	c1 e0 00             	shl    $0x0,%eax
  412b5b:	8b 0d 04 a0 41 00    	mov    0x41a004,%ecx
  412b61:	89 4c 05 f8          	mov    %ecx,-0x8(%ebp,%eax,1)
  412b65:	68 88 82 41 00       	push   $0x418288
  412b6a:	e8 6c e6 ff ff       	call   0x4111db
  412b6f:	8b e5                	mov    %ebp,%esp
  412b71:	5d                   	pop    %ebp
  412b72:	c3                   	ret    
  412b73:	cc                   	int3   
  412b74:	cc                   	int3   
  412b75:	cc                   	int3   
  412b76:	cc                   	int3   
  412b77:	cc                   	int3   
  412b78:	cc                   	int3   
  412b79:	cc                   	int3   
  412b7a:	cc                   	int3   
  412b7b:	cc                   	int3   
  412b7c:	cc                   	int3   
  412b7d:	cc                   	int3   
  412b7e:	cc                   	int3   
  412b7f:	cc                   	int3   
  412b80:	cc                   	int3   
  412b81:	cc                   	int3   
  412b82:	cc                   	int3   
  412b83:	cc                   	int3   
  412b84:	cc                   	int3   
  412b85:	cc                   	int3   
  412b86:	cc                   	int3   
  412b87:	cc                   	int3   
  412b88:	cc                   	int3   
  412b89:	cc                   	int3   
  412b8a:	cc                   	int3   
  412b8b:	cc                   	int3   
  412b8c:	cc                   	int3   
  412b8d:	cc                   	int3   
  412b8e:	cc                   	int3   
  412b8f:	cc                   	int3   
  412b90:	cc                   	int3   
  412b91:	cc                   	int3   
  412b92:	cc                   	int3   
  412b93:	cc                   	int3   
  412b94:	cc                   	int3   
  412b95:	cc                   	int3   
  412b96:	cc                   	int3   
  412b97:	cc                   	int3   
  412b98:	cc                   	int3   
  412b99:	cc                   	int3   
  412b9a:	cc                   	int3   
  412b9b:	cc                   	int3   
  412b9c:	cc                   	int3   
  412b9d:	cc                   	int3   
  412b9e:	cc                   	int3   
  412b9f:	cc                   	int3   
  412ba0:	cc                   	int3   
  412ba1:	cc                   	int3   
  412ba2:	cc                   	int3   
  412ba3:	cc                   	int3   
  412ba4:	cc                   	int3   
  412ba5:	cc                   	int3   
  412ba6:	cc                   	int3   
  412ba7:	cc                   	int3   
  412ba8:	cc                   	int3   
  412ba9:	cc                   	int3   
  412baa:	cc                   	int3   
  412bab:	cc                   	int3   
  412bac:	cc                   	int3   
  412bad:	cc                   	int3   
  412bae:	cc                   	int3   
  412baf:	cc                   	int3   
  412bb0:	cc                   	int3   
  412bb1:	cc                   	int3   
  412bb2:	cc                   	int3   
  412bb3:	cc                   	int3   
  412bb4:	cc                   	int3   
  412bb5:	cc                   	int3   
  412bb6:	cc                   	int3   
  412bb7:	cc                   	int3   
  412bb8:	cc                   	int3   
  412bb9:	cc                   	int3   
  412bba:	cc                   	int3   
  412bbb:	cc                   	int3   
  412bbc:	cc                   	int3   
  412bbd:	cc                   	int3   
  412bbe:	cc                   	int3   
  412bbf:	cc                   	int3   
  412bc0:	55                   	push   %ebp
  412bc1:	8b ec                	mov    %esp,%ebp
  412bc3:	6a 08                	push   $0x8
  412bc5:	e8 2b e5 ff ff       	call   0x4110f5
  412bca:	5d                   	pop    %ebp
  412bcb:	c3                   	ret    
  412bcc:	cc                   	int3   
  412bcd:	cc                   	int3   
  412bce:	cc                   	int3   
  412bcf:	cc                   	int3   
  412bd0:	55                   	push   %ebp
  412bd1:	8b ec                	mov    %esp,%ebp
  412bd3:	81 ec 1c 03 00 00    	sub    $0x31c,%esp
  412bd9:	6a 17                	push   $0x17
  412bdb:	e8 36 e7 ff ff       	call   0x411316
  412be0:	85 c0                	test   %eax,%eax
  412be2:	74 05                	je     0x412be9
  412be4:	8b 4d 08             	mov    0x8(%ebp),%ecx
  412be7:	cd 29                	int    $0x29
  412be9:	a3 48 a2 41 00       	mov    %eax,0x41a248
  412bee:	89 0d 44 a2 41 00    	mov    %ecx,0x41a244
  412bf4:	89 15 40 a2 41 00    	mov    %edx,0x41a240
  412bfa:	89 1d 3c a2 41 00    	mov    %ebx,0x41a23c
  412c00:	89 35 38 a2 41 00    	mov    %esi,0x41a238
  412c06:	89 3d 34 a2 41 00    	mov    %edi,0x41a234
  412c0c:	66 8c 15 60 a2 41 00 	data16 mov %ss,0x41a260
  412c13:	66 8c 0d 54 a2 41 00 	data16 mov %cs,0x41a254
  412c1a:	66 8c 1d 30 a2 41 00 	data16 mov %ds,0x41a230
  412c21:	66 8c 05 2c a2 41 00 	data16 mov %es,0x41a22c
  412c28:	66 8c 25 28 a2 41 00 	data16 mov %fs,0x41a228
  412c2f:	66 8c 2d 24 a2 41 00 	data16 mov %gs,0x41a224
  412c36:	9c                   	pushf  
  412c37:	8f 05 58 a2 41 00    	popl   0x41a258
  412c3d:	8b 45 00             	mov    0x0(%ebp),%eax
  412c40:	a3 4c a2 41 00       	mov    %eax,0x41a24c
  412c45:	8b 45 04             	mov    0x4(%ebp),%eax
  412c48:	a3 50 a2 41 00       	mov    %eax,0x41a250
  412c4d:	8d 45 08             	lea    0x8(%ebp),%eax
  412c50:	a3 5c a2 41 00       	mov    %eax,0x41a25c
  412c55:	8b 85 e4 fc ff ff    	mov    -0x31c(%ebp),%eax
  412c5b:	a1 50 a2 41 00       	mov    0x41a250,%eax
  412c60:	a3 54 a1 41 00       	mov    %eax,0x41a154
  412c65:	c7 05 48 a1 41 00 09 	movl   $0xc0000409,0x41a148
  412c6c:	04 00 c0 
  412c6f:	c7 05 4c a1 41 00 01 	movl   $0x1,0x41a14c
  412c76:	00 00 00 
  412c79:	c7 05 58 a1 41 00 01 	movl   $0x1,0x41a158
  412c80:	00 00 00 
  412c83:	b9 04 00 00 00       	mov    $0x4,%ecx
  412c88:	6b d1 00             	imul   $0x0,%ecx,%edx
  412c8b:	8b 45 08             	mov    0x8(%ebp),%eax
  412c8e:	89 82 5c a1 41 00    	mov    %eax,0x41a15c(%edx)
  412c94:	68 88 82 41 00       	push   $0x418288
  412c99:	e8 3d e5 ff ff       	call   0x4111db
  412c9e:	8b e5                	mov    %ebp,%esp
  412ca0:	5d                   	pop    %ebp
  412ca1:	c3                   	ret    
  412ca2:	cc                   	int3   
  412ca3:	cc                   	int3   
  412ca4:	cc                   	int3   
  412ca5:	cc                   	int3   
  412ca6:	cc                   	int3   
  412ca7:	cc                   	int3   
  412ca8:	cc                   	int3   
  412ca9:	cc                   	int3   
  412caa:	cc                   	int3   
  412cab:	cc                   	int3   
  412cac:	cc                   	int3   
  412cad:	cc                   	int3   
  412cae:	cc                   	int3   
  412caf:	cc                   	int3   
  412cb0:	cc                   	int3   
  412cb1:	cc                   	int3   
  412cb2:	cc                   	int3   
  412cb3:	cc                   	int3   
  412cb4:	cc                   	int3   
  412cb5:	cc                   	int3   
  412cb6:	cc                   	int3   
  412cb7:	cc                   	int3   
  412cb8:	cc                   	int3   
  412cb9:	cc                   	int3   
  412cba:	cc                   	int3   
  412cbb:	cc                   	int3   
  412cbc:	cc                   	int3   
  412cbd:	cc                   	int3   
  412cbe:	cc                   	int3   
  412cbf:	cc                   	int3   
  412cc0:	cc                   	int3   
  412cc1:	cc                   	int3   
  412cc2:	cc                   	int3   
  412cc3:	cc                   	int3   
  412cc4:	cc                   	int3   
  412cc5:	cc                   	int3   
  412cc6:	cc                   	int3   
  412cc7:	cc                   	int3   
  412cc8:	cc                   	int3   
  412cc9:	cc                   	int3   
  412cca:	cc                   	int3   
  412ccb:	cc                   	int3   
  412ccc:	cc                   	int3   
  412ccd:	cc                   	int3   
  412cce:	cc                   	int3   
  412ccf:	cc                   	int3   
  412cd0:	cc                   	int3   
  412cd1:	cc                   	int3   
  412cd2:	cc                   	int3   
  412cd3:	cc                   	int3   
  412cd4:	cc                   	int3   
  412cd5:	cc                   	int3   
  412cd6:	cc                   	int3   
  412cd7:	cc                   	int3   
  412cd8:	cc                   	int3   
  412cd9:	cc                   	int3   
  412cda:	cc                   	int3   
  412cdb:	cc                   	int3   
  412cdc:	cc                   	int3   
  412cdd:	cc                   	int3   
  412cde:	cc                   	int3   
  412cdf:	cc                   	int3   
  412ce0:	55                   	push   %ebp
  412ce1:	8b ec                	mov    %esp,%ebp
  412ce3:	81 ec 20 03 00 00    	sub    $0x320,%esp
  412ce9:	6a 17                	push   $0x17
  412ceb:	e8 26 e6 ff ff       	call   0x411316
  412cf0:	85 c0                	test   %eax,%eax
  412cf2:	74 05                	je     0x412cf9
  412cf4:	8b 4d 08             	mov    0x8(%ebp),%ecx
  412cf7:	cd 29                	int    $0x29
  412cf9:	a3 48 a2 41 00       	mov    %eax,0x41a248
  412cfe:	89 0d 44 a2 41 00    	mov    %ecx,0x41a244
  412d04:	89 15 40 a2 41 00    	mov    %edx,0x41a240
  412d0a:	89 1d 3c a2 41 00    	mov    %ebx,0x41a23c
  412d10:	89 35 38 a2 41 00    	mov    %esi,0x41a238
  412d16:	89 3d 34 a2 41 00    	mov    %edi,0x41a234
  412d1c:	66 8c 15 60 a2 41 00 	data16 mov %ss,0x41a260
  412d23:	66 8c 0d 54 a2 41 00 	data16 mov %cs,0x41a254
  412d2a:	66 8c 1d 30 a2 41 00 	data16 mov %ds,0x41a230
  412d31:	66 8c 05 2c a2 41 00 	data16 mov %es,0x41a22c
  412d38:	66 8c 25 28 a2 41 00 	data16 mov %fs,0x41a228
  412d3f:	66 8c 2d 24 a2 41 00 	data16 mov %gs,0x41a224
  412d46:	9c                   	pushf  
  412d47:	8f 05 58 a2 41 00    	popl   0x41a258
  412d4d:	8b 45 00             	mov    0x0(%ebp),%eax
  412d50:	a3 4c a2 41 00       	mov    %eax,0x41a24c
  412d55:	8b 45 04             	mov    0x4(%ebp),%eax
  412d58:	a3 50 a2 41 00       	mov    %eax,0x41a250
  412d5d:	8d 45 08             	lea    0x8(%ebp),%eax
  412d60:	a3 5c a2 41 00       	mov    %eax,0x41a25c
  412d65:	8b 85 e0 fc ff ff    	mov    -0x320(%ebp),%eax
  412d6b:	a1 50 a2 41 00       	mov    0x41a250,%eax
  412d70:	a3 54 a1 41 00       	mov    %eax,0x41a154
  412d75:	c7 05 48 a1 41 00 09 	movl   $0xc0000409,0x41a148
  412d7c:	04 00 c0 
  412d7f:	c7 05 4c a1 41 00 01 	movl   $0x1,0x41a14c
  412d86:	00 00 00 
  412d89:	83 7d 0c 00          	cmpl   $0x0,0xc(%ebp)
  412d8d:	76 0d                	jbe    0x412d9c
  412d8f:	83 7d 10 00          	cmpl   $0x0,0x10(%ebp)
  412d93:	75 07                	jne    0x412d9c
  412d95:	c7 45 0c 00 00 00 00 	movl   $0x0,0xc(%ebp)
  412d9c:	83 7d 0c 0e          	cmpl   $0xe,0xc(%ebp)
  412da0:	76 09                	jbe    0x412dab
  412da2:	8b 4d 0c             	mov    0xc(%ebp),%ecx
  412da5:	83 e9 01             	sub    $0x1,%ecx
  412da8:	89 4d 0c             	mov    %ecx,0xc(%ebp)
  412dab:	8b 55 0c             	mov    0xc(%ebp),%edx
  412dae:	83 c2 01             	add    $0x1,%edx
  412db1:	89 15 58 a1 41 00    	mov    %edx,0x41a158
  412db7:	b8 04 00 00 00       	mov    $0x4,%eax
  412dbc:	6b c8 00             	imul   $0x0,%eax,%ecx
  412dbf:	8b 55 08             	mov    0x8(%ebp),%edx
  412dc2:	89 91 5c a1 41 00    	mov    %edx,0x41a15c(%ecx)
  412dc8:	c7 45 fc 00 00 00 00 	movl   $0x0,-0x4(%ebp)
  412dcf:	eb 09                	jmp    0x412dda
  412dd1:	8b 45 fc             	mov    -0x4(%ebp),%eax
  412dd4:	83 c0 01             	add    $0x1,%eax
  412dd7:	89 45 fc             	mov    %eax,-0x4(%ebp)
  412dda:	8b 4d fc             	mov    -0x4(%ebp),%ecx
  412ddd:	3b 4d 0c             	cmp    0xc(%ebp),%ecx
  412de0:	73 15                	jae    0x412df7
  412de2:	8b 55 fc             	mov    -0x4(%ebp),%edx
  412de5:	8b 45 fc             	mov    -0x4(%ebp),%eax
  412de8:	8b 4d 10             	mov    0x10(%ebp),%ecx
  412deb:	8b 04 81             	mov    (%ecx,%eax,4),%eax
  412dee:	89 04 95 60 a1 41 00 	mov    %eax,0x41a160(,%edx,4)
  412df5:	eb da                	jmp    0x412dd1
  412df7:	68 88 82 41 00       	push   $0x418288
  412dfc:	e8 da e3 ff ff       	call   0x4111db
  412e01:	8b e5                	mov    %ebp,%esp
  412e03:	5d                   	pop    %ebp
  412e04:	c3                   	ret    
  412e05:	cc                   	int3   
  412e06:	cc                   	int3   
  412e07:	cc                   	int3   
  412e08:	cc                   	int3   
  412e09:	cc                   	int3   
  412e0a:	cc                   	int3   
  412e0b:	cc                   	int3   
  412e0c:	cc                   	int3   
  412e0d:	cc                   	int3   
  412e0e:	cc                   	int3   
  412e0f:	cc                   	int3   
  412e10:	cc                   	int3   
  412e11:	cc                   	int3   
  412e12:	cc                   	int3   
  412e13:	cc                   	int3   
  412e14:	cc                   	int3   
  412e15:	cc                   	int3   
  412e16:	cc                   	int3   
  412e17:	cc                   	int3   
  412e18:	cc                   	int3   
  412e19:	cc                   	int3   
  412e1a:	cc                   	int3   
  412e1b:	cc                   	int3   
  412e1c:	cc                   	int3   
  412e1d:	cc                   	int3   
  412e1e:	cc                   	int3   
  412e1f:	cc                   	int3   
  412e20:	cc                   	int3   
  412e21:	cc                   	int3   
  412e22:	cc                   	int3   
  412e23:	cc                   	int3   
  412e24:	cc                   	int3   
  412e25:	cc                   	int3   
  412e26:	cc                   	int3   
  412e27:	cc                   	int3   
  412e28:	cc                   	int3   
  412e29:	cc                   	int3   
  412e2a:	cc                   	int3   
  412e2b:	cc                   	int3   
  412e2c:	cc                   	int3   
  412e2d:	cc                   	int3   
  412e2e:	cc                   	int3   
  412e2f:	cc                   	int3   
  412e30:	cc                   	int3   
  412e31:	cc                   	int3   
  412e32:	cc                   	int3   
  412e33:	cc                   	int3   
  412e34:	cc                   	int3   
  412e35:	cc                   	int3   
  412e36:	cc                   	int3   
  412e37:	cc                   	int3   
  412e38:	cc                   	int3   
  412e39:	cc                   	int3   
  412e3a:	cc                   	int3   
  412e3b:	cc                   	int3   
  412e3c:	cc                   	int3   
  412e3d:	cc                   	int3   
  412e3e:	cc                   	int3   
  412e3f:	cc                   	int3   
  412e40:	cc                   	int3   
  412e41:	cc                   	int3   
  412e42:	cc                   	int3   
  412e43:	cc                   	int3   
  412e44:	cc                   	int3   
  412e45:	cc                   	int3   
  412e46:	cc                   	int3   
  412e47:	cc                   	int3   
  412e48:	cc                   	int3   
  412e49:	cc                   	int3   
  412e4a:	cc                   	int3   
  412e4b:	cc                   	int3   
  412e4c:	cc                   	int3   
  412e4d:	cc                   	int3   
  412e4e:	cc                   	int3   
  412e4f:	cc                   	int3   
  412e50:	a1 04 a5 41 00       	mov    0x41a504,%eax
  412e55:	c3                   	ret    
  412e56:	cc                   	int3   
  412e57:	cc                   	int3   
  412e58:	cc                   	int3   
  412e59:	cc                   	int3   
  412e5a:	cc                   	int3   
  412e5b:	cc                   	int3   
  412e5c:	cc                   	int3   
  412e5d:	cc                   	int3   
  412e5e:	cc                   	int3   
  412e5f:	cc                   	int3   
  412e60:	a1 08 a5 41 00       	mov    0x41a508,%eax
  412e65:	c3                   	ret    
  412e66:	cc                   	int3   
  412e67:	cc                   	int3   
  412e68:	cc                   	int3   
  412e69:	cc                   	int3   
  412e6a:	cc                   	int3   
  412e6b:	cc                   	int3   
  412e6c:	cc                   	int3   
  412e6d:	cc                   	int3   
  412e6e:	cc                   	int3   
  412e6f:	cc                   	int3   
  412e70:	55                   	push   %ebp
  412e71:	8b ec                	mov    %esp,%ebp
  412e73:	8b 45 08             	mov    0x8(%ebp),%eax
  412e76:	83 f8 04             	cmp    $0x4,%eax
  412e79:	77 09                	ja     0x412e84
  412e7b:	8b 04 85 94 82 41 00 	mov    0x418294(,%eax,4),%eax
  412e82:	5d                   	pop    %ebp
  412e83:	c3                   	ret    
  412e84:	33 c0                	xor    %eax,%eax
  412e86:	5d                   	pop    %ebp
  412e87:	c3                   	ret    
  412e88:	cc                   	int3   
  412e89:	cc                   	int3   
  412e8a:	cc                   	int3   
  412e8b:	cc                   	int3   
  412e8c:	cc                   	int3   
  412e8d:	cc                   	int3   
  412e8e:	cc                   	int3   
  412e8f:	cc                   	int3   
  412e90:	b8 05 00 00 00       	mov    $0x5,%eax
  412e95:	c3                   	ret    
  412e96:	cc                   	int3   
  412e97:	cc                   	int3   
  412e98:	cc                   	int3   
  412e99:	cc                   	int3   
  412e9a:	cc                   	int3   
  412e9b:	cc                   	int3   
  412e9c:	cc                   	int3   
  412e9d:	cc                   	int3   
  412e9e:	cc                   	int3   
  412e9f:	cc                   	int3   
  412ea0:	55                   	push   %ebp
  412ea1:	8b ec                	mov    %esp,%ebp
  412ea3:	a1 04 a5 41 00       	mov    0x41a504,%eax
  412ea8:	8b 4d 08             	mov    0x8(%ebp),%ecx
  412eab:	89 0d 04 a5 41 00    	mov    %ecx,0x41a504
  412eb1:	c7 05 08 a5 41 00 00 	movl   $0x0,0x41a508
  412eb8:	00 00 00 
  412ebb:	5d                   	pop    %ebp
  412ebc:	c3                   	ret    
  412ebd:	cc                   	int3   
  412ebe:	cc                   	int3   
  412ebf:	cc                   	int3   
  412ec0:	cc                   	int3   
  412ec1:	cc                   	int3   
  412ec2:	cc                   	int3   
  412ec3:	cc                   	int3   
  412ec4:	cc                   	int3   
  412ec5:	cc                   	int3   
  412ec6:	cc                   	int3   
  412ec7:	cc                   	int3   
  412ec8:	cc                   	int3   
  412ec9:	cc                   	int3   
  412eca:	cc                   	int3   
  412ecb:	cc                   	int3   
  412ecc:	cc                   	int3   
  412ecd:	cc                   	int3   
  412ece:	cc                   	int3   
  412ecf:	cc                   	int3   
  412ed0:	55                   	push   %ebp
  412ed1:	8b ec                	mov    %esp,%ebp
  412ed3:	a1 08 a5 41 00       	mov    0x41a508,%eax
  412ed8:	8b 4d 08             	mov    0x8(%ebp),%ecx
  412edb:	89 0d 08 a5 41 00    	mov    %ecx,0x41a508
  412ee1:	c7 05 04 a5 41 00 00 	movl   $0x0,0x41a504
  412ee8:	00 00 00 
  412eeb:	5d                   	pop    %ebp
  412eec:	c3                   	ret    
  412eed:	cc                   	int3   
  412eee:	cc                   	int3   
  412eef:	cc                   	int3   
  412ef0:	cc                   	int3   
  412ef1:	cc                   	int3   
  412ef2:	cc                   	int3   
  412ef3:	cc                   	int3   
  412ef4:	cc                   	int3   
  412ef5:	cc                   	int3   
  412ef6:	cc                   	int3   
  412ef7:	cc                   	int3   
  412ef8:	cc                   	int3   
  412ef9:	cc                   	int3   
  412efa:	cc                   	int3   
  412efb:	cc                   	int3   
  412efc:	cc                   	int3   
  412efd:	cc                   	int3   
  412efe:	cc                   	int3   
  412eff:	cc                   	int3   
  412f00:	55                   	push   %ebp
  412f01:	8b ec                	mov    %esp,%ebp
  412f03:	8b 55 08             	mov    0x8(%ebp),%edx
  412f06:	83 fa 04             	cmp    $0x4,%edx
  412f09:	77 13                	ja     0x412f1e
  412f0b:	8b 04 95 0c a0 41 00 	mov    0x41a00c(,%edx,4),%eax
  412f12:	8b 4d 0c             	mov    0xc(%ebp),%ecx
  412f15:	89 0c 95 0c a0 41 00 	mov    %ecx,0x41a00c(,%edx,4)
  412f1c:	5d                   	pop    %ebp
  412f1d:	c3                   	ret    
  412f1e:	83 c8 ff             	or     $0xffffffff,%eax
  412f21:	5d                   	pop    %ebp
  412f22:	c3                   	ret    
  412f23:	cc                   	int3   
  412f24:	cc                   	int3   
  412f25:	cc                   	int3   
  412f26:	cc                   	int3   
  412f27:	cc                   	int3   
  412f28:	cc                   	int3   
  412f29:	cc                   	int3   
  412f2a:	cc                   	int3   
  412f2b:	cc                   	int3   
  412f2c:	cc                   	int3   
  412f2d:	cc                   	int3   
  412f2e:	cc                   	int3   
  412f2f:	cc                   	int3   
  412f30:	55                   	push   %ebp
  412f31:	8b ec                	mov    %esp,%ebp
  412f33:	a1 00 a0 41 00       	mov    0x41a000,%eax
  412f38:	33 d2                	xor    %edx,%edx
  412f3a:	b9 20 00 00 00       	mov    $0x20,%ecx
  412f3f:	f7 f1                	div    %ecx
  412f41:	52                   	push   %edx
  412f42:	8b 55 08             	mov    0x8(%ebp),%edx
  412f45:	33 15 00 a0 41 00    	xor    0x41a000,%edx
  412f4b:	52                   	push   %edx
  412f4c:	e8 58 e2 ff ff       	call   0x4111a9
  412f51:	83 c4 08             	add    $0x8,%esp
  412f54:	5d                   	pop    %ebp
  412f55:	c3                   	ret    
  412f56:	cc                   	int3   
  412f57:	cc                   	int3   
  412f58:	cc                   	int3   
  412f59:	cc                   	int3   
  412f5a:	cc                   	int3   
  412f5b:	cc                   	int3   
  412f5c:	cc                   	int3   
  412f5d:	cc                   	int3   
  412f5e:	cc                   	int3   
  412f5f:	cc                   	int3   
  412f60:	55                   	push   %ebp
  412f61:	8b ec                	mov    %esp,%ebp
  412f63:	a1 00 a0 41 00       	mov    0x41a000,%eax
  412f68:	33 d2                	xor    %edx,%edx
  412f6a:	b9 20 00 00 00       	mov    $0x20,%ecx
  412f6f:	f7 f1                	div    %ecx
  412f71:	b8 20 00 00 00       	mov    $0x20,%eax
  412f76:	2b c2                	sub    %edx,%eax
  412f78:	50                   	push   %eax
  412f79:	8b 4d 08             	mov    0x8(%ebp),%ecx
  412f7c:	51                   	push   %ecx
  412f7d:	e8 27 e2 ff ff       	call   0x4111a9
  412f82:	83 c4 08             	add    $0x8,%esp
  412f85:	33 05 00 a0 41 00    	xor    0x41a000,%eax
  412f8b:	5d                   	pop    %ebp
  412f8c:	c3                   	ret    
  412f8d:	cc                   	int3   
  412f8e:	cc                   	int3   
  412f8f:	cc                   	int3   
  412f90:	cc                   	int3   
  412f91:	cc                   	int3   
  412f92:	cc                   	int3   
  412f93:	cc                   	int3   
  412f94:	cc                   	int3   
  412f95:	cc                   	int3   
  412f96:	cc                   	int3   
  412f97:	cc                   	int3   
  412f98:	cc                   	int3   
  412f99:	cc                   	int3   
  412f9a:	cc                   	int3   
  412f9b:	cc                   	int3   
  412f9c:	cc                   	int3   
  412f9d:	cc                   	int3   
  412f9e:	cc                   	int3   
  412f9f:	cc                   	int3   
  412fa0:	55                   	push   %ebp
  412fa1:	8b ec                	mov    %esp,%ebp
  412fa3:	8b 45 08             	mov    0x8(%ebp),%eax
  412fa6:	8b 4d 0c             	mov    0xc(%ebp),%ecx
  412fa9:	d3 c8                	ror    %cl,%eax
  412fab:	5d                   	pop    %ebp
  412fac:	c3                   	ret    
  412fad:	cc                   	int3   
  412fae:	cc                   	int3   
  412faf:	cc                   	int3   
  412fb0:	55                   	push   %ebp
  412fb1:	8b ec                	mov    %esp,%ebp
  412fb3:	83 ec 18             	sub    $0x18,%esp
  412fb6:	8b 45 08             	mov    0x8(%ebp),%eax
  412fb9:	89 45 f4             	mov    %eax,-0xc(%ebp)
  412fbc:	8b 4d f4             	mov    -0xc(%ebp),%ecx
  412fbf:	8b 55 f4             	mov    -0xc(%ebp),%edx
  412fc2:	03 51 3c             	add    0x3c(%ecx),%edx
  412fc5:	89 55 ec             	mov    %edx,-0x14(%ebp)
  412fc8:	8b 45 ec             	mov    -0x14(%ebp),%eax
  412fcb:	89 45 f8             	mov    %eax,-0x8(%ebp)
  412fce:	8b 4d f8             	mov    -0x8(%ebp),%ecx
  412fd1:	0f b7 51 14          	movzwl 0x14(%ecx),%edx
  412fd5:	8b 45 f8             	mov    -0x8(%ebp),%eax
  412fd8:	8d 4c 10 18          	lea    0x18(%eax,%edx,1),%ecx
  412fdc:	89 4d f0             	mov    %ecx,-0x10(%ebp)
  412fdf:	8b 55 f8             	mov    -0x8(%ebp),%edx
  412fe2:	0f b7 42 06          	movzwl 0x6(%edx),%eax
  412fe6:	6b c8 28             	imul   $0x28,%eax,%ecx
  412fe9:	03 4d f0             	add    -0x10(%ebp),%ecx
  412fec:	89 4d e8             	mov    %ecx,-0x18(%ebp)
  412fef:	8b 55 f0             	mov    -0x10(%ebp),%edx
  412ff2:	89 55 fc             	mov    %edx,-0x4(%ebp)
  412ff5:	eb 09                	jmp    0x413000
  412ff7:	8b 45 fc             	mov    -0x4(%ebp),%eax
  412ffa:	83 c0 28             	add    $0x28,%eax
  412ffd:	89 45 fc             	mov    %eax,-0x4(%ebp)
  413000:	8b 4d fc             	mov    -0x4(%ebp),%ecx
  413003:	3b 4d e8             	cmp    -0x18(%ebp),%ecx
  413006:	74 23                	je     0x41302b
  413008:	8b 55 fc             	mov    -0x4(%ebp),%edx
  41300b:	8b 45 0c             	mov    0xc(%ebp),%eax
  41300e:	3b 42 0c             	cmp    0xc(%edx),%eax
  413011:	72 16                	jb     0x413029
  413013:	8b 4d fc             	mov    -0x4(%ebp),%ecx
  413016:	8b 51 0c             	mov    0xc(%ecx),%edx
  413019:	8b 45 fc             	mov    -0x4(%ebp),%eax
  41301c:	03 50 08             	add    0x8(%eax),%edx
  41301f:	39 55 0c             	cmp    %edx,0xc(%ebp)
  413022:	73 05                	jae    0x413029
  413024:	8b 45 fc             	mov    -0x4(%ebp),%eax
  413027:	eb 04                	jmp    0x41302d
  413029:	eb cc                	jmp    0x412ff7
  41302b:	33 c0                	xor    %eax,%eax
  41302d:	8b e5                	mov    %ebp,%esp
  41302f:	5d                   	pop    %ebp
  413030:	c3                   	ret    
  413031:	cc                   	int3   
  413032:	cc                   	int3   
  413033:	cc                   	int3   
  413034:	cc                   	int3   
  413035:	cc                   	int3   
  413036:	cc                   	int3   
  413037:	cc                   	int3   
  413038:	cc                   	int3   
  413039:	cc                   	int3   
  41303a:	cc                   	int3   
  41303b:	cc                   	int3   
  41303c:	cc                   	int3   
  41303d:	cc                   	int3   
  41303e:	cc                   	int3   
  41303f:	cc                   	int3   
  413040:	cc                   	int3   
  413041:	cc                   	int3   
  413042:	cc                   	int3   
  413043:	cc                   	int3   
  413044:	cc                   	int3   
  413045:	cc                   	int3   
  413046:	cc                   	int3   
  413047:	cc                   	int3   
  413048:	cc                   	int3   
  413049:	cc                   	int3   
  41304a:	cc                   	int3   
  41304b:	cc                   	int3   
  41304c:	cc                   	int3   
  41304d:	cc                   	int3   
  41304e:	cc                   	int3   
  41304f:	cc                   	int3   
  413050:	cc                   	int3   
  413051:	cc                   	int3   
  413052:	cc                   	int3   
  413053:	cc                   	int3   
  413054:	cc                   	int3   
  413055:	cc                   	int3   
  413056:	cc                   	int3   
  413057:	cc                   	int3   
  413058:	cc                   	int3   
  413059:	cc                   	int3   
  41305a:	cc                   	int3   
  41305b:	cc                   	int3   
  41305c:	cc                   	int3   
  41305d:	cc                   	int3   
  41305e:	cc                   	int3   
  41305f:	cc                   	int3   
  413060:	55                   	push   %ebp
  413061:	8b ec                	mov    %esp,%ebp
  413063:	83 ec 10             	sub    $0x10,%esp
  413066:	83 7d 08 00          	cmpl   $0x0,0x8(%ebp)
  41306a:	75 04                	jne    0x413070
  41306c:	32 c0                	xor    %al,%al
  41306e:	eb 55                	jmp    0x4130c5
  413070:	8b 45 08             	mov    0x8(%ebp),%eax
  413073:	89 45 fc             	mov    %eax,-0x4(%ebp)
  413076:	8b 4d fc             	mov    -0x4(%ebp),%ecx
  413079:	0f b7 11             	movzwl (%ecx),%edx
  41307c:	81 fa 4d 5a 00 00    	cmp    $0x5a4d,%edx
  413082:	74 04                	je     0x413088
  413084:	32 c0                	xor    %al,%al
  413086:	eb 3d                	jmp    0x4130c5
  413088:	8b 45 fc             	mov    -0x4(%ebp),%eax
  41308b:	8b 4d fc             	mov    -0x4(%ebp),%ecx
  41308e:	03 48 3c             	add    0x3c(%eax),%ecx
  413091:	89 4d f4             	mov    %ecx,-0xc(%ebp)
  413094:	8b 55 f4             	mov    -0xc(%ebp),%edx
  413097:	89 55 f8             	mov    %edx,-0x8(%ebp)
  41309a:	8b 45 f8             	mov    -0x8(%ebp),%eax
  41309d:	81 38 50 45 00 00    	cmpl   $0x4550,(%eax)
  4130a3:	74 04                	je     0x4130a9
  4130a5:	32 c0                	xor    %al,%al
  4130a7:	eb 1c                	jmp    0x4130c5
  4130a9:	8b 4d f8             	mov    -0x8(%ebp),%ecx
  4130ac:	83 c1 18             	add    $0x18,%ecx
  4130af:	89 4d f0             	mov    %ecx,-0x10(%ebp)
  4130b2:	8b 55 f0             	mov    -0x10(%ebp),%edx
  4130b5:	0f b7 02             	movzwl (%edx),%eax
  4130b8:	3d 0b 01 00 00       	cmp    $0x10b,%eax
  4130bd:	74 04                	je     0x4130c3
  4130bf:	32 c0                	xor    %al,%al
  4130c1:	eb 02                	jmp    0x4130c5
  4130c3:	b0 01                	mov    $0x1,%al
  4130c5:	8b e5                	mov    %ebp,%esp
  4130c7:	5d                   	pop    %ebp
  4130c8:	c3                   	ret    
  4130c9:	cc                   	int3   
  4130ca:	cc                   	int3   
  4130cb:	cc                   	int3   
  4130cc:	cc                   	int3   
  4130cd:	cc                   	int3   
  4130ce:	cc                   	int3   
  4130cf:	cc                   	int3   
  4130d0:	cc                   	int3   
  4130d1:	cc                   	int3   
  4130d2:	cc                   	int3   
  4130d3:	cc                   	int3   
  4130d4:	cc                   	int3   
  4130d5:	cc                   	int3   
  4130d6:	cc                   	int3   
  4130d7:	cc                   	int3   
  4130d8:	cc                   	int3   
  4130d9:	cc                   	int3   
  4130da:	cc                   	int3   
  4130db:	cc                   	int3   
  4130dc:	cc                   	int3   
  4130dd:	cc                   	int3   
  4130de:	cc                   	int3   
  4130df:	cc                   	int3   
  4130e0:	cc                   	int3   
  4130e1:	cc                   	int3   
  4130e2:	cc                   	int3   
  4130e3:	cc                   	int3   
  4130e4:	cc                   	int3   
  4130e5:	cc                   	int3   
  4130e6:	cc                   	int3   
  4130e7:	cc                   	int3   
  4130e8:	cc                   	int3   
  4130e9:	cc                   	int3   
  4130ea:	cc                   	int3   
  4130eb:	cc                   	int3   
  4130ec:	cc                   	int3   
  4130ed:	cc                   	int3   
  4130ee:	cc                   	int3   
  4130ef:	cc                   	int3   
  4130f0:	55                   	push   %ebp
  4130f1:	8b ec                	mov    %esp,%ebp
  4130f3:	64 a1 18 00 00 00    	mov    %fs:0x18,%eax
  4130f9:	5d                   	pop    %ebp
  4130fa:	c3                   	ret    
  4130fb:	cc                   	int3   
  4130fc:	cc                   	int3   
  4130fd:	cc                   	int3   
  4130fe:	cc                   	int3   
  4130ff:	cc                   	int3   
  413100:	55                   	push   %ebp
  413101:	8b ec                	mov    %esp,%ebp
  413103:	83 ec 08             	sub    $0x8,%esp
  413106:	e8 72 df ff ff       	call   0x41107d
  41310b:	85 c0                	test   %eax,%eax
  41310d:	75 04                	jne    0x413113
  41310f:	32 c0                	xor    %al,%al
  413111:	eb 32                	jmp    0x413145
  413113:	e8 6f df ff ff       	call   0x411087
  413118:	8b 40 04             	mov    0x4(%eax),%eax
  41311b:	89 45 fc             	mov    %eax,-0x4(%ebp)
  41311e:	8b 4d fc             	mov    -0x4(%ebp),%ecx
  413121:	ba 14 a5 41 00       	mov    $0x41a514,%edx
  413126:	33 c0                	xor    %eax,%eax
  413128:	f0 0f b1 0a          	lock cmpxchg %ecx,(%edx)
  41312c:	89 45 f8             	mov    %eax,-0x8(%ebp)
  41312f:	83 7d f8 00          	cmpl   $0x0,-0x8(%ebp)
  413133:	74 0e                	je     0x413143
  413135:	8b 45 fc             	mov    -0x4(%ebp),%eax
  413138:	3b 45 f8             	cmp    -0x8(%ebp),%eax
  41313b:	75 04                	jne    0x413141
  41313d:	b0 01                	mov    $0x1,%al
  41313f:	eb 04                	jmp    0x413145
  413141:	eb db                	jmp    0x41311e
  413143:	32 c0                	xor    %al,%al
  413145:	8b e5                	mov    %ebp,%esp
  413147:	5d                   	pop    %ebp
  413148:	c3                   	ret    
  413149:	cc                   	int3   
  41314a:	cc                   	int3   
  41314b:	cc                   	int3   
  41314c:	cc                   	int3   
  41314d:	cc                   	int3   
  41314e:	cc                   	int3   
  41314f:	cc                   	int3   
  413150:	cc                   	int3   
  413151:	cc                   	int3   
  413152:	cc                   	int3   
  413153:	cc                   	int3   
  413154:	cc                   	int3   
  413155:	cc                   	int3   
  413156:	cc                   	int3   
  413157:	cc                   	int3   
  413158:	cc                   	int3   
  413159:	cc                   	int3   
  41315a:	cc                   	int3   
  41315b:	cc                   	int3   
  41315c:	cc                   	int3   
  41315d:	cc                   	int3   
  41315e:	cc                   	int3   
  41315f:	cc                   	int3   
  413160:	55                   	push   %ebp
  413161:	8b ec                	mov    %esp,%ebp
  413163:	e8 15 df ff ff       	call   0x41107d
  413168:	85 c0                	test   %eax,%eax
  41316a:	74 07                	je     0x413173
  41316c:	e8 b1 df ff ff       	call   0x411122
  413171:	eb 12                	jmp    0x413185
  413173:	e8 e5 e0 ff ff       	call   0x41125d
  413178:	85 c0                	test   %eax,%eax
  41317a:	74 04                	je     0x413180
  41317c:	32 c0                	xor    %al,%al
  41317e:	eb 07                	jmp    0x413187
  413180:	e8 96 e1 ff ff       	call   0x41131b
  413185:	b0 01                	mov    $0x1,%al
  413187:	5d                   	pop    %ebp
  413188:	c3                   	ret    
  413189:	cc                   	int3   
  41318a:	cc                   	int3   
  41318b:	cc                   	int3   
  41318c:	cc                   	int3   
  41318d:	cc                   	int3   
  41318e:	cc                   	int3   
  41318f:	cc                   	int3   
  413190:	cc                   	int3   
  413191:	cc                   	int3   
  413192:	cc                   	int3   
  413193:	cc                   	int3   
  413194:	cc                   	int3   
  413195:	cc                   	int3   
  413196:	cc                   	int3   
  413197:	cc                   	int3   
  413198:	cc                   	int3   
  413199:	cc                   	int3   
  41319a:	cc                   	int3   
  41319b:	cc                   	int3   
  41319c:	cc                   	int3   
  41319d:	cc                   	int3   
  41319e:	cc                   	int3   
  41319f:	cc                   	int3   
  4131a0:	55                   	push   %ebp
  4131a1:	8b ec                	mov    %esp,%ebp
  4131a3:	6a 00                	push   $0x0
  4131a5:	e8 8b e0 ff ff       	call   0x411235
  4131aa:	83 c4 04             	add    $0x4,%esp
  4131ad:	0f b6 c0             	movzbl %al,%eax
  4131b0:	85 c0                	test   %eax,%eax
  4131b2:	75 04                	jne    0x4131b8
  4131b4:	32 c0                	xor    %al,%al
  4131b6:	eb 02                	jmp    0x4131ba
  4131b8:	b0 01                	mov    $0x1,%al
  4131ba:	5d                   	pop    %ebp
  4131bb:	c3                   	ret    
  4131bc:	cc                   	int3   
  4131bd:	cc                   	int3   
  4131be:	cc                   	int3   
  4131bf:	cc                   	int3   
  4131c0:	cc                   	int3   
  4131c1:	cc                   	int3   
  4131c2:	cc                   	int3   
  4131c3:	cc                   	int3   
  4131c4:	cc                   	int3   
  4131c5:	cc                   	int3   
  4131c6:	cc                   	int3   
  4131c7:	cc                   	int3   
  4131c8:	cc                   	int3   
  4131c9:	cc                   	int3   
  4131ca:	cc                   	int3   
  4131cb:	cc                   	int3   
  4131cc:	cc                   	int3   
  4131cd:	cc                   	int3   
  4131ce:	cc                   	int3   
  4131cf:	cc                   	int3   
  4131d0:	55                   	push   %ebp
  4131d1:	8b ec                	mov    %esp,%ebp
  4131d3:	e8 da e0 ff ff       	call   0x4112b2
  4131d8:	0f b6 c0             	movzbl %al,%eax
  4131db:	85 c0                	test   %eax,%eax
  4131dd:	75 04                	jne    0x4131e3
  4131df:	32 c0                	xor    %al,%al
  4131e1:	eb 17                	jmp    0x4131fa
  4131e3:	e8 1c df ff ff       	call   0x411104
  4131e8:	0f b6 c8             	movzbl %al,%ecx
  4131eb:	85 c9                	test   %ecx,%ecx
  4131ed:	75 09                	jne    0x4131f8
  4131ef:	e8 a2 de ff ff       	call   0x411096
  4131f4:	32 c0                	xor    %al,%al
  4131f6:	eb 02                	jmp    0x4131fa
  4131f8:	b0 01                	mov    $0x1,%al
  4131fa:	5d                   	pop    %ebp
  4131fb:	c3                   	ret    
  4131fc:	cc                   	int3   
  4131fd:	cc                   	int3   
  4131fe:	cc                   	int3   
  4131ff:	cc                   	int3   
  413200:	cc                   	int3   
  413201:	cc                   	int3   
  413202:	cc                   	int3   
  413203:	cc                   	int3   
  413204:	cc                   	int3   
  413205:	cc                   	int3   
  413206:	cc                   	int3   
  413207:	cc                   	int3   
  413208:	cc                   	int3   
  413209:	cc                   	int3   
  41320a:	cc                   	int3   
  41320b:	cc                   	int3   
  41320c:	cc                   	int3   
  41320d:	cc                   	int3   
  41320e:	cc                   	int3   
  41320f:	cc                   	int3   
  413210:	55                   	push   %ebp
  413211:	8b ec                	mov    %esp,%ebp
  413213:	e8 41 df ff ff       	call   0x411159
  413218:	e8 79 de ff ff       	call   0x411096
  41321d:	b0 01                	mov    $0x1,%al
  41321f:	5d                   	pop    %ebp
  413220:	c3                   	ret    
  413221:	cc                   	int3   
  413222:	cc                   	int3   
  413223:	cc                   	int3   
  413224:	cc                   	int3   
  413225:	cc                   	int3   
  413226:	cc                   	int3   
  413227:	cc                   	int3   
  413228:	cc                   	int3   
  413229:	cc                   	int3   
  41322a:	cc                   	int3   
  41322b:	cc                   	int3   
  41322c:	cc                   	int3   
  41322d:	cc                   	int3   
  41322e:	cc                   	int3   
  41322f:	cc                   	int3   
  413230:	55                   	push   %ebp
  413231:	8b ec                	mov    %esp,%ebp
  413233:	51                   	push   %ecx
  413234:	e8 44 de ff ff       	call   0x41107d
  413239:	85 c0                	test   %eax,%eax
  41323b:	75 21                	jne    0x41325e
  41323d:	83 7d 0c 01          	cmpl   $0x1,0xc(%ebp)
  413241:	75 1b                	jne    0x41325e
  413243:	8b 45 10             	mov    0x10(%ebp),%eax
  413246:	50                   	push   %eax
  413247:	6a 00                	push   $0x0
  413249:	8b 4d 08             	mov    0x8(%ebp),%ecx
  41324c:	51                   	push   %ecx
  41324d:	8b 55 14             	mov    0x14(%ebp),%edx
  413250:	89 55 fc             	mov    %edx,-0x4(%ebp)
  413253:	8b 4d fc             	mov    -0x4(%ebp),%ecx
  413256:	e8 89 e0 ff ff       	call   0x4112e4
  41325b:	ff 55 fc             	call   *-0x4(%ebp)
  41325e:	8b 45 1c             	mov    0x1c(%ebp),%eax
  413261:	50                   	push   %eax
  413262:	8b 4d 18             	mov    0x18(%ebp),%ecx
  413265:	51                   	push   %ecx
  413266:	e8 06 e0 ff ff       	call   0x411271
  41326b:	83 c4 08             	add    $0x8,%esp
  41326e:	8b e5                	mov    %ebp,%esp
  413270:	5d                   	pop    %ebp
  413271:	c3                   	ret    
  413272:	cc                   	int3   
  413273:	cc                   	int3   
  413274:	cc                   	int3   
  413275:	cc                   	int3   
  413276:	cc                   	int3   
  413277:	cc                   	int3   
  413278:	cc                   	int3   
  413279:	cc                   	int3   
  41327a:	cc                   	int3   
  41327b:	cc                   	int3   
  41327c:	cc                   	int3   
  41327d:	cc                   	int3   
  41327e:	cc                   	int3   
  41327f:	cc                   	int3   
  413280:	cc                   	int3   
  413281:	cc                   	int3   
  413282:	cc                   	int3   
  413283:	cc                   	int3   
  413284:	cc                   	int3   
  413285:	cc                   	int3   
  413286:	cc                   	int3   
  413287:	cc                   	int3   
  413288:	cc                   	int3   
  413289:	cc                   	int3   
  41328a:	cc                   	int3   
  41328b:	cc                   	int3   
  41328c:	cc                   	int3   
  41328d:	cc                   	int3   
  41328e:	cc                   	int3   
  41328f:	cc                   	int3   
  413290:	55                   	push   %ebp
  413291:	8b ec                	mov    %esp,%ebp
  413293:	e8 e5 dd ff ff       	call   0x41107d
  413298:	85 c0                	test   %eax,%eax
  41329a:	74 0f                	je     0x4132ab
  41329c:	68 18 a5 41 00       	push   $0x41a518
  4132a1:	e8 bb e0 ff ff       	call   0x411361
  4132a6:	83 c4 04             	add    $0x4,%esp
  4132a9:	eb 0e                	jmp    0x4132b9
  4132ab:	e8 2f e0 ff ff       	call   0x4112df
  4132b0:	85 c0                	test   %eax,%eax
  4132b2:	75 05                	jne    0x4132b9
  4132b4:	e8 00 de ff ff       	call   0x4110b9
  4132b9:	5d                   	pop    %ebp
  4132ba:	c3                   	ret    
  4132bb:	cc                   	int3   
  4132bc:	cc                   	int3   
  4132bd:	cc                   	int3   
  4132be:	cc                   	int3   
  4132bf:	cc                   	int3   
  4132c0:	cc                   	int3   
  4132c1:	cc                   	int3   
  4132c2:	cc                   	int3   
  4132c3:	cc                   	int3   
  4132c4:	cc                   	int3   
  4132c5:	cc                   	int3   
  4132c6:	cc                   	int3   
  4132c7:	cc                   	int3   
  4132c8:	cc                   	int3   
  4132c9:	cc                   	int3   
  4132ca:	cc                   	int3   
  4132cb:	cc                   	int3   
  4132cc:	cc                   	int3   
  4132cd:	cc                   	int3   
  4132ce:	cc                   	int3   
  4132cf:	cc                   	int3   
  4132d0:	55                   	push   %ebp
  4132d1:	8b ec                	mov    %esp,%ebp
  4132d3:	6a 00                	push   $0x0
  4132d5:	e8 2f de ff ff       	call   0x411109
  4132da:	83 c4 04             	add    $0x4,%esp
  4132dd:	e8 90 de ff ff       	call   0x411172
  4132e2:	5d                   	pop    %ebp
  4132e3:	c3                   	ret    
  4132e4:	cc                   	int3   
  4132e5:	cc                   	int3   
  4132e6:	cc                   	int3   
  4132e7:	cc                   	int3   
  4132e8:	cc                   	int3   
  4132e9:	cc                   	int3   
  4132ea:	cc                   	int3   
  4132eb:	cc                   	int3   
  4132ec:	cc                   	int3   
  4132ed:	cc                   	int3   
  4132ee:	cc                   	int3   
  4132ef:	cc                   	int3   
  4132f0:	55                   	push   %ebp
  4132f1:	8b ec                	mov    %esp,%ebp
  4132f3:	83 7d 08 00          	cmpl   $0x0,0x8(%ebp)
  4132f7:	75 07                	jne    0x413300
  4132f9:	c6 05 31 a5 41 00 01 	movb   $0x1,0x41a531
  413300:	e8 1d de ff ff       	call   0x411122
  413305:	e8 26 df ff ff       	call   0x411230
  41330a:	0f b6 c0             	movzbl %al,%eax
  41330d:	85 c0                	test   %eax,%eax
  41330f:	75 04                	jne    0x413315
  413311:	32 c0                	xor    %al,%al
  413313:	eb 1c                	jmp    0x413331
  413315:	e8 09 dd ff ff       	call   0x411023
  41331a:	0f b6 c8             	movzbl %al,%ecx
  41331d:	85 c9                	test   %ecx,%ecx
  41331f:	75 0e                	jne    0x41332f
  413321:	6a 00                	push   $0x0
  413323:	e8 ea de ff ff       	call   0x411212
  413328:	83 c4 04             	add    $0x4,%esp
  41332b:	32 c0                	xor    %al,%al
  41332d:	eb 02                	jmp    0x413331
  41332f:	b0 01                	mov    $0x1,%al
  413331:	5d                   	pop    %ebp
  413332:	c3                   	ret    
  413333:	cc                   	int3   
  413334:	cc                   	int3   
  413335:	cc                   	int3   
  413336:	cc                   	int3   
  413337:	cc                   	int3   
  413338:	cc                   	int3   
  413339:	cc                   	int3   
  41333a:	cc                   	int3   
  41333b:	cc                   	int3   
  41333c:	cc                   	int3   
  41333d:	cc                   	int3   
  41333e:	cc                   	int3   
  41333f:	cc                   	int3   
  413340:	cc                   	int3   
  413341:	cc                   	int3   
  413342:	cc                   	int3   
  413343:	cc                   	int3   
  413344:	cc                   	int3   
  413345:	cc                   	int3   
  413346:	cc                   	int3   
  413347:	cc                   	int3   
  413348:	cc                   	int3   
  413349:	cc                   	int3   
  41334a:	cc                   	int3   
  41334b:	cc                   	int3   
  41334c:	cc                   	int3   
  41334d:	cc                   	int3   
  41334e:	cc                   	int3   
  41334f:	cc                   	int3   
  413350:	55                   	push   %ebp
  413351:	8b ec                	mov    %esp,%ebp
  413353:	83 ec 1c             	sub    $0x1c,%esp
  413356:	0f b6 05 30 a5 41 00 	movzbl 0x41a530,%eax
  41335d:	85 c0                	test   %eax,%eax
  41335f:	74 07                	je     0x413368
  413361:	b0 01                	mov    $0x1,%al
  413363:	e9 bf 00 00 00       	jmp    0x413427
  413368:	83 7d 08 00          	cmpl   $0x0,0x8(%ebp)
  41336c:	74 0d                	je     0x41337b
  41336e:	83 7d 08 01          	cmpl   $0x1,0x8(%ebp)
  413372:	74 07                	je     0x41337b
  413374:	6a 05                	push   $0x5
  413376:	e8 fd dc ff ff       	call   0x411078
  41337b:	e8 fd dc ff ff       	call   0x41107d
  413380:	85 c0                	test   %eax,%eax
  413382:	74 35                	je     0x4133b9
  413384:	83 7d 08 00          	cmpl   $0x0,0x8(%ebp)
  413388:	75 2f                	jne    0x4133b9
  41338a:	68 18 a5 41 00       	push   $0x41a518
  41338f:	e8 5b de ff ff       	call   0x4111ef
  413394:	83 c4 04             	add    $0x4,%esp
  413397:	85 c0                	test   %eax,%eax
  413399:	74 07                	je     0x4133a2
  41339b:	32 c0                	xor    %al,%al
  41339d:	e9 85 00 00 00       	jmp    0x413427
  4133a2:	68 24 a5 41 00       	push   $0x41a524
  4133a7:	e8 43 de ff ff       	call   0x4111ef
  4133ac:	83 c4 04             	add    $0x4,%esp
  4133af:	85 c0                	test   %eax,%eax
  4133b1:	74 04                	je     0x4133b7
  4133b3:	32 c0                	xor    %al,%al
  4133b5:	eb 70                	jmp    0x413427
  4133b7:	eb 65                	jmp    0x41341e
  4133b9:	6a ff                	push   $0xffffffff
  4133bb:	e8 51 df ff ff       	call   0x411311
  4133c0:	83 c4 04             	add    $0x4,%esp
  4133c3:	89 45 fc             	mov    %eax,-0x4(%ebp)
  4133c6:	8b 4d fc             	mov    -0x4(%ebp),%ecx
  4133c9:	89 4d f0             	mov    %ecx,-0x10(%ebp)
  4133cc:	8b 55 fc             	mov    -0x4(%ebp),%edx
  4133cf:	89 55 f4             	mov    %edx,-0xc(%ebp)
  4133d2:	8b 45 fc             	mov    -0x4(%ebp),%eax
  4133d5:	89 45 f8             	mov    %eax,-0x8(%ebp)
  4133d8:	8b 4d f0             	mov    -0x10(%ebp),%ecx
  4133db:	89 0d 18 a5 41 00    	mov    %ecx,0x41a518
  4133e1:	8b 55 f4             	mov    -0xc(%ebp),%edx
  4133e4:	89 15 1c a5 41 00    	mov    %edx,0x41a51c
  4133ea:	8b 45 f8             	mov    -0x8(%ebp),%eax
  4133ed:	a3 20 a5 41 00       	mov    %eax,0x41a520
  4133f2:	8b 4d fc             	mov    -0x4(%ebp),%ecx
  4133f5:	89 4d e4             	mov    %ecx,-0x1c(%ebp)
  4133f8:	8b 55 fc             	mov    -0x4(%ebp),%edx
  4133fb:	89 55 e8             	mov    %edx,-0x18(%ebp)
  4133fe:	8b 45 fc             	mov    -0x4(%ebp),%eax
  413401:	89 45 ec             	mov    %eax,-0x14(%ebp)
  413404:	8b 4d e4             	mov    -0x1c(%ebp),%ecx
  413407:	89 0d 24 a5 41 00    	mov    %ecx,0x41a524
  41340d:	8b 55 e8             	mov    -0x18(%ebp),%edx
  413410:	89 15 28 a5 41 00    	mov    %edx,0x41a528
  413416:	8b 45 ec             	mov    -0x14(%ebp),%eax
  413419:	a3 2c a5 41 00       	mov    %eax,0x41a52c
  41341e:	c6 05 30 a5 41 00 01 	movb   $0x1,0x41a530
  413425:	b0 01                	mov    $0x1,%al
  413427:	8b e5                	mov    %ebp,%esp
  413429:	5d                   	pop    %ebp
  41342a:	c3                   	ret    
  41342b:	cc                   	int3   
  41342c:	cc                   	int3   
  41342d:	cc                   	int3   
  41342e:	cc                   	int3   
  41342f:	cc                   	int3   
  413430:	cc                   	int3   
  413431:	cc                   	int3   
  413432:	cc                   	int3   
  413433:	cc                   	int3   
  413434:	cc                   	int3   
  413435:	cc                   	int3   
  413436:	cc                   	int3   
  413437:	cc                   	int3   
  413438:	cc                   	int3   
  413439:	cc                   	int3   
  41343a:	cc                   	int3   
  41343b:	cc                   	int3   
  41343c:	cc                   	int3   
  41343d:	cc                   	int3   
  41343e:	cc                   	int3   
  41343f:	cc                   	int3   
  413440:	cc                   	int3   
  413441:	cc                   	int3   
  413442:	cc                   	int3   
  413443:	cc                   	int3   
  413444:	cc                   	int3   
  413445:	cc                   	int3   
  413446:	cc                   	int3   
  413447:	cc                   	int3   
  413448:	cc                   	int3   
  413449:	cc                   	int3   
  41344a:	cc                   	int3   
  41344b:	cc                   	int3   
  41344c:	cc                   	int3   
  41344d:	cc                   	int3   
  41344e:	cc                   	int3   
  41344f:	cc                   	int3   
  413450:	cc                   	int3   
  413451:	cc                   	int3   
  413452:	cc                   	int3   
  413453:	cc                   	int3   
  413454:	cc                   	int3   
  413455:	cc                   	int3   
  413456:	cc                   	int3   
  413457:	cc                   	int3   
  413458:	cc                   	int3   
  413459:	cc                   	int3   
  41345a:	cc                   	int3   
  41345b:	cc                   	int3   
  41345c:	cc                   	int3   
  41345d:	cc                   	int3   
  41345e:	cc                   	int3   
  41345f:	cc                   	int3   
  413460:	cc                   	int3   
  413461:	cc                   	int3   
  413462:	cc                   	int3   
  413463:	cc                   	int3   
  413464:	cc                   	int3   
  413465:	cc                   	int3   
  413466:	cc                   	int3   
  413467:	cc                   	int3   
  413468:	cc                   	int3   
  413469:	cc                   	int3   
  41346a:	cc                   	int3   
  41346b:	cc                   	int3   
  41346c:	cc                   	int3   
  41346d:	cc                   	int3   
  41346e:	cc                   	int3   
  41346f:	cc                   	int3   
  413470:	55                   	push   %ebp
  413471:	8b ec                	mov    %esp,%ebp
  413473:	6a fe                	push   $0xfffffffe
  413475:	68 90 8f 41 00       	push   $0x418f90
  41347a:	68 80 3e 41 00       	push   $0x413e80
  41347f:	64 a1 00 00 00 00    	mov    %fs:0x0,%eax
  413485:	50                   	push   %eax
  413486:	83 c4 d8             	add    $0xffffffd8,%esp
  413489:	53                   	push   %ebx
  41348a:	56                   	push   %esi
  41348b:	57                   	push   %edi
  41348c:	a1 00 a0 41 00       	mov    0x41a000,%eax
  413491:	31 45 f8             	xor    %eax,-0x8(%ebp)
  413494:	33 c5                	xor    %ebp,%eax
  413496:	50                   	push   %eax
  413497:	8d 45 f0             	lea    -0x10(%ebp),%eax
  41349a:	64 a3 00 00 00 00    	mov    %eax,%fs:0x0
  4134a0:	89 65 e8             	mov    %esp,-0x18(%ebp)
  4134a3:	8b 45 08             	mov    0x8(%ebp),%eax
  4134a6:	89 45 d0             	mov    %eax,-0x30(%ebp)
  4134a9:	c7 45 dc 00 00 40 00 	movl   $0x400000,-0x24(%ebp)
  4134b0:	c7 45 fc 00 00 00 00 	movl   $0x0,-0x4(%ebp)
  4134b7:	8b 4d dc             	mov    -0x24(%ebp),%ecx
  4134ba:	51                   	push   %ecx
  4134bb:	e8 a0 fb ff ff       	call   0x413060
  4134c0:	83 c4 04             	add    $0x4,%esp
  4134c3:	0f b6 d0             	movzbl %al,%edx
  4134c6:	85 d2                	test   %edx,%edx
  4134c8:	75 13                	jne    0x4134dd
  4134ca:	c6 45 e7 00          	movb   $0x0,-0x19(%ebp)
  4134ce:	c7 45 fc fe ff ff ff 	movl   $0xfffffffe,-0x4(%ebp)
  4134d5:	8a 45 e7             	mov    -0x19(%ebp),%al
  4134d8:	e9 aa 00 00 00       	jmp    0x413587
  4134dd:	8b 45 d0             	mov    -0x30(%ebp),%eax
  4134e0:	2b 45 dc             	sub    -0x24(%ebp),%eax
  4134e3:	89 45 cc             	mov    %eax,-0x34(%ebp)
  4134e6:	8b 4d cc             	mov    -0x34(%ebp),%ecx
  4134e9:	51                   	push   %ecx
  4134ea:	8b 55 dc             	mov    -0x24(%ebp),%edx
  4134ed:	52                   	push   %edx
  4134ee:	e8 bd fa ff ff       	call   0x412fb0
  4134f3:	83 c4 08             	add    $0x8,%esp
  4134f6:	89 45 d8             	mov    %eax,-0x28(%ebp)
  4134f9:	83 7d d8 00          	cmpl   $0x0,-0x28(%ebp)
  4134fd:	75 10                	jne    0x41350f
  4134ff:	c6 45 e6 00          	movb   $0x0,-0x1a(%ebp)
  413503:	c7 45 fc fe ff ff ff 	movl   $0xfffffffe,-0x4(%ebp)
  41350a:	8a 45 e6             	mov    -0x1a(%ebp),%al
  41350d:	eb 78                	jmp    0x413587
  41350f:	8b 45 d8             	mov    -0x28(%ebp),%eax
  413512:	8b 48 24             	mov    0x24(%eax),%ecx
  413515:	81 e1 00 00 00 80    	and    $0x80000000,%ecx
  41351b:	74 10                	je     0x41352d
  41351d:	c6 45 e5 00          	movb   $0x0,-0x1b(%ebp)
  413521:	c7 45 fc fe ff ff ff 	movl   $0xfffffffe,-0x4(%ebp)
  413528:	8a 45 e5             	mov    -0x1b(%ebp),%al
  41352b:	eb 5a                	jmp    0x413587
  41352d:	c6 45 e4 01          	movb   $0x1,-0x1c(%ebp)
  413531:	c7 45 fc fe ff ff ff 	movl   $0xfffffffe,-0x4(%ebp)
  413538:	8a 45 e4             	mov    -0x1c(%ebp),%al
  41353b:	eb 4a                	jmp    0x413587
  41353d:	c7 45 fc fe ff ff ff 	movl   $0xfffffffe,-0x4(%ebp)
  413544:	eb 41                	jmp    0x413587
  413546:	8b 55 ec             	mov    -0x14(%ebp),%edx
  413549:	8b 02                	mov    (%edx),%eax
  41354b:	8b 08                	mov    (%eax),%ecx
  41354d:	89 4d c8             	mov    %ecx,-0x38(%ebp)
  413550:	81 7d c8 05 00 00 c0 	cmpl   $0xc0000005,-0x38(%ebp)
  413557:	75 09                	jne    0x413562
  413559:	c7 45 d4 01 00 00 00 	movl   $0x1,-0x2c(%ebp)
  413560:	eb 07                	jmp    0x413569
  413562:	c7 45 d4 00 00 00 00 	movl   $0x0,-0x2c(%ebp)
  413569:	8b 45 d4             	mov    -0x2c(%ebp),%eax
  41356c:	c3                   	ret    
  41356d:	8b 65 e8             	mov    -0x18(%ebp),%esp
  413570:	c6 45 e3 00          	movb   $0x0,-0x1d(%ebp)
  413574:	c7 45 fc fe ff ff ff 	movl   $0xfffffffe,-0x4(%ebp)
  41357b:	8a 45 e3             	mov    -0x1d(%ebp),%al
  41357e:	eb 07                	jmp    0x413587
  413580:	c7 45 fc fe ff ff ff 	movl   $0xfffffffe,-0x4(%ebp)
  413587:	8b 4d f0             	mov    -0x10(%ebp),%ecx
  41358a:	64 89 0d 00 00 00 00 	mov    %ecx,%fs:0x0
  413591:	59                   	pop    %ecx
  413592:	5f                   	pop    %edi
  413593:	5e                   	pop    %esi
  413594:	5b                   	pop    %ebx
  413595:	8b e5                	mov    %ebp,%esp
  413597:	5d                   	pop    %ebp
  413598:	c3                   	ret    
  413599:	cc                   	int3   
  41359a:	cc                   	int3   
  41359b:	cc                   	int3   
  41359c:	cc                   	int3   
  41359d:	cc                   	int3   
  41359e:	cc                   	int3   
  41359f:	cc                   	int3   
  4135a0:	cc                   	int3   
  4135a1:	cc                   	int3   
  4135a2:	cc                   	int3   
  4135a3:	cc                   	int3   
  4135a4:	cc                   	int3   
  4135a5:	cc                   	int3   
  4135a6:	cc                   	int3   
  4135a7:	cc                   	int3   
  4135a8:	cc                   	int3   
  4135a9:	cc                   	int3   
  4135aa:	cc                   	int3   
  4135ab:	cc                   	int3   
  4135ac:	cc                   	int3   
  4135ad:	cc                   	int3   
  4135ae:	cc                   	int3   
  4135af:	cc                   	int3   
  4135b0:	cc                   	int3   
  4135b1:	cc                   	int3   
  4135b2:	cc                   	int3   
  4135b3:	cc                   	int3   
  4135b4:	cc                   	int3   
  4135b5:	cc                   	int3   
  4135b6:	cc                   	int3   
  4135b7:	cc                   	int3   
  4135b8:	cc                   	int3   
  4135b9:	cc                   	int3   
  4135ba:	cc                   	int3   
  4135bb:	cc                   	int3   
  4135bc:	cc                   	int3   
  4135bd:	cc                   	int3   
  4135be:	cc                   	int3   
  4135bf:	cc                   	int3   
  4135c0:	cc                   	int3   
  4135c1:	cc                   	int3   
  4135c2:	cc                   	int3   
  4135c3:	cc                   	int3   
  4135c4:	cc                   	int3   
  4135c5:	cc                   	int3   
  4135c6:	cc                   	int3   
  4135c7:	cc                   	int3   
  4135c8:	cc                   	int3   
  4135c9:	cc                   	int3   
  4135ca:	cc                   	int3   
  4135cb:	cc                   	int3   
  4135cc:	cc                   	int3   
  4135cd:	cc                   	int3   
  4135ce:	cc                   	int3   
  4135cf:	cc                   	int3   
  4135d0:	cc                   	int3   
  4135d1:	cc                   	int3   
  4135d2:	cc                   	int3   
  4135d3:	cc                   	int3   
  4135d4:	cc                   	int3   
  4135d5:	cc                   	int3   
  4135d6:	cc                   	int3   
  4135d7:	cc                   	int3   
  4135d8:	cc                   	int3   
  4135d9:	cc                   	int3   
  4135da:	cc                   	int3   
  4135db:	cc                   	int3   
  4135dc:	cc                   	int3   
  4135dd:	cc                   	int3   
  4135de:	cc                   	int3   
  4135df:	cc                   	int3   
  4135e0:	cc                   	int3   
  4135e1:	cc                   	int3   
  4135e2:	cc                   	int3   
  4135e3:	cc                   	int3   
  4135e4:	cc                   	int3   
  4135e5:	cc                   	int3   
  4135e6:	cc                   	int3   
  4135e7:	cc                   	int3   
  4135e8:	cc                   	int3   
  4135e9:	cc                   	int3   
  4135ea:	cc                   	int3   
  4135eb:	cc                   	int3   
  4135ec:	cc                   	int3   
  4135ed:	cc                   	int3   
  4135ee:	cc                   	int3   
  4135ef:	cc                   	int3   
  4135f0:	55                   	push   %ebp
  4135f1:	8b ec                	mov    %esp,%ebp
  4135f3:	e8 85 da ff ff       	call   0x41107d
  4135f8:	85 c0                	test   %eax,%eax
  4135fa:	75 02                	jne    0x4135fe
  4135fc:	eb 13                	jmp    0x413611
  4135fe:	0f b6 45 08          	movzbl 0x8(%ebp),%eax
  413602:	85 c0                	test   %eax,%eax
  413604:	74 02                	je     0x413608
  413606:	eb 09                	jmp    0x413611
  413608:	33 c9                	xor    %ecx,%ecx
  41360a:	ba 14 a5 41 00       	mov    $0x41a514,%edx
  41360f:	87 0a                	xchg   %ecx,(%edx)
  413611:	5d                   	pop    %ebp
  413612:	c3                   	ret    
  413613:	cc                   	int3   
  413614:	cc                   	int3   
  413615:	cc                   	int3   
  413616:	cc                   	int3   
  413617:	cc                   	int3   
  413618:	cc                   	int3   
  413619:	cc                   	int3   
  41361a:	cc                   	int3   
  41361b:	cc                   	int3   
  41361c:	cc                   	int3   
  41361d:	cc                   	int3   
  41361e:	cc                   	int3   
  41361f:	cc                   	int3   
  413620:	55                   	push   %ebp
  413621:	8b ec                	mov    %esp,%ebp
  413623:	0f b6 05 31 a5 41 00 	movzbl 0x41a531,%eax
  41362a:	85 c0                	test   %eax,%eax
  41362c:	74 0c                	je     0x41363a
  41362e:	0f b6 4d 0c          	movzbl 0xc(%ebp),%ecx
  413632:	85 c9                	test   %ecx,%ecx
  413634:	74 04                	je     0x41363a
  413636:	b0 01                	mov    $0x1,%al
  413638:	eb 1c                	jmp    0x413656
  41363a:	0f b6 55 08          	movzbl 0x8(%ebp),%edx
  41363e:	52                   	push   %edx
  41363f:	e8 da d9 ff ff       	call   0x41101e
  413644:	83 c4 04             	add    $0x4,%esp
  413647:	0f b6 45 08          	movzbl 0x8(%ebp),%eax
  41364b:	50                   	push   %eax
  41364c:	e8 c1 db ff ff       	call   0x411212
  413651:	83 c4 04             	add    $0x4,%esp
  413654:	b0 01                	mov    $0x1,%al
  413656:	5d                   	pop    %ebp
  413657:	c3                   	ret    
  413658:	cc                   	int3   
  413659:	cc                   	int3   
  41365a:	cc                   	int3   
  41365b:	cc                   	int3   
  41365c:	cc                   	int3   
  41365d:	cc                   	int3   
  41365e:	cc                   	int3   
  41365f:	cc                   	int3   
  413660:	cc                   	int3   
  413661:	cc                   	int3   
  413662:	cc                   	int3   
  413663:	cc                   	int3   
  413664:	cc                   	int3   
  413665:	cc                   	int3   
  413666:	cc                   	int3   
  413667:	cc                   	int3   
  413668:	cc                   	int3   
  413669:	cc                   	int3   
  41366a:	cc                   	int3   
  41366b:	cc                   	int3   
  41366c:	cc                   	int3   
  41366d:	cc                   	int3   
  41366e:	cc                   	int3   
  41366f:	cc                   	int3   
  413670:	55                   	push   %ebp
  413671:	8b ec                	mov    %esp,%ebp
  413673:	83 ec 0c             	sub    $0xc,%esp
  413676:	a1 18 a5 41 00       	mov    0x41a518,%eax
  41367b:	50                   	push   %eax
  41367c:	e8 ba da ff ff       	call   0x41113b
  413681:	83 c4 04             	add    $0x4,%esp
  413684:	89 45 f4             	mov    %eax,-0xc(%ebp)
  413687:	83 7d f4 ff          	cmpl   $0xffffffff,-0xc(%ebp)
  41368b:	75 26                	jne    0x4136b3
  41368d:	8b 4d 08             	mov    0x8(%ebp),%ecx
  413690:	51                   	push   %ecx
  413691:	e8 ad dc ff ff       	call   0x411343
  413696:	83 c4 04             	add    $0x4,%esp
  413699:	85 c0                	test   %eax,%eax
  41369b:	75 08                	jne    0x4136a5
  41369d:	8b 55 08             	mov    0x8(%ebp),%edx
  4136a0:	89 55 fc             	mov    %edx,-0x4(%ebp)
  4136a3:	eb 07                	jmp    0x4136ac
  4136a5:	c7 45 fc 00 00 00 00 	movl   $0x0,-0x4(%ebp)
  4136ac:	8b 45 fc             	mov    -0x4(%ebp),%eax
  4136af:	eb 29                	jmp    0x4136da
  4136b1:	eb 27                	jmp    0x4136da
  4136b3:	8b 45 08             	mov    0x8(%ebp),%eax
  4136b6:	50                   	push   %eax
  4136b7:	68 18 a5 41 00       	push   $0x41a518
  4136bc:	e8 d8 db ff ff       	call   0x411299
  4136c1:	83 c4 08             	add    $0x8,%esp
  4136c4:	85 c0                	test   %eax,%eax
  4136c6:	75 08                	jne    0x4136d0
  4136c8:	8b 4d 08             	mov    0x8(%ebp),%ecx
  4136cb:	89 4d f8             	mov    %ecx,-0x8(%ebp)
  4136ce:	eb 07                	jmp    0x4136d7
  4136d0:	c7 45 f8 00 00 00 00 	movl   $0x0,-0x8(%ebp)
  4136d7:	8b 45 f8             	mov    -0x8(%ebp),%eax
  4136da:	8b e5                	mov    %ebp,%esp
  4136dc:	5d                   	pop    %ebp
  4136dd:	c3                   	ret    
  4136de:	cc                   	int3   
  4136df:	cc                   	int3   
  4136e0:	cc                   	int3   
  4136e1:	cc                   	int3   
  4136e2:	cc                   	int3   
  4136e3:	cc                   	int3   
  4136e4:	cc                   	int3   
  4136e5:	cc                   	int3   
  4136e6:	cc                   	int3   
  4136e7:	cc                   	int3   
  4136e8:	cc                   	int3   
  4136e9:	cc                   	int3   
  4136ea:	cc                   	int3   
  4136eb:	cc                   	int3   
  4136ec:	cc                   	int3   
  4136ed:	cc                   	int3   
  4136ee:	cc                   	int3   
  4136ef:	cc                   	int3   
  4136f0:	cc                   	int3   
  4136f1:	cc                   	int3   
  4136f2:	cc                   	int3   
  4136f3:	cc                   	int3   
  4136f4:	cc                   	int3   
  4136f5:	cc                   	int3   
  4136f6:	cc                   	int3   
  4136f7:	cc                   	int3   
  4136f8:	cc                   	int3   
  4136f9:	cc                   	int3   
  4136fa:	cc                   	int3   
  4136fb:	cc                   	int3   
  4136fc:	cc                   	int3   
  4136fd:	cc                   	int3   
  4136fe:	cc                   	int3   
  4136ff:	cc                   	int3   
  413700:	55                   	push   %ebp
  413701:	8b ec                	mov    %esp,%ebp
  413703:	83 ec 08             	sub    $0x8,%esp
  413706:	a1 24 a5 41 00       	mov    0x41a524,%eax
  41370b:	50                   	push   %eax
  41370c:	e8 2a da ff ff       	call   0x41113b
  413711:	83 c4 04             	add    $0x4,%esp
  413714:	89 45 fc             	mov    %eax,-0x4(%ebp)
  413717:	83 7d fc ff          	cmpl   $0xffffffff,-0x4(%ebp)
  41371b:	75 10                	jne    0x41372d
  41371d:	8b 4d 08             	mov    0x8(%ebp),%ecx
  413720:	51                   	push   %ecx
  413721:	e8 51 da ff ff       	call   0x411177
  413726:	83 c4 04             	add    $0x4,%esp
  413729:	eb 19                	jmp    0x413744
  41372b:	eb 17                	jmp    0x413744
  41372d:	8b 55 08             	mov    0x8(%ebp),%edx
  413730:	89 55 f8             	mov    %edx,-0x8(%ebp)
  413733:	8b 45 f8             	mov    -0x8(%ebp),%eax
  413736:	50                   	push   %eax
  413737:	68 24 a5 41 00       	push   $0x41a524
  41373c:	e8 58 db ff ff       	call   0x411299
  413741:	83 c4 08             	add    $0x8,%esp
  413744:	8b e5                	mov    %ebp,%esp
  413746:	5d                   	pop    %ebp
  413747:	c3                   	ret    
  413748:	cc                   	int3   
  413749:	cc                   	int3   
  41374a:	cc                   	int3   
  41374b:	cc                   	int3   
  41374c:	cc                   	int3   
  41374d:	cc                   	int3   
  41374e:	cc                   	int3   
  41374f:	cc                   	int3   
  413750:	cc                   	int3   
  413751:	cc                   	int3   
  413752:	cc                   	int3   
  413753:	cc                   	int3   
  413754:	cc                   	int3   
  413755:	cc                   	int3   
  413756:	cc                   	int3   
  413757:	cc                   	int3   
  413758:	cc                   	int3   
  413759:	cc                   	int3   
  41375a:	cc                   	int3   
  41375b:	cc                   	int3   
  41375c:	cc                   	int3   
  41375d:	cc                   	int3   
  41375e:	cc                   	int3   
  41375f:	cc                   	int3   
  413760:	55                   	push   %ebp
  413761:	8b ec                	mov    %esp,%ebp
  413763:	51                   	push   %ecx
  413764:	8b 45 08             	mov    0x8(%ebp),%eax
  413767:	50                   	push   %eax
  413768:	e8 fa da ff ff       	call   0x411267
  41376d:	83 c4 04             	add    $0x4,%esp
  413770:	85 c0                	test   %eax,%eax
  413772:	74 09                	je     0x41377d
  413774:	c7 45 fc 00 00 00 00 	movl   $0x0,-0x4(%ebp)
  41377b:	eb 07                	jmp    0x413784
  41377d:	c7 45 fc ff ff ff ff 	movl   $0xffffffff,-0x4(%ebp)
  413784:	8b 45 fc             	mov    -0x4(%ebp),%eax
  413787:	8b e5                	mov    %ebp,%esp
  413789:	5d                   	pop    %ebp
  41378a:	c3                   	ret    
  41378b:	cc                   	int3   
  41378c:	cc                   	int3   
  41378d:	cc                   	int3   
  41378e:	cc                   	int3   
  41378f:	cc                   	int3   
  413790:	cc                   	int3   
  413791:	cc                   	int3   
  413792:	cc                   	int3   
  413793:	cc                   	int3   
  413794:	cc                   	int3   
  413795:	cc                   	int3   
  413796:	cc                   	int3   
  413797:	cc                   	int3   
  413798:	cc                   	int3   
  413799:	cc                   	int3   
  41379a:	cc                   	int3   
  41379b:	cc                   	int3   
  41379c:	cc                   	int3   
  41379d:	cc                   	int3   
  41379e:	cc                   	int3   
  41379f:	cc                   	int3   
  4137a0:	55                   	push   %ebp
  4137a1:	8b ec                	mov    %esp,%ebp
  4137a3:	83 ec 14             	sub    $0x14,%esp
  4137a6:	33 c0                	xor    %eax,%eax
  4137a8:	89 45 f4             	mov    %eax,-0xc(%ebp)
  4137ab:	89 45 f8             	mov    %eax,-0x8(%ebp)
  4137ae:	8d 4d f4             	lea    -0xc(%ebp),%ecx
  4137b1:	51                   	push   %ecx
  4137b2:	ff 15 40 b0 41 00    	call   *0x41b040
  4137b8:	8b 55 f4             	mov    -0xc(%ebp),%edx
  4137bb:	89 55 fc             	mov    %edx,-0x4(%ebp)
  4137be:	8b 45 fc             	mov    -0x4(%ebp),%eax
  4137c1:	33 45 f8             	xor    -0x8(%ebp),%eax
  4137c4:	89 45 fc             	mov    %eax,-0x4(%ebp)
  4137c7:	ff 15 44 b0 41 00    	call   *0x41b044
  4137cd:	33 45 fc             	xor    -0x4(%ebp),%eax
  4137d0:	89 45 fc             	mov    %eax,-0x4(%ebp)
  4137d3:	ff 15 48 b0 41 00    	call   *0x41b048
  4137d9:	33 45 fc             	xor    -0x4(%ebp),%eax
  4137dc:	89 45 fc             	mov    %eax,-0x4(%ebp)
  4137df:	8d 4d ec             	lea    -0x14(%ebp),%ecx
  4137e2:	51                   	push   %ecx
  4137e3:	ff 15 4c b0 41 00    	call   *0x41b04c
  4137e9:	8b 55 fc             	mov    -0x4(%ebp),%edx
  4137ec:	33 55 ec             	xor    -0x14(%ebp),%edx
  4137ef:	89 55 fc             	mov    %edx,-0x4(%ebp)
  4137f2:	8b 45 fc             	mov    -0x4(%ebp),%eax
  4137f5:	33 45 f0             	xor    -0x10(%ebp),%eax
  4137f8:	89 45 fc             	mov    %eax,-0x4(%ebp)
  4137fb:	8b 4d fc             	mov    -0x4(%ebp),%ecx
  4137fe:	8d 55 fc             	lea    -0x4(%ebp),%edx
  413801:	33 ca                	xor    %edx,%ecx
  413803:	89 4d fc             	mov    %ecx,-0x4(%ebp)
  413806:	8b 45 fc             	mov    -0x4(%ebp),%eax
  413809:	8b e5                	mov    %ebp,%esp
  41380b:	5d                   	pop    %ebp
  41380c:	c3                   	ret    
  41380d:	cc                   	int3   
  41380e:	cc                   	int3   
  41380f:	cc                   	int3   
  413810:	cc                   	int3   
  413811:	cc                   	int3   
  413812:	cc                   	int3   
  413813:	cc                   	int3   
  413814:	cc                   	int3   
  413815:	cc                   	int3   
  413816:	cc                   	int3   
  413817:	cc                   	int3   
  413818:	cc                   	int3   
  413819:	cc                   	int3   
  41381a:	cc                   	int3   
  41381b:	cc                   	int3   
  41381c:	cc                   	int3   
  41381d:	cc                   	int3   
  41381e:	cc                   	int3   
  41381f:	cc                   	int3   
  413820:	cc                   	int3   
  413821:	cc                   	int3   
  413822:	cc                   	int3   
  413823:	cc                   	int3   
  413824:	cc                   	int3   
  413825:	cc                   	int3   
  413826:	cc                   	int3   
  413827:	cc                   	int3   
  413828:	cc                   	int3   
  413829:	cc                   	int3   
  41382a:	cc                   	int3   
  41382b:	cc                   	int3   
  41382c:	cc                   	int3   
  41382d:	cc                   	int3   
  41382e:	cc                   	int3   
  41382f:	cc                   	int3   
  413830:	55                   	push   %ebp
  413831:	8b ec                	mov    %esp,%ebp
  413833:	51                   	push   %ecx
  413834:	81 3d 00 a0 41 00 4e 	cmpl   $0xbb40e64e,0x41a000
  41383b:	e6 40 bb 
  41383e:	74 1c                	je     0x41385c
  413840:	a1 00 a0 41 00       	mov    0x41a000,%eax
  413845:	25 00 00 ff ff       	and    $0xffff0000,%eax
  41384a:	74 10                	je     0x41385c
  41384c:	8b 0d 00 a0 41 00    	mov    0x41a000,%ecx
  413852:	f7 d1                	not    %ecx
  413854:	89 0d 04 a0 41 00    	mov    %ecx,0x41a004
  41385a:	eb 4a                	jmp    0x4138a6
  41385c:	e8 3f ff ff ff       	call   0x4137a0
  413861:	89 45 fc             	mov    %eax,-0x4(%ebp)
  413864:	81 7d fc 4e e6 40 bb 	cmpl   $0xbb40e64e,-0x4(%ebp)
  41386b:	75 09                	jne    0x413876
  41386d:	c7 45 fc 4f e6 40 bb 	movl   $0xbb40e64f,-0x4(%ebp)
  413874:	eb 1c                	jmp    0x413892
  413876:	8b 55 fc             	mov    -0x4(%ebp),%edx
  413879:	81 e2 00 00 ff ff    	and    $0xffff0000,%edx
  41387f:	75 11                	jne    0x413892
  413881:	8b 45 fc             	mov    -0x4(%ebp),%eax
  413884:	0d 11 47 00 00       	or     $0x4711,%eax
  413889:	c1 e0 10             	shl    $0x10,%eax
  41388c:	0b 45 fc             	or     -0x4(%ebp),%eax
  41388f:	89 45 fc             	mov    %eax,-0x4(%ebp)
  413892:	8b 4d fc             	mov    -0x4(%ebp),%ecx
  413895:	89 0d 00 a0 41 00    	mov    %ecx,0x41a000
  41389b:	8b 55 fc             	mov    -0x4(%ebp),%edx
  41389e:	f7 d2                	not    %edx
  4138a0:	89 15 04 a0 41 00    	mov    %edx,0x41a004
  4138a6:	8b e5                	mov    %ebp,%esp
  4138a8:	5d                   	pop    %ebp
  4138a9:	c3                   	ret    
  4138aa:	cc                   	int3   
  4138ab:	cc                   	int3   
  4138ac:	cc                   	int3   
  4138ad:	cc                   	int3   
  4138ae:	cc                   	int3   
  4138af:	cc                   	int3   
  4138b0:	cc                   	int3   
  4138b1:	cc                   	int3   
  4138b2:	cc                   	int3   
  4138b3:	cc                   	int3   
  4138b4:	cc                   	int3   
  4138b5:	cc                   	int3   
  4138b6:	cc                   	int3   
  4138b7:	cc                   	int3   
  4138b8:	cc                   	int3   
  4138b9:	cc                   	int3   
  4138ba:	cc                   	int3   
  4138bb:	cc                   	int3   
  4138bc:	cc                   	int3   
  4138bd:	cc                   	int3   
  4138be:	cc                   	int3   
  4138bf:	cc                   	int3   
  4138c0:	cc                   	int3   
  4138c1:	cc                   	int3   
  4138c2:	cc                   	int3   
  4138c3:	cc                   	int3   
  4138c4:	cc                   	int3   
  4138c5:	cc                   	int3   
  4138c6:	cc                   	int3   
  4138c7:	cc                   	int3   
  4138c8:	cc                   	int3   
  4138c9:	cc                   	int3   
  4138ca:	cc                   	int3   
  4138cb:	cc                   	int3   
  4138cc:	cc                   	int3   
  4138cd:	cc                   	int3   
  4138ce:	cc                   	int3   
  4138cf:	cc                   	int3   
  4138d0:	55                   	push   %ebp
  4138d1:	8b ec                	mov    %esp,%ebp
  4138d3:	33 c0                	xor    %eax,%eax
  4138d5:	5d                   	pop    %ebp
  4138d6:	c3                   	ret    
  4138d7:	cc                   	int3   
  4138d8:	cc                   	int3   
  4138d9:	cc                   	int3   
  4138da:	cc                   	int3   
  4138db:	cc                   	int3   
  4138dc:	cc                   	int3   
  4138dd:	cc                   	int3   
  4138de:	cc                   	int3   
  4138df:	cc                   	int3   
  4138e0:	55                   	push   %ebp
  4138e1:	8b ec                	mov    %esp,%ebp
  4138e3:	b8 01 00 00 00       	mov    $0x1,%eax
  4138e8:	5d                   	pop    %ebp
  4138e9:	c3                   	ret    
  4138ea:	cc                   	int3   
  4138eb:	cc                   	int3   
  4138ec:	cc                   	int3   
  4138ed:	cc                   	int3   
  4138ee:	cc                   	int3   
  4138ef:	cc                   	int3   
  4138f0:	55                   	push   %ebp
  4138f1:	8b ec                	mov    %esp,%ebp
  4138f3:	33 c0                	xor    %eax,%eax
  4138f5:	5d                   	pop    %ebp
  4138f6:	c3                   	ret    
  4138f7:	cc                   	int3   
  4138f8:	cc                   	int3   
  4138f9:	cc                   	int3   
  4138fa:	cc                   	int3   
  4138fb:	cc                   	int3   
  4138fc:	cc                   	int3   
  4138fd:	cc                   	int3   
  4138fe:	cc                   	int3   
  4138ff:	cc                   	int3   
  413900:	55                   	push   %ebp
  413901:	8b ec                	mov    %esp,%ebp
  413903:	b8 00 40 00 00       	mov    $0x4000,%eax
  413908:	5d                   	pop    %ebp
  413909:	c3                   	ret    
  41390a:	cc                   	int3   
  41390b:	cc                   	int3   
  41390c:	cc                   	int3   
  41390d:	cc                   	int3   
  41390e:	cc                   	int3   
  41390f:	cc                   	int3   
  413910:	55                   	push   %ebp
  413911:	8b ec                	mov    %esp,%ebp
  413913:	33 c0                	xor    %eax,%eax
  413915:	5d                   	pop    %ebp
  413916:	c3                   	ret    
  413917:	cc                   	int3   
  413918:	cc                   	int3   
  413919:	cc                   	int3   
  41391a:	cc                   	int3   
  41391b:	cc                   	int3   
  41391c:	cc                   	int3   
  41391d:	cc                   	int3   
  41391e:	cc                   	int3   
  41391f:	cc                   	int3   
  413920:	55                   	push   %ebp
  413921:	8b ec                	mov    %esp,%ebp
  413923:	33 c0                	xor    %eax,%eax
  413925:	5d                   	pop    %ebp
  413926:	c3                   	ret    
  413927:	cc                   	int3   
  413928:	cc                   	int3   
  413929:	cc                   	int3   
  41392a:	cc                   	int3   
  41392b:	cc                   	int3   
  41392c:	cc                   	int3   
  41392d:	cc                   	int3   
  41392e:	cc                   	int3   
  41392f:	cc                   	int3   
  413930:	55                   	push   %ebp
  413931:	8b ec                	mov    %esp,%ebp
  413933:	68 38 a5 41 00       	push   $0x41a538
  413938:	ff 15 3c b0 41 00    	call   *0x41b03c
  41393e:	5d                   	pop    %ebp
  41393f:	c3                   	ret    
  413940:	cc                   	int3   
  413941:	cc                   	int3   
  413942:	cc                   	int3   
  413943:	cc                   	int3   
  413944:	cc                   	int3   
  413945:	cc                   	int3   
  413946:	cc                   	int3   
  413947:	cc                   	int3   
  413948:	cc                   	int3   
  413949:	cc                   	int3   
  41394a:	cc                   	int3   
  41394b:	cc                   	int3   
  41394c:	cc                   	int3   
  41394d:	cc                   	int3   
  41394e:	cc                   	int3   
  41394f:	cc                   	int3   
  413950:	55                   	push   %ebp
  413951:	8b ec                	mov    %esp,%ebp
  413953:	68 38 a5 41 00       	push   $0x41a538
  413958:	e8 9d d7 ff ff       	call   0x4110fa
  41395d:	83 c4 04             	add    $0x4,%esp
  413960:	5d                   	pop    %ebp
  413961:	c3                   	ret    
  413962:	cc                   	int3   
  413963:	cc                   	int3   
  413964:	cc                   	int3   
  413965:	cc                   	int3   
  413966:	cc                   	int3   
  413967:	cc                   	int3   
  413968:	cc                   	int3   
  413969:	cc                   	int3   
  41396a:	cc                   	int3   
  41396b:	cc                   	int3   
  41396c:	cc                   	int3   
  41396d:	cc                   	int3   
  41396e:	cc                   	int3   
  41396f:	cc                   	int3   
  413970:	55                   	push   %ebp
  413971:	8b ec                	mov    %esp,%ebp
  413973:	b0 01                	mov    $0x1,%al
  413975:	5d                   	pop    %ebp
  413976:	c3                   	ret    
  413977:	cc                   	int3   
  413978:	cc                   	int3   
  413979:	cc                   	int3   
  41397a:	cc                   	int3   
  41397b:	cc                   	int3   
  41397c:	cc                   	int3   
  41397d:	cc                   	int3   
  41397e:	cc                   	int3   
  41397f:	cc                   	int3   
  413980:	55                   	push   %ebp
  413981:	8b ec                	mov    %esp,%ebp
  413983:	68 00 00 03 00       	push   $0x30000
  413988:	68 00 00 01 00       	push   $0x10000
  41398d:	6a 00                	push   $0x0
  41398f:	e8 ab d8 ff ff       	call   0x41123f
  413994:	83 c4 0c             	add    $0xc,%esp
  413997:	85 c0                	test   %eax,%eax
  413999:	74 07                	je     0x4139a2
  41399b:	6a 07                	push   $0x7
  41399d:	e8 d6 d6 ff ff       	call   0x411078
  4139a2:	5d                   	pop    %ebp
  4139a3:	c3                   	ret    
  4139a4:	cc                   	int3   
  4139a5:	cc                   	int3   
  4139a6:	cc                   	int3   
  4139a7:	cc                   	int3   
  4139a8:	cc                   	int3   
  4139a9:	cc                   	int3   
  4139aa:	cc                   	int3   
  4139ab:	cc                   	int3   
  4139ac:	cc                   	int3   
  4139ad:	cc                   	int3   
  4139ae:	cc                   	int3   
  4139af:	cc                   	int3   
  4139b0:	55                   	push   %ebp
  4139b1:	8b ec                	mov    %esp,%ebp
  4139b3:	5d                   	pop    %ebp
  4139b4:	c3                   	ret    
  4139b5:	cc                   	int3   
  4139b6:	cc                   	int3   
  4139b7:	cc                   	int3   
  4139b8:	cc                   	int3   
  4139b9:	cc                   	int3   
  4139ba:	cc                   	int3   
  4139bb:	cc                   	int3   
  4139bc:	cc                   	int3   
  4139bd:	cc                   	int3   
  4139be:	cc                   	int3   
  4139bf:	cc                   	int3   
  4139c0:	55                   	push   %ebp
  4139c1:	8b ec                	mov    %esp,%ebp
  4139c3:	5d                   	pop    %ebp
  4139c4:	c3                   	ret    
  4139c5:	cc                   	int3   
  4139c6:	cc                   	int3   
  4139c7:	cc                   	int3   
  4139c8:	cc                   	int3   
  4139c9:	cc                   	int3   
  4139ca:	cc                   	int3   
  4139cb:	cc                   	int3   
  4139cc:	cc                   	int3   
  4139cd:	cc                   	int3   
  4139ce:	cc                   	int3   
  4139cf:	cc                   	int3   
  4139d0:	55                   	push   %ebp
  4139d1:	8b ec                	mov    %esp,%ebp
  4139d3:	b8 48 a5 41 00       	mov    $0x41a548,%eax
  4139d8:	5d                   	pop    %ebp
  4139d9:	c3                   	ret    
  4139da:	cc                   	int3   
  4139db:	cc                   	int3   
  4139dc:	cc                   	int3   
  4139dd:	cc                   	int3   
  4139de:	cc                   	int3   
  4139df:	cc                   	int3   
  4139e0:	55                   	push   %ebp
  4139e1:	8b ec                	mov    %esp,%ebp
  4139e3:	83 ec 08             	sub    $0x8,%esp
  4139e6:	e8 71 d9 ff ff       	call   0x41135c
  4139eb:	89 45 fc             	mov    %eax,-0x4(%ebp)
  4139ee:	8b 45 fc             	mov    -0x4(%ebp),%eax
  4139f1:	8b 08                	mov    (%eax),%ecx
  4139f3:	83 c9 04             	or     $0x4,%ecx
  4139f6:	8b 50 04             	mov    0x4(%eax),%edx
  4139f9:	8b 45 fc             	mov    -0x4(%ebp),%eax
  4139fc:	89 08                	mov    %ecx,(%eax)
  4139fe:	89 50 04             	mov    %edx,0x4(%eax)
  413a01:	e8 02 d8 ff ff       	call   0x411208
  413a06:	89 45 f8             	mov    %eax,-0x8(%ebp)
  413a09:	8b 4d f8             	mov    -0x8(%ebp),%ecx
  413a0c:	8b 11                	mov    (%ecx),%edx
  413a0e:	83 ca 02             	or     $0x2,%edx
  413a11:	8b 41 04             	mov    0x4(%ecx),%eax
  413a14:	8b 4d f8             	mov    -0x8(%ebp),%ecx
  413a17:	89 11                	mov    %edx,(%ecx)
  413a19:	89 41 04             	mov    %eax,0x4(%ecx)
  413a1c:	8b e5                	mov    %ebp,%esp
  413a1e:	5d                   	pop    %ebp
  413a1f:	c3                   	ret    
  413a20:	cc                   	int3   
  413a21:	cc                   	int3   
  413a22:	cc                   	int3   
  413a23:	cc                   	int3   
  413a24:	cc                   	int3   
  413a25:	cc                   	int3   
  413a26:	cc                   	int3   
  413a27:	cc                   	int3   
  413a28:	cc                   	int3   
  413a29:	cc                   	int3   
  413a2a:	cc                   	int3   
  413a2b:	cc                   	int3   
  413a2c:	cc                   	int3   
  413a2d:	cc                   	int3   
  413a2e:	cc                   	int3   
  413a2f:	cc                   	int3   
  413a30:	55                   	push   %ebp
  413a31:	8b ec                	mov    %esp,%ebp
  413a33:	51                   	push   %ecx
  413a34:	83 3d 28 a0 41 00 00 	cmpl   $0x0,0x41a028
  413a3b:	75 09                	jne    0x413a46
  413a3d:	c7 45 fc 01 00 00 00 	movl   $0x1,-0x4(%ebp)
  413a44:	eb 07                	jmp    0x413a4d
  413a46:	c7 45 fc 00 00 00 00 	movl   $0x0,-0x4(%ebp)
  413a4d:	8b 45 fc             	mov    -0x4(%ebp),%eax
  413a50:	8b e5                	mov    %ebp,%esp
  413a52:	5d                   	pop    %ebp
  413a53:	c3                   	ret    
  413a54:	cc                   	int3   
  413a55:	cc                   	int3   
  413a56:	cc                   	int3   
  413a57:	cc                   	int3   
  413a58:	cc                   	int3   
  413a59:	cc                   	int3   
  413a5a:	cc                   	int3   
  413a5b:	cc                   	int3   
  413a5c:	cc                   	int3   
  413a5d:	cc                   	int3   
  413a5e:	cc                   	int3   
  413a5f:	cc                   	int3   
  413a60:	55                   	push   %ebp
  413a61:	8b ec                	mov    %esp,%ebp
  413a63:	b8 78 a5 41 00       	mov    $0x41a578,%eax
  413a68:	5d                   	pop    %ebp
  413a69:	c3                   	ret    
  413a6a:	cc                   	int3   
  413a6b:	cc                   	int3   
  413a6c:	cc                   	int3   
  413a6d:	cc                   	int3   
  413a6e:	cc                   	int3   
  413a6f:	cc                   	int3   
  413a70:	55                   	push   %ebp
  413a71:	8b ec                	mov    %esp,%ebp
  413a73:	b8 6c a5 41 00       	mov    $0x41a56c,%eax
  413a78:	5d                   	pop    %ebp
  413a79:	c3                   	ret    
  413a7a:	cc                   	int3   
  413a7b:	cc                   	int3   
  413a7c:	cc                   	int3   
  413a7d:	cc                   	int3   
  413a7e:	cc                   	int3   
  413a7f:	cc                   	int3   
  413a80:	55                   	push   %ebp
  413a81:	8b ec                	mov    %esp,%ebp
  413a83:	81 ec 2c 03 00 00    	sub    $0x32c,%esp
  413a89:	6a 17                	push   $0x17
  413a8b:	e8 86 d8 ff ff       	call   0x411316
  413a90:	85 c0                	test   %eax,%eax
  413a92:	74 05                	je     0x413a99
  413a94:	8b 4d 08             	mov    0x8(%ebp),%ecx
  413a97:	cd 29                	int    $0x29
  413a99:	6a 03                	push   $0x3
  413a9b:	e8 92 d5 ff ff       	call   0x411032
  413aa0:	83 c4 04             	add    $0x4,%esp
  413aa3:	68 cc 02 00 00       	push   $0x2cc
  413aa8:	6a 00                	push   $0x0
  413aaa:	8d 85 d4 fc ff ff    	lea    -0x32c(%ebp),%eax
  413ab0:	50                   	push   %eax
  413ab1:	e8 12 d6 ff ff       	call   0x4110c8
  413ab6:	83 c4 0c             	add    $0xc,%esp
  413ab9:	89 85 84 fd ff ff    	mov    %eax,-0x27c(%ebp)
  413abf:	89 8d 80 fd ff ff    	mov    %ecx,-0x280(%ebp)
  413ac5:	89 95 7c fd ff ff    	mov    %edx,-0x284(%ebp)
  413acb:	89 9d 78 fd ff ff    	mov    %ebx,-0x288(%ebp)
  413ad1:	89 b5 74 fd ff ff    	mov    %esi,-0x28c(%ebp)
  413ad7:	89 bd 70 fd ff ff    	mov    %edi,-0x290(%ebp)
  413add:	66 8c 95 9c fd ff ff 	data16 mov %ss,-0x264(%ebp)
  413ae4:	66 8c 8d 90 fd ff ff 	data16 mov %cs,-0x270(%ebp)
  413aeb:	66 8c 9d 6c fd ff ff 	data16 mov %ds,-0x294(%ebp)
  413af2:	66 8c 85 68 fd ff ff 	data16 mov %es,-0x298(%ebp)
  413af9:	66 8c a5 64 fd ff ff 	data16 mov %fs,-0x29c(%ebp)
  413b00:	66 8c ad 60 fd ff ff 	data16 mov %gs,-0x2a0(%ebp)
  413b07:	9c                   	pushf  
  413b08:	8f 85 94 fd ff ff    	popl   -0x26c(%ebp)
  413b0e:	c7 85 d4 fc ff ff 01 	movl   $0x10001,-0x32c(%ebp)
  413b15:	00 01 00 
  413b18:	8b 4d 04             	mov    0x4(%ebp),%ecx
  413b1b:	89 8d 8c fd ff ff    	mov    %ecx,-0x274(%ebp)
  413b21:	8d 55 04             	lea    0x4(%ebp),%edx
  413b24:	89 95 98 fd ff ff    	mov    %edx,-0x268(%ebp)
  413b2a:	8d 45 04             	lea    0x4(%ebp),%eax
  413b2d:	8b 48 fc             	mov    -0x4(%eax),%ecx
  413b30:	89 8d 88 fd ff ff    	mov    %ecx,-0x278(%ebp)
  413b36:	6a 50                	push   $0x50
  413b38:	6a 00                	push   $0x0
  413b3a:	8d 55 a0             	lea    -0x60(%ebp),%edx
  413b3d:	52                   	push   %edx
  413b3e:	e8 85 d5 ff ff       	call   0x4110c8
  413b43:	83 c4 0c             	add    $0xc,%esp
  413b46:	c7 45 a0 15 00 00 40 	movl   $0x40000015,-0x60(%ebp)
  413b4d:	c7 45 a4 01 00 00 00 	movl   $0x1,-0x5c(%ebp)
  413b54:	8b 45 04             	mov    0x4(%ebp),%eax
  413b57:	89 45 ac             	mov    %eax,-0x54(%ebp)
  413b5a:	ff 15 38 b0 41 00    	call   *0x41b038
  413b60:	83 f8 01             	cmp    $0x1,%eax
  413b63:	75 06                	jne    0x413b6b
  413b65:	c6 45 ff 01          	movb   $0x1,-0x1(%ebp)
  413b69:	eb 04                	jmp    0x413b6f
  413b6b:	c6 45 ff 00          	movb   $0x0,-0x1(%ebp)
  413b6f:	8a 4d ff             	mov    -0x1(%ebp),%cl
  413b72:	88 4d fe             	mov    %cl,-0x2(%ebp)
  413b75:	8d 55 a0             	lea    -0x60(%ebp),%edx
  413b78:	89 55 f0             	mov    %edx,-0x10(%ebp)
  413b7b:	8d 85 d4 fc ff ff    	lea    -0x32c(%ebp),%eax
  413b81:	89 45 f4             	mov    %eax,-0xc(%ebp)
  413b84:	6a 00                	push   $0x0
  413b86:	ff 15 14 b0 41 00    	call   *0x41b014
  413b8c:	8d 4d f0             	lea    -0x10(%ebp),%ecx
  413b8f:	51                   	push   %ecx
  413b90:	ff 15 10 b0 41 00    	call   *0x41b010
  413b96:	89 45 f8             	mov    %eax,-0x8(%ebp)
  413b99:	83 7d f8 00          	cmpl   $0x0,-0x8(%ebp)
  413b9d:	75 12                	jne    0x413bb1
  413b9f:	0f b6 55 fe          	movzbl -0x2(%ebp),%edx
  413ba3:	85 d2                	test   %edx,%edx
  413ba5:	75 0a                	jne    0x413bb1
  413ba7:	6a 03                	push   $0x3
  413ba9:	e8 84 d4 ff ff       	call   0x411032
  413bae:	83 c4 04             	add    $0x4,%esp
  413bb1:	8b e5                	mov    %ebp,%esp
  413bb3:	5d                   	pop    %ebp
  413bb4:	c3                   	ret    
  413bb5:	cc                   	int3   
  413bb6:	cc                   	int3   
  413bb7:	cc                   	int3   
  413bb8:	cc                   	int3   
  413bb9:	cc                   	int3   
  413bba:	cc                   	int3   
  413bbb:	cc                   	int3   
  413bbc:	cc                   	int3   
  413bbd:	cc                   	int3   
  413bbe:	cc                   	int3   
  413bbf:	cc                   	int3   
  413bc0:	cc                   	int3   
  413bc1:	cc                   	int3   
  413bc2:	cc                   	int3   
  413bc3:	cc                   	int3   
  413bc4:	cc                   	int3   
  413bc5:	cc                   	int3   
  413bc6:	cc                   	int3   
  413bc7:	cc                   	int3   
  413bc8:	cc                   	int3   
  413bc9:	cc                   	int3   
  413bca:	cc                   	int3   
  413bcb:	cc                   	int3   
  413bcc:	cc                   	int3   
  413bcd:	cc                   	int3   
  413bce:	cc                   	int3   
  413bcf:	cc                   	int3   
  413bd0:	cc                   	int3   
  413bd1:	cc                   	int3   
  413bd2:	cc                   	int3   
  413bd3:	cc                   	int3   
  413bd4:	cc                   	int3   
  413bd5:	cc                   	int3   
  413bd6:	cc                   	int3   
  413bd7:	cc                   	int3   
  413bd8:	cc                   	int3   
  413bd9:	cc                   	int3   
  413bda:	cc                   	int3   
  413bdb:	cc                   	int3   
  413bdc:	cc                   	int3   
  413bdd:	cc                   	int3   
  413bde:	cc                   	int3   
  413bdf:	cc                   	int3   
  413be0:	cc                   	int3   
  413be1:	cc                   	int3   
  413be2:	cc                   	int3   
  413be3:	cc                   	int3   
  413be4:	cc                   	int3   
  413be5:	cc                   	int3   
  413be6:	cc                   	int3   
  413be7:	cc                   	int3   
  413be8:	cc                   	int3   
  413be9:	cc                   	int3   
  413bea:	cc                   	int3   
  413beb:	cc                   	int3   
  413bec:	cc                   	int3   
  413bed:	cc                   	int3   
  413bee:	cc                   	int3   
  413bef:	cc                   	int3   
  413bf0:	cc                   	int3   
  413bf1:	cc                   	int3   
  413bf2:	cc                   	int3   
  413bf3:	cc                   	int3   
  413bf4:	cc                   	int3   
  413bf5:	cc                   	int3   
  413bf6:	cc                   	int3   
  413bf7:	cc                   	int3   
  413bf8:	cc                   	int3   
  413bf9:	cc                   	int3   
  413bfa:	cc                   	int3   
  413bfb:	cc                   	int3   
  413bfc:	cc                   	int3   
  413bfd:	cc                   	int3   
  413bfe:	cc                   	int3   
  413bff:	cc                   	int3   
  413c00:	cc                   	int3   
  413c01:	cc                   	int3   
  413c02:	cc                   	int3   
  413c03:	cc                   	int3   
  413c04:	cc                   	int3   
  413c05:	cc                   	int3   
  413c06:	cc                   	int3   
  413c07:	cc                   	int3   
  413c08:	cc                   	int3   
  413c09:	cc                   	int3   
  413c0a:	cc                   	int3   
  413c0b:	cc                   	int3   
  413c0c:	cc                   	int3   
  413c0d:	cc                   	int3   
  413c0e:	cc                   	int3   
  413c0f:	cc                   	int3   
  413c10:	55                   	push   %ebp
  413c11:	8b ec                	mov    %esp,%ebp
  413c13:	83 ec 48             	sub    $0x48,%esp
  413c16:	6a 44                	push   $0x44
  413c18:	6a 00                	push   $0x0
  413c1a:	8d 45 b8             	lea    -0x48(%ebp),%eax
  413c1d:	50                   	push   %eax
  413c1e:	e8 a5 d4 ff ff       	call   0x4110c8
  413c23:	83 c4 0c             	add    $0xc,%esp
  413c26:	8d 4d b8             	lea    -0x48(%ebp),%ecx
  413c29:	51                   	push   %ecx
  413c2a:	ff 15 00 b0 41 00    	call   *0x41b000
  413c30:	8b 55 e4             	mov    -0x1c(%ebp),%edx
  413c33:	83 e2 01             	and    $0x1,%edx
  413c36:	74 09                	je     0x413c41
  413c38:	0f b7 45 e8          	movzwl -0x18(%ebp),%eax
  413c3c:	89 45 fc             	mov    %eax,-0x4(%ebp)
  413c3f:	eb 07                	jmp    0x413c48
  413c41:	c7 45 fc 0a 00 00 00 	movl   $0xa,-0x4(%ebp)
  413c48:	66 8b 45 fc          	mov    -0x4(%ebp),%ax
  413c4c:	8b e5                	mov    %ebp,%esp
  413c4e:	5d                   	pop    %ebp
  413c4f:	c3                   	ret    
  413c50:	cc                   	int3   
  413c51:	cc                   	int3   
  413c52:	cc                   	int3   
  413c53:	cc                   	int3   
  413c54:	cc                   	int3   
  413c55:	cc                   	int3   
  413c56:	cc                   	int3   
  413c57:	cc                   	int3   
  413c58:	cc                   	int3   
  413c59:	cc                   	int3   
  413c5a:	cc                   	int3   
  413c5b:	cc                   	int3   
  413c5c:	cc                   	int3   
  413c5d:	cc                   	int3   
  413c5e:	cc                   	int3   
  413c5f:	cc                   	int3   
  413c60:	55                   	push   %ebp
  413c61:	8b ec                	mov    %esp,%ebp
  413c63:	33 c0                	xor    %eax,%eax
  413c65:	5d                   	pop    %ebp
  413c66:	c3                   	ret    
  413c67:	cc                   	int3   
  413c68:	cc                   	int3   
  413c69:	cc                   	int3   
  413c6a:	cc                   	int3   
  413c6b:	cc                   	int3   
  413c6c:	cc                   	int3   
  413c6d:	cc                   	int3   
  413c6e:	cc                   	int3   
  413c6f:	cc                   	int3   
  413c70:	55                   	push   %ebp
  413c71:	8b ec                	mov    %esp,%ebp
  413c73:	83 ec 08             	sub    $0x8,%esp
  413c76:	6a 00                	push   $0x0
  413c78:	ff 15 34 b0 41 00    	call   *0x41b034
  413c7e:	89 45 fc             	mov    %eax,-0x4(%ebp)
  413c81:	83 7d fc 00          	cmpl   $0x0,-0x4(%ebp)
  413c85:	75 04                	jne    0x413c8b
  413c87:	32 c0                	xor    %al,%al
  413c89:	eb 64                	jmp    0x413cef
  413c8b:	8b 45 fc             	mov    -0x4(%ebp),%eax
  413c8e:	0f b7 08             	movzwl (%eax),%ecx
  413c91:	81 f9 4d 5a 00 00    	cmp    $0x5a4d,%ecx
  413c97:	74 04                	je     0x413c9d
  413c99:	32 c0                	xor    %al,%al
  413c9b:	eb 52                	jmp    0x413cef
  413c9d:	8b 55 fc             	mov    -0x4(%ebp),%edx
  413ca0:	8b 45 fc             	mov    -0x4(%ebp),%eax
  413ca3:	03 42 3c             	add    0x3c(%edx),%eax
  413ca6:	89 45 f8             	mov    %eax,-0x8(%ebp)
  413ca9:	8b 4d f8             	mov    -0x8(%ebp),%ecx
  413cac:	81 39 50 45 00 00    	cmpl   $0x4550,(%ecx)
  413cb2:	74 04                	je     0x413cb8
  413cb4:	32 c0                	xor    %al,%al
  413cb6:	eb 37                	jmp    0x413cef
  413cb8:	8b 55 f8             	mov    -0x8(%ebp),%edx
  413cbb:	0f b7 42 18          	movzwl 0x18(%edx),%eax
  413cbf:	3d 0b 01 00 00       	cmp    $0x10b,%eax
  413cc4:	74 04                	je     0x413cca
  413cc6:	32 c0                	xor    %al,%al
  413cc8:	eb 25                	jmp    0x413cef
  413cca:	8b 4d f8             	mov    -0x8(%ebp),%ecx
  413ccd:	83 79 74 0e          	cmpl   $0xe,0x74(%ecx)
  413cd1:	77 04                	ja     0x413cd7
  413cd3:	32 c0                	xor    %al,%al
  413cd5:	eb 18                	jmp    0x413cef
  413cd7:	ba 08 00 00 00       	mov    $0x8,%edx
  413cdc:	6b c2 0e             	imul   $0xe,%edx,%eax
  413cdf:	8b 4d f8             	mov    -0x8(%ebp),%ecx
  413ce2:	83 7c 01 78 00       	cmpl   $0x0,0x78(%ecx,%eax,1)
  413ce7:	75 04                	jne    0x413ced
  413ce9:	32 c0                	xor    %al,%al
  413ceb:	eb 02                	jmp    0x413cef
  413ced:	b0 01                	mov    $0x1,%al
  413cef:	8b e5                	mov    %ebp,%esp
  413cf1:	5d                   	pop    %ebp
  413cf2:	c3                   	ret    
  413cf3:	cc                   	int3   
  413cf4:	cc                   	int3   
  413cf5:	cc                   	int3   
  413cf6:	cc                   	int3   
  413cf7:	cc                   	int3   
  413cf8:	cc                   	int3   
  413cf9:	cc                   	int3   
  413cfa:	cc                   	int3   
  413cfb:	cc                   	int3   
  413cfc:	cc                   	int3   
  413cfd:	cc                   	int3   
  413cfe:	cc                   	int3   
  413cff:	cc                   	int3   
  413d00:	cc                   	int3   
  413d01:	cc                   	int3   
  413d02:	cc                   	int3   
  413d03:	cc                   	int3   
  413d04:	cc                   	int3   
  413d05:	cc                   	int3   
  413d06:	cc                   	int3   
  413d07:	cc                   	int3   
  413d08:	cc                   	int3   
  413d09:	cc                   	int3   
  413d0a:	cc                   	int3   
  413d0b:	cc                   	int3   
  413d0c:	cc                   	int3   
  413d0d:	cc                   	int3   
  413d0e:	cc                   	int3   
  413d0f:	cc                   	int3   
  413d10:	cc                   	int3   
  413d11:	cc                   	int3   
  413d12:	cc                   	int3   
  413d13:	cc                   	int3   
  413d14:	cc                   	int3   
  413d15:	cc                   	int3   
  413d16:	cc                   	int3   
  413d17:	cc                   	int3   
  413d18:	cc                   	int3   
  413d19:	cc                   	int3   
  413d1a:	cc                   	int3   
  413d1b:	cc                   	int3   
  413d1c:	cc                   	int3   
  413d1d:	cc                   	int3   
  413d1e:	cc                   	int3   
  413d1f:	cc                   	int3   
  413d20:	55                   	push   %ebp
  413d21:	8b ec                	mov    %esp,%ebp
  413d23:	68 4a 11 41 00       	push   $0x41114a
  413d28:	ff 15 14 b0 41 00    	call   *0x41b014
  413d2e:	5d                   	pop    %ebp
  413d2f:	c3                   	ret    
  413d30:	cc                   	int3   
  413d31:	cc                   	int3   
  413d32:	cc                   	int3   
  413d33:	cc                   	int3   
  413d34:	cc                   	int3   
  413d35:	cc                   	int3   
  413d36:	cc                   	int3   
  413d37:	cc                   	int3   
  413d38:	cc                   	int3   
  413d39:	cc                   	int3   
  413d3a:	cc                   	int3   
  413d3b:	cc                   	int3   
  413d3c:	cc                   	int3   
  413d3d:	cc                   	int3   
  413d3e:	cc                   	int3   
  413d3f:	cc                   	int3   
  413d40:	55                   	push   %ebp
  413d41:	8b ec                	mov    %esp,%ebp
  413d43:	51                   	push   %ecx
  413d44:	8b 45 08             	mov    0x8(%ebp),%eax
  413d47:	8b 08                	mov    (%eax),%ecx
  413d49:	89 4d fc             	mov    %ecx,-0x4(%ebp)
  413d4c:	8b 55 fc             	mov    -0x4(%ebp),%edx
  413d4f:	81 3a 63 73 6d e0    	cmpl   $0xe06d7363,(%edx)
  413d55:	75 3e                	jne    0x413d95
  413d57:	8b 45 fc             	mov    -0x4(%ebp),%eax
  413d5a:	83 78 10 03          	cmpl   $0x3,0x10(%eax)
  413d5e:	75 35                	jne    0x413d95
  413d60:	8b 4d fc             	mov    -0x4(%ebp),%ecx
  413d63:	81 79 14 20 05 93 19 	cmpl   $0x19930520,0x14(%ecx)
  413d6a:	74 24                	je     0x413d90
  413d6c:	8b 55 fc             	mov    -0x4(%ebp),%edx
  413d6f:	81 7a 14 21 05 93 19 	cmpl   $0x19930521,0x14(%edx)
  413d76:	74 18                	je     0x413d90
  413d78:	8b 45 fc             	mov    -0x4(%ebp),%eax
  413d7b:	81 78 14 22 05 93 19 	cmpl   $0x19930522,0x14(%eax)
  413d82:	74 0c                	je     0x413d90
  413d84:	8b 4d fc             	mov    -0x4(%ebp),%ecx
  413d87:	81 79 14 00 40 99 01 	cmpl   $0x1994000,0x14(%ecx)
  413d8e:	75 05                	jne    0x413d95
  413d90:	e8 8c d4 ff ff       	call   0x411221
  413d95:	33 c0                	xor    %eax,%eax
  413d97:	8b e5                	mov    %ebp,%esp
  413d99:	5d                   	pop    %ebp
  413d9a:	c2 04 00             	ret    $0x4
  413d9d:	cc                   	int3   
  413d9e:	cc                   	int3   
  413d9f:	cc                   	int3   
  413da0:	cc                   	int3   
  413da1:	cc                   	int3   
  413da2:	cc                   	int3   
  413da3:	cc                   	int3   
  413da4:	cc                   	int3   
  413da5:	cc                   	int3   
  413da6:	cc                   	int3   
  413da7:	cc                   	int3   
  413da8:	cc                   	int3   
  413da9:	cc                   	int3   
  413daa:	cc                   	int3   
  413dab:	cc                   	int3   
  413dac:	cc                   	int3   
  413dad:	cc                   	int3   
  413dae:	cc                   	int3   
  413daf:	cc                   	int3   
  413db0:	cc                   	int3   
  413db1:	cc                   	int3   
  413db2:	cc                   	int3   
  413db3:	cc                   	int3   
  413db4:	cc                   	int3   
  413db5:	cc                   	int3   
  413db6:	cc                   	int3   
  413db7:	cc                   	int3   
  413db8:	cc                   	int3   
  413db9:	cc                   	int3   
  413dba:	cc                   	int3   
  413dbb:	cc                   	int3   
  413dbc:	cc                   	int3   
  413dbd:	cc                   	int3   
  413dbe:	cc                   	int3   
  413dbf:	cc                   	int3   
  413dc0:	55                   	push   %ebp
  413dc1:	8b ec                	mov    %esp,%ebp
  413dc3:	c7 05 54 a5 41 00 00 	movl   $0x0,0x41a554
  413dca:	00 00 00 
  413dcd:	5d                   	pop    %ebp
  413dce:	c3                   	ret    
  413dcf:	cc                   	int3   
  413dd0:	cc                   	int3   
  413dd1:	cc                   	int3   
  413dd2:	cc                   	int3   
  413dd3:	cc                   	int3   
  413dd4:	cc                   	int3   
  413dd5:	cc                   	int3   
  413dd6:	cc                   	int3   
  413dd7:	cc                   	int3   
  413dd8:	cc                   	int3   
  413dd9:	cc                   	int3   
  413dda:	cc                   	int3   
  413ddb:	cc                   	int3   
  413ddc:	cc                   	int3   
  413ddd:	cc                   	int3   
  413dde:	cc                   	int3   
  413ddf:	cc                   	int3   
  413de0:	56                   	push   %esi
  413de1:	be 38 89 41 00       	mov    $0x418938,%esi
  413de6:	8b c6                	mov    %esi,%eax
  413de8:	3d 3c 8b 41 00       	cmp    $0x418b3c,%eax
  413ded:	73 1c                	jae    0x413e0b
  413def:	57                   	push   %edi
  413df0:	8b 3e                	mov    (%esi),%edi
  413df2:	85 ff                	test   %edi,%edi
  413df4:	74 09                	je     0x413dff
  413df6:	8b cf                	mov    %edi,%ecx
  413df8:	e8 e7 d4 ff ff       	call   0x4112e4
  413dfd:	ff d7                	call   *%edi
  413dff:	83 c6 04             	add    $0x4,%esi
  413e02:	81 fe 3c 8b 41 00    	cmp    $0x418b3c,%esi
  413e08:	72 e6                	jb     0x413df0
  413e0a:	5f                   	pop    %edi
  413e0b:	5e                   	pop    %esi
  413e0c:	c3                   	ret    
  413e0d:	cc                   	int3   
  413e0e:	cc                   	int3   
  413e0f:	cc                   	int3   
  413e10:	cc                   	int3   
  413e11:	cc                   	int3   
  413e12:	cc                   	int3   
  413e13:	cc                   	int3   
  413e14:	cc                   	int3   
  413e15:	cc                   	int3   
  413e16:	cc                   	int3   
  413e17:	cc                   	int3   
  413e18:	cc                   	int3   
  413e19:	cc                   	int3   
  413e1a:	cc                   	int3   
  413e1b:	cc                   	int3   
  413e1c:	cc                   	int3   
  413e1d:	cc                   	int3   
  413e1e:	cc                   	int3   
  413e1f:	cc                   	int3   
  413e20:	56                   	push   %esi
  413e21:	be 44 8c 41 00       	mov    $0x418c44,%esi
  413e26:	8b c6                	mov    %esi,%eax
  413e28:	3d 48 8e 41 00       	cmp    $0x418e48,%eax
  413e2d:	73 1c                	jae    0x413e4b
  413e2f:	57                   	push   %edi
  413e30:	8b 3e                	mov    (%esi),%edi
  413e32:	85 ff                	test   %edi,%edi
  413e34:	74 09                	je     0x413e3f
  413e36:	8b cf                	mov    %edi,%ecx
  413e38:	e8 a7 d4 ff ff       	call   0x4112e4
  413e3d:	ff d7                	call   *%edi
  413e3f:	83 c6 04             	add    $0x4,%esi
  413e42:	81 fe 48 8e 41 00    	cmp    $0x418e48,%esi
  413e48:	72 e6                	jb     0x413e30
  413e4a:	5f                   	pop    %edi
  413e4b:	5e                   	pop    %esi
  413e4c:	c3                   	ret    
  413e4d:	cc                   	int3   
  413e4e:	cc                   	int3   
  413e4f:	cc                   	int3   
  413e50:	cc                   	int3   
  413e51:	cc                   	int3   
  413e52:	cc                   	int3   
  413e53:	cc                   	int3   
  413e54:	cc                   	int3   
  413e55:	cc                   	int3   
  413e56:	cc                   	int3   
  413e57:	cc                   	int3   
  413e58:	cc                   	int3   
  413e59:	cc                   	int3   
  413e5a:	cc                   	int3   
  413e5b:	cc                   	int3   
  413e5c:	cc                   	int3   
  413e5d:	cc                   	int3   
  413e5e:	cc                   	int3   
  413e5f:	cc                   	int3   
  413e60:	55                   	push   %ebp
  413e61:	8b ec                	mov    %esp,%ebp
  413e63:	51                   	push   %ecx
  413e64:	89 4d fc             	mov    %ecx,-0x4(%ebp)
  413e67:	8b 4d fc             	mov    -0x4(%ebp),%ecx
  413e6a:	ff 15 00 c0 41 00    	call   *0x41c000
  413e70:	8b e5                	mov    %ebp,%esp
  413e72:	5d                   	pop    %ebp
  413e73:	c3                   	ret    
  413e74:	cc                   	int3   
  413e75:	cc                   	int3   
  413e76:	cc                   	int3   
  413e77:	cc                   	int3   
  413e78:	cc                   	int3   
  413e79:	cc                   	int3   
  413e7a:	cc                   	int3   
  413e7b:	cc                   	int3   
  413e7c:	cc                   	int3   
  413e7d:	cc                   	int3   
  413e7e:	cc                   	int3   
  413e7f:	cc                   	int3   
  413e80:	55                   	push   %ebp
  413e81:	8b ec                	mov    %esp,%ebp
  413e83:	8b 45 14             	mov    0x14(%ebp),%eax
  413e86:	50                   	push   %eax
  413e87:	8b 4d 10             	mov    0x10(%ebp),%ecx
  413e8a:	51                   	push   %ecx
  413e8b:	8b 55 0c             	mov    0xc(%ebp),%edx
  413e8e:	52                   	push   %edx
  413e8f:	8b 45 08             	mov    0x8(%ebp),%eax
  413e92:	50                   	push   %eax
  413e93:	68 8f 12 41 00       	push   $0x41128f
  413e98:	68 00 a0 41 00       	push   $0x41a000
  413e9d:	e8 ef d1 ff ff       	call   0x411091
  413ea2:	83 c4 18             	add    $0x18,%esp
  413ea5:	5d                   	pop    %ebp
  413ea6:	c3                   	ret    
  413ea7:	cc                   	int3   
  413ea8:	cc                   	int3   
  413ea9:	cc                   	int3   
  413eaa:	cc                   	int3   
  413eab:	cc                   	int3   
  413eac:	cc                   	int3   
  413ead:	cc                   	int3   
  413eae:	cc                   	int3   
  413eaf:	cc                   	int3   
  413eb0:	55                   	push   %ebp
  413eb1:	8b ec                	mov    %esp,%ebp
  413eb3:	81 ec 14 04 00 00    	sub    $0x414,%esp
  413eb9:	a1 00 a0 41 00       	mov    0x41a000,%eax
  413ebe:	33 c5                	xor    %ebp,%eax
  413ec0:	89 45 fc             	mov    %eax,-0x4(%ebp)
  413ec3:	80 3d 5c a5 41 00 00 	cmpb   $0x0,0x41a55c
  413eca:	0f 85 10 01 00 00    	jne    0x413fe0
  413ed0:	c6 05 5c a5 41 00 01 	movb   $0x1,0x41a55c
  413ed7:	e8 64 01 00 00       	call   0x414040
  413edc:	85 c0                	test   %eax,%eax
  413ede:	0f 85 fe 00 00 00    	jne    0x413fe2
  413ee4:	68 9c 83 41 00       	push   $0x41839c
  413ee9:	e8 96 d4 ff ff       	call   0x411384
  413eee:	83 c4 04             	add    $0x4,%esp
  413ef1:	85 c0                	test   %eax,%eax
  413ef3:	74 78                	je     0x413f6d
  413ef5:	68 04 01 00 00       	push   $0x104
  413efa:	8d 8d ec fb ff ff    	lea    -0x414(%ebp),%ecx
  413f00:	51                   	push   %ecx
  413f01:	50                   	push   %eax
  413f02:	e8 00 d4 ff ff       	call   0x411307
  413f07:	83 c4 0c             	add    $0xc,%esp
  413f0a:	85 c0                	test   %eax,%eax
  413f0c:	74 5f                	je     0x413f6d
  413f0e:	68 04 01 00 00       	push   $0x104
  413f13:	8d 85 f4 fd ff ff    	lea    -0x20c(%ebp),%eax
  413f19:	50                   	push   %eax
  413f1a:	8d 85 ec fb ff ff    	lea    -0x414(%ebp),%eax
  413f20:	50                   	push   %eax
  413f21:	e8 3a 04 00 00       	call   0x414360
  413f26:	83 c4 0c             	add    $0xc,%esp
  413f29:	85 c0                	test   %eax,%eax
  413f2b:	74 40                	je     0x413f6d
  413f2d:	68 00 09 00 00       	push   $0x900
  413f32:	8d 85 f4 fd ff ff    	lea    -0x20c(%ebp),%eax
  413f38:	6a 00                	push   $0x0
  413f3a:	50                   	push   %eax
  413f3b:	e8 30 d4 ff ff       	call   0x411370
  413f40:	83 c4 0c             	add    $0xc,%esp
  413f43:	85 c0                	test   %eax,%eax
  413f45:	0f 85 97 00 00 00    	jne    0x413fe2
  413f4b:	ff 15 30 b0 41 00    	call   *0x41b030
  413f51:	83 f8 57             	cmp    $0x57,%eax
  413f54:	75 17                	jne    0x413f6d
  413f56:	6a 08                	push   $0x8
  413f58:	8d 85 f4 fd ff ff    	lea    -0x20c(%ebp),%eax
  413f5e:	6a 00                	push   $0x0
  413f60:	50                   	push   %eax
  413f61:	e8 0a d4 ff ff       	call   0x411370
  413f66:	83 c4 0c             	add    $0xc,%esp
  413f69:	85 c0                	test   %eax,%eax
  413f6b:	75 75                	jne    0x413fe2
  413f6d:	68 00 0a 00 00       	push   $0xa00
  413f72:	6a 00                	push   $0x0
  413f74:	68 4c 85 41 00       	push   $0x41854c
  413f79:	e8 f2 d3 ff ff       	call   0x411370
  413f7e:	83 c4 0c             	add    $0xc,%esp
  413f81:	85 c0                	test   %eax,%eax
  413f83:	75 5d                	jne    0x413fe2
  413f85:	ff 15 30 b0 41 00    	call   *0x41b030
  413f8b:	83 f8 57             	cmp    $0x57,%eax
  413f8e:	75 50                	jne    0x413fe0
  413f90:	68 04 01 00 00       	push   $0x104
  413f95:	8d 85 ec fb ff ff    	lea    -0x414(%ebp),%eax
  413f9b:	50                   	push   %eax
  413f9c:	6a 00                	push   $0x0
  413f9e:	e8 64 d3 ff ff       	call   0x411307
  413fa3:	83 c4 0c             	add    $0xc,%esp
  413fa6:	85 c0                	test   %eax,%eax
  413fa8:	74 36                	je     0x413fe0
  413faa:	68 04 01 00 00       	push   $0x104
  413faf:	8d 85 f4 fd ff ff    	lea    -0x20c(%ebp),%eax
  413fb5:	50                   	push   %eax
  413fb6:	8d 85 ec fb ff ff    	lea    -0x414(%ebp),%eax
  413fbc:	50                   	push   %eax
  413fbd:	e8 9e 03 00 00       	call   0x414360
  413fc2:	83 c4 0c             	add    $0xc,%esp
  413fc5:	85 c0                	test   %eax,%eax
  413fc7:	74 17                	je     0x413fe0
  413fc9:	6a 08                	push   $0x8
  413fcb:	8d 85 f4 fd ff ff    	lea    -0x20c(%ebp),%eax
  413fd1:	6a 00                	push   $0x0
  413fd3:	50                   	push   %eax
  413fd4:	e8 97 d3 ff ff       	call   0x411370
  413fd9:	83 c4 0c             	add    $0xc,%esp
  413fdc:	85 c0                	test   %eax,%eax
  413fde:	75 02                	jne    0x413fe2
  413fe0:	33 c0                	xor    %eax,%eax
  413fe2:	8b 4d fc             	mov    -0x4(%ebp),%ecx
  413fe5:	33 cd                	xor    %ebp,%ecx
  413fe7:	e8 a3 d2 ff ff       	call   0x41128f
  413fec:	8b e5                	mov    %ebp,%esp
  413fee:	5d                   	pop    %ebp
  413fef:	c3                   	ret    
  413ff0:	cc                   	int3   
  413ff1:	cc                   	int3   
  413ff2:	cc                   	int3   
  413ff3:	cc                   	int3   
  413ff4:	cc                   	int3   
  413ff5:	cc                   	int3   
  413ff6:	cc                   	int3   
  413ff7:	cc                   	int3   
  413ff8:	cc                   	int3   
  413ff9:	cc                   	int3   
  413ffa:	cc                   	int3   
  413ffb:	cc                   	int3   
  413ffc:	cc                   	int3   
  413ffd:	cc                   	int3   
  413ffe:	cc                   	int3   
  413fff:	cc                   	int3   
  414000:	cc                   	int3   
  414001:	cc                   	int3   
  414002:	cc                   	int3   
  414003:	cc                   	int3   
  414004:	cc                   	int3   
  414005:	cc                   	int3   
  414006:	cc                   	int3   
  414007:	cc                   	int3   
  414008:	cc                   	int3   
  414009:	cc                   	int3   
  41400a:	cc                   	int3   
  41400b:	cc                   	int3   
  41400c:	cc                   	int3   
  41400d:	cc                   	int3   
  41400e:	cc                   	int3   
  41400f:	cc                   	int3   
  414010:	cc                   	int3   
  414011:	cc                   	int3   
  414012:	cc                   	int3   
  414013:	cc                   	int3   
  414014:	cc                   	int3   
  414015:	cc                   	int3   
  414016:	cc                   	int3   
  414017:	cc                   	int3   
  414018:	cc                   	int3   
  414019:	cc                   	int3   
  41401a:	cc                   	int3   
  41401b:	cc                   	int3   
  41401c:	cc                   	int3   
  41401d:	cc                   	int3   
  41401e:	cc                   	int3   
  41401f:	cc                   	int3   
  414020:	cc                   	int3   
  414021:	cc                   	int3   
  414022:	cc                   	int3   
  414023:	cc                   	int3   
  414024:	cc                   	int3   
  414025:	cc                   	int3   
  414026:	cc                   	int3   
  414027:	cc                   	int3   
  414028:	cc                   	int3   
  414029:	cc                   	int3   
  41402a:	cc                   	int3   
  41402b:	cc                   	int3   
  41402c:	cc                   	int3   
  41402d:	cc                   	int3   
  41402e:	cc                   	int3   
  41402f:	cc                   	int3   
  414030:	cc                   	int3   
  414031:	cc                   	int3   
  414032:	cc                   	int3   
  414033:	cc                   	int3   
  414034:	cc                   	int3   
  414035:	cc                   	int3   
  414036:	cc                   	int3   
  414037:	cc                   	int3   
  414038:	cc                   	int3   
  414039:	cc                   	int3   
  41403a:	cc                   	int3   
  41403b:	cc                   	int3   
  41403c:	cc                   	int3   
  41403d:	cc                   	int3   
  41403e:	cc                   	int3   
  41403f:	cc                   	int3   
  414040:	55                   	push   %ebp
  414041:	8b ec                	mov    %esp,%ebp
  414043:	81 ec 1c 02 00 00    	sub    $0x21c,%esp
  414049:	a1 00 a0 41 00       	mov    0x41a000,%eax
  41404e:	33 c5                	xor    %ebp,%eax
  414050:	89 45 fc             	mov    %eax,-0x4(%ebp)
  414053:	57                   	push   %edi
  414054:	68 00 08 00 00       	push   $0x800
  414059:	6a 00                	push   $0x0
  41405b:	68 d0 83 41 00       	push   $0x4183d0
  414060:	e8 0b d3 ff ff       	call   0x411370
  414065:	8b f8                	mov    %eax,%edi
  414067:	83 c4 0c             	add    $0xc,%esp
  41406a:	85 ff                	test   %edi,%edi
  41406c:	75 4a                	jne    0x4140b8
  41406e:	68 00 08 00 00       	push   $0x800
  414073:	50                   	push   %eax
  414074:	68 28 84 41 00       	push   $0x418428
  414079:	e8 f2 d2 ff ff       	call   0x411370
  41407e:	8b f8                	mov    %eax,%edi
  414080:	83 c4 0c             	add    $0xc,%esp
  414083:	85 ff                	test   %edi,%edi
  414085:	75 31                	jne    0x4140b8
  414087:	ff 15 30 b0 41 00    	call   *0x41b030
  41408d:	83 f8 57             	cmp    $0x57,%eax
  414090:	75 15                	jne    0x4140a7
  414092:	57                   	push   %edi
  414093:	57                   	push   %edi
  414094:	68 28 84 41 00       	push   $0x418428
  414099:	e8 d2 d2 ff ff       	call   0x411370
  41409e:	8b f8                	mov    %eax,%edi
  4140a0:	83 c4 0c             	add    $0xc,%esp
  4140a3:	85 ff                	test   %edi,%edi
  4140a5:	75 11                	jne    0x4140b8
  4140a7:	33 c0                	xor    %eax,%eax
  4140a9:	5f                   	pop    %edi
  4140aa:	8b 4d fc             	mov    -0x4(%ebp),%ecx
  4140ad:	33 cd                	xor    %ebp,%ecx
  4140af:	e8 db d1 ff ff       	call   0x41128f
  4140b4:	8b e5                	mov    %ebp,%esp
  4140b6:	5d                   	pop    %ebp
  4140b7:	c3                   	ret    
  4140b8:	56                   	push   %esi
  4140b9:	68 48 84 41 00       	push   $0x418448
  4140be:	57                   	push   %edi
  4140bf:	ff 15 18 b0 41 00    	call   *0x41b018
  4140c5:	8b f0                	mov    %eax,%esi
  4140c7:	85 f6                	test   %esi,%esi
  4140c9:	75 10                	jne    0x4140db
  4140cb:	5e                   	pop    %esi
  4140cc:	5f                   	pop    %edi
  4140cd:	8b 4d fc             	mov    -0x4(%ebp),%ecx
  4140d0:	33 cd                	xor    %ebp,%ecx
  4140d2:	e8 b8 d1 ff ff       	call   0x41128f
  4140d7:	8b e5                	mov    %ebp,%esp
  4140d9:	5d                   	pop    %ebp
  4140da:	c3                   	ret    
  4140db:	53                   	push   %ebx
  4140dc:	68 58 84 41 00       	push   $0x418458
  4140e1:	57                   	push   %edi
  4140e2:	ff 15 18 b0 41 00    	call   *0x41b018
  4140e8:	8b d8                	mov    %eax,%ebx
  4140ea:	85 db                	test   %ebx,%ebx
  4140ec:	74 3f                	je     0x41412d
  4140ee:	68 6c 84 41 00       	push   $0x41846c
  4140f3:	57                   	push   %edi
  4140f4:	ff 15 18 b0 41 00    	call   *0x41b018
  4140fa:	89 85 e8 fd ff ff    	mov    %eax,-0x218(%ebp)
  414100:	85 c0                	test   %eax,%eax
  414102:	74 29                	je     0x41412d
  414104:	8d 85 f0 fd ff ff    	lea    -0x210(%ebp),%eax
  41410a:	8b ce                	mov    %esi,%ecx
  41410c:	50                   	push   %eax
  41410d:	6a 01                	push   $0x1
  41410f:	6a 00                	push   $0x0
  414111:	68 80 84 41 00       	push   $0x418480
  414116:	68 02 00 00 80       	push   $0x80000002
  41411b:	e8 c4 d1 ff ff       	call   0x4112e4
  414120:	ff d6                	call   *%esi
  414122:	85 c0                	test   %eax,%eax
  414124:	74 1a                	je     0x414140
  414126:	57                   	push   %edi
  414127:	ff 15 1c b0 41 00    	call   *0x41b01c
  41412d:	5b                   	pop    %ebx
  41412e:	5e                   	pop    %esi
  41412f:	33 c0                	xor    %eax,%eax
  414131:	5f                   	pop    %edi
  414132:	8b 4d fc             	mov    -0x4(%ebp),%ecx
  414135:	33 cd                	xor    %ebp,%ecx
  414137:	e8 53 d1 ff ff       	call   0x41128f
  41413c:	8b e5                	mov    %ebp,%esp
  41413e:	5d                   	pop    %ebp
  41413f:	c3                   	ret    
  414140:	8d 85 ec fd ff ff    	lea    -0x214(%ebp),%eax
  414146:	c7 85 ec fd ff ff 08 	movl   $0x208,-0x214(%ebp)
  41414d:	02 00 00 
  414150:	50                   	push   %eax
  414151:	8d 85 f4 fd ff ff    	lea    -0x20c(%ebp),%eax
  414157:	8b cb                	mov    %ebx,%ecx
  414159:	50                   	push   %eax
  41415a:	8d 85 e4 fd ff ff    	lea    -0x21c(%ebp),%eax
  414160:	50                   	push   %eax
  414161:	6a 00                	push   $0x0
  414163:	68 0c 85 41 00       	push   $0x41850c
  414168:	ff b5 f0 fd ff ff    	pushl  -0x210(%ebp)
  41416e:	e8 71 d1 ff ff       	call   0x4112e4
  414173:	ff d3                	call   *%ebx
  414175:	ff b5 f0 fd ff ff    	pushl  -0x210(%ebp)
  41417b:	8b 9d e8 fd ff ff    	mov    -0x218(%ebp),%ebx
  414181:	8b f0                	mov    %eax,%esi
  414183:	8b cb                	mov    %ebx,%ecx
  414185:	e8 5a d1 ff ff       	call   0x4112e4
  41418a:	ff d3                	call   *%ebx
  41418c:	57                   	push   %edi
  41418d:	ff 15 1c b0 41 00    	call   *0x41b01c
  414193:	85 f6                	test   %esi,%esi
  414195:	75 96                	jne    0x41412d
  414197:	83 bd e4 fd ff ff 01 	cmpl   $0x1,-0x21c(%ebp)
  41419e:	75 8d                	jne    0x41412d
  4141a0:	8b 8d ec fd ff ff    	mov    -0x214(%ebp),%ecx
  4141a6:	f6 c1 01             	test   $0x1,%cl
  4141a9:	75 82                	jne    0x41412d
  4141ab:	d1 e9                	shr    %ecx
  4141ad:	8b d1                	mov    %ecx,%edx
  4141af:	83 f9 02             	cmp    $0x2,%ecx
  4141b2:	0f 82 75 ff ff ff    	jb     0x41412d
  4141b8:	49                   	dec    %ecx
  4141b9:	8d 85 f4 fd ff ff    	lea    -0x20c(%ebp),%eax
  4141bf:	66 39 34 48          	cmp    %si,(%eax,%ecx,2)
  4141c3:	8d 04 48             	lea    (%eax,%ecx,2),%eax
  4141c6:	0f 85 61 ff ff ff    	jne    0x41412d
  4141cc:	66 83 78 fe 5c       	cmpw   $0x5c,-0x2(%eax)
  4141d1:	74 0a                	je     0x4141dd
  4141d3:	b9 5c 00 00 00       	mov    $0x5c,%ecx
  4141d8:	66 89 08             	mov    %cx,(%eax)
  4141db:	8b ca                	mov    %edx,%ecx
  4141dd:	8b c1                	mov    %ecx,%eax
  4141df:	f7 d0                	not    %eax
  4141e1:	83 f8 12             	cmp    $0x12,%eax
  4141e4:	0f 82 43 ff ff ff    	jb     0x41412d
  4141ea:	8d 41 11             	lea    0x11(%ecx),%eax
  4141ed:	3d 04 01 00 00       	cmp    $0x104,%eax
  4141f2:	0f 87 35 ff ff ff    	ja     0x41412d
  4141f8:	a1 78 83 41 00       	mov    0x418378,%eax
  4141fd:	89 84 4d f4 fd ff ff 	mov    %eax,-0x20c(%ebp,%ecx,2)
  414204:	a1 7c 83 41 00       	mov    0x41837c,%eax
  414209:	89 84 4d f8 fd ff ff 	mov    %eax,-0x208(%ebp,%ecx,2)
  414210:	a1 80 83 41 00       	mov    0x418380,%eax
  414215:	89 84 4d fc fd ff ff 	mov    %eax,-0x204(%ebp,%ecx,2)
  41421c:	a1 84 83 41 00       	mov    0x418384,%eax
  414221:	89 84 4d 00 fe ff ff 	mov    %eax,-0x200(%ebp,%ecx,2)
  414228:	a1 88 83 41 00       	mov    0x418388,%eax
  41422d:	89 84 4d 04 fe ff ff 	mov    %eax,-0x1fc(%ebp,%ecx,2)
  414234:	a1 8c 83 41 00       	mov    0x41838c,%eax
  414239:	89 84 4d 08 fe ff ff 	mov    %eax,-0x1f8(%ebp,%ecx,2)
  414240:	a1 90 83 41 00       	mov    0x418390,%eax
  414245:	89 84 4d 0c fe ff ff 	mov    %eax,-0x1f4(%ebp,%ecx,2)
  41424c:	a1 94 83 41 00       	mov    0x418394,%eax
  414251:	89 84 4d 10 fe ff ff 	mov    %eax,-0x1f0(%ebp,%ecx,2)
  414258:	66 a1 98 83 41 00    	mov    0x418398,%ax
  41425e:	68 00 09 00 00       	push   $0x900
  414263:	66 89 84 4d 14 fe ff 	mov    %ax,-0x1ec(%ebp,%ecx,2)
  41426a:	ff 
  41426b:	8d 85 f4 fd ff ff    	lea    -0x20c(%ebp),%eax
  414271:	6a 00                	push   $0x0
  414273:	50                   	push   %eax
  414274:	e8 f7 d0 ff ff       	call   0x411370
  414279:	8b f0                	mov    %eax,%esi
  41427b:	83 c4 0c             	add    $0xc,%esp
  41427e:	85 f6                	test   %esi,%esi
  414280:	75 1f                	jne    0x4142a1
  414282:	ff 15 30 b0 41 00    	call   *0x41b030
  414288:	83 f8 57             	cmp    $0x57,%eax
  41428b:	75 14                	jne    0x4142a1
  41428d:	6a 08                	push   $0x8
  41428f:	8d 85 f4 fd ff ff    	lea    -0x20c(%ebp),%eax
  414295:	56                   	push   %esi
  414296:	50                   	push   %eax
  414297:	e8 d4 d0 ff ff       	call   0x411370
  41429c:	83 c4 0c             	add    $0xc,%esp
  41429f:	8b f0                	mov    %eax,%esi
  4142a1:	8b 4d fc             	mov    -0x4(%ebp),%ecx
  4142a4:	8b c6                	mov    %esi,%eax
  4142a6:	5b                   	pop    %ebx
  4142a7:	5e                   	pop    %esi
  4142a8:	33 cd                	xor    %ebp,%ecx
  4142aa:	5f                   	pop    %edi
  4142ab:	e8 df cf ff ff       	call   0x41128f
  4142b0:	8b e5                	mov    %ebp,%esp
  4142b2:	5d                   	pop    %ebp
  4142b3:	c3                   	ret    
  4142b4:	cc                   	int3   
  4142b5:	cc                   	int3   
  4142b6:	cc                   	int3   
  4142b7:	cc                   	int3   
  4142b8:	cc                   	int3   
  4142b9:	cc                   	int3   
  4142ba:	cc                   	int3   
  4142bb:	cc                   	int3   
  4142bc:	cc                   	int3   
  4142bd:	cc                   	int3   
  4142be:	cc                   	int3   
  4142bf:	cc                   	int3   
  4142c0:	cc                   	int3   
  4142c1:	cc                   	int3   
  4142c2:	cc                   	int3   
  4142c3:	cc                   	int3   
  4142c4:	cc                   	int3   
  4142c5:	cc                   	int3   
  4142c6:	cc                   	int3   
  4142c7:	cc                   	int3   
  4142c8:	cc                   	int3   
  4142c9:	cc                   	int3   
  4142ca:	cc                   	int3   
  4142cb:	cc                   	int3   
  4142cc:	cc                   	int3   
  4142cd:	cc                   	int3   
  4142ce:	cc                   	int3   
  4142cf:	cc                   	int3   
  4142d0:	cc                   	int3   
  4142d1:	cc                   	int3   
  4142d2:	cc                   	int3   
  4142d3:	cc                   	int3   
  4142d4:	cc                   	int3   
  4142d5:	cc                   	int3   
  4142d6:	cc                   	int3   
  4142d7:	cc                   	int3   
  4142d8:	cc                   	int3   
  4142d9:	cc                   	int3   
  4142da:	cc                   	int3   
  4142db:	cc                   	int3   
  4142dc:	cc                   	int3   
  4142dd:	cc                   	int3   
  4142de:	cc                   	int3   
  4142df:	cc                   	int3   
  4142e0:	cc                   	int3   
  4142e1:	cc                   	int3   
  4142e2:	cc                   	int3   
  4142e3:	cc                   	int3   
  4142e4:	cc                   	int3   
  4142e5:	cc                   	int3   
  4142e6:	cc                   	int3   
  4142e7:	cc                   	int3   
  4142e8:	cc                   	int3   
  4142e9:	cc                   	int3   
  4142ea:	cc                   	int3   
  4142eb:	cc                   	int3   
  4142ec:	cc                   	int3   
  4142ed:	cc                   	int3   
  4142ee:	cc                   	int3   
  4142ef:	cc                   	int3   
  4142f0:	cc                   	int3   
  4142f1:	cc                   	int3   
  4142f2:	cc                   	int3   
  4142f3:	cc                   	int3   
  4142f4:	cc                   	int3   
  4142f5:	cc                   	int3   
  4142f6:	cc                   	int3   
  4142f7:	cc                   	int3   
  4142f8:	cc                   	int3   
  4142f9:	cc                   	int3   
  4142fa:	cc                   	int3   
  4142fb:	cc                   	int3   
  4142fc:	cc                   	int3   
  4142fd:	cc                   	int3   
  4142fe:	cc                   	int3   
  4142ff:	cc                   	int3   
  414300:	cc                   	int3   
  414301:	cc                   	int3   
  414302:	cc                   	int3   
  414303:	cc                   	int3   
  414304:	cc                   	int3   
  414305:	cc                   	int3   
  414306:	cc                   	int3   
  414307:	cc                   	int3   
  414308:	cc                   	int3   
  414309:	cc                   	int3   
  41430a:	cc                   	int3   
  41430b:	cc                   	int3   
  41430c:	cc                   	int3   
  41430d:	cc                   	int3   
  41430e:	cc                   	int3   
  41430f:	cc                   	int3   
  414310:	cc                   	int3   
  414311:	cc                   	int3   
  414312:	cc                   	int3   
  414313:	cc                   	int3   
  414314:	cc                   	int3   
  414315:	cc                   	int3   
  414316:	cc                   	int3   
  414317:	cc                   	int3   
  414318:	cc                   	int3   
  414319:	cc                   	int3   
  41431a:	cc                   	int3   
  41431b:	cc                   	int3   
  41431c:	cc                   	int3   
  41431d:	cc                   	int3   
  41431e:	cc                   	int3   
  41431f:	cc                   	int3   
  414320:	cc                   	int3   
  414321:	cc                   	int3   
  414322:	cc                   	int3   
  414323:	cc                   	int3   
  414324:	cc                   	int3   
  414325:	cc                   	int3   
  414326:	cc                   	int3   
  414327:	cc                   	int3   
  414328:	cc                   	int3   
  414329:	cc                   	int3   
  41432a:	cc                   	int3   
  41432b:	cc                   	int3   
  41432c:	cc                   	int3   
  41432d:	cc                   	int3   
  41432e:	cc                   	int3   
  41432f:	cc                   	int3   
  414330:	cc                   	int3   
  414331:	cc                   	int3   
  414332:	cc                   	int3   
  414333:	cc                   	int3   
  414334:	cc                   	int3   
  414335:	cc                   	int3   
  414336:	cc                   	int3   
  414337:	cc                   	int3   
  414338:	cc                   	int3   
  414339:	cc                   	int3   
  41433a:	cc                   	int3   
  41433b:	cc                   	int3   
  41433c:	cc                   	int3   
  41433d:	cc                   	int3   
  41433e:	cc                   	int3   
  41433f:	cc                   	int3   
  414340:	cc                   	int3   
  414341:	cc                   	int3   
  414342:	cc                   	int3   
  414343:	cc                   	int3   
  414344:	cc                   	int3   
  414345:	cc                   	int3   
  414346:	cc                   	int3   
  414347:	cc                   	int3   
  414348:	cc                   	int3   
  414349:	cc                   	int3   
  41434a:	cc                   	int3   
  41434b:	cc                   	int3   
  41434c:	cc                   	int3   
  41434d:	cc                   	int3   
  41434e:	cc                   	int3   
  41434f:	cc                   	int3   
  414350:	cc                   	int3   
  414351:	cc                   	int3   
  414352:	cc                   	int3   
  414353:	cc                   	int3   
  414354:	cc                   	int3   
  414355:	cc                   	int3   
  414356:	cc                   	int3   
  414357:	cc                   	int3   
  414358:	cc                   	int3   
  414359:	cc                   	int3   
  41435a:	cc                   	int3   
  41435b:	cc                   	int3   
  41435c:	cc                   	int3   
  41435d:	cc                   	int3   
  41435e:	cc                   	int3   
  41435f:	cc                   	int3   
  414360:	55                   	push   %ebp
  414361:	8b ec                	mov    %esp,%ebp
  414363:	81 ec 0c 06 00 00    	sub    $0x60c,%esp
  414369:	a1 00 a0 41 00       	mov    0x41a000,%eax
  41436e:	33 c5                	xor    %ebp,%eax
  414370:	89 45 fc             	mov    %eax,-0x4(%ebp)
  414373:	8b 45 08             	mov    0x8(%ebp),%eax
  414376:	8d 8d f4 fd ff ff    	lea    -0x20c(%ebp),%ecx
  41437c:	56                   	push   %esi
  41437d:	8b 75 0c             	mov    0xc(%ebp),%esi
  414380:	68 00 01 00 00       	push   $0x100
  414385:	51                   	push   %ecx
  414386:	68 00 01 00 00       	push   $0x100
  41438b:	8d 8d f4 fb ff ff    	lea    -0x40c(%ebp),%ecx
  414391:	51                   	push   %ecx
  414392:	68 00 01 00 00       	push   $0x100
  414397:	8d 8d f4 f9 ff ff    	lea    -0x60c(%ebp),%ecx
  41439d:	51                   	push   %ecx
  41439e:	6a 03                	push   $0x3
  4143a0:	8d 4d f4             	lea    -0xc(%ebp),%ecx
  4143a3:	51                   	push   %ecx
  4143a4:	50                   	push   %eax
  4143a5:	e8 12 cf ff ff       	call   0x4112bc
  4143aa:	83 c4 24             	add    $0x24,%esp
  4143ad:	85 c0                	test   %eax,%eax
  4143af:	74 11                	je     0x4143c2
  4143b1:	33 c0                	xor    %eax,%eax
  4143b3:	5e                   	pop    %esi
  4143b4:	8b 4d fc             	mov    -0x4(%ebp),%ecx
  4143b7:	33 cd                	xor    %ebp,%ecx
  4143b9:	e8 d1 ce ff ff       	call   0x41128f
  4143be:	8b e5                	mov    %ebp,%esp
  4143c0:	5d                   	pop    %ebp
  4143c1:	c3                   	ret    
  4143c2:	68 34 85 41 00       	push   $0x418534
  4143c7:	8d 85 f4 fb ff ff    	lea    -0x40c(%ebp),%eax
  4143cd:	6a 09                	push   $0x9
  4143cf:	50                   	push   %eax
  4143d0:	e8 85 cc ff ff       	call   0x41105a
  4143d5:	83 c4 0c             	add    $0xc,%esp
  4143d8:	85 c0                	test   %eax,%eax
  4143da:	75 d5                	jne    0x4143b1
  4143dc:	68 28 85 41 00       	push   $0x418528
  4143e1:	8d 85 f4 fd ff ff    	lea    -0x20c(%ebp),%eax
  4143e7:	6a 04                	push   $0x4
  4143e9:	50                   	push   %eax
  4143ea:	e8 6b cc ff ff       	call   0x41105a
  4143ef:	83 c4 0c             	add    $0xc,%esp
  4143f2:	85 c0                	test   %eax,%eax
  4143f4:	75 bb                	jne    0x4143b1
  4143f6:	8d 85 f4 fd ff ff    	lea    -0x20c(%ebp),%eax
  4143fc:	50                   	push   %eax
  4143fd:	8d 85 f4 fb ff ff    	lea    -0x40c(%ebp),%eax
  414403:	50                   	push   %eax
  414404:	8d 85 f4 f9 ff ff    	lea    -0x60c(%ebp),%eax
  41440a:	50                   	push   %eax
  41440b:	8d 45 f4             	lea    -0xc(%ebp),%eax
  41440e:	50                   	push   %eax
  41440f:	ff 75 10             	pushl  0x10(%ebp)
  414412:	56                   	push   %esi
  414413:	e8 f2 cb ff ff       	call   0x41100a
  414418:	8b 4d fc             	mov    -0x4(%ebp),%ecx
  41441b:	83 c4 18             	add    $0x18,%esp
  41441e:	f7 d8                	neg    %eax
  414420:	1b c0                	sbb    %eax,%eax
  414422:	33 cd                	xor    %ebp,%ecx
  414424:	40                   	inc    %eax
  414425:	5e                   	pop    %esi
  414426:	e8 64 ce ff ff       	call   0x41128f
  41442b:	8b e5                	mov    %ebp,%esp
  41442d:	5d                   	pop    %ebp
  41442e:	c3                   	ret    
  41442f:	cc                   	int3   
  414430:	cc                   	int3   
  414431:	cc                   	int3   
  414432:	cc                   	int3   
  414433:	cc                   	int3   
  414434:	cc                   	int3   
  414435:	cc                   	int3   
  414436:	cc                   	int3   
  414437:	cc                   	int3   
  414438:	cc                   	int3   
  414439:	cc                   	int3   
  41443a:	cc                   	int3   
  41443b:	cc                   	int3   
  41443c:	cc                   	int3   
  41443d:	cc                   	int3   
  41443e:	cc                   	int3   
  41443f:	cc                   	int3   
  414440:	cc                   	int3   
  414441:	cc                   	int3   
  414442:	cc                   	int3   
  414443:	cc                   	int3   
  414444:	cc                   	int3   
  414445:	cc                   	int3   
  414446:	cc                   	int3   
  414447:	cc                   	int3   
  414448:	cc                   	int3   
  414449:	cc                   	int3   
  41444a:	cc                   	int3   
  41444b:	cc                   	int3   
  41444c:	cc                   	int3   
  41444d:	cc                   	int3   
  41444e:	cc                   	int3   
  41444f:	cc                   	int3   
  414450:	cc                   	int3   
  414451:	cc                   	int3   
  414452:	cc                   	int3   
  414453:	cc                   	int3   
  414454:	cc                   	int3   
  414455:	cc                   	int3   
  414456:	cc                   	int3   
  414457:	cc                   	int3   
  414458:	cc                   	int3   
  414459:	cc                   	int3   
  41445a:	cc                   	int3   
  41445b:	cc                   	int3   
  41445c:	cc                   	int3   
  41445d:	cc                   	int3   
  41445e:	cc                   	int3   
  41445f:	cc                   	int3   
  414460:	cc                   	int3   
  414461:	cc                   	int3   
  414462:	cc                   	int3   
  414463:	cc                   	int3   
  414464:	cc                   	int3   
  414465:	cc                   	int3   
  414466:	cc                   	int3   
  414467:	cc                   	int3   
  414468:	cc                   	int3   
  414469:	cc                   	int3   
  41446a:	cc                   	int3   
  41446b:	cc                   	int3   
  41446c:	cc                   	int3   
  41446d:	cc                   	int3   
  41446e:	cc                   	int3   
  41446f:	cc                   	int3   
  414470:	55                   	push   %ebp
  414471:	8b ec                	mov    %esp,%ebp
  414473:	8b 45 14             	mov    0x14(%ebp),%eax
  414476:	83 ec 4c             	sub    $0x4c,%esp
  414479:	33 c9                	xor    %ecx,%ecx
  41447b:	c7 00 00 00 00 00    	movl   $0x0,(%eax)
  414481:	8b 45 0c             	mov    0xc(%ebp),%eax
  414484:	56                   	push   %esi
  414485:	8b 75 08             	mov    0x8(%ebp),%esi
  414488:	6a 1c                	push   $0x1c
  41448a:	66 89 08             	mov    %cx,(%eax)
  41448d:	4e                   	dec    %esi
  41448e:	8d 45 b4             	lea    -0x4c(%ebp),%eax
  414491:	50                   	push   %eax
  414492:	56                   	push   %esi
  414493:	ff 15 20 b0 41 00    	call   *0x41b020
  414499:	85 c0                	test   %eax,%eax
  41449b:	75 07                	jne    0x4144a4
  41449d:	33 c0                	xor    %eax,%eax
  41449f:	5e                   	pop    %esi
  4144a0:	8b e5                	mov    %ebp,%esp
  4144a2:	5d                   	pop    %ebp
  4144a3:	c3                   	ret    
  4144a4:	ff 75 1c             	pushl  0x1c(%ebp)
  4144a7:	ff 75 18             	pushl  0x18(%ebp)
  4144aa:	ff 75 b8             	pushl  -0x48(%ebp)
  4144ad:	e8 55 ce ff ff       	call   0x411307
  4144b2:	83 c4 0c             	add    $0xc,%esp
  4144b5:	85 c0                	test   %eax,%eax
  4144b7:	74 e4                	je     0x41449d
  4144b9:	8b 45 b8             	mov    -0x48(%ebp),%eax
  4144bc:	b9 4d 5a 00 00       	mov    $0x5a4d,%ecx
  4144c1:	66 39 08             	cmp    %cx,(%eax)
  4144c4:	75 d7                	jne    0x41449d
  4144c6:	8b 48 3c             	mov    0x3c(%eax),%ecx
  4144c9:	85 c9                	test   %ecx,%ecx
  4144cb:	7e d0                	jle    0x41449d
  4144cd:	03 c8                	add    %eax,%ecx
  4144cf:	81 39 50 45 00 00    	cmpl   $0x4550,(%ecx)
  4144d5:	75 c6                	jne    0x41449d
  4144d7:	0f b7 51 14          	movzwl 0x14(%ecx),%edx
  4144db:	2b f0                	sub    %eax,%esi
  4144dd:	53                   	push   %ebx
  4144de:	57                   	push   %edi
  4144df:	0f b7 79 06          	movzwl 0x6(%ecx),%edi
  4144e3:	83 c2 20             	add    $0x20,%edx
  4144e6:	33 db                	xor    %ebx,%ebx
  4144e8:	33 c0                	xor    %eax,%eax
  4144ea:	85 ff                	test   %edi,%edi
  4144ec:	74 19                	je     0x414507
  4144ee:	03 ca                	add    %edx,%ecx
  4144f0:	8b 51 04             	mov    0x4(%ecx),%edx
  4144f3:	3b f2                	cmp    %edx,%esi
  4144f5:	72 08                	jb     0x4144ff
  4144f7:	8b de                	mov    %esi,%ebx
  4144f9:	2b da                	sub    %edx,%ebx
  4144fb:	3b 31                	cmp    (%ecx),%esi
  4144fd:	72 08                	jb     0x414507
  4144ff:	40                   	inc    %eax
  414500:	83 c1 28             	add    $0x28,%ecx
  414503:	3b c7                	cmp    %edi,%eax
  414505:	72 e9                	jb     0x4144f0
  414507:	3b c7                	cmp    %edi,%eax
  414509:	74 69                	je     0x414574
  41450b:	40                   	inc    %eax
  41450c:	80 3d 5d a5 41 00 00 	cmpb   $0x0,0x41a55d
  414513:	89 45 f4             	mov    %eax,-0xc(%ebp)
  414516:	75 20                	jne    0x414538
  414518:	83 3d 58 a5 41 00 00 	cmpl   $0x0,0x41a558
  41451f:	75 53                	jne    0x414574
  414521:	e8 8a f9 ff ff       	call   0x413eb0
  414526:	a3 58 a5 41 00       	mov    %eax,0x41a558
  41452b:	85 c0                	test   %eax,%eax
  41452d:	74 45                	je     0x414574
  41452f:	c6 05 5d a5 41 00 01 	movb   $0x1,0x41a55d
  414536:	eb 05                	jmp    0x41453d
  414538:	a1 58 a5 41 00       	mov    0x41a558,%eax
  41453d:	68 64 85 41 00       	push   $0x418564
  414542:	50                   	push   %eax
  414543:	ff 15 18 b0 41 00    	call   *0x41b018
  414549:	8b f0                	mov    %eax,%esi
  41454b:	85 f6                	test   %esi,%esi
  41454d:	74 25                	je     0x414574
  41454f:	8d 45 e8             	lea    -0x18(%ebp),%eax
  414552:	8b ce                	mov    %esi,%ecx
  414554:	50                   	push   %eax
  414555:	6a 00                	push   $0x0
  414557:	6a 00                	push   $0x0
  414559:	8d 45 d0             	lea    -0x30(%ebp),%eax
  41455c:	50                   	push   %eax
  41455d:	6a 00                	push   $0x0
  41455f:	6a 00                	push   $0x0
  414561:	6a 00                	push   $0x0
  414563:	ff 75 18             	pushl  0x18(%ebp)
  414566:	e8 79 cd ff ff       	call   0x4112e4
  41456b:	ff d6                	call   *%esi
  41456d:	83 c4 20             	add    $0x20,%esp
  414570:	85 c0                	test   %eax,%eax
  414572:	75 09                	jne    0x41457d
  414574:	5f                   	pop    %edi
  414575:	5b                   	pop    %ebx
  414576:	33 c0                	xor    %eax,%eax
  414578:	5e                   	pop    %esi
  414579:	8b e5                	mov    %ebp,%esp
  41457b:	5d                   	pop    %ebp
  41457c:	c3                   	ret    
  41457d:	8b 7d e8             	mov    -0x18(%ebp),%edi
  414580:	c7 45 dc 00 00 00 00 	movl   $0x0,-0x24(%ebp)
  414587:	8b 07                	mov    (%edi),%eax
  414589:	8b 30                	mov    (%eax),%esi
  41458b:	8b ce                	mov    %esi,%ecx
  41458d:	e8 52 cd ff ff       	call   0x4112e4
  414592:	8b cf                	mov    %edi,%ecx
  414594:	ff d6                	call   *%esi
  414596:	3d 41 91 32 01       	cmp    $0x1329141,%eax
  41459b:	0f 85 3c 01 00 00    	jne    0x4146dd
  4145a1:	8b 7d e8             	mov    -0x18(%ebp),%edi
  4145a4:	8d 4d e0             	lea    -0x20(%ebp),%ecx
  4145a7:	51                   	push   %ecx
  4145a8:	68 78 85 41 00       	push   $0x418578
  4145ad:	6a 00                	push   $0x0
  4145af:	8b 07                	mov    (%edi),%eax
  4145b1:	8b 70 1c             	mov    0x1c(%eax),%esi
  4145b4:	8b ce                	mov    %esi,%ecx
  4145b6:	e8 29 cd ff ff       	call   0x4112e4
  4145bb:	8b cf                	mov    %edi,%ecx
  4145bd:	ff d6                	call   *%esi
  4145bf:	85 c0                	test   %eax,%eax
  4145c1:	0f 84 16 01 00 00    	je     0x4146dd
  4145c7:	8b 7d e0             	mov    -0x20(%ebp),%edi
  4145ca:	8d 45 ec             	lea    -0x14(%ebp),%eax
  4145cd:	6a 00                	push   $0x0
  4145cf:	6a 00                	push   $0x0
  4145d1:	6a 00                	push   $0x0
  4145d3:	8b 37                	mov    (%edi),%esi
  4145d5:	50                   	push   %eax
  4145d6:	53                   	push   %ebx
  4145d7:	ff 75 f4             	pushl  -0xc(%ebp)
  4145da:	8b 76 20             	mov    0x20(%esi),%esi
  4145dd:	8b ce                	mov    %esi,%ecx
  4145df:	e8 00 cd ff ff       	call   0x4112e4
  4145e4:	8b cf                	mov    %edi,%ecx
  4145e6:	ff d6                	call   *%esi
  4145e8:	85 c0                	test   %eax,%eax
  4145ea:	0f 84 da 00 00 00    	je     0x4146ca
  4145f0:	8b 7d ec             	mov    -0x14(%ebp),%edi
  4145f3:	8d 4d f8             	lea    -0x8(%ebp),%ecx
  4145f6:	c7 45 f8 00 00 00 00 	movl   $0x0,-0x8(%ebp)
  4145fd:	51                   	push   %ecx
  4145fe:	8b 07                	mov    (%edi),%eax
  414600:	8b 70 68             	mov    0x68(%eax),%esi
  414603:	8b ce                	mov    %esi,%ecx
  414605:	e8 da cc ff ff       	call   0x4112e4
  41460a:	8b cf                	mov    %edi,%ecx
  41460c:	ff d6                	call   *%esi
  41460e:	84 c0                	test   %al,%al
  414610:	0f 84 a1 00 00 00    	je     0x4146b7
  414616:	8b 45 f8             	mov    -0x8(%ebp),%eax
  414619:	85 c0                	test   %eax,%eax
  41461b:	0f 84 96 00 00 00    	je     0x4146b7
  414621:	8b 00                	mov    (%eax),%eax
  414623:	33 ff                	xor    %edi,%edi
  414625:	8b 70 08             	mov    0x8(%eax),%esi
  414628:	8b ce                	mov    %esi,%ecx
  41462a:	e8 b5 cc ff ff       	call   0x4112e4
  41462f:	8b 4d f8             	mov    -0x8(%ebp),%ecx
  414632:	ff d6                	call   *%esi
  414634:	85 c0                	test   %eax,%eax
  414636:	74 5d                	je     0x414695
  414638:	8b 7d f8             	mov    -0x8(%ebp),%edi
  41463b:	8d 45 f0             	lea    -0x10(%ebp),%eax
  41463e:	6a 00                	push   $0x0
  414640:	50                   	push   %eax
  414641:	8d 45 d8             	lea    -0x28(%ebp),%eax
  414644:	8b 37                	mov    (%edi),%esi
  414646:	50                   	push   %eax
  414647:	8d 45 fc             	lea    -0x4(%ebp),%eax
  41464a:	50                   	push   %eax
  41464b:	8b 76 0c             	mov    0xc(%esi),%esi
  41464e:	8d 45 e4             	lea    -0x1c(%ebp),%eax
  414651:	50                   	push   %eax
  414652:	6a 00                	push   $0x0
  414654:	8b ce                	mov    %esi,%ecx
  414656:	e8 89 cc ff ff       	call   0x4112e4
  41465b:	8b cf                	mov    %edi,%ecx
  41465d:	ff d6                	call   *%esi
  41465f:	84 c0                	test   %al,%al
  414661:	74 42                	je     0x4146a5
  414663:	0f b7 45 fc          	movzwl -0x4(%ebp),%eax
  414667:	3b 45 f4             	cmp    -0xc(%ebp),%eax
  41466a:	75 10                	jne    0x41467c
  41466c:	8b 4d e4             	mov    -0x1c(%ebp),%ecx
  41466f:	3b cb                	cmp    %ebx,%ecx
  414671:	77 09                	ja     0x41467c
  414673:	8b 45 d8             	mov    -0x28(%ebp),%eax
  414676:	03 c1                	add    %ecx,%eax
  414678:	3b d8                	cmp    %eax,%ebx
  41467a:	72 7e                	jb     0x4146fa
  41467c:	8b 7d f8             	mov    -0x8(%ebp),%edi
  41467f:	8b 07                	mov    (%edi),%eax
  414681:	8b 70 08             	mov    0x8(%eax),%esi
  414684:	8b ce                	mov    %esi,%ecx
  414686:	e8 59 cc ff ff       	call   0x4112e4
  41468b:	8b cf                	mov    %edi,%ecx
  41468d:	ff d6                	call   *%esi
  41468f:	85 c0                	test   %eax,%eax
  414691:	75 a5                	jne    0x414638
  414693:	33 ff                	xor    %edi,%edi
  414695:	57                   	push   %edi
  414696:	6a 00                	push   $0x0
  414698:	ff 15 24 b0 41 00    	call   *0x41b024
  41469e:	50                   	push   %eax
  41469f:	ff 15 28 b0 41 00    	call   *0x41b028
  4146a5:	8b 7d f8             	mov    -0x8(%ebp),%edi
  4146a8:	8b 07                	mov    (%edi),%eax
  4146aa:	8b 30                	mov    (%eax),%esi
  4146ac:	8b ce                	mov    %esi,%ecx
  4146ae:	e8 31 cc ff ff       	call   0x4112e4
  4146b3:	8b cf                	mov    %edi,%ecx
  4146b5:	ff d6                	call   *%esi
  4146b7:	8b 7d ec             	mov    -0x14(%ebp),%edi
  4146ba:	8b 07                	mov    (%edi),%eax
  4146bc:	8b 70 40             	mov    0x40(%eax),%esi
  4146bf:	8b ce                	mov    %esi,%ecx
  4146c1:	e8 1e cc ff ff       	call   0x4112e4
  4146c6:	8b cf                	mov    %edi,%ecx
  4146c8:	ff d6                	call   *%esi
  4146ca:	8b 7d e0             	mov    -0x20(%ebp),%edi
  4146cd:	8b 07                	mov    (%edi),%eax
  4146cf:	8b 70 38             	mov    0x38(%eax),%esi
  4146d2:	8b ce                	mov    %esi,%ecx
  4146d4:	e8 0b cc ff ff       	call   0x4112e4
  4146d9:	8b cf                	mov    %edi,%ecx
  4146db:	ff d6                	call   *%esi
  4146dd:	8b 7d e8             	mov    -0x18(%ebp),%edi
  4146e0:	8b 17                	mov    (%edi),%edx
  4146e2:	8b 72 2c             	mov    0x2c(%edx),%esi
  4146e5:	8b ce                	mov    %esi,%ecx
  4146e7:	e8 f8 cb ff ff       	call   0x4112e4
  4146ec:	8b cf                	mov    %edi,%ecx
  4146ee:	ff d6                	call   *%esi
  4146f0:	8b 45 dc             	mov    -0x24(%ebp),%eax
  4146f3:	5f                   	pop    %edi
  4146f4:	5b                   	pop    %ebx
  4146f5:	5e                   	pop    %esi
  4146f6:	8b e5                	mov    %ebp,%esp
  4146f8:	5d                   	pop    %ebp
  4146f9:	c3                   	ret    
  4146fa:	8b 45 f0             	mov    -0x10(%ebp),%eax
  4146fd:	85 c0                	test   %eax,%eax
  4146ff:	74 a4                	je     0x4146a5
  414701:	3d ff ff ff 1f       	cmp    $0x1fffffff,%eax
  414706:	73 9d                	jae    0x4146a5
  414708:	c1 e0 03             	shl    $0x3,%eax
  41470b:	50                   	push   %eax
  41470c:	6a 00                	push   $0x0
  41470e:	ff 15 24 b0 41 00    	call   *0x41b024
  414714:	50                   	push   %eax
  414715:	ff 15 2c b0 41 00    	call   *0x41b02c
  41471b:	89 45 f4             	mov    %eax,-0xc(%ebp)
  41471e:	85 c0                	test   %eax,%eax
  414720:	74 83                	je     0x4146a5
  414722:	8b 7d f8             	mov    -0x8(%ebp),%edi
  414725:	50                   	push   %eax
  414726:	8d 45 f0             	lea    -0x10(%ebp),%eax
  414729:	50                   	push   %eax
  41472a:	8b 37                	mov    (%edi),%esi
  41472c:	8d 45 d4             	lea    -0x2c(%ebp),%eax
  41472f:	6a 00                	push   $0x0
  414731:	6a 00                	push   $0x0
  414733:	6a 00                	push   $0x0
  414735:	8b 76 0c             	mov    0xc(%esi),%esi
  414738:	8b ce                	mov    %esi,%ecx
  41473a:	50                   	push   %eax
  41473b:	e8 a4 cb ff ff       	call   0x4112e4
  414740:	8b cf                	mov    %edi,%ecx
  414742:	ff d6                	call   *%esi
  414744:	8b 7d f4             	mov    -0xc(%ebp),%edi
  414747:	84 c0                	test   %al,%al
  414749:	0f 84 46 ff ff ff    	je     0x414695
  41474f:	2b 5d e4             	sub    -0x1c(%ebp),%ebx
  414752:	3b 1f                	cmp    (%edi),%ebx
  414754:	0f 82 3b ff ff ff    	jb     0x414695
  41475a:	8b 4d f0             	mov    -0x10(%ebp),%ecx
  41475d:	b8 01 00 00 00       	mov    $0x1,%eax
  414762:	3b c8                	cmp    %eax,%ecx
  414764:	76 0a                	jbe    0x414770
  414766:	3b 1c c7             	cmp    (%edi,%eax,8),%ebx
  414769:	72 05                	jb     0x414770
  41476b:	40                   	inc    %eax
  41476c:	3b c1                	cmp    %ecx,%eax
  41476e:	72 f6                	jb     0x414766
  414770:	8b 44 c7 fc          	mov    -0x4(%edi,%eax,8),%eax
  414774:	8b 4d 14             	mov    0x14(%ebp),%ecx
  414777:	25 ff ff ff 00       	and    $0xffffff,%eax
  41477c:	8b 7d ec             	mov    -0x14(%ebp),%edi
  41477f:	6a 00                	push   $0x0
  414781:	6a 00                	push   $0x0
  414783:	89 01                	mov    %eax,(%ecx)
  414785:	8d 45 10             	lea    0x10(%ebp),%eax
  414788:	8b 37                	mov    (%edi),%esi
  41478a:	6a 00                	push   $0x0
  41478c:	50                   	push   %eax
  41478d:	ff 75 0c             	pushl  0xc(%ebp)
  414790:	8b 76 70             	mov    0x70(%esi),%esi
  414793:	8b ce                	mov    %esi,%ecx
  414795:	ff 75 d4             	pushl  -0x2c(%ebp)
  414798:	e8 47 cb ff ff       	call   0x4112e4
  41479d:	8b cf                	mov    %edi,%ecx
  41479f:	ff d6                	call   *%esi
  4147a1:	8b 7d f4             	mov    -0xc(%ebp),%edi
  4147a4:	84 c0                	test   %al,%al
  4147a6:	0f 84 e9 fe ff ff    	je     0x414695
  4147ac:	c7 45 dc 01 00 00 00 	movl   $0x1,-0x24(%ebp)
  4147b3:	e9 dd fe ff ff       	jmp    0x414695
  4147b8:	cc                   	int3   
  4147b9:	cc                   	int3   
  4147ba:	cc                   	int3   
  4147bb:	cc                   	int3   
  4147bc:	cc                   	int3   
  4147bd:	cc                   	int3   
  4147be:	cc                   	int3   
  4147bf:	cc                   	int3   
  4147c0:	cc                   	int3   
  4147c1:	cc                   	int3   
  4147c2:	cc                   	int3   
  4147c3:	cc                   	int3   
  4147c4:	cc                   	int3   
  4147c5:	cc                   	int3   
  4147c6:	cc                   	int3   
  4147c7:	cc                   	int3   
  4147c8:	cc                   	int3   
  4147c9:	cc                   	int3   
  4147ca:	cc                   	int3   
  4147cb:	cc                   	int3   
  4147cc:	cc                   	int3   
  4147cd:	cc                   	int3   
  4147ce:	cc                   	int3   
  4147cf:	cc                   	int3   
  4147d0:	cc                   	int3   
  4147d1:	cc                   	int3   
  4147d2:	cc                   	int3   
  4147d3:	cc                   	int3   
  4147d4:	cc                   	int3   
  4147d5:	cc                   	int3   
  4147d6:	cc                   	int3   
  4147d7:	cc                   	int3   
  4147d8:	cc                   	int3   
  4147d9:	cc                   	int3   
  4147da:	cc                   	int3   
  4147db:	cc                   	int3   
  4147dc:	cc                   	int3   
  4147dd:	cc                   	int3   
  4147de:	cc                   	int3   
  4147df:	cc                   	int3   
  4147e0:	cc                   	int3   
  4147e1:	cc                   	int3   
  4147e2:	cc                   	int3   
  4147e3:	cc                   	int3   
  4147e4:	cc                   	int3   
  4147e5:	cc                   	int3   
  4147e6:	cc                   	int3   
  4147e7:	cc                   	int3   
  4147e8:	cc                   	int3   
  4147e9:	cc                   	int3   
  4147ea:	cc                   	int3   
  4147eb:	cc                   	int3   
  4147ec:	cc                   	int3   
  4147ed:	cc                   	int3   
  4147ee:	cc                   	int3   
  4147ef:	cc                   	int3   
  4147f0:	cc                   	int3   
  4147f1:	cc                   	int3   
  4147f2:	cc                   	int3   
  4147f3:	cc                   	int3   
  4147f4:	cc                   	int3   
  4147f5:	cc                   	int3   
  4147f6:	cc                   	int3   
  4147f7:	cc                   	int3   
  4147f8:	cc                   	int3   
  4147f9:	cc                   	int3   
  4147fa:	cc                   	int3   
  4147fb:	cc                   	int3   
  4147fc:	cc                   	int3   
  4147fd:	cc                   	int3   
  4147fe:	cc                   	int3   
  4147ff:	cc                   	int3   
  414800:	cc                   	int3   
  414801:	cc                   	int3   
  414802:	cc                   	int3   
  414803:	cc                   	int3   
  414804:	cc                   	int3   
  414805:	cc                   	int3   
  414806:	cc                   	int3   
  414807:	cc                   	int3   
  414808:	cc                   	int3   
  414809:	cc                   	int3   
  41480a:	cc                   	int3   
  41480b:	cc                   	int3   
  41480c:	cc                   	int3   
  41480d:	cc                   	int3   
  41480e:	cc                   	int3   
  41480f:	cc                   	int3   
  414810:	cc                   	int3   
  414811:	cc                   	int3   
  414812:	cc                   	int3   
  414813:	cc                   	int3   
  414814:	cc                   	int3   
  414815:	cc                   	int3   
  414816:	cc                   	int3   
  414817:	cc                   	int3   
  414818:	cc                   	int3   
  414819:	cc                   	int3   
  41481a:	cc                   	int3   
  41481b:	cc                   	int3   
  41481c:	cc                   	int3   
  41481d:	cc                   	int3   
  41481e:	cc                   	int3   
  41481f:	cc                   	int3   
  414820:	cc                   	int3   
  414821:	cc                   	int3   
  414822:	cc                   	int3   
  414823:	cc                   	int3   
  414824:	cc                   	int3   
  414825:	cc                   	int3   
  414826:	cc                   	int3   
  414827:	cc                   	int3   
  414828:	cc                   	int3   
  414829:	cc                   	int3   
  41482a:	cc                   	int3   
  41482b:	cc                   	int3   
  41482c:	cc                   	int3   
  41482d:	cc                   	int3   
  41482e:	cc                   	int3   
  41482f:	cc                   	int3   
  414830:	cc                   	int3   
  414831:	cc                   	int3   
  414832:	cc                   	int3   
  414833:	cc                   	int3   
  414834:	cc                   	int3   
  414835:	cc                   	int3   
  414836:	cc                   	int3   
  414837:	cc                   	int3   
  414838:	cc                   	int3   
  414839:	cc                   	int3   
  41483a:	cc                   	int3   
  41483b:	cc                   	int3   
  41483c:	cc                   	int3   
  41483d:	cc                   	int3   
  41483e:	cc                   	int3   
  41483f:	cc                   	int3   
  414840:	cc                   	int3   
  414841:	cc                   	int3   
  414842:	cc                   	int3   
  414843:	cc                   	int3   
  414844:	cc                   	int3   
  414845:	cc                   	int3   
  414846:	cc                   	int3   
  414847:	cc                   	int3   
  414848:	cc                   	int3   
  414849:	cc                   	int3   
  41484a:	cc                   	int3   
  41484b:	cc                   	int3   
  41484c:	cc                   	int3   
  41484d:	cc                   	int3   
  41484e:	cc                   	int3   
  41484f:	cc                   	int3   
  414850:	cc                   	int3   
  414851:	cc                   	int3   
  414852:	cc                   	int3   
  414853:	cc                   	int3   
  414854:	cc                   	int3   
  414855:	cc                   	int3   
  414856:	cc                   	int3   
  414857:	cc                   	int3   
  414858:	cc                   	int3   
  414859:	cc                   	int3   
  41485a:	cc                   	int3   
  41485b:	cc                   	int3   
  41485c:	cc                   	int3   
  41485d:	cc                   	int3   
  41485e:	cc                   	int3   
  41485f:	cc                   	int3   
  414860:	cc                   	int3   
  414861:	cc                   	int3   
  414862:	cc                   	int3   
  414863:	cc                   	int3   
  414864:	cc                   	int3   
  414865:	cc                   	int3   
  414866:	cc                   	int3   
  414867:	cc                   	int3   
  414868:	cc                   	int3   
  414869:	cc                   	int3   
  41486a:	cc                   	int3   
  41486b:	cc                   	int3   
  41486c:	cc                   	int3   
  41486d:	cc                   	int3   
  41486e:	cc                   	int3   
  41486f:	cc                   	int3   
  414870:	cc                   	int3   
  414871:	cc                   	int3   
  414872:	cc                   	int3   
  414873:	cc                   	int3   
  414874:	cc                   	int3   
  414875:	cc                   	int3   
  414876:	cc                   	int3   
  414877:	cc                   	int3   
  414878:	cc                   	int3   
  414879:	cc                   	int3   
  41487a:	cc                   	int3   
  41487b:	cc                   	int3   
  41487c:	cc                   	int3   
  41487d:	cc                   	int3   
  41487e:	cc                   	int3   
  41487f:	cc                   	int3   
  414880:	cc                   	int3   
  414881:	cc                   	int3   
  414882:	cc                   	int3   
  414883:	cc                   	int3   
  414884:	cc                   	int3   
  414885:	cc                   	int3   
  414886:	cc                   	int3   
  414887:	cc                   	int3   
  414888:	cc                   	int3   
  414889:	cc                   	int3   
  41488a:	cc                   	int3   
  41488b:	cc                   	int3   
  41488c:	cc                   	int3   
  41488d:	cc                   	int3   
  41488e:	cc                   	int3   
  41488f:	cc                   	int3   
  414890:	55                   	push   %ebp
  414891:	8b ec                	mov    %esp,%ebp
  414893:	83 ec 40             	sub    $0x40,%esp
  414896:	a1 00 a0 41 00       	mov    0x41a000,%eax
  41489b:	33 c5                	xor    %ebp,%eax
  41489d:	89 45 fc             	mov    %eax,-0x4(%ebp)
  4148a0:	53                   	push   %ebx
  4148a1:	56                   	push   %esi
  4148a2:	c7 05 60 a5 41 00 00 	movl   $0x0,0x41a560
  4148a9:	00 00 00 
  4148ac:	a1 2c a0 41 00       	mov    0x41a02c,%eax
  4148b1:	83 c8 01             	or     $0x1,%eax
  4148b4:	a3 2c a0 41 00       	mov    %eax,0x41a02c
  4148b9:	6a 0a                	push   $0xa
  4148bb:	e8 56 ca ff ff       	call   0x411316
  4148c0:	85 c0                	test   %eax,%eax
  4148c2:	75 07                	jne    0x4148cb
  4148c4:	33 c0                	xor    %eax,%eax
  4148c6:	e9 88 02 00 00       	jmp    0x414b53
  4148cb:	c7 45 f0 00 00 00 00 	movl   $0x0,-0x10(%ebp)
  4148d2:	c7 45 f4 00 00 00 00 	movl   $0x0,-0xc(%ebp)
  4148d9:	c7 45 f8 00 00 00 00 	movl   $0x0,-0x8(%ebp)
  4148e0:	c7 05 60 a5 41 00 01 	movl   $0x1,0x41a560
  4148e7:	00 00 00 
  4148ea:	8b 0d 2c a0 41 00    	mov    0x41a02c,%ecx
  4148f0:	83 c9 02             	or     $0x2,%ecx
  4148f3:	89 0d 2c a0 41 00    	mov    %ecx,0x41a02c
  4148f9:	8d 75 e0             	lea    -0x20(%ebp),%esi
  4148fc:	33 c0                	xor    %eax,%eax
  4148fe:	33 c9                	xor    %ecx,%ecx
  414900:	0f a2                	cpuid  
  414902:	89 06                	mov    %eax,(%esi)
  414904:	89 5e 04             	mov    %ebx,0x4(%esi)
  414907:	89 4e 08             	mov    %ecx,0x8(%esi)
  41490a:	89 56 0c             	mov    %edx,0xc(%esi)
  41490d:	ba 04 00 00 00       	mov    $0x4,%edx
  414912:	6b c2 00             	imul   $0x0,%edx,%eax
  414915:	8b 4c 05 e0          	mov    -0x20(%ebp,%eax,1),%ecx
  414919:	89 4d d0             	mov    %ecx,-0x30(%ebp)
  41491c:	ba 04 00 00 00       	mov    $0x4,%edx
  414921:	c1 e2 00             	shl    $0x0,%edx
  414924:	8b 44 15 e0          	mov    -0x20(%ebp,%edx,1),%eax
  414928:	35 47 65 6e 75       	xor    $0x756e6547,%eax
  41492d:	b9 04 00 00 00       	mov    $0x4,%ecx
  414932:	6b d1 03             	imul   $0x3,%ecx,%edx
  414935:	8b 4c 15 e0          	mov    -0x20(%ebp,%edx,1),%ecx
  414939:	81 f1 69 6e 65 49    	xor    $0x49656e69,%ecx
  41493f:	0b c1                	or     %ecx,%eax
  414941:	ba 04 00 00 00       	mov    $0x4,%edx
  414946:	d1 e2                	shl    %edx
  414948:	8b 4c 15 e0          	mov    -0x20(%ebp,%edx,1),%ecx
  41494c:	81 f1 6e 74 65 6c    	xor    $0x6c65746e,%ecx
  414952:	0b c1                	or     %ecx,%eax
  414954:	75 09                	jne    0x41495f
  414956:	c7 45 d4 01 00 00 00 	movl   $0x1,-0x2c(%ebp)
  41495d:	eb 07                	jmp    0x414966
  41495f:	c7 45 d4 00 00 00 00 	movl   $0x0,-0x2c(%ebp)
  414966:	8a 55 d4             	mov    -0x2c(%ebp),%dl
  414969:	88 55 df             	mov    %dl,-0x21(%ebp)
  41496c:	8d 75 e0             	lea    -0x20(%ebp),%esi
  41496f:	b8 01 00 00 00       	mov    $0x1,%eax
  414974:	33 c9                	xor    %ecx,%ecx
  414976:	0f a2                	cpuid  
  414978:	89 06                	mov    %eax,(%esi)
  41497a:	89 5e 04             	mov    %ebx,0x4(%esi)
  41497d:	89 4e 08             	mov    %ecx,0x8(%esi)
  414980:	89 56 0c             	mov    %edx,0xc(%esi)
  414983:	b8 04 00 00 00       	mov    $0x4,%eax
  414988:	6b c8 00             	imul   $0x0,%eax,%ecx
  41498b:	8b 54 0d e0          	mov    -0x20(%ebp,%ecx,1),%edx
  41498f:	89 55 d8             	mov    %edx,-0x28(%ebp)
  414992:	0f b6 45 df          	movzbl -0x21(%ebp),%eax
  414996:	85 c0                	test   %eax,%eax
  414998:	74 71                	je     0x414a0b
  41499a:	8b 4d d8             	mov    -0x28(%ebp),%ecx
  41499d:	81 e1 f0 3f ff 0f    	and    $0xfff3ff0,%ecx
  4149a3:	81 f9 c0 06 01 00    	cmp    $0x106c0,%ecx
  4149a9:	74 51                	je     0x4149fc
  4149ab:	8b 55 d8             	mov    -0x28(%ebp),%edx
  4149ae:	81 e2 f0 3f ff 0f    	and    $0xfff3ff0,%edx
  4149b4:	81 fa 60 06 02 00    	cmp    $0x20660,%edx
  4149ba:	74 40                	je     0x4149fc
  4149bc:	8b 45 d8             	mov    -0x28(%ebp),%eax
  4149bf:	25 f0 3f ff 0f       	and    $0xfff3ff0,%eax
  4149c4:	3d 70 06 02 00       	cmp    $0x20670,%eax
  4149c9:	74 31                	je     0x4149fc
  4149cb:	8b 4d d8             	mov    -0x28(%ebp),%ecx
  4149ce:	81 e1 f0 3f ff 0f    	and    $0xfff3ff0,%ecx
  4149d4:	81 f9 50 06 03 00    	cmp    $0x30650,%ecx
  4149da:	74 20                	je     0x4149fc
  4149dc:	8b 55 d8             	mov    -0x28(%ebp),%edx
  4149df:	81 e2 f0 3f ff 0f    	and    $0xfff3ff0,%edx
  4149e5:	81 fa 60 06 03 00    	cmp    $0x30660,%edx
  4149eb:	74 0f                	je     0x4149fc
  4149ed:	8b 45 d8             	mov    -0x28(%ebp),%eax
  4149f0:	25 f0 3f ff 0f       	and    $0xfff3ff0,%eax
  4149f5:	3d 70 06 03 00       	cmp    $0x30670,%eax
  4149fa:	75 0f                	jne    0x414a0b
  4149fc:	8b 0d 64 a5 41 00    	mov    0x41a564,%ecx
  414a02:	83 c9 01             	or     $0x1,%ecx
  414a05:	89 0d 64 a5 41 00    	mov    %ecx,0x41a564
  414a0b:	ba 04 00 00 00       	mov    $0x4,%edx
  414a10:	6b c2 03             	imul   $0x3,%edx,%eax
  414a13:	b9 04 00 00 00       	mov    $0x4,%ecx
  414a18:	6b d1 00             	imul   $0x0,%ecx,%edx
  414a1b:	8b 44 05 e0          	mov    -0x20(%ebp,%eax,1),%eax
  414a1f:	89 44 15 f0          	mov    %eax,-0x10(%ebp,%edx,1)
  414a23:	b9 04 00 00 00       	mov    $0x4,%ecx
  414a28:	d1 e1                	shl    %ecx
  414a2a:	ba 04 00 00 00       	mov    $0x4,%edx
  414a2f:	c1 e2 00             	shl    $0x0,%edx
  414a32:	8b 44 0d e0          	mov    -0x20(%ebp,%ecx,1),%eax
  414a36:	89 44 15 f0          	mov    %eax,-0x10(%ebp,%edx,1)
  414a3a:	83 7d d0 07          	cmpl   $0x7,-0x30(%ebp)
  414a3e:	7c 4f                	jl     0x414a8f
  414a40:	8d 75 e0             	lea    -0x20(%ebp),%esi
  414a43:	b8 07 00 00 00       	mov    $0x7,%eax
  414a48:	33 c9                	xor    %ecx,%ecx
  414a4a:	0f a2                	cpuid  
  414a4c:	89 06                	mov    %eax,(%esi)
  414a4e:	89 5e 04             	mov    %ebx,0x4(%esi)
  414a51:	89 4e 08             	mov    %ecx,0x8(%esi)
  414a54:	89 56 0c             	mov    %edx,0xc(%esi)
  414a57:	b9 04 00 00 00       	mov    $0x4,%ecx
  414a5c:	c1 e1 00             	shl    $0x0,%ecx
  414a5f:	ba 04 00 00 00       	mov    $0x4,%edx
  414a64:	d1 e2                	shl    %edx
  414a66:	8b 44 0d e0          	mov    -0x20(%ebp,%ecx,1),%eax
  414a6a:	89 44 15 f0          	mov    %eax,-0x10(%ebp,%edx,1)
  414a6e:	b9 04 00 00 00       	mov    $0x4,%ecx
  414a73:	c1 e1 00             	shl    $0x0,%ecx
  414a76:	8b 54 0d e0          	mov    -0x20(%ebp,%ecx,1),%edx
  414a7a:	81 e2 00 02 00 00    	and    $0x200,%edx
  414a80:	74 0d                	je     0x414a8f
  414a82:	a1 64 a5 41 00       	mov    0x41a564,%eax
  414a87:	83 c8 02             	or     $0x2,%eax
  414a8a:	a3 64 a5 41 00       	mov    %eax,0x41a564
  414a8f:	b9 04 00 00 00       	mov    $0x4,%ecx
  414a94:	c1 e1 00             	shl    $0x0,%ecx
  414a97:	8b 54 0d f0          	mov    -0x10(%ebp,%ecx,1),%edx
  414a9b:	81 e2 00 00 10 00    	and    $0x100000,%edx
  414aa1:	0f 84 aa 00 00 00    	je     0x414b51
  414aa7:	c7 05 60 a5 41 00 02 	movl   $0x2,0x41a560
  414aae:	00 00 00 
  414ab1:	a1 2c a0 41 00       	mov    0x41a02c,%eax
  414ab6:	83 c8 04             	or     $0x4,%eax
  414ab9:	a3 2c a0 41 00       	mov    %eax,0x41a02c
  414abe:	b9 04 00 00 00       	mov    $0x4,%ecx
  414ac3:	c1 e1 00             	shl    $0x0,%ecx
  414ac6:	8b 54 0d f0          	mov    -0x10(%ebp,%ecx,1),%edx
  414aca:	81 e2 00 00 00 08    	and    $0x8000000,%edx
  414ad0:	74 7f                	je     0x414b51
  414ad2:	b8 04 00 00 00       	mov    $0x4,%eax
  414ad7:	c1 e0 00             	shl    $0x0,%eax
  414ada:	8b 4c 05 f0          	mov    -0x10(%ebp,%eax,1),%ecx
  414ade:	81 e1 00 00 00 10    	and    $0x10000000,%ecx
  414ae4:	74 6b                	je     0x414b51
  414ae6:	33 c9                	xor    %ecx,%ecx
  414ae8:	0f 01 d0             	xgetbv 
  414aeb:	89 45 c8             	mov    %eax,-0x38(%ebp)
  414aee:	89 55 cc             	mov    %edx,-0x34(%ebp)
  414af1:	8b 55 c8             	mov    -0x38(%ebp),%edx
  414af4:	8b 45 cc             	mov    -0x34(%ebp),%eax
  414af7:	83 e2 06             	and    $0x6,%edx
  414afa:	83 e0 00             	and    $0x0,%eax
  414afd:	89 55 c0             	mov    %edx,-0x40(%ebp)
  414b00:	89 45 c4             	mov    %eax,-0x3c(%ebp)
  414b03:	83 7d c0 06          	cmpl   $0x6,-0x40(%ebp)
  414b07:	75 48                	jne    0x414b51
  414b09:	83 7d c4 00          	cmpl   $0x0,-0x3c(%ebp)
  414b0d:	75 42                	jne    0x414b51
  414b0f:	c7 05 60 a5 41 00 03 	movl   $0x3,0x41a560
  414b16:	00 00 00 
  414b19:	8b 0d 2c a0 41 00    	mov    0x41a02c,%ecx
  414b1f:	83 c9 08             	or     $0x8,%ecx
  414b22:	89 0d 2c a0 41 00    	mov    %ecx,0x41a02c
  414b28:	ba 04 00 00 00       	mov    $0x4,%edx
  414b2d:	d1 e2                	shl    %edx
  414b2f:	8b 44 15 f0          	mov    -0x10(%ebp,%edx,1),%eax
  414b33:	83 e0 20             	and    $0x20,%eax
  414b36:	74 19                	je     0x414b51
  414b38:	c7 05 60 a5 41 00 05 	movl   $0x5,0x41a560
  414b3f:	00 00 00 
  414b42:	8b 0d 2c a0 41 00    	mov    0x41a02c,%ecx
  414b48:	83 c9 20             	or     $0x20,%ecx
  414b4b:	89 0d 2c a0 41 00    	mov    %ecx,0x41a02c
  414b51:	33 c0                	xor    %eax,%eax
  414b53:	5e                   	pop    %esi
  414b54:	5b                   	pop    %ebx
  414b55:	8b 4d fc             	mov    -0x4(%ebp),%ecx
  414b58:	33 cd                	xor    %ebp,%ecx
  414b5a:	e8 30 c7 ff ff       	call   0x41128f
  414b5f:	8b e5                	mov    %ebp,%esp
  414b61:	5d                   	pop    %ebp
  414b62:	c3                   	ret    
  414b63:	cc                   	int3   
  414b64:	cc                   	int3   
  414b65:	cc                   	int3   
  414b66:	cc                   	int3   
  414b67:	cc                   	int3   
  414b68:	cc                   	int3   
  414b69:	cc                   	int3   
  414b6a:	cc                   	int3   
  414b6b:	cc                   	int3   
  414b6c:	cc                   	int3   
  414b6d:	cc                   	int3   
  414b6e:	cc                   	int3   
  414b6f:	cc                   	int3   
  414b70:	cc                   	int3   
  414b71:	cc                   	int3   
  414b72:	cc                   	int3   
  414b73:	cc                   	int3   
  414b74:	cc                   	int3   
  414b75:	cc                   	int3   
  414b76:	cc                   	int3   
  414b77:	cc                   	int3   
  414b78:	cc                   	int3   
  414b79:	cc                   	int3   
  414b7a:	cc                   	int3   
  414b7b:	cc                   	int3   
  414b7c:	cc                   	int3   
  414b7d:	cc                   	int3   
  414b7e:	cc                   	int3   
  414b7f:	cc                   	int3   
  414b80:	cc                   	int3   
  414b81:	cc                   	int3   
  414b82:	cc                   	int3   
  414b83:	cc                   	int3   
  414b84:	cc                   	int3   
  414b85:	cc                   	int3   
  414b86:	cc                   	int3   
  414b87:	cc                   	int3   
  414b88:	cc                   	int3   
  414b89:	cc                   	int3   
  414b8a:	cc                   	int3   
  414b8b:	cc                   	int3   
  414b8c:	cc                   	int3   
  414b8d:	cc                   	int3   
  414b8e:	cc                   	int3   
  414b8f:	cc                   	int3   
  414b90:	cc                   	int3   
  414b91:	cc                   	int3   
  414b92:	cc                   	int3   
  414b93:	cc                   	int3   
  414b94:	cc                   	int3   
  414b95:	cc                   	int3   
  414b96:	cc                   	int3   
  414b97:	cc                   	int3   
  414b98:	cc                   	int3   
  414b99:	cc                   	int3   
  414b9a:	cc                   	int3   
  414b9b:	cc                   	int3   
  414b9c:	cc                   	int3   
  414b9d:	cc                   	int3   
  414b9e:	cc                   	int3   
  414b9f:	cc                   	int3   
  414ba0:	cc                   	int3   
  414ba1:	cc                   	int3   
  414ba2:	cc                   	int3   
  414ba3:	cc                   	int3   
  414ba4:	cc                   	int3   
  414ba5:	cc                   	int3   
  414ba6:	cc                   	int3   
  414ba7:	cc                   	int3   
  414ba8:	cc                   	int3   
  414ba9:	cc                   	int3   
  414baa:	cc                   	int3   
  414bab:	cc                   	int3   
  414bac:	cc                   	int3   
  414bad:	cc                   	int3   
  414bae:	cc                   	int3   
  414baf:	cc                   	int3   
  414bb0:	cc                   	int3   
  414bb1:	cc                   	int3   
  414bb2:	cc                   	int3   
  414bb3:	cc                   	int3   
  414bb4:	cc                   	int3   
  414bb5:	cc                   	int3   
  414bb6:	cc                   	int3   
  414bb7:	cc                   	int3   
  414bb8:	cc                   	int3   
  414bb9:	cc                   	int3   
  414bba:	cc                   	int3   
  414bbb:	cc                   	int3   
  414bbc:	cc                   	int3   
  414bbd:	cc                   	int3   
  414bbe:	cc                   	int3   
  414bbf:	cc                   	int3   
  414bc0:	cc                   	int3   
  414bc1:	cc                   	int3   
  414bc2:	cc                   	int3   
  414bc3:	cc                   	int3   
  414bc4:	cc                   	int3   
  414bc5:	cc                   	int3   
  414bc6:	cc                   	int3   
  414bc7:	cc                   	int3   
  414bc8:	cc                   	int3   
  414bc9:	cc                   	int3   
  414bca:	cc                   	int3   
  414bcb:	cc                   	int3   
  414bcc:	cc                   	int3   
  414bcd:	cc                   	int3   
  414bce:	cc                   	int3   
  414bcf:	cc                   	int3   
  414bd0:	cc                   	int3   
  414bd1:	cc                   	int3   
  414bd2:	cc                   	int3   
  414bd3:	cc                   	int3   
  414bd4:	cc                   	int3   
  414bd5:	cc                   	int3   
  414bd6:	cc                   	int3   
  414bd7:	cc                   	int3   
  414bd8:	cc                   	int3   
  414bd9:	cc                   	int3   
  414bda:	cc                   	int3   
  414bdb:	cc                   	int3   
  414bdc:	cc                   	int3   
  414bdd:	cc                   	int3   
  414bde:	cc                   	int3   
  414bdf:	cc                   	int3   
  414be0:	cc                   	int3   
  414be1:	cc                   	int3   
  414be2:	cc                   	int3   
  414be3:	cc                   	int3   
  414be4:	cc                   	int3   
  414be5:	cc                   	int3   
  414be6:	cc                   	int3   
  414be7:	cc                   	int3   
  414be8:	cc                   	int3   
  414be9:	cc                   	int3   
  414bea:	cc                   	int3   
  414beb:	cc                   	int3   
  414bec:	cc                   	int3   
  414bed:	cc                   	int3   
  414bee:	cc                   	int3   
  414bef:	cc                   	int3   
  414bf0:	cc                   	int3   
  414bf1:	cc                   	int3   
  414bf2:	cc                   	int3   
  414bf3:	cc                   	int3   
  414bf4:	cc                   	int3   
  414bf5:	cc                   	int3   
  414bf6:	cc                   	int3   
  414bf7:	cc                   	int3   
  414bf8:	cc                   	int3   
  414bf9:	cc                   	int3   
  414bfa:	cc                   	int3   
  414bfb:	cc                   	int3   
  414bfc:	cc                   	int3   
  414bfd:	cc                   	int3   
  414bfe:	cc                   	int3   
  414bff:	cc                   	int3   
  414c00:	cc                   	int3   
  414c01:	cc                   	int3   
  414c02:	cc                   	int3   
  414c03:	cc                   	int3   
  414c04:	cc                   	int3   
  414c05:	cc                   	int3   
  414c06:	cc                   	int3   
  414c07:	cc                   	int3   
  414c08:	cc                   	int3   
  414c09:	cc                   	int3   
  414c0a:	cc                   	int3   
  414c0b:	cc                   	int3   
  414c0c:	cc                   	int3   
  414c0d:	cc                   	int3   
  414c0e:	cc                   	int3   
  414c0f:	cc                   	int3   
  414c10:	cc                   	int3   
  414c11:	cc                   	int3   
  414c12:	cc                   	int3   
  414c13:	cc                   	int3   
  414c14:	cc                   	int3   
  414c15:	cc                   	int3   
  414c16:	cc                   	int3   
  414c17:	cc                   	int3   
  414c18:	cc                   	int3   
  414c19:	cc                   	int3   
  414c1a:	cc                   	int3   
  414c1b:	cc                   	int3   
  414c1c:	cc                   	int3   
  414c1d:	cc                   	int3   
  414c1e:	cc                   	int3   
  414c1f:	cc                   	int3   
  414c20:	55                   	push   %ebp
  414c21:	8b ec                	mov    %esp,%ebp
  414c23:	51                   	push   %ecx
  414c24:	83 3d 30 a0 41 00 00 	cmpl   $0x0,0x41a030
  414c2b:	74 09                	je     0x414c36
  414c2d:	c7 45 fc 01 00 00 00 	movl   $0x1,-0x4(%ebp)
  414c34:	eb 07                	jmp    0x414c3d
  414c36:	c7 45 fc 00 00 00 00 	movl   $0x0,-0x4(%ebp)
  414c3d:	8b 45 fc             	mov    -0x4(%ebp),%eax
  414c40:	8b e5                	mov    %ebp,%esp
  414c42:	5d                   	pop    %ebp
  414c43:	c3                   	ret    
  414c44:	cc                   	int3   
  414c45:	cc                   	int3   
  414c46:	cc                   	int3   
  414c47:	cc                   	int3   
  414c48:	cc                   	int3   
  414c49:	cc                   	int3   
  414c4a:	cc                   	int3   
  414c4b:	cc                   	int3   
  414c4c:	cc                   	int3   
  414c4d:	cc                   	int3   
  414c4e:	cc                   	int3   
  414c4f:	cc                   	int3   
  414c50:	55                   	push   %ebp
  414c51:	8b ec                	mov    %esp,%ebp
  414c53:	51                   	push   %ecx
  414c54:	89 4d fc             	mov    %ecx,-0x4(%ebp)
  414c57:	8b e5                	mov    %ebp,%esp
  414c59:	5d                   	pop    %ebp
  414c5a:	c3                   	ret    
  414c5b:	cc                   	int3   
  414c5c:	cc                   	int3   
  414c5d:	cc                   	int3   
  414c5e:	cc                   	int3   
  414c5f:	cc                   	int3   
  414c60:	55                   	push   %ebp
  414c61:	8b ec                	mov    %esp,%ebp
  414c63:	51                   	push   %ecx
  414c64:	8b 45 08             	mov    0x8(%ebp),%eax
  414c67:	8b 08                	mov    (%eax),%ecx
  414c69:	89 4d fc             	mov    %ecx,-0x4(%ebp)
  414c6c:	8b 45 fc             	mov    -0x4(%ebp),%eax
  414c6f:	8b e5                	mov    %ebp,%esp
  414c71:	5d                   	pop    %ebp
  414c72:	c3                   	ret    
  414c73:	cc                   	int3   
  414c74:	cc                   	int3   
  414c75:	cc                   	int3   
  414c76:	cc                   	int3   
  414c77:	cc                   	int3   
  414c78:	cc                   	int3   
  414c79:	cc                   	int3   
  414c7a:	cc                   	int3   
  414c7b:	cc                   	int3   
  414c7c:	cc                   	int3   
  414c7d:	cc                   	int3   
  414c7e:	cc                   	int3   
  414c7f:	cc                   	int3   
  414c80:	55                   	push   %ebp
  414c81:	8b ec                	mov    %esp,%ebp
  414c83:	8b 45 08             	mov    0x8(%ebp),%eax
  414c86:	50                   	push   %eax
  414c87:	e8 71 c6 ff ff       	call   0x4112fd
  414c8c:	83 c4 04             	add    $0x4,%esp
  414c8f:	5d                   	pop    %ebp
  414c90:	c3                   	ret    
  414c91:	cc                   	int3   
  414c92:	cc                   	int3   
  414c93:	cc                   	int3   
  414c94:	cc                   	int3   
  414c95:	cc                   	int3   
  414c96:	cc                   	int3   
  414c97:	cc                   	int3   
  414c98:	cc                   	int3   
  414c99:	cc                   	int3   
  414c9a:	cc                   	int3   
  414c9b:	cc                   	int3   
  414c9c:	cc                   	int3   
  414c9d:	cc                   	int3   
  414c9e:	cc                   	int3   
  414c9f:	cc                   	int3   
  414ca0:	55                   	push   %ebp
  414ca1:	8b ec                	mov    %esp,%ebp
  414ca3:	51                   	push   %ecx
  414ca4:	68 00 c0 41 00       	push   $0x41c000
  414ca9:	e8 9d c3 ff ff       	call   0x41104b
  414cae:	83 c4 04             	add    $0x4,%esp
  414cb1:	3d a3 12 41 00       	cmp    $0x4112a3,%eax
  414cb6:	74 09                	je     0x414cc1
  414cb8:	c7 45 fc 01 00 00 00 	movl   $0x1,-0x4(%ebp)
  414cbf:	eb 07                	jmp    0x414cc8
  414cc1:	c7 45 fc 00 00 00 00 	movl   $0x0,-0x4(%ebp)
  414cc8:	8b 45 fc             	mov    -0x4(%ebp),%eax
  414ccb:	8b e5                	mov    %ebp,%esp
  414ccd:	5d                   	pop    %ebp
  414cce:	c3                   	ret    
  414ccf:	cc                   	int3   
  414cd0:	cc                   	int3   
  414cd1:	cc                   	int3   
  414cd2:	cc                   	int3   
  414cd3:	cc                   	int3   
  414cd4:	cc                   	int3   
  414cd5:	cc                   	int3   
  414cd6:	cc                   	int3   
  414cd7:	cc                   	int3   
  414cd8:	cc                   	int3   
  414cd9:	cc                   	int3   
  414cda:	ff 25 ac b0 41 00    	jmp    *0x41b0ac
  414ce0:	ff 25 a0 b0 41 00    	jmp    *0x41b0a0
  414ce6:	ff 25 9c b0 41 00    	jmp    *0x41b09c
  414cec:	ff 25 98 b0 41 00    	jmp    *0x41b098
  414cf2:	ff 25 a4 b0 41 00    	jmp    *0x41b0a4
  414cf8:	ff 25 a8 b0 41 00    	jmp    *0x41b0a8
  414cfe:	ff 25 74 b1 41 00    	jmp    *0x41b174
  414d04:	ff 25 70 b1 41 00    	jmp    *0x41b170
  414d0a:	ff 25 6c b1 41 00    	jmp    *0x41b16c
  414d10:	ff 25 68 b1 41 00    	jmp    *0x41b168
  414d16:	ff 25 64 b1 41 00    	jmp    *0x41b164
  414d1c:	ff 25 60 b1 41 00    	jmp    *0x41b160
  414d22:	ff 25 5c b1 41 00    	jmp    *0x41b15c
  414d28:	ff 25 58 b1 41 00    	jmp    *0x41b158
  414d2e:	ff 25 54 b1 41 00    	jmp    *0x41b154
  414d34:	ff 25 50 b1 41 00    	jmp    *0x41b150
  414d3a:	ff 25 4c b1 41 00    	jmp    *0x41b14c
  414d40:	ff 25 48 b1 41 00    	jmp    *0x41b148
  414d46:	ff 25 44 b1 41 00    	jmp    *0x41b144
  414d4c:	ff 25 40 b1 41 00    	jmp    *0x41b140
  414d52:	ff 25 3c b1 41 00    	jmp    *0x41b13c
  414d58:	ff 25 38 b1 41 00    	jmp    *0x41b138
  414d5e:	ff 25 34 b1 41 00    	jmp    *0x41b134
  414d64:	ff 25 30 b1 41 00    	jmp    *0x41b130
  414d6a:	ff 25 2c b1 41 00    	jmp    *0x41b12c
  414d70:	ff 25 28 b1 41 00    	jmp    *0x41b128
  414d76:	ff 25 24 b1 41 00    	jmp    *0x41b124
  414d7c:	ff 25 20 b1 41 00    	jmp    *0x41b120
  414d82:	ff 25 f0 b0 41 00    	jmp    *0x41b0f0
  414d88:	ff 25 1c b1 41 00    	jmp    *0x41b11c
  414d8e:	ff 25 e0 b0 41 00    	jmp    *0x41b0e0
  414d94:	ff 25 e4 b0 41 00    	jmp    *0x41b0e4
  414d9a:	ff 25 e8 b0 41 00    	jmp    *0x41b0e8
  414da0:	ff 25 ec b0 41 00    	jmp    *0x41b0ec
  414da6:	ff 25 78 b1 41 00    	jmp    *0x41b178
  414dac:	ff 25 f4 b0 41 00    	jmp    *0x41b0f4
  414db2:	ff 25 f8 b0 41 00    	jmp    *0x41b0f8
  414db8:	ff 25 fc b0 41 00    	jmp    *0x41b0fc
  414dbe:	ff 25 00 b1 41 00    	jmp    *0x41b100
  414dc4:	ff 25 04 b1 41 00    	jmp    *0x41b104
  414dca:	ff 25 08 b1 41 00    	jmp    *0x41b108
  414dd0:	ff 25 0c b1 41 00    	jmp    *0x41b10c
  414dd6:	ff 25 10 b1 41 00    	jmp    *0x41b110
  414ddc:	ff 25 14 b1 41 00    	jmp    *0x41b114
  414de2:	ff 25 18 b1 41 00    	jmp    *0x41b118
  414de8:	ff 25 38 b0 41 00    	jmp    *0x41b038
  414dee:	ff 25 04 b0 41 00    	jmp    *0x41b004
  414df4:	ff 25 08 b0 41 00    	jmp    *0x41b008
  414dfa:	ff 25 0c b0 41 00    	jmp    *0x41b00c
  414e00:	ff 25 10 b0 41 00    	jmp    *0x41b010
  414e06:	ff 25 14 b0 41 00    	jmp    *0x41b014
  414e0c:	ff 25 58 b0 41 00    	jmp    *0x41b058
  414e12:	ff 25 54 b0 41 00    	jmp    *0x41b054
  414e18:	ff 25 50 b0 41 00    	jmp    *0x41b050
  414e1e:	ff 25 4c b0 41 00    	jmp    *0x41b04c
  414e24:	ff 25 48 b0 41 00    	jmp    *0x41b048
  414e2a:	ff 25 44 b0 41 00    	jmp    *0x41b044
  414e30:	ff 25 40 b0 41 00    	jmp    *0x41b040
  414e36:	ff 25 3c b0 41 00    	jmp    *0x41b03c
  414e3c:	ff 25 00 b0 41 00    	jmp    *0x41b000
  414e42:	ff 25 34 b0 41 00    	jmp    *0x41b034
  414e48:	ff 25 30 b0 41 00    	jmp    *0x41b030
  414e4e:	ff 25 2c b0 41 00    	jmp    *0x41b02c
  414e54:	ff 25 28 b0 41 00    	jmp    *0x41b028
  414e5a:	ff 25 24 b0 41 00    	jmp    *0x41b024
  414e60:	ff 25 20 b0 41 00    	jmp    *0x41b020
  414e66:	ff 25 1c b0 41 00    	jmp    *0x41b01c
  414e6c:	ff 25 18 b0 41 00    	jmp    *0x41b018
  414e72:	cc                   	int3   
  414e73:	cc                   	int3   
  414e74:	cc                   	int3   
  414e75:	cc                   	int3   
  414e76:	cc                   	int3   
  414e77:	cc                   	int3   
  414e78:	cc                   	int3   
  414e79:	cc                   	int3   
  414e7a:	cc                   	int3   
  414e7b:	cc                   	int3   
  414e7c:	cc                   	int3   
  414e7d:	cc                   	int3   
  414e7e:	cc                   	int3   
  414e7f:	cc                   	int3   
  414e80:	55                   	push   %ebp
  414e81:	8b ec                	mov    %esp,%ebp
  414e83:	b0 01                	mov    $0x1,%al
  414e85:	5d                   	pop    %ebp
  414e86:	c3                   	ret    
  414e87:	cc                   	int3   
  414e88:	cc                   	int3   
  414e89:	cc                   	int3   
  414e8a:	cc                   	int3   
  414e8b:	cc                   	int3   
  414e8c:	cc                   	int3   
  414e8d:	cc                   	int3   
  414e8e:	cc                   	int3   
  414e8f:	cc                   	int3   
  414e90:	55                   	push   %ebp
  414e91:	8b ec                	mov    %esp,%ebp
  414e93:	b0 01                	mov    $0x1,%al
  414e95:	5d                   	pop    %ebp
  414e96:	c3                   	ret    
  414e97:	cc                   	int3   
  414e98:	cc                   	int3   
  414e99:	cc                   	int3   
  414e9a:	cc                   	int3   
  414e9b:	cc                   	int3   
  414e9c:	cc                   	int3   
  414e9d:	cc                   	int3   
  414e9e:	cc                   	int3   
  414e9f:	cc                   	int3   
  414ea0:	55                   	push   %ebp
  414ea1:	8b ec                	mov    %esp,%ebp
  414ea3:	b0 01                	mov    $0x1,%al
  414ea5:	5d                   	pop    %ebp
  414ea6:	c3                   	ret    
  414ea7:	cc                   	int3   
  414ea8:	cc                   	int3   
  414ea9:	cc                   	int3   
  414eaa:	cc                   	int3   
  414eab:	cc                   	int3   
  414eac:	cc                   	int3   
  414ead:	cc                   	int3   
  414eae:	cc                   	int3   
  414eaf:	cc                   	int3   
  414eb0:	55                   	push   %ebp
  414eb1:	8b ec                	mov    %esp,%ebp
  414eb3:	b0 01                	mov    $0x1,%al
  414eb5:	5d                   	pop    %ebp
  414eb6:	c3                   	ret    
  414eb7:	cc                   	int3   
  414eb8:	cc                   	int3   
  414eb9:	cc                   	int3   
  414eba:	cc                   	int3   
  414ebb:	cc                   	int3   
  414ebc:	cc                   	int3   
  414ebd:	cc                   	int3   
  414ebe:	cc                   	int3   
  414ebf:	cc                   	int3   
  414ec0:	55                   	push   %ebp
  414ec1:	8b ec                	mov    %esp,%ebp
  414ec3:	b0 01                	mov    $0x1,%al
  414ec5:	5d                   	pop    %ebp
  414ec6:	c3                   	ret    
  414ec7:	cc                   	int3   
  414ec8:	cc                   	int3   
  414ec9:	cc                   	int3   
  414eca:	cc                   	int3   
  414ecb:	cc                   	int3   
  414ecc:	cc                   	int3   
  414ecd:	cc                   	int3   
  414ece:	cc                   	int3   
  414ecf:	cc                   	int3   
  414ed0:	55                   	push   %ebp
  414ed1:	8b ec                	mov    %esp,%ebp
  414ed3:	33 c0                	xor    %eax,%eax
  414ed5:	5d                   	pop    %ebp
  414ed6:	c3                   	ret    
  414ed7:	cc                   	int3   
  414ed8:	cc                   	int3   
  414ed9:	cc                   	int3   
  414eda:	cc                   	int3   
  414edb:	cc                   	int3   
  414edc:	cc                   	int3   
  414edd:	cc                   	int3   
  414ede:	cc                   	int3   
  414edf:	cc                   	int3   
  414ee0:	cc                   	int3   
  414ee1:	cc                   	int3   
  414ee2:	cc                   	int3   
  414ee3:	cc                   	int3   
  414ee4:	cc                   	int3   
  414ee5:	cc                   	int3   
  414ee6:	cc                   	int3   
  414ee7:	cc                   	int3   
  414ee8:	cc                   	int3   
  414ee9:	cc                   	int3   
  414eea:	cc                   	int3   
  414eeb:	cc                   	int3   
  414eec:	cc                   	int3   
  414eed:	cc                   	int3   
  414eee:	cc                   	int3   
  414eef:	cc                   	int3   
  414ef0:	cc                   	int3   
  414ef1:	cc                   	int3   
  414ef2:	cc                   	int3   
  414ef3:	cc                   	int3   
  414ef4:	cc                   	int3   
  414ef5:	cc                   	int3   
  414ef6:	cc                   	int3   
  414ef7:	cc                   	int3   
  414ef8:	cc                   	int3   
  414ef9:	cc                   	int3   
  414efa:	cc                   	int3   
  414efb:	cc                   	int3   
  414efc:	cc                   	int3   
  414efd:	cc                   	int3   
  414efe:	cc                   	int3   
  414eff:	cc                   	int3   
  414f00:	cc                   	int3   
  414f01:	cc                   	int3   
  414f02:	cc                   	int3   
  414f03:	cc                   	int3   
  414f04:	cc                   	int3   
  414f05:	cc                   	int3   
  414f06:	cc                   	int3   
  414f07:	cc                   	int3   
  414f08:	cc                   	int3   
  414f09:	cc                   	int3   
  414f0a:	cc                   	int3   
  414f0b:	cc                   	int3   
  414f0c:	cc                   	int3   
  414f0d:	cc                   	int3   
  414f0e:	cc                   	int3   
  414f0f:	cc                   	int3   
  414f10:	cc                   	int3   
  414f11:	cc                   	int3   
  414f12:	cc                   	int3   
  414f13:	cc                   	int3   
  414f14:	cc                   	int3   
  414f15:	cc                   	int3   
  414f16:	cc                   	int3   
  414f17:	cc                   	int3   
  414f18:	cc                   	int3   
  414f19:	cc                   	int3   
  414f1a:	cc                   	int3   
  414f1b:	cc                   	int3   
  414f1c:	cc                   	int3   
  414f1d:	cc                   	int3   
  414f1e:	cc                   	int3   
  414f1f:	cc                   	int3   
  414f20:	cc                   	int3   
  414f21:	cc                   	int3   
  414f22:	cc                   	int3   
  414f23:	cc                   	int3   
  414f24:	cc                   	int3   
  414f25:	cc                   	int3   
  414f26:	cc                   	int3   
  414f27:	cc                   	int3   
  414f28:	cc                   	int3   
  414f29:	cc                   	int3   
  414f2a:	cc                   	int3   
  414f2b:	cc                   	int3   
  414f2c:	cc                   	int3   
  414f2d:	cc                   	int3   
  414f2e:	cc                   	int3   
  414f2f:	cc                   	int3   
  414f30:	cc                   	int3   
  414f31:	cc                   	int3   
  414f32:	cc                   	int3   
  414f33:	cc                   	int3   
  414f34:	cc                   	int3   
  414f35:	cc                   	int3   
  414f36:	cc                   	int3   
  414f37:	cc                   	int3   
  414f38:	cc                   	int3   
  414f39:	cc                   	int3   
  414f3a:	cc                   	int3   
  414f3b:	cc                   	int3   
  414f3c:	cc                   	int3   
  414f3d:	cc                   	int3   
  414f3e:	cc                   	int3   
  414f3f:	cc                   	int3   
  414f40:	cc                   	int3   
  414f41:	cc                   	int3   
  414f42:	cc                   	int3   
  414f43:	cc                   	int3   
  414f44:	cc                   	int3   
  414f45:	cc                   	int3   
  414f46:	cc                   	int3   
  414f47:	cc                   	int3   
  414f48:	cc                   	int3   
  414f49:	cc                   	int3   
  414f4a:	cc                   	int3   
  414f4b:	cc                   	int3   
  414f4c:	cc                   	int3   
  414f4d:	cc                   	int3   
  414f4e:	cc                   	int3   
  414f4f:	cc                   	int3   
  414f50:	cc                   	int3   
  414f51:	cc                   	int3   
  414f52:	cc                   	int3   
  414f53:	cc                   	int3   
  414f54:	cc                   	int3   
  414f55:	cc                   	int3   
  414f56:	cc                   	int3   
  414f57:	cc                   	int3   
  414f58:	cc                   	int3   
  414f59:	cc                   	int3   
  414f5a:	cc                   	int3   
  414f5b:	cc                   	int3   
  414f5c:	cc                   	int3   
  414f5d:	cc                   	int3   
  414f5e:	cc                   	int3   
  414f5f:	cc                   	int3   
  414f60:	cc                   	int3   
  414f61:	cc                   	int3   
  414f62:	cc                   	int3   
  414f63:	cc                   	int3   
  414f64:	cc                   	int3   
  414f65:	cc                   	int3   
  414f66:	cc                   	int3   
  414f67:	cc                   	int3   
  414f68:	cc                   	int3   
  414f69:	cc                   	int3   
  414f6a:	cc                   	int3   
  414f6b:	cc                   	int3   
  414f6c:	cc                   	int3   
  414f6d:	cc                   	int3   
  414f6e:	cc                   	int3   
  414f6f:	cc                   	int3   
  414f70:	cc                   	int3   
  414f71:	cc                   	int3   
  414f72:	cc                   	int3   
  414f73:	cc                   	int3   
  414f74:	cc                   	int3   
  414f75:	cc                   	int3   
  414f76:	cc                   	int3   
  414f77:	cc                   	int3   
  414f78:	cc                   	int3   
  414f79:	cc                   	int3   
  414f7a:	cc                   	int3   
  414f7b:	cc                   	int3   
  414f7c:	cc                   	int3   
  414f7d:	cc                   	int3   
  414f7e:	cc                   	int3   
  414f7f:	cc                   	int3   
  414f80:	cc                   	int3   
  414f81:	cc                   	int3   
  414f82:	cc                   	int3   
  414f83:	cc                   	int3   
  414f84:	cc                   	int3   
  414f85:	cc                   	int3   
  414f86:	cc                   	int3   
  414f87:	cc                   	int3   
  414f88:	cc                   	int3   
  414f89:	cc                   	int3   
  414f8a:	cc                   	int3   
  414f8b:	cc                   	int3   
  414f8c:	cc                   	int3   
  414f8d:	cc                   	int3   
  414f8e:	cc                   	int3   
  414f8f:	cc                   	int3   
  414f90:	cc                   	int3   
  414f91:	cc                   	int3   
  414f92:	cc                   	int3   
  414f93:	cc                   	int3   
  414f94:	cc                   	int3   
  414f95:	cc                   	int3   
  414f96:	cc                   	int3   
  414f97:	cc                   	int3   
  414f98:	cc                   	int3   
  414f99:	cc                   	int3   
  414f9a:	cc                   	int3   
  414f9b:	cc                   	int3   
  414f9c:	cc                   	int3   
  414f9d:	cc                   	int3   
  414f9e:	cc                   	int3   
  414f9f:	cc                   	int3   
  414fa0:	cc                   	int3   
  414fa1:	cc                   	int3   
  414fa2:	cc                   	int3   
  414fa3:	cc                   	int3   
  414fa4:	cc                   	int3   
  414fa5:	cc                   	int3   
  414fa6:	cc                   	int3   
  414fa7:	cc                   	int3   
  414fa8:	cc                   	int3   
  414fa9:	cc                   	int3   
  414faa:	cc                   	int3   
  414fab:	cc                   	int3   
  414fac:	cc                   	int3   
  414fad:	cc                   	int3   
  414fae:	cc                   	int3   
  414faf:	cc                   	int3   
  414fb0:	cc                   	int3   
  414fb1:	cc                   	int3   
  414fb2:	cc                   	int3   
  414fb3:	cc                   	int3   
  414fb4:	cc                   	int3   
  414fb5:	cc                   	int3   
  414fb6:	cc                   	int3   
  414fb7:	cc                   	int3   
  414fb8:	cc                   	int3   
  414fb9:	cc                   	int3   
  414fba:	cc                   	int3   
  414fbb:	cc                   	int3   
  414fbc:	cc                   	int3   
  414fbd:	cc                   	int3   
  414fbe:	cc                   	int3   
  414fbf:	cc                   	int3   
  414fc0:	cc                   	int3   
  414fc1:	cc                   	int3   
  414fc2:	cc                   	int3   
  414fc3:	cc                   	int3   
  414fc4:	cc                   	int3   
  414fc5:	cc                   	int3   
  414fc6:	cc                   	int3   
  414fc7:	cc                   	int3   
  414fc8:	cc                   	int3   
  414fc9:	cc                   	int3   
  414fca:	cc                   	int3   
  414fcb:	cc                   	int3   
  414fcc:	cc                   	int3   
  414fcd:	cc                   	int3   
  414fce:	cc                   	int3   
  414fcf:	cc                   	int3   
  414fd0:	cc                   	int3   
  414fd1:	cc                   	int3   
  414fd2:	cc                   	int3   
  414fd3:	cc                   	int3   
  414fd4:	cc                   	int3   
  414fd5:	cc                   	int3   
  414fd6:	cc                   	int3   
  414fd7:	cc                   	int3   
  414fd8:	cc                   	int3   
  414fd9:	cc                   	int3   
  414fda:	cc                   	int3   
  414fdb:	cc                   	int3   
  414fdc:	cc                   	int3   
  414fdd:	cc                   	int3   
  414fde:	cc                   	int3   
  414fdf:	cc                   	int3   
  414fe0:	cc                   	int3   
  414fe1:	cc                   	int3   
  414fe2:	cc                   	int3   
  414fe3:	cc                   	int3   
  414fe4:	cc                   	int3   
  414fe5:	cc                   	int3   
  414fe6:	cc                   	int3   
  414fe7:	cc                   	int3   
  414fe8:	cc                   	int3   
  414fe9:	cc                   	int3   
  414fea:	cc                   	int3   
  414feb:	cc                   	int3   
  414fec:	cc                   	int3   
  414fed:	cc                   	int3   
  414fee:	cc                   	int3   
  414fef:	cc                   	int3   
  414ff0:	cc                   	int3   
  414ff1:	cc                   	int3   
  414ff2:	cc                   	int3   
  414ff3:	cc                   	int3   
  414ff4:	cc                   	int3   
  414ff5:	cc                   	int3   
  414ff6:	cc                   	int3   
  414ff7:	cc                   	int3   
  414ff8:	cc                   	int3   
  414ff9:	cc                   	int3   
  414ffa:	cc                   	int3   
  414ffb:	cc                   	int3   
  414ffc:	cc                   	int3   
  414ffd:	cc                   	int3   
  414ffe:	cc                   	int3   
  414fff:	cc                   	int3   
  415000:	cc                   	int3   
  415001:	cc                   	int3   
  415002:	cc                   	int3   
  415003:	cc                   	int3   
  415004:	cc                   	int3   
  415005:	cc                   	int3   
  415006:	cc                   	int3   
  415007:	cc                   	int3   
  415008:	cc                   	int3   
  415009:	cc                   	int3   
  41500a:	cc                   	int3   
  41500b:	cc                   	int3   
  41500c:	cc                   	int3   
  41500d:	cc                   	int3   
  41500e:	cc                   	int3   
  41500f:	cc                   	int3   
  415010:	cc                   	int3   
  415011:	cc                   	int3   
  415012:	cc                   	int3   
  415013:	cc                   	int3   
  415014:	cc                   	int3   
  415015:	cc                   	int3   
  415016:	cc                   	int3   
  415017:	cc                   	int3   
  415018:	cc                   	int3   
  415019:	cc                   	int3   
  41501a:	cc                   	int3   
  41501b:	cc                   	int3   
  41501c:	cc                   	int3   
  41501d:	cc                   	int3   
  41501e:	cc                   	int3   
  41501f:	cc                   	int3   
  415020:	cc                   	int3   
  415021:	cc                   	int3   
  415022:	cc                   	int3   
  415023:	cc                   	int3   
  415024:	cc                   	int3   
  415025:	cc                   	int3   
  415026:	cc                   	int3   
  415027:	cc                   	int3   
  415028:	cc                   	int3   
  415029:	cc                   	int3   
  41502a:	cc                   	int3   
  41502b:	cc                   	int3   
  41502c:	cc                   	int3   
  41502d:	cc                   	int3   
  41502e:	cc                   	int3   
  41502f:	cc                   	int3   
  415030:	cc                   	int3   
  415031:	cc                   	int3   
  415032:	cc                   	int3   
  415033:	cc                   	int3   
  415034:	cc                   	int3   
  415035:	cc                   	int3   
  415036:	cc                   	int3   
  415037:	cc                   	int3   
  415038:	cc                   	int3   
  415039:	cc                   	int3   
  41503a:	cc                   	int3   
  41503b:	cc                   	int3   
  41503c:	cc                   	int3   
  41503d:	cc                   	int3   
  41503e:	cc                   	int3   
  41503f:	cc                   	int3   
  415040:	cc                   	int3   
  415041:	cc                   	int3   
  415042:	cc                   	int3   
  415043:	cc                   	int3   
  415044:	cc                   	int3   
  415045:	cc                   	int3   
  415046:	cc                   	int3   
  415047:	cc                   	int3   
  415048:	cc                   	int3   
  415049:	cc                   	int3   
  41504a:	cc                   	int3   
  41504b:	cc                   	int3   
  41504c:	cc                   	int3   
  41504d:	cc                   	int3   
  41504e:	cc                   	int3   
  41504f:	cc                   	int3   
  415050:	cc                   	int3   
  415051:	cc                   	int3   
  415052:	cc                   	int3   
  415053:	cc                   	int3   
  415054:	cc                   	int3   
  415055:	cc                   	int3   
  415056:	cc                   	int3   
  415057:	cc                   	int3   
  415058:	cc                   	int3   
  415059:	cc                   	int3   
  41505a:	cc                   	int3   
  41505b:	cc                   	int3   
  41505c:	cc                   	int3   
  41505d:	cc                   	int3   
  41505e:	cc                   	int3   
  41505f:	cc                   	int3   
  415060:	cc                   	int3   
  415061:	cc                   	int3   
  415062:	cc                   	int3   
  415063:	cc                   	int3   
  415064:	cc                   	int3   
  415065:	cc                   	int3   
  415066:	cc                   	int3   
  415067:	cc                   	int3   
  415068:	cc                   	int3   
  415069:	cc                   	int3   
  41506a:	cc                   	int3   
  41506b:	cc                   	int3   
  41506c:	cc                   	int3   
  41506d:	cc                   	int3   
  41506e:	cc                   	int3   
  41506f:	cc                   	int3   
  415070:	cc                   	int3   
  415071:	cc                   	int3   
  415072:	cc                   	int3   
  415073:	cc                   	int3   
  415074:	cc                   	int3   
  415075:	cc                   	int3   
  415076:	cc                   	int3   
  415077:	cc                   	int3   
  415078:	cc                   	int3   
  415079:	cc                   	int3   
  41507a:	cc                   	int3   
  41507b:	cc                   	int3   
  41507c:	cc                   	int3   
  41507d:	cc                   	int3   
  41507e:	cc                   	int3   
  41507f:	cc                   	int3   
  415080:	cc                   	int3   
  415081:	cc                   	int3   
  415082:	cc                   	int3   
  415083:	cc                   	int3   
  415084:	cc                   	int3   
  415085:	cc                   	int3   
  415086:	cc                   	int3   
  415087:	cc                   	int3   
  415088:	cc                   	int3   
  415089:	cc                   	int3   
  41508a:	cc                   	int3   
  41508b:	cc                   	int3   
  41508c:	cc                   	int3   
  41508d:	cc                   	int3   
  41508e:	cc                   	int3   
  41508f:	cc                   	int3   
  415090:	cc                   	int3   
  415091:	cc                   	int3   
  415092:	cc                   	int3   
  415093:	cc                   	int3   
  415094:	cc                   	int3   
  415095:	cc                   	int3   
  415096:	cc                   	int3   
  415097:	cc                   	int3   
  415098:	cc                   	int3   
  415099:	cc                   	int3   
  41509a:	cc                   	int3   
  41509b:	cc                   	int3   
  41509c:	cc                   	int3   
  41509d:	cc                   	int3   
  41509e:	cc                   	int3   
  41509f:	cc                   	int3   
  4150a0:	cc                   	int3   
  4150a1:	cc                   	int3   
  4150a2:	cc                   	int3   
  4150a3:	cc                   	int3   
  4150a4:	cc                   	int3   
  4150a5:	cc                   	int3   
  4150a6:	cc                   	int3   
  4150a7:	cc                   	int3   
  4150a8:	cc                   	int3   
  4150a9:	cc                   	int3   
  4150aa:	cc                   	int3   
  4150ab:	cc                   	int3   
  4150ac:	cc                   	int3   
  4150ad:	cc                   	int3   
  4150ae:	cc                   	int3   
  4150af:	cc                   	int3   
  4150b0:	cc                   	int3   
  4150b1:	cc                   	int3   
  4150b2:	cc                   	int3   
  4150b3:	cc                   	int3   
  4150b4:	cc                   	int3   
  4150b5:	cc                   	int3   
  4150b6:	cc                   	int3   
  4150b7:	cc                   	int3   
  4150b8:	cc                   	int3   
  4150b9:	cc                   	int3   
  4150ba:	cc                   	int3   
  4150bb:	cc                   	int3   
  4150bc:	cc                   	int3   
  4150bd:	cc                   	int3   
  4150be:	cc                   	int3   
  4150bf:	cc                   	int3   
  4150c0:	cc                   	int3   
  4150c1:	cc                   	int3   
  4150c2:	cc                   	int3   
  4150c3:	cc                   	int3   
  4150c4:	cc                   	int3   
  4150c5:	cc                   	int3   
  4150c6:	cc                   	int3   
  4150c7:	cc                   	int3   
  4150c8:	cc                   	int3   
  4150c9:	cc                   	int3   
  4150ca:	cc                   	int3   
  4150cb:	cc                   	int3   
  4150cc:	cc                   	int3   
  4150cd:	cc                   	int3   
  4150ce:	cc                   	int3   
  4150cf:	cc                   	int3   
  4150d0:	cc                   	int3   
  4150d1:	cc                   	int3   
  4150d2:	cc                   	int3   
  4150d3:	cc                   	int3   
  4150d4:	cc                   	int3   
  4150d5:	cc                   	int3   
  4150d6:	cc                   	int3   
  4150d7:	cc                   	int3   
  4150d8:	cc                   	int3   
  4150d9:	cc                   	int3   
  4150da:	cc                   	int3   
  4150db:	cc                   	int3   
  4150dc:	cc                   	int3   
  4150dd:	cc                   	int3   
  4150de:	cc                   	int3   
  4150df:	cc                   	int3   
  4150e0:	cc                   	int3   
  4150e1:	cc                   	int3   
  4150e2:	cc                   	int3   
  4150e3:	cc                   	int3   
  4150e4:	cc                   	int3   
  4150e5:	cc                   	int3   
  4150e6:	cc                   	int3   
  4150e7:	cc                   	int3   
  4150e8:	cc                   	int3   
  4150e9:	cc                   	int3   
  4150ea:	cc                   	int3   
  4150eb:	cc                   	int3   
  4150ec:	cc                   	int3   
  4150ed:	cc                   	int3   
  4150ee:	cc                   	int3   
  4150ef:	cc                   	int3   
  4150f0:	cc                   	int3   
  4150f1:	cc                   	int3   
  4150f2:	cc                   	int3   
  4150f3:	cc                   	int3   
  4150f4:	cc                   	int3   
  4150f5:	cc                   	int3   
  4150f6:	cc                   	int3   
  4150f7:	cc                   	int3   
  4150f8:	cc                   	int3   
  4150f9:	cc                   	int3   
  4150fa:	cc                   	int3   
  4150fb:	cc                   	int3   
  4150fc:	cc                   	int3   
  4150fd:	cc                   	int3   
  4150fe:	cc                   	int3   
  4150ff:	cc                   	int3   
  415100:	cc                   	int3   
  415101:	cc                   	int3   
  415102:	cc                   	int3   
  415103:	cc                   	int3   
  415104:	cc                   	int3   
  415105:	cc                   	int3   
  415106:	cc                   	int3   
  415107:	cc                   	int3   
  415108:	cc                   	int3   
  415109:	cc                   	int3   
  41510a:	cc                   	int3   
  41510b:	cc                   	int3   
  41510c:	cc                   	int3   
  41510d:	cc                   	int3   
  41510e:	cc                   	int3   
  41510f:	cc                   	int3   
  415110:	cc                   	int3   
  415111:	cc                   	int3   
  415112:	cc                   	int3   
  415113:	cc                   	int3   
  415114:	cc                   	int3   
  415115:	cc                   	int3   
  415116:	cc                   	int3   
  415117:	cc                   	int3   
  415118:	cc                   	int3   
  415119:	cc                   	int3   
  41511a:	cc                   	int3   
  41511b:	cc                   	int3   
  41511c:	cc                   	int3   
  41511d:	cc                   	int3   
  41511e:	cc                   	int3   
  41511f:	cc                   	int3   
  415120:	cc                   	int3   
  415121:	cc                   	int3   
  415122:	cc                   	int3   
  415123:	cc                   	int3   
  415124:	cc                   	int3   
  415125:	cc                   	int3   
  415126:	cc                   	int3   
  415127:	cc                   	int3   
  415128:	cc                   	int3   
  415129:	cc                   	int3   
  41512a:	cc                   	int3   
  41512b:	cc                   	int3   
  41512c:	cc                   	int3   
  41512d:	cc                   	int3   
  41512e:	cc                   	int3   
  41512f:	cc                   	int3   
  415130:	cc                   	int3   
  415131:	cc                   	int3   
  415132:	cc                   	int3   
  415133:	cc                   	int3   
  415134:	cc                   	int3   
  415135:	cc                   	int3   
  415136:	cc                   	int3   
  415137:	cc                   	int3   
  415138:	cc                   	int3   
  415139:	cc                   	int3   
  41513a:	cc                   	int3   
  41513b:	cc                   	int3   
  41513c:	cc                   	int3   
  41513d:	cc                   	int3   
  41513e:	cc                   	int3   
  41513f:	cc                   	int3   
  415140:	cc                   	int3   
  415141:	cc                   	int3   
  415142:	cc                   	int3   
  415143:	cc                   	int3   
  415144:	cc                   	int3   
  415145:	cc                   	int3   
  415146:	cc                   	int3   
  415147:	cc                   	int3   
  415148:	cc                   	int3   
  415149:	cc                   	int3   
  41514a:	cc                   	int3   
  41514b:	cc                   	int3   
  41514c:	cc                   	int3   
  41514d:	cc                   	int3   
  41514e:	cc                   	int3   
  41514f:	cc                   	int3   
  415150:	cc                   	int3   
  415151:	cc                   	int3   
  415152:	cc                   	int3   
  415153:	cc                   	int3   
  415154:	cc                   	int3   
  415155:	cc                   	int3   
  415156:	cc                   	int3   
  415157:	cc                   	int3   
  415158:	cc                   	int3   
  415159:	cc                   	int3   
  41515a:	cc                   	int3   
  41515b:	cc                   	int3   
  41515c:	cc                   	int3   
  41515d:	cc                   	int3   
  41515e:	cc                   	int3   
  41515f:	cc                   	int3   
  415160:	cc                   	int3   
  415161:	cc                   	int3   
  415162:	cc                   	int3   
  415163:	cc                   	int3   
  415164:	cc                   	int3   
  415165:	cc                   	int3   
  415166:	cc                   	int3   
  415167:	cc                   	int3   
  415168:	cc                   	int3   
  415169:	cc                   	int3   
  41516a:	cc                   	int3   
  41516b:	cc                   	int3   
  41516c:	cc                   	int3   
  41516d:	cc                   	int3   
  41516e:	cc                   	int3   
  41516f:	cc                   	int3   
  415170:	cc                   	int3   
  415171:	cc                   	int3   
  415172:	cc                   	int3   
  415173:	cc                   	int3   
  415174:	cc                   	int3   
  415175:	cc                   	int3   
  415176:	cc                   	int3   
  415177:	cc                   	int3   
  415178:	cc                   	int3   
  415179:	cc                   	int3   
  41517a:	cc                   	int3   
  41517b:	cc                   	int3   
  41517c:	cc                   	int3   
  41517d:	cc                   	int3   
  41517e:	cc                   	int3   
  41517f:	cc                   	int3   
  415180:	cc                   	int3   
  415181:	cc                   	int3   
  415182:	cc                   	int3   
  415183:	cc                   	int3   
  415184:	cc                   	int3   
  415185:	cc                   	int3   
  415186:	cc                   	int3   
  415187:	cc                   	int3   
  415188:	cc                   	int3   
  415189:	cc                   	int3   
  41518a:	cc                   	int3   
  41518b:	cc                   	int3   
  41518c:	cc                   	int3   
  41518d:	cc                   	int3   
  41518e:	cc                   	int3   
  41518f:	cc                   	int3   
  415190:	cc                   	int3   
  415191:	cc                   	int3   
  415192:	cc                   	int3   
  415193:	cc                   	int3   
  415194:	cc                   	int3   
  415195:	cc                   	int3   
  415196:	cc                   	int3   
  415197:	cc                   	int3   
  415198:	cc                   	int3   
  415199:	cc                   	int3   
  41519a:	cc                   	int3   
  41519b:	cc                   	int3   
  41519c:	cc                   	int3   
  41519d:	cc                   	int3   
  41519e:	cc                   	int3   
  41519f:	cc                   	int3   
  4151a0:	cc                   	int3   
  4151a1:	cc                   	int3   
  4151a2:	cc                   	int3   
  4151a3:	cc                   	int3   
  4151a4:	cc                   	int3   
  4151a5:	cc                   	int3   
  4151a6:	cc                   	int3   
  4151a7:	cc                   	int3   
  4151a8:	cc                   	int3   
  4151a9:	cc                   	int3   
  4151aa:	cc                   	int3   
  4151ab:	cc                   	int3   
  4151ac:	cc                   	int3   
  4151ad:	cc                   	int3   
  4151ae:	cc                   	int3   
  4151af:	cc                   	int3   
  4151b0:	cc                   	int3   
  4151b1:	cc                   	int3   
  4151b2:	cc                   	int3   
  4151b3:	cc                   	int3   
  4151b4:	cc                   	int3   
  4151b5:	cc                   	int3   
  4151b6:	cc                   	int3   
  4151b7:	cc                   	int3   
  4151b8:	cc                   	int3   
  4151b9:	cc                   	int3   
  4151ba:	cc                   	int3   
  4151bb:	cc                   	int3   
  4151bc:	cc                   	int3   
  4151bd:	cc                   	int3   
  4151be:	cc                   	int3   
  4151bf:	cc                   	int3   
  4151c0:	cc                   	int3   
  4151c1:	cc                   	int3   
  4151c2:	cc                   	int3   
  4151c3:	cc                   	int3   
  4151c4:	cc                   	int3   
  4151c5:	cc                   	int3   
  4151c6:	cc                   	int3   
  4151c7:	cc                   	int3   
  4151c8:	cc                   	int3   
  4151c9:	cc                   	int3   
  4151ca:	cc                   	int3   
  4151cb:	cc                   	int3   
  4151cc:	cc                   	int3   
  4151cd:	cc                   	int3   
  4151ce:	cc                   	int3   
  4151cf:	cc                   	int3   
  4151d0:	cc                   	int3   
  4151d1:	cc                   	int3   
  4151d2:	cc                   	int3   
  4151d3:	cc                   	int3   
  4151d4:	cc                   	int3   
  4151d5:	cc                   	int3   
  4151d6:	cc                   	int3   
  4151d7:	cc                   	int3   
  4151d8:	cc                   	int3   
  4151d9:	cc                   	int3   
  4151da:	cc                   	int3   
  4151db:	cc                   	int3   
  4151dc:	cc                   	int3   
  4151dd:	cc                   	int3   
  4151de:	cc                   	int3   
  4151df:	cc                   	int3   
  4151e0:	cc                   	int3   
  4151e1:	cc                   	int3   
  4151e2:	cc                   	int3   
  4151e3:	cc                   	int3   
  4151e4:	cc                   	int3   
  4151e5:	cc                   	int3   
  4151e6:	cc                   	int3   
  4151e7:	cc                   	int3   
  4151e8:	cc                   	int3   
  4151e9:	cc                   	int3   
  4151ea:	cc                   	int3   
  4151eb:	cc                   	int3   
  4151ec:	cc                   	int3   
  4151ed:	cc                   	int3   
  4151ee:	cc                   	int3   
  4151ef:	cc                   	int3   
  4151f0:	cc                   	int3   
  4151f1:	cc                   	int3   
  4151f2:	cc                   	int3   
  4151f3:	cc                   	int3   
  4151f4:	cc                   	int3   
  4151f5:	cc                   	int3   
  4151f6:	cc                   	int3   
  4151f7:	cc                   	int3   
  4151f8:	cc                   	int3   
  4151f9:	cc                   	int3   
  4151fa:	cc                   	int3   
  4151fb:	cc                   	int3   
  4151fc:	cc                   	int3   
  4151fd:	cc                   	int3   
  4151fe:	cc                   	int3   
  4151ff:	cc                   	int3   
  415200:	cc                   	int3   
  415201:	cc                   	int3   
  415202:	cc                   	int3   
  415203:	cc                   	int3   
  415204:	cc                   	int3   
  415205:	cc                   	int3   
  415206:	cc                   	int3   
  415207:	cc                   	int3   
  415208:	cc                   	int3   
  415209:	cc                   	int3   
  41520a:	cc                   	int3   
  41520b:	cc                   	int3   
  41520c:	cc                   	int3   
  41520d:	cc                   	int3   
  41520e:	cc                   	int3   
  41520f:	cc                   	int3   
  415210:	cc                   	int3   
  415211:	cc                   	int3   
  415212:	cc                   	int3   
  415213:	cc                   	int3   
  415214:	cc                   	int3   
  415215:	cc                   	int3   
  415216:	cc                   	int3   
  415217:	cc                   	int3   
  415218:	cc                   	int3   
  415219:	cc                   	int3   
  41521a:	cc                   	int3   
  41521b:	cc                   	int3   
  41521c:	cc                   	int3   
  41521d:	cc                   	int3   
  41521e:	cc                   	int3   
  41521f:	cc                   	int3   
  415220:	cc                   	int3   
  415221:	cc                   	int3   
  415222:	cc                   	int3   
  415223:	cc                   	int3   
  415224:	cc                   	int3   
  415225:	cc                   	int3   
  415226:	cc                   	int3   
  415227:	cc                   	int3   
  415228:	cc                   	int3   
  415229:	cc                   	int3   
  41522a:	cc                   	int3   
  41522b:	cc                   	int3   
  41522c:	cc                   	int3   
  41522d:	cc                   	int3   
  41522e:	cc                   	int3   
  41522f:	cc                   	int3   
  415230:	cc                   	int3   
  415231:	cc                   	int3   
  415232:	cc                   	int3   
  415233:	cc                   	int3   
  415234:	cc                   	int3   
  415235:	cc                   	int3   
  415236:	cc                   	int3   
  415237:	cc                   	int3   
  415238:	cc                   	int3   
  415239:	cc                   	int3   
  41523a:	cc                   	int3   
  41523b:	cc                   	int3   
  41523c:	cc                   	int3   
  41523d:	cc                   	int3   
  41523e:	cc                   	int3   
  41523f:	cc                   	int3   
  415240:	cc                   	int3   
  415241:	cc                   	int3   
  415242:	cc                   	int3   
  415243:	cc                   	int3   
  415244:	cc                   	int3   
  415245:	cc                   	int3   
  415246:	cc                   	int3   
  415247:	cc                   	int3   
  415248:	cc                   	int3   
  415249:	cc                   	int3   
  41524a:	cc                   	int3   
  41524b:	cc                   	int3   
  41524c:	cc                   	int3   
  41524d:	cc                   	int3   
  41524e:	cc                   	int3   
  41524f:	cc                   	int3   
  415250:	cc                   	int3   
  415251:	cc                   	int3   
  415252:	cc                   	int3   
  415253:	cc                   	int3   
  415254:	cc                   	int3   
  415255:	cc                   	int3   
  415256:	cc                   	int3   
  415257:	cc                   	int3   
  415258:	cc                   	int3   
  415259:	cc                   	int3   
  41525a:	cc                   	int3   
  41525b:	cc                   	int3   
  41525c:	cc                   	int3   
  41525d:	cc                   	int3   
  41525e:	cc                   	int3   
  41525f:	cc                   	int3   
  415260:	cc                   	int3   
  415261:	cc                   	int3   
  415262:	cc                   	int3   
  415263:	cc                   	int3   
  415264:	cc                   	int3   
  415265:	cc                   	int3   
  415266:	cc                   	int3   
  415267:	cc                   	int3   
  415268:	cc                   	int3   
  415269:	cc                   	int3   
  41526a:	cc                   	int3   
  41526b:	cc                   	int3   
  41526c:	cc                   	int3   
  41526d:	cc                   	int3   
  41526e:	cc                   	int3   
  41526f:	cc                   	int3   
  415270:	cc                   	int3   
  415271:	cc                   	int3   
  415272:	cc                   	int3   
  415273:	cc                   	int3   
  415274:	cc                   	int3   
  415275:	cc                   	int3   
  415276:	cc                   	int3   
  415277:	cc                   	int3   
  415278:	cc                   	int3   
  415279:	cc                   	int3   
  41527a:	cc                   	int3   
  41527b:	cc                   	int3   
  41527c:	cc                   	int3   
  41527d:	cc                   	int3   
  41527e:	cc                   	int3   
  41527f:	cc                   	int3   
  415280:	cc                   	int3   
  415281:	cc                   	int3   
  415282:	cc                   	int3   
  415283:	cc                   	int3   
  415284:	cc                   	int3   
  415285:	cc                   	int3   
  415286:	cc                   	int3   
  415287:	cc                   	int3   
  415288:	cc                   	int3   
  415289:	cc                   	int3   
  41528a:	cc                   	int3   
  41528b:	cc                   	int3   
  41528c:	cc                   	int3   
  41528d:	cc                   	int3   
  41528e:	cc                   	int3   
  41528f:	cc                   	int3   
  415290:	cc                   	int3   
  415291:	cc                   	int3   
  415292:	cc                   	int3   
  415293:	cc                   	int3   
  415294:	cc                   	int3   
  415295:	cc                   	int3   
  415296:	cc                   	int3   
  415297:	cc                   	int3   
  415298:	cc                   	int3   
  415299:	cc                   	int3   
  41529a:	cc                   	int3   
  41529b:	cc                   	int3   
  41529c:	cc                   	int3   
  41529d:	cc                   	int3   
  41529e:	cc                   	int3   
  41529f:	cc                   	int3   
  4152a0:	cc                   	int3   
  4152a1:	cc                   	int3   
  4152a2:	cc                   	int3   
  4152a3:	cc                   	int3   
  4152a4:	cc                   	int3   
  4152a5:	cc                   	int3   
  4152a6:	cc                   	int3   
  4152a7:	cc                   	int3   
  4152a8:	cc                   	int3   
  4152a9:	cc                   	int3   
  4152aa:	cc                   	int3   
  4152ab:	cc                   	int3   
  4152ac:	cc                   	int3   
  4152ad:	cc                   	int3   
  4152ae:	cc                   	int3   
  4152af:	cc                   	int3   
  4152b0:	cc                   	int3   
  4152b1:	cc                   	int3   
  4152b2:	cc                   	int3   
  4152b3:	cc                   	int3   
  4152b4:	cc                   	int3   
  4152b5:	cc                   	int3   
  4152b6:	cc                   	int3   
  4152b7:	cc                   	int3   
  4152b8:	cc                   	int3   
  4152b9:	cc                   	int3   
  4152ba:	cc                   	int3   
  4152bb:	cc                   	int3   
  4152bc:	cc                   	int3   
  4152bd:	cc                   	int3   
  4152be:	cc                   	int3   
  4152bf:	cc                   	int3   
  4152c0:	cc                   	int3   
  4152c1:	cc                   	int3   
  4152c2:	cc                   	int3   
  4152c3:	cc                   	int3   
  4152c4:	cc                   	int3   
  4152c5:	cc                   	int3   
  4152c6:	cc                   	int3   
  4152c7:	cc                   	int3   
  4152c8:	cc                   	int3   
  4152c9:	cc                   	int3   
  4152ca:	cc                   	int3   
  4152cb:	cc                   	int3   
  4152cc:	cc                   	int3   
  4152cd:	cc                   	int3   
  4152ce:	cc                   	int3   
  4152cf:	cc                   	int3   
  4152d0:	cc                   	int3   
  4152d1:	cc                   	int3   
  4152d2:	cc                   	int3   
  4152d3:	cc                   	int3   
  4152d4:	cc                   	int3   
  4152d5:	cc                   	int3   
  4152d6:	cc                   	int3   
  4152d7:	cc                   	int3   
  4152d8:	cc                   	int3   
  4152d9:	cc                   	int3   
  4152da:	cc                   	int3   
  4152db:	cc                   	int3   
  4152dc:	cc                   	int3   
  4152dd:	cc                   	int3   
  4152de:	cc                   	int3   
  4152df:	cc                   	int3   
  4152e0:	cc                   	int3   
  4152e1:	cc                   	int3   
  4152e2:	cc                   	int3   
  4152e3:	cc                   	int3   
  4152e4:	cc                   	int3   
  4152e5:	cc                   	int3   
  4152e6:	cc                   	int3   
  4152e7:	cc                   	int3   
  4152e8:	cc                   	int3   
  4152e9:	cc                   	int3   
  4152ea:	cc                   	int3   
  4152eb:	cc                   	int3   
  4152ec:	cc                   	int3   
  4152ed:	cc                   	int3   
  4152ee:	cc                   	int3   
  4152ef:	cc                   	int3   
  4152f0:	cc                   	int3   
  4152f1:	cc                   	int3   
  4152f2:	cc                   	int3   
  4152f3:	cc                   	int3   
  4152f4:	cc                   	int3   
  4152f5:	cc                   	int3   
  4152f6:	cc                   	int3   
  4152f7:	cc                   	int3   
  4152f8:	cc                   	int3   
  4152f9:	cc                   	int3   
  4152fa:	cc                   	int3   
  4152fb:	cc                   	int3   
  4152fc:	cc                   	int3   
  4152fd:	cc                   	int3   
  4152fe:	cc                   	int3   
  4152ff:	cc                   	int3   
  415300:	cc                   	int3   
  415301:	cc                   	int3   
  415302:	cc                   	int3   
  415303:	cc                   	int3   
  415304:	cc                   	int3   
  415305:	cc                   	int3   
  415306:	cc                   	int3   
  415307:	cc                   	int3   
  415308:	cc                   	int3   
  415309:	cc                   	int3   
  41530a:	cc                   	int3   
  41530b:	cc                   	int3   
  41530c:	cc                   	int3   
  41530d:	cc                   	int3   
  41530e:	cc                   	int3   
  41530f:	cc                   	int3   
  415310:	cc                   	int3   
  415311:	cc                   	int3   
  415312:	cc                   	int3   
  415313:	cc                   	int3   
  415314:	cc                   	int3   
  415315:	cc                   	int3   
  415316:	cc                   	int3   
  415317:	cc                   	int3   
  415318:	cc                   	int3   
  415319:	cc                   	int3   
  41531a:	cc                   	int3   
  41531b:	cc                   	int3   
  41531c:	cc                   	int3   
  41531d:	cc                   	int3   
  41531e:	cc                   	int3   
  41531f:	cc                   	int3   
  415320:	cc                   	int3   
  415321:	cc                   	int3   
  415322:	cc                   	int3   
  415323:	cc                   	int3   
  415324:	cc                   	int3   
  415325:	cc                   	int3   
  415326:	cc                   	int3   
  415327:	cc                   	int3   
  415328:	cc                   	int3   
  415329:	cc                   	int3   
  41532a:	cc                   	int3   
  41532b:	cc                   	int3   
  41532c:	cc                   	int3   
  41532d:	cc                   	int3   
  41532e:	cc                   	int3   
  41532f:	cc                   	int3   
  415330:	cc                   	int3   
  415331:	cc                   	int3   
  415332:	cc                   	int3   
  415333:	cc                   	int3   
  415334:	cc                   	int3   
  415335:	cc                   	int3   
  415336:	cc                   	int3   
  415337:	cc                   	int3   
  415338:	cc                   	int3   
  415339:	cc                   	int3   
  41533a:	cc                   	int3   
  41533b:	cc                   	int3   
  41533c:	cc                   	int3   
  41533d:	cc                   	int3   
  41533e:	cc                   	int3   
  41533f:	cc                   	int3   
  415340:	cc                   	int3   
  415341:	cc                   	int3   
  415342:	cc                   	int3   
  415343:	cc                   	int3   
  415344:	cc                   	int3   
  415345:	cc                   	int3   
  415346:	cc                   	int3   
  415347:	cc                   	int3   
  415348:	cc                   	int3   
  415349:	cc                   	int3   
  41534a:	cc                   	int3   
  41534b:	cc                   	int3   
  41534c:	cc                   	int3   
  41534d:	cc                   	int3   
  41534e:	cc                   	int3   
  41534f:	cc                   	int3   
  415350:	cc                   	int3   
  415351:	cc                   	int3   
  415352:	cc                   	int3   
  415353:	cc                   	int3   
  415354:	cc                   	int3   
  415355:	cc                   	int3   
  415356:	cc                   	int3   
  415357:	cc                   	int3   
  415358:	cc                   	int3   
  415359:	cc                   	int3   
  41535a:	cc                   	int3   
  41535b:	cc                   	int3   
  41535c:	cc                   	int3   
  41535d:	cc                   	int3   
  41535e:	cc                   	int3   
  41535f:	cc                   	int3   
  415360:	cc                   	int3   
  415361:	cc                   	int3   
  415362:	cc                   	int3   
  415363:	cc                   	int3   
  415364:	cc                   	int3   
  415365:	cc                   	int3   
  415366:	cc                   	int3   
  415367:	cc                   	int3   
  415368:	cc                   	int3   
  415369:	cc                   	int3   
  41536a:	cc                   	int3   
  41536b:	cc                   	int3   
  41536c:	cc                   	int3   
  41536d:	cc                   	int3   
  41536e:	cc                   	int3   
  41536f:	cc                   	int3   
  415370:	cc                   	int3   
  415371:	cc                   	int3   
  415372:	cc                   	int3   
  415373:	cc                   	int3   
  415374:	cc                   	int3   
  415375:	cc                   	int3   
  415376:	cc                   	int3   
  415377:	cc                   	int3   
  415378:	cc                   	int3   
  415379:	cc                   	int3   
  41537a:	cc                   	int3   
  41537b:	cc                   	int3   
  41537c:	cc                   	int3   
  41537d:	cc                   	int3   
  41537e:	cc                   	int3   
  41537f:	cc                   	int3   
  415380:	cc                   	int3   
  415381:	cc                   	int3   
  415382:	cc                   	int3   
  415383:	cc                   	int3   
  415384:	cc                   	int3   
  415385:	cc                   	int3   
  415386:	cc                   	int3   
  415387:	cc                   	int3   
  415388:	cc                   	int3   
  415389:	cc                   	int3   
  41538a:	cc                   	int3   
  41538b:	cc                   	int3   
  41538c:	cc                   	int3   
  41538d:	cc                   	int3   
  41538e:	cc                   	int3   
  41538f:	cc                   	int3   
  415390:	cc                   	int3   
  415391:	cc                   	int3   
  415392:	cc                   	int3   
  415393:	cc                   	int3   
  415394:	cc                   	int3   
  415395:	cc                   	int3   
  415396:	cc                   	int3   
  415397:	cc                   	int3   
  415398:	cc                   	int3   
  415399:	cc                   	int3   
  41539a:	cc                   	int3   
  41539b:	cc                   	int3   
  41539c:	cc                   	int3   
  41539d:	cc                   	int3   
  41539e:	cc                   	int3   
  41539f:	cc                   	int3   
  4153a0:	cc                   	int3   
  4153a1:	cc                   	int3   
  4153a2:	cc                   	int3   
  4153a3:	cc                   	int3   
  4153a4:	cc                   	int3   
  4153a5:	cc                   	int3   
  4153a6:	cc                   	int3   
  4153a7:	cc                   	int3   
  4153a8:	cc                   	int3   
  4153a9:	cc                   	int3   
  4153aa:	cc                   	int3   
  4153ab:	cc                   	int3   
  4153ac:	cc                   	int3   
  4153ad:	cc                   	int3   
  4153ae:	cc                   	int3   
  4153af:	cc                   	int3   
  4153b0:	cc                   	int3   
  4153b1:	cc                   	int3   
  4153b2:	cc                   	int3   
  4153b3:	cc                   	int3   
  4153b4:	cc                   	int3   
  4153b5:	cc                   	int3   
  4153b6:	cc                   	int3   
  4153b7:	cc                   	int3   
  4153b8:	cc                   	int3   
  4153b9:	cc                   	int3   
  4153ba:	cc                   	int3   
  4153bb:	cc                   	int3   
  4153bc:	cc                   	int3   
  4153bd:	cc                   	int3   
  4153be:	cc                   	int3   
  4153bf:	cc                   	int3   
  4153c0:	cc                   	int3   
  4153c1:	cc                   	int3   
  4153c2:	cc                   	int3   
  4153c3:	cc                   	int3   
  4153c4:	cc                   	int3   
  4153c5:	cc                   	int3   
  4153c6:	cc                   	int3   
  4153c7:	cc                   	int3   
  4153c8:	cc                   	int3   
  4153c9:	cc                   	int3   
  4153ca:	cc                   	int3   
  4153cb:	cc                   	int3   
  4153cc:	cc                   	int3   
  4153cd:	cc                   	int3   
  4153ce:	cc                   	int3   
  4153cf:	cc                   	int3   
  4153d0:	cc                   	int3   
  4153d1:	cc                   	int3   
  4153d2:	cc                   	int3   
  4153d3:	cc                   	int3   
  4153d4:	cc                   	int3   
  4153d5:	cc                   	int3   
  4153d6:	cc                   	int3   
  4153d7:	cc                   	int3   
  4153d8:	cc                   	int3   
  4153d9:	cc                   	int3   
  4153da:	cc                   	int3   
  4153db:	cc                   	int3   
  4153dc:	cc                   	int3   
  4153dd:	cc                   	int3   
  4153de:	cc                   	int3   
  4153df:	cc                   	int3   
  4153e0:	cc                   	int3   
  4153e1:	cc                   	int3   
  4153e2:	cc                   	int3   
  4153e3:	cc                   	int3   
  4153e4:	cc                   	int3   
  4153e5:	cc                   	int3   
  4153e6:	cc                   	int3   
  4153e7:	cc                   	int3   
  4153e8:	cc                   	int3   
  4153e9:	cc                   	int3   
  4153ea:	cc                   	int3   
  4153eb:	cc                   	int3   
  4153ec:	cc                   	int3   
  4153ed:	cc                   	int3   
  4153ee:	cc                   	int3   
  4153ef:	cc                   	int3   
  4153f0:	cc                   	int3   
  4153f1:	cc                   	int3   
  4153f2:	cc                   	int3   
  4153f3:	cc                   	int3   
  4153f4:	cc                   	int3   
  4153f5:	cc                   	int3   
  4153f6:	cc                   	int3   
  4153f7:	cc                   	int3   
  4153f8:	cc                   	int3   
  4153f9:	cc                   	int3   
  4153fa:	cc                   	int3   
  4153fb:	cc                   	int3   
  4153fc:	cc                   	int3   
  4153fd:	cc                   	int3   
  4153fe:	cc                   	int3   
  4153ff:	cc                   	int3   
  415400:	cc                   	int3   
  415401:	cc                   	int3   
  415402:	cc                   	int3   
  415403:	cc                   	int3   
  415404:	cc                   	int3   
  415405:	cc                   	int3   
  415406:	cc                   	int3   
  415407:	cc                   	int3   
  415408:	cc                   	int3   
  415409:	cc                   	int3   
  41540a:	cc                   	int3   
  41540b:	cc                   	int3   
  41540c:	cc                   	int3   
  41540d:	cc                   	int3   
  41540e:	cc                   	int3   
  41540f:	cc                   	int3   
  415410:	cc                   	int3   
  415411:	cc                   	int3   
  415412:	cc                   	int3   
  415413:	cc                   	int3   
  415414:	cc                   	int3   
  415415:	cc                   	int3   
  415416:	cc                   	int3   
  415417:	cc                   	int3   
  415418:	cc                   	int3   
  415419:	cc                   	int3   
  41541a:	cc                   	int3   
  41541b:	cc                   	int3   
  41541c:	cc                   	int3   
  41541d:	cc                   	int3   
  41541e:	cc                   	int3   
  41541f:	cc                   	int3   
  415420:	cc                   	int3   
  415421:	cc                   	int3   
  415422:	cc                   	int3   
  415423:	cc                   	int3   
  415424:	cc                   	int3   
  415425:	cc                   	int3   
  415426:	cc                   	int3   
  415427:	cc                   	int3   
  415428:	cc                   	int3   
  415429:	cc                   	int3   
  41542a:	cc                   	int3   
  41542b:	cc                   	int3   
  41542c:	cc                   	int3   
  41542d:	cc                   	int3   
  41542e:	cc                   	int3   
  41542f:	cc                   	int3   
  415430:	cc                   	int3   
  415431:	cc                   	int3   
  415432:	cc                   	int3   
  415433:	cc                   	int3   
  415434:	cc                   	int3   
  415435:	cc                   	int3   
  415436:	cc                   	int3   
  415437:	cc                   	int3   
  415438:	cc                   	int3   
  415439:	cc                   	int3   
  41543a:	cc                   	int3   
  41543b:	cc                   	int3   
  41543c:	cc                   	int3   
  41543d:	cc                   	int3   
  41543e:	cc                   	int3   
  41543f:	cc                   	int3   
  415440:	cc                   	int3   
  415441:	cc                   	int3   
  415442:	cc                   	int3   
  415443:	cc                   	int3   
  415444:	cc                   	int3   
  415445:	cc                   	int3   
  415446:	cc                   	int3   
  415447:	cc                   	int3   
  415448:	cc                   	int3   
  415449:	cc                   	int3   
  41544a:	cc                   	int3   
  41544b:	cc                   	int3   
  41544c:	cc                   	int3   
  41544d:	cc                   	int3   
  41544e:	cc                   	int3   
  41544f:	cc                   	int3   
  415450:	cc                   	int3   
  415451:	cc                   	int3   
  415452:	cc                   	int3   
  415453:	cc                   	int3   
  415454:	cc                   	int3   
  415455:	cc                   	int3   
  415456:	cc                   	int3   
  415457:	cc                   	int3   
  415458:	cc                   	int3   
  415459:	cc                   	int3   
  41545a:	cc                   	int3   
  41545b:	cc                   	int3   
  41545c:	cc                   	int3   
  41545d:	cc                   	int3   
  41545e:	cc                   	int3   
  41545f:	cc                   	int3   
  415460:	cc                   	int3   
  415461:	cc                   	int3   
  415462:	cc                   	int3   
  415463:	cc                   	int3   
  415464:	cc                   	int3   
  415465:	cc                   	int3   
  415466:	cc                   	int3   
  415467:	cc                   	int3   
  415468:	cc                   	int3   
  415469:	cc                   	int3   
  41546a:	cc                   	int3   
  41546b:	cc                   	int3   
  41546c:	cc                   	int3   
  41546d:	cc                   	int3   
  41546e:	cc                   	int3   
  41546f:	cc                   	int3   
  415470:	cc                   	int3   
  415471:	cc                   	int3   
  415472:	cc                   	int3   
  415473:	cc                   	int3   
  415474:	cc                   	int3   
  415475:	cc                   	int3   
  415476:	cc                   	int3   
  415477:	cc                   	int3   
  415478:	cc                   	int3   
  415479:	cc                   	int3   
  41547a:	cc                   	int3   
  41547b:	cc                   	int3   
  41547c:	cc                   	int3   
  41547d:	cc                   	int3   
  41547e:	cc                   	int3   
  41547f:	cc                   	int3   
  415480:	cc                   	int3   
  415481:	cc                   	int3   
  415482:	cc                   	int3   
  415483:	cc                   	int3   
  415484:	cc                   	int3   
  415485:	cc                   	int3   
  415486:	cc                   	int3   
  415487:	cc                   	int3   
  415488:	cc                   	int3   
  415489:	cc                   	int3   
  41548a:	cc                   	int3   
  41548b:	cc                   	int3   
  41548c:	cc                   	int3   
  41548d:	cc                   	int3   
  41548e:	cc                   	int3   
  41548f:	cc                   	int3   
  415490:	cc                   	int3   
  415491:	cc                   	int3   
  415492:	cc                   	int3   
  415493:	cc                   	int3   
  415494:	cc                   	int3   
  415495:	cc                   	int3   
  415496:	cc                   	int3   
  415497:	cc                   	int3   
  415498:	cc                   	int3   
  415499:	cc                   	int3   
  41549a:	cc                   	int3   
  41549b:	cc                   	int3   
  41549c:	cc                   	int3   
  41549d:	cc                   	int3   
  41549e:	cc                   	int3   
  41549f:	cc                   	int3   
  4154a0:	cc                   	int3   
  4154a1:	cc                   	int3   
  4154a2:	cc                   	int3   
  4154a3:	cc                   	int3   
  4154a4:	cc                   	int3   
  4154a5:	cc                   	int3   
  4154a6:	cc                   	int3   
  4154a7:	cc                   	int3   
  4154a8:	cc                   	int3   
  4154a9:	cc                   	int3   
  4154aa:	cc                   	int3   
  4154ab:	cc                   	int3   
  4154ac:	cc                   	int3   
  4154ad:	cc                   	int3   
  4154ae:	cc                   	int3   
  4154af:	cc                   	int3   
  4154b0:	cc                   	int3   
  4154b1:	cc                   	int3   
  4154b2:	cc                   	int3   
  4154b3:	cc                   	int3   
  4154b4:	cc                   	int3   
  4154b5:	cc                   	int3   
  4154b6:	cc                   	int3   
  4154b7:	cc                   	int3   
  4154b8:	cc                   	int3   
  4154b9:	cc                   	int3   
  4154ba:	cc                   	int3   
  4154bb:	cc                   	int3   
  4154bc:	cc                   	int3   
  4154bd:	cc                   	int3   
  4154be:	cc                   	int3   
  4154bf:	cc                   	int3   
  4154c0:	cc                   	int3   
  4154c1:	cc                   	int3   
  4154c2:	cc                   	int3   
  4154c3:	cc                   	int3   
  4154c4:	cc                   	int3   
  4154c5:	cc                   	int3   
  4154c6:	cc                   	int3   
  4154c7:	cc                   	int3   
  4154c8:	cc                   	int3   
  4154c9:	cc                   	int3   
  4154ca:	cc                   	int3   
  4154cb:	cc                   	int3   
  4154cc:	cc                   	int3   
  4154cd:	cc                   	int3   
  4154ce:	cc                   	int3   
  4154cf:	cc                   	int3   
  4154d0:	cc                   	int3   
  4154d1:	cc                   	int3   
  4154d2:	cc                   	int3   
  4154d3:	cc                   	int3   
  4154d4:	cc                   	int3   
  4154d5:	cc                   	int3   
  4154d6:	cc                   	int3   
  4154d7:	cc                   	int3   
  4154d8:	cc                   	int3   
  4154d9:	cc                   	int3   
  4154da:	cc                   	int3   
  4154db:	cc                   	int3   
  4154dc:	cc                   	int3   
  4154dd:	cc                   	int3   
  4154de:	cc                   	int3   
  4154df:	cc                   	int3   
  4154e0:	cc                   	int3   
  4154e1:	cc                   	int3   
  4154e2:	cc                   	int3   
  4154e3:	cc                   	int3   
  4154e4:	cc                   	int3   
  4154e5:	cc                   	int3   
  4154e6:	cc                   	int3   
  4154e7:	cc                   	int3   
  4154e8:	cc                   	int3   
  4154e9:	cc                   	int3   
  4154ea:	cc                   	int3   
  4154eb:	cc                   	int3   
  4154ec:	cc                   	int3   
  4154ed:	cc                   	int3   
  4154ee:	cc                   	int3   
  4154ef:	cc                   	int3   
  4154f0:	cc                   	int3   
  4154f1:	cc                   	int3   
  4154f2:	cc                   	int3   
  4154f3:	cc                   	int3   
  4154f4:	cc                   	int3   
  4154f5:	cc                   	int3   
  4154f6:	cc                   	int3   
  4154f7:	cc                   	int3   
  4154f8:	cc                   	int3   
  4154f9:	cc                   	int3   
  4154fa:	cc                   	int3   
  4154fb:	cc                   	int3   
  4154fc:	cc                   	int3   
  4154fd:	cc                   	int3   
  4154fe:	cc                   	int3   
  4154ff:	cc                   	int3   
  415500:	cc                   	int3   
  415501:	cc                   	int3   
  415502:	cc                   	int3   
  415503:	cc                   	int3   
  415504:	cc                   	int3   
  415505:	cc                   	int3   
  415506:	cc                   	int3   
  415507:	cc                   	int3   
  415508:	cc                   	int3   
  415509:	cc                   	int3   
  41550a:	cc                   	int3   
  41550b:	cc                   	int3   
  41550c:	cc                   	int3   
  41550d:	cc                   	int3   
  41550e:	cc                   	int3   
  41550f:	cc                   	int3   
  415510:	cc                   	int3   
  415511:	cc                   	int3   
  415512:	cc                   	int3   
  415513:	cc                   	int3   
  415514:	cc                   	int3   
  415515:	cc                   	int3   
  415516:	cc                   	int3   
  415517:	cc                   	int3   
  415518:	cc                   	int3   
  415519:	cc                   	int3   
  41551a:	cc                   	int3   
  41551b:	cc                   	int3   
  41551c:	cc                   	int3   
  41551d:	cc                   	int3   
  41551e:	cc                   	int3   
  41551f:	cc                   	int3   
  415520:	cc                   	int3   
  415521:	cc                   	int3   
  415522:	cc                   	int3   
  415523:	cc                   	int3   
  415524:	cc                   	int3   
  415525:	cc                   	int3   
  415526:	cc                   	int3   
  415527:	cc                   	int3   
  415528:	cc                   	int3   
  415529:	cc                   	int3   
  41552a:	cc                   	int3   
  41552b:	cc                   	int3   
  41552c:	cc                   	int3   
  41552d:	cc                   	int3   
  41552e:	cc                   	int3   
  41552f:	cc                   	int3   
  415530:	cc                   	int3   
  415531:	cc                   	int3   
  415532:	cc                   	int3   
  415533:	cc                   	int3   
  415534:	cc                   	int3   
  415535:	cc                   	int3   
  415536:	cc                   	int3   
  415537:	cc                   	int3   
  415538:	cc                   	int3   
  415539:	cc                   	int3   
  41553a:	cc                   	int3   
  41553b:	cc                   	int3   
  41553c:	cc                   	int3   
  41553d:	cc                   	int3   
  41553e:	cc                   	int3   
  41553f:	cc                   	int3   
  415540:	cc                   	int3   
  415541:	cc                   	int3   
  415542:	cc                   	int3   
  415543:	cc                   	int3   
  415544:	cc                   	int3   
  415545:	cc                   	int3   
  415546:	cc                   	int3   
  415547:	cc                   	int3   
  415548:	cc                   	int3   
  415549:	cc                   	int3   
  41554a:	cc                   	int3   
  41554b:	cc                   	int3   
  41554c:	cc                   	int3   
  41554d:	cc                   	int3   
  41554e:	cc                   	int3   
  41554f:	cc                   	int3   
  415550:	cc                   	int3   
  415551:	cc                   	int3   
  415552:	cc                   	int3   
  415553:	cc                   	int3   
  415554:	cc                   	int3   
  415555:	cc                   	int3   
  415556:	cc                   	int3   
  415557:	cc                   	int3   
  415558:	cc                   	int3   
  415559:	cc                   	int3   
  41555a:	cc                   	int3   
  41555b:	cc                   	int3   
  41555c:	cc                   	int3   
  41555d:	cc                   	int3   
  41555e:	cc                   	int3   
  41555f:	cc                   	int3   
  415560:	cc                   	int3   
  415561:	cc                   	int3   
  415562:	cc                   	int3   
  415563:	cc                   	int3   
  415564:	cc                   	int3   
  415565:	cc                   	int3   
  415566:	cc                   	int3   
  415567:	cc                   	int3   
  415568:	cc                   	int3   
  415569:	cc                   	int3   
  41556a:	cc                   	int3   
  41556b:	cc                   	int3   
  41556c:	cc                   	int3   
  41556d:	cc                   	int3   
  41556e:	cc                   	int3   
  41556f:	cc                   	int3   
  415570:	cc                   	int3   
  415571:	cc                   	int3   
  415572:	cc                   	int3   
  415573:	cc                   	int3   
  415574:	cc                   	int3   
  415575:	cc                   	int3   
  415576:	cc                   	int3   
  415577:	cc                   	int3   
  415578:	cc                   	int3   
  415579:	cc                   	int3   
  41557a:	cc                   	int3   
  41557b:	cc                   	int3   
  41557c:	cc                   	int3   
  41557d:	cc                   	int3   
  41557e:	cc                   	int3   
  41557f:	cc                   	int3   
  415580:	cc                   	int3   
  415581:	cc                   	int3   
  415582:	cc                   	int3   
  415583:	cc                   	int3   
  415584:	cc                   	int3   
  415585:	cc                   	int3   
  415586:	cc                   	int3   
  415587:	cc                   	int3   
  415588:	cc                   	int3   
  415589:	cc                   	int3   
  41558a:	cc                   	int3   
  41558b:	cc                   	int3   
  41558c:	cc                   	int3   
  41558d:	cc                   	int3   
  41558e:	cc                   	int3   
  41558f:	cc                   	int3   
  415590:	cc                   	int3   
  415591:	cc                   	int3   
  415592:	cc                   	int3   
  415593:	cc                   	int3   
  415594:	cc                   	int3   
  415595:	cc                   	int3   
  415596:	cc                   	int3   
  415597:	cc                   	int3   
  415598:	cc                   	int3   
  415599:	cc                   	int3   
  41559a:	cc                   	int3   
  41559b:	cc                   	int3   
  41559c:	cc                   	int3   
  41559d:	cc                   	int3   
  41559e:	cc                   	int3   
  41559f:	cc                   	int3   
  4155a0:	cc                   	int3   
  4155a1:	cc                   	int3   
  4155a2:	cc                   	int3   
  4155a3:	cc                   	int3   
  4155a4:	cc                   	int3   
  4155a5:	cc                   	int3   
  4155a6:	cc                   	int3   
  4155a7:	cc                   	int3   
  4155a8:	cc                   	int3   
  4155a9:	cc                   	int3   
  4155aa:	cc                   	int3   
  4155ab:	cc                   	int3   
  4155ac:	cc                   	int3   
  4155ad:	cc                   	int3   
  4155ae:	cc                   	int3   
  4155af:	cc                   	int3   
  4155b0:	cc                   	int3   
  4155b1:	cc                   	int3   
  4155b2:	cc                   	int3   
  4155b3:	cc                   	int3   
  4155b4:	cc                   	int3   
  4155b5:	cc                   	int3   
  4155b6:	cc                   	int3   
  4155b7:	cc                   	int3   
  4155b8:	cc                   	int3   
  4155b9:	cc                   	int3   
  4155ba:	cc                   	int3   
  4155bb:	cc                   	int3   
  4155bc:	cc                   	int3   
  4155bd:	cc                   	int3   
  4155be:	cc                   	int3   
  4155bf:	cc                   	int3   
  4155c0:	cc                   	int3   
  4155c1:	cc                   	int3   
  4155c2:	cc                   	int3   
  4155c3:	cc                   	int3   
  4155c4:	cc                   	int3   
  4155c5:	cc                   	int3   
  4155c6:	cc                   	int3   
  4155c7:	cc                   	int3   
  4155c8:	cc                   	int3   
  4155c9:	cc                   	int3   
  4155ca:	cc                   	int3   
  4155cb:	cc                   	int3   
  4155cc:	cc                   	int3   
  4155cd:	cc                   	int3   
  4155ce:	cc                   	int3   
  4155cf:	cc                   	int3   
  4155d0:	cc                   	int3   
  4155d1:	cc                   	int3   
  4155d2:	cc                   	int3   
  4155d3:	cc                   	int3   
  4155d4:	cc                   	int3   
  4155d5:	cc                   	int3   
  4155d6:	cc                   	int3   
  4155d7:	cc                   	int3   
  4155d8:	cc                   	int3   
  4155d9:	cc                   	int3   
  4155da:	cc                   	int3   
  4155db:	cc                   	int3   
  4155dc:	cc                   	int3   
  4155dd:	cc                   	int3   
  4155de:	cc                   	int3   
  4155df:	cc                   	int3   
  4155e0:	cc                   	int3   
  4155e1:	cc                   	int3   
  4155e2:	cc                   	int3   
  4155e3:	cc                   	int3   
  4155e4:	cc                   	int3   
  4155e5:	cc                   	int3   
  4155e6:	cc                   	int3   
  4155e7:	cc                   	int3   
  4155e8:	cc                   	int3   
  4155e9:	cc                   	int3   
  4155ea:	cc                   	int3   
  4155eb:	cc                   	int3   
  4155ec:	cc                   	int3   
  4155ed:	cc                   	int3   
  4155ee:	cc                   	int3   
  4155ef:	cc                   	int3   
  4155f0:	cc                   	int3   
  4155f1:	cc                   	int3   
  4155f2:	cc                   	int3   
  4155f3:	cc                   	int3   
  4155f4:	cc                   	int3   
  4155f5:	cc                   	int3   
  4155f6:	cc                   	int3   
  4155f7:	cc                   	int3   
  4155f8:	cc                   	int3   
  4155f9:	cc                   	int3   
  4155fa:	cc                   	int3   
  4155fb:	cc                   	int3   
  4155fc:	cc                   	int3   
  4155fd:	cc                   	int3   
  4155fe:	cc                   	int3   
  4155ff:	cc                   	int3   
  415600:	cc                   	int3   
  415601:	cc                   	int3   
  415602:	cc                   	int3   
  415603:	cc                   	int3   
  415604:	cc                   	int3   
  415605:	cc                   	int3   
  415606:	cc                   	int3   
  415607:	cc                   	int3   
  415608:	cc                   	int3   
  415609:	cc                   	int3   
  41560a:	cc                   	int3   
  41560b:	cc                   	int3   
  41560c:	cc                   	int3   
  41560d:	cc                   	int3   
  41560e:	cc                   	int3   
  41560f:	cc                   	int3   
  415610:	cc                   	int3   
  415611:	cc                   	int3   
  415612:	cc                   	int3   
  415613:	cc                   	int3   
  415614:	cc                   	int3   
  415615:	cc                   	int3   
  415616:	cc                   	int3   
  415617:	cc                   	int3   
  415618:	cc                   	int3   
  415619:	cc                   	int3   
  41561a:	cc                   	int3   
  41561b:	cc                   	int3   
  41561c:	cc                   	int3   
  41561d:	cc                   	int3   
  41561e:	cc                   	int3   
  41561f:	cc                   	int3   
  415620:	cc                   	int3   
  415621:	cc                   	int3   
  415622:	cc                   	int3   
  415623:	cc                   	int3   
  415624:	cc                   	int3   
  415625:	cc                   	int3   
  415626:	cc                   	int3   
  415627:	cc                   	int3   
  415628:	cc                   	int3   
  415629:	cc                   	int3   
  41562a:	cc                   	int3   
  41562b:	cc                   	int3   
  41562c:	cc                   	int3   
  41562d:	cc                   	int3   
  41562e:	cc                   	int3   
  41562f:	cc                   	int3   
  415630:	cc                   	int3   
  415631:	cc                   	int3   
  415632:	cc                   	int3   
  415633:	cc                   	int3   
  415634:	cc                   	int3   
  415635:	cc                   	int3   
  415636:	cc                   	int3   
  415637:	cc                   	int3   
  415638:	cc                   	int3   
  415639:	cc                   	int3   
  41563a:	cc                   	int3   
  41563b:	cc                   	int3   
  41563c:	cc                   	int3   
  41563d:	cc                   	int3   
  41563e:	cc                   	int3   
  41563f:	cc                   	int3   
  415640:	cc                   	int3   
  415641:	cc                   	int3   
  415642:	cc                   	int3   
  415643:	cc                   	int3   
  415644:	cc                   	int3   
  415645:	cc                   	int3   
  415646:	cc                   	int3   
  415647:	cc                   	int3   
  415648:	cc                   	int3   
  415649:	cc                   	int3   
  41564a:	cc                   	int3   
  41564b:	cc                   	int3   
  41564c:	cc                   	int3   
  41564d:	cc                   	int3   
  41564e:	cc                   	int3   
  41564f:	cc                   	int3   
  415650:	cc                   	int3   
  415651:	cc                   	int3   
  415652:	cc                   	int3   
  415653:	cc                   	int3   
  415654:	cc                   	int3   
  415655:	cc                   	int3   
  415656:	cc                   	int3   
  415657:	cc                   	int3   
  415658:	cc                   	int3   
  415659:	cc                   	int3   
  41565a:	cc                   	int3   
  41565b:	cc                   	int3   
  41565c:	cc                   	int3   
  41565d:	cc                   	int3   
  41565e:	cc                   	int3   
  41565f:	cc                   	int3   
  415660:	cc                   	int3   
  415661:	cc                   	int3   
  415662:	cc                   	int3   
  415663:	cc                   	int3   
  415664:	cc                   	int3   
  415665:	cc                   	int3   
  415666:	cc                   	int3   
  415667:	cc                   	int3   
  415668:	cc                   	int3   
  415669:	cc                   	int3   
  41566a:	cc                   	int3   
  41566b:	cc                   	int3   
  41566c:	cc                   	int3   
  41566d:	cc                   	int3   
  41566e:	cc                   	int3   
  41566f:	cc                   	int3   
  415670:	cc                   	int3   
  415671:	cc                   	int3   
  415672:	cc                   	int3   
  415673:	cc                   	int3   
  415674:	cc                   	int3   
  415675:	cc                   	int3   
  415676:	cc                   	int3   
  415677:	cc                   	int3   
  415678:	cc                   	int3   
  415679:	cc                   	int3   
  41567a:	cc                   	int3   
  41567b:	cc                   	int3   
  41567c:	cc                   	int3   
  41567d:	cc                   	int3   
  41567e:	cc                   	int3   
  41567f:	cc                   	int3   
  415680:	cc                   	int3   
  415681:	cc                   	int3   
  415682:	cc                   	int3   
  415683:	cc                   	int3   
  415684:	cc                   	int3   
  415685:	cc                   	int3   
  415686:	cc                   	int3   
  415687:	cc                   	int3   
  415688:	cc                   	int3   
  415689:	cc                   	int3   
  41568a:	cc                   	int3   
  41568b:	cc                   	int3   
  41568c:	cc                   	int3   
  41568d:	cc                   	int3   
  41568e:	cc                   	int3   
  41568f:	cc                   	int3   
  415690:	cc                   	int3   
  415691:	cc                   	int3   
  415692:	cc                   	int3   
  415693:	cc                   	int3   
  415694:	cc                   	int3   
  415695:	cc                   	int3   
  415696:	cc                   	int3   
  415697:	cc                   	int3   
  415698:	cc                   	int3   
  415699:	cc                   	int3   
  41569a:	cc                   	int3   
  41569b:	cc                   	int3   
  41569c:	cc                   	int3   
  41569d:	cc                   	int3   
  41569e:	cc                   	int3   
  41569f:	cc                   	int3   
  4156a0:	cc                   	int3   
  4156a1:	cc                   	int3   
  4156a2:	cc                   	int3   
  4156a3:	cc                   	int3   
  4156a4:	cc                   	int3   
  4156a5:	cc                   	int3   
  4156a6:	cc                   	int3   
  4156a7:	cc                   	int3   
  4156a8:	cc                   	int3   
  4156a9:	cc                   	int3   
  4156aa:	cc                   	int3   
  4156ab:	cc                   	int3   
  4156ac:	cc                   	int3   
  4156ad:	cc                   	int3   
  4156ae:	cc                   	int3   
  4156af:	cc                   	int3   
  4156b0:	cc                   	int3   
  4156b1:	cc                   	int3   
  4156b2:	cc                   	int3   
  4156b3:	cc                   	int3   
  4156b4:	cc                   	int3   
  4156b5:	cc                   	int3   
  4156b6:	cc                   	int3   
  4156b7:	cc                   	int3   
  4156b8:	cc                   	int3   
  4156b9:	cc                   	int3   
  4156ba:	cc                   	int3   
  4156bb:	cc                   	int3   
  4156bc:	cc                   	int3   
  4156bd:	cc                   	int3   
  4156be:	cc                   	int3   
  4156bf:	cc                   	int3   
  4156c0:	cc                   	int3   
  4156c1:	cc                   	int3   
  4156c2:	cc                   	int3   
  4156c3:	cc                   	int3   
  4156c4:	cc                   	int3   
  4156c5:	cc                   	int3   
  4156c6:	cc                   	int3   
  4156c7:	cc                   	int3   
  4156c8:	cc                   	int3   
  4156c9:	cc                   	int3   
  4156ca:	cc                   	int3   
  4156cb:	cc                   	int3   
  4156cc:	cc                   	int3   
  4156cd:	cc                   	int3   
  4156ce:	cc                   	int3   
  4156cf:	cc                   	int3   
  4156d0:	cc                   	int3   
  4156d1:	cc                   	int3   
  4156d2:	cc                   	int3   
  4156d3:	cc                   	int3   
  4156d4:	cc                   	int3   
  4156d5:	cc                   	int3   
  4156d6:	cc                   	int3   
  4156d7:	cc                   	int3   
  4156d8:	cc                   	int3   
  4156d9:	cc                   	int3   
  4156da:	cc                   	int3   
  4156db:	cc                   	int3   
  4156dc:	cc                   	int3   
  4156dd:	cc                   	int3   
  4156de:	cc                   	int3   
  4156df:	cc                   	int3   
  4156e0:	cc                   	int3   
  4156e1:	cc                   	int3   
  4156e2:	cc                   	int3   
  4156e3:	cc                   	int3   
  4156e4:	cc                   	int3   
  4156e5:	cc                   	int3   
  4156e6:	cc                   	int3   
  4156e7:	cc                   	int3   
  4156e8:	cc                   	int3   
  4156e9:	cc                   	int3   
  4156ea:	cc                   	int3   
  4156eb:	cc                   	int3   
  4156ec:	cc                   	int3   
  4156ed:	cc                   	int3   
  4156ee:	cc                   	int3   
  4156ef:	cc                   	int3   
  4156f0:	cc                   	int3   
  4156f1:	cc                   	int3   
  4156f2:	cc                   	int3   
  4156f3:	cc                   	int3   
  4156f4:	cc                   	int3   
  4156f5:	cc                   	int3   
  4156f6:	cc                   	int3   
  4156f7:	cc                   	int3   
  4156f8:	cc                   	int3   
  4156f9:	cc                   	int3   
  4156fa:	cc                   	int3   
  4156fb:	cc                   	int3   
  4156fc:	cc                   	int3   
  4156fd:	cc                   	int3   
  4156fe:	cc                   	int3   
  4156ff:	cc                   	int3   
  415700:	cc                   	int3   
  415701:	cc                   	int3   
  415702:	cc                   	int3   
  415703:	cc                   	int3   
  415704:	cc                   	int3   
  415705:	cc                   	int3   
  415706:	cc                   	int3   
  415707:	cc                   	int3   
  415708:	cc                   	int3   
  415709:	cc                   	int3   
  41570a:	cc                   	int3   
  41570b:	cc                   	int3   
  41570c:	cc                   	int3   
  41570d:	cc                   	int3   
  41570e:	cc                   	int3   
  41570f:	cc                   	int3   
  415710:	cc                   	int3   
  415711:	cc                   	int3   
  415712:	cc                   	int3   
  415713:	cc                   	int3   
  415714:	cc                   	int3   
  415715:	cc                   	int3   
  415716:	cc                   	int3   
  415717:	cc                   	int3   
  415718:	cc                   	int3   
  415719:	cc                   	int3   
  41571a:	cc                   	int3   
  41571b:	cc                   	int3   
  41571c:	cc                   	int3   
  41571d:	cc                   	int3   
  41571e:	cc                   	int3   
  41571f:	cc                   	int3   
  415720:	cc                   	int3   
  415721:	cc                   	int3   
  415722:	cc                   	int3   
  415723:	cc                   	int3   
  415724:	cc                   	int3   
  415725:	cc                   	int3   
  415726:	cc                   	int3   
  415727:	cc                   	int3   
  415728:	cc                   	int3   
  415729:	cc                   	int3   
  41572a:	cc                   	int3   
  41572b:	cc                   	int3   
  41572c:	cc                   	int3   
  41572d:	cc                   	int3   
  41572e:	cc                   	int3   
  41572f:	cc                   	int3   
  415730:	cc                   	int3   
  415731:	cc                   	int3   
  415732:	cc                   	int3   
  415733:	cc                   	int3   
  415734:	cc                   	int3   
  415735:	cc                   	int3   
  415736:	cc                   	int3   
  415737:	cc                   	int3   
  415738:	cc                   	int3   
  415739:	cc                   	int3   
  41573a:	cc                   	int3   
  41573b:	cc                   	int3   
  41573c:	cc                   	int3   
  41573d:	cc                   	int3   
  41573e:	cc                   	int3   
  41573f:	cc                   	int3   
  415740:	cc                   	int3   
  415741:	cc                   	int3   
  415742:	cc                   	int3   
  415743:	cc                   	int3   
  415744:	cc                   	int3   
  415745:	cc                   	int3   
  415746:	cc                   	int3   
  415747:	cc                   	int3   
  415748:	cc                   	int3   
  415749:	cc                   	int3   
  41574a:	cc                   	int3   
  41574b:	cc                   	int3   
  41574c:	cc                   	int3   
  41574d:	cc                   	int3   
  41574e:	cc                   	int3   
  41574f:	cc                   	int3   
  415750:	cc                   	int3   
  415751:	cc                   	int3   
  415752:	cc                   	int3   
  415753:	cc                   	int3   
  415754:	cc                   	int3   
  415755:	cc                   	int3   
  415756:	cc                   	int3   
  415757:	cc                   	int3   
  415758:	cc                   	int3   
  415759:	cc                   	int3   
  41575a:	cc                   	int3   
  41575b:	cc                   	int3   
  41575c:	cc                   	int3   
  41575d:	cc                   	int3   
  41575e:	cc                   	int3   
  41575f:	cc                   	int3   
  415760:	cc                   	int3   
  415761:	cc                   	int3   
  415762:	cc                   	int3   
  415763:	cc                   	int3   
  415764:	cc                   	int3   
  415765:	cc                   	int3   
  415766:	cc                   	int3   
  415767:	cc                   	int3   
  415768:	cc                   	int3   
  415769:	cc                   	int3   
  41576a:	cc                   	int3   
  41576b:	cc                   	int3   
  41576c:	cc                   	int3   
  41576d:	cc                   	int3   
  41576e:	cc                   	int3   
  41576f:	cc                   	int3   
  415770:	cc                   	int3   
  415771:	cc                   	int3   
  415772:	cc                   	int3   
  415773:	cc                   	int3   
  415774:	cc                   	int3   
  415775:	cc                   	int3   
  415776:	cc                   	int3   
  415777:	cc                   	int3   
  415778:	cc                   	int3   
  415779:	cc                   	int3   
  41577a:	cc                   	int3   
  41577b:	cc                   	int3   
  41577c:	cc                   	int3   
  41577d:	cc                   	int3   
  41577e:	cc                   	int3   
  41577f:	cc                   	int3   
  415780:	cc                   	int3   
  415781:	cc                   	int3   
  415782:	cc                   	int3   
  415783:	cc                   	int3   
  415784:	cc                   	int3   
  415785:	cc                   	int3   
  415786:	cc                   	int3   
  415787:	cc                   	int3   
  415788:	cc                   	int3   
  415789:	cc                   	int3   
  41578a:	cc                   	int3   
  41578b:	cc                   	int3   
  41578c:	cc                   	int3   
  41578d:	cc                   	int3   
  41578e:	cc                   	int3   
  41578f:	cc                   	int3   
  415790:	cc                   	int3   
  415791:	cc                   	int3   
  415792:	cc                   	int3   
  415793:	cc                   	int3   
  415794:	cc                   	int3   
  415795:	cc                   	int3   
  415796:	cc                   	int3   
  415797:	cc                   	int3   
  415798:	cc                   	int3   
  415799:	cc                   	int3   
  41579a:	cc                   	int3   
  41579b:	cc                   	int3   
  41579c:	cc                   	int3   
  41579d:	cc                   	int3   
  41579e:	cc                   	int3   
  41579f:	cc                   	int3   
  4157a0:	cc                   	int3   
  4157a1:	cc                   	int3   
  4157a2:	cc                   	int3   
  4157a3:	cc                   	int3   
  4157a4:	cc                   	int3   
  4157a5:	cc                   	int3   
  4157a6:	cc                   	int3   
  4157a7:	cc                   	int3   
  4157a8:	cc                   	int3   
  4157a9:	cc                   	int3   
  4157aa:	cc                   	int3   
  4157ab:	cc                   	int3   
  4157ac:	cc                   	int3   
  4157ad:	cc                   	int3   
  4157ae:	cc                   	int3   
  4157af:	cc                   	int3   
  4157b0:	cc                   	int3   
  4157b1:	cc                   	int3   
  4157b2:	cc                   	int3   
  4157b3:	cc                   	int3   
  4157b4:	cc                   	int3   
  4157b5:	cc                   	int3   
  4157b6:	cc                   	int3   
  4157b7:	cc                   	int3   
  4157b8:	cc                   	int3   
  4157b9:	cc                   	int3   
  4157ba:	cc                   	int3   
  4157bb:	cc                   	int3   
  4157bc:	cc                   	int3   
  4157bd:	cc                   	int3   
  4157be:	cc                   	int3   
  4157bf:	cc                   	int3   
  4157c0:	cc                   	int3   
  4157c1:	cc                   	int3   
  4157c2:	cc                   	int3   
  4157c3:	cc                   	int3   
  4157c4:	cc                   	int3   
  4157c5:	cc                   	int3   
  4157c6:	cc                   	int3   
  4157c7:	cc                   	int3   
  4157c8:	cc                   	int3   
  4157c9:	cc                   	int3   
  4157ca:	cc                   	int3   
  4157cb:	cc                   	int3   
  4157cc:	cc                   	int3   
  4157cd:	cc                   	int3   
  4157ce:	cc                   	int3   
  4157cf:	cc                   	int3   
  4157d0:	cc                   	int3   
  4157d1:	cc                   	int3   
  4157d2:	cc                   	int3   
  4157d3:	cc                   	int3   
  4157d4:	cc                   	int3   
  4157d5:	cc                   	int3   
  4157d6:	cc                   	int3   
  4157d7:	cc                   	int3   
  4157d8:	cc                   	int3   
  4157d9:	cc                   	int3   
  4157da:	cc                   	int3   
  4157db:	cc                   	int3   
  4157dc:	cc                   	int3   
  4157dd:	cc                   	int3   
  4157de:	cc                   	int3   
  4157df:	cc                   	int3   
  4157e0:	cc                   	int3   
  4157e1:	cc                   	int3   
  4157e2:	cc                   	int3   
  4157e3:	cc                   	int3   
  4157e4:	cc                   	int3   
  4157e5:	cc                   	int3   
  4157e6:	cc                   	int3   
  4157e7:	cc                   	int3   
  4157e8:	cc                   	int3   
  4157e9:	cc                   	int3   
  4157ea:	cc                   	int3   
  4157eb:	cc                   	int3   
  4157ec:	cc                   	int3   
  4157ed:	cc                   	int3   
  4157ee:	cc                   	int3   
  4157ef:	cc                   	int3   
  4157f0:	cc                   	int3   
  4157f1:	cc                   	int3   
  4157f2:	cc                   	int3   
  4157f3:	cc                   	int3   
  4157f4:	cc                   	int3   
  4157f5:	cc                   	int3   
  4157f6:	cc                   	int3   
  4157f7:	cc                   	int3   
  4157f8:	cc                   	int3   
  4157f9:	cc                   	int3   
  4157fa:	cc                   	int3   
  4157fb:	cc                   	int3   
  4157fc:	cc                   	int3   
  4157fd:	cc                   	int3   
  4157fe:	cc                   	int3   
  4157ff:	cc                   	int3   
  415800:	cc                   	int3   
  415801:	cc                   	int3   
  415802:	cc                   	int3   
  415803:	cc                   	int3   
  415804:	cc                   	int3   
  415805:	cc                   	int3   
  415806:	cc                   	int3   
  415807:	cc                   	int3   
  415808:	cc                   	int3   
  415809:	cc                   	int3   
  41580a:	cc                   	int3   
  41580b:	cc                   	int3   
  41580c:	cc                   	int3   
  41580d:	cc                   	int3   
  41580e:	cc                   	int3   
  41580f:	cc                   	int3   
  415810:	cc                   	int3   
  415811:	cc                   	int3   
  415812:	cc                   	int3   
  415813:	cc                   	int3   
  415814:	cc                   	int3   
  415815:	cc                   	int3   
  415816:	cc                   	int3   
  415817:	cc                   	int3   
  415818:	cc                   	int3   
  415819:	cc                   	int3   
  41581a:	cc                   	int3   
  41581b:	cc                   	int3   
  41581c:	cc                   	int3   
  41581d:	cc                   	int3   
  41581e:	cc                   	int3   
  41581f:	cc                   	int3   
  415820:	cc                   	int3   
  415821:	cc                   	int3   
  415822:	cc                   	int3   
  415823:	cc                   	int3   
  415824:	cc                   	int3   
  415825:	cc                   	int3   
  415826:	cc                   	int3   
  415827:	cc                   	int3   
  415828:	cc                   	int3   
  415829:	cc                   	int3   
  41582a:	cc                   	int3   
  41582b:	cc                   	int3   
  41582c:	cc                   	int3   
  41582d:	cc                   	int3   
  41582e:	cc                   	int3   
  41582f:	cc                   	int3   
  415830:	cc                   	int3   
  415831:	cc                   	int3   
  415832:	cc                   	int3   
  415833:	cc                   	int3   
  415834:	cc                   	int3   
  415835:	cc                   	int3   
  415836:	cc                   	int3   
  415837:	cc                   	int3   
  415838:	cc                   	int3   
  415839:	cc                   	int3   
  41583a:	cc                   	int3   
  41583b:	cc                   	int3   
  41583c:	cc                   	int3   
  41583d:	cc                   	int3   
  41583e:	cc                   	int3   
  41583f:	cc                   	int3   
  415840:	cc                   	int3   
  415841:	cc                   	int3   
  415842:	cc                   	int3   
  415843:	cc                   	int3   
  415844:	cc                   	int3   
  415845:	cc                   	int3   
  415846:	cc                   	int3   
  415847:	cc                   	int3   
  415848:	cc                   	int3   
  415849:	cc                   	int3   
  41584a:	cc                   	int3   
  41584b:	cc                   	int3   
  41584c:	cc                   	int3   
  41584d:	cc                   	int3   
  41584e:	cc                   	int3   
  41584f:	cc                   	int3   
  415850:	cc                   	int3   
  415851:	cc                   	int3   
  415852:	cc                   	int3   
  415853:	cc                   	int3   
  415854:	cc                   	int3   
  415855:	cc                   	int3   
  415856:	cc                   	int3   
  415857:	cc                   	int3   
  415858:	cc                   	int3   
  415859:	cc                   	int3   
  41585a:	cc                   	int3   
  41585b:	cc                   	int3   
  41585c:	cc                   	int3   
  41585d:	cc                   	int3   
  41585e:	cc                   	int3   
  41585f:	cc                   	int3   
  415860:	cc                   	int3   
  415861:	cc                   	int3   
  415862:	cc                   	int3   
  415863:	cc                   	int3   
  415864:	cc                   	int3   
  415865:	cc                   	int3   
  415866:	cc                   	int3   
  415867:	cc                   	int3   
  415868:	cc                   	int3   
  415869:	cc                   	int3   
  41586a:	cc                   	int3   
  41586b:	cc                   	int3   
  41586c:	cc                   	int3   
  41586d:	cc                   	int3   
  41586e:	cc                   	int3   
  41586f:	cc                   	int3   
  415870:	cc                   	int3   
  415871:	cc                   	int3   
  415872:	cc                   	int3   
  415873:	cc                   	int3   
  415874:	cc                   	int3   
  415875:	cc                   	int3   
  415876:	cc                   	int3   
  415877:	cc                   	int3   
  415878:	cc                   	int3   
  415879:	cc                   	int3   
  41587a:	cc                   	int3   
  41587b:	cc                   	int3   
  41587c:	cc                   	int3   
  41587d:	cc                   	int3   
  41587e:	cc                   	int3   
  41587f:	cc                   	int3   
  415880:	cc                   	int3   
  415881:	cc                   	int3   
  415882:	cc                   	int3   
  415883:	cc                   	int3   
  415884:	cc                   	int3   
  415885:	cc                   	int3   
  415886:	cc                   	int3   
  415887:	cc                   	int3   
  415888:	cc                   	int3   
  415889:	cc                   	int3   
  41588a:	cc                   	int3   
  41588b:	cc                   	int3   
  41588c:	cc                   	int3   
  41588d:	cc                   	int3   
  41588e:	cc                   	int3   
  41588f:	cc                   	int3   
  415890:	cc                   	int3   
  415891:	cc                   	int3   
  415892:	cc                   	int3   
  415893:	cc                   	int3   
  415894:	cc                   	int3   
  415895:	cc                   	int3   
  415896:	cc                   	int3   
  415897:	cc                   	int3   
  415898:	cc                   	int3   
  415899:	cc                   	int3   
  41589a:	cc                   	int3   
  41589b:	cc                   	int3   
  41589c:	cc                   	int3   
  41589d:	cc                   	int3   
  41589e:	cc                   	int3   
  41589f:	cc                   	int3   
  4158a0:	cc                   	int3   
  4158a1:	cc                   	int3   
  4158a2:	cc                   	int3   
  4158a3:	cc                   	int3   
  4158a4:	cc                   	int3   
  4158a5:	cc                   	int3   
  4158a6:	cc                   	int3   
  4158a7:	cc                   	int3   
  4158a8:	cc                   	int3   
  4158a9:	cc                   	int3   
  4158aa:	cc                   	int3   
  4158ab:	cc                   	int3   
  4158ac:	cc                   	int3   
  4158ad:	cc                   	int3   
  4158ae:	cc                   	int3   
  4158af:	cc                   	int3   
  4158b0:	cc                   	int3   
  4158b1:	cc                   	int3   
  4158b2:	cc                   	int3   
  4158b3:	cc                   	int3   
  4158b4:	cc                   	int3   
  4158b5:	cc                   	int3   
  4158b6:	cc                   	int3   
  4158b7:	cc                   	int3   
  4158b8:	cc                   	int3   
  4158b9:	cc                   	int3   
  4158ba:	cc                   	int3   
  4158bb:	cc                   	int3   
  4158bc:	cc                   	int3   
  4158bd:	cc                   	int3   
  4158be:	cc                   	int3   
  4158bf:	cc                   	int3   
  4158c0:	cc                   	int3   
  4158c1:	cc                   	int3   
  4158c2:	cc                   	int3   
  4158c3:	cc                   	int3   
  4158c4:	cc                   	int3   
  4158c5:	cc                   	int3   
  4158c6:	cc                   	int3   
  4158c7:	cc                   	int3   
  4158c8:	cc                   	int3   
  4158c9:	cc                   	int3   
  4158ca:	cc                   	int3   
  4158cb:	cc                   	int3   
  4158cc:	cc                   	int3   
  4158cd:	cc                   	int3   
  4158ce:	cc                   	int3   
  4158cf:	cc                   	int3   
  4158d0:	cc                   	int3   
  4158d1:	cc                   	int3   
  4158d2:	cc                   	int3   
  4158d3:	cc                   	int3   
  4158d4:	cc                   	int3   
  4158d5:	cc                   	int3   
  4158d6:	cc                   	int3   
  4158d7:	cc                   	int3   
  4158d8:	cc                   	int3   
  4158d9:	cc                   	int3   
  4158da:	cc                   	int3   
  4158db:	cc                   	int3   
  4158dc:	cc                   	int3   
  4158dd:	cc                   	int3   
  4158de:	cc                   	int3   
  4158df:	cc                   	int3   
  4158e0:	cc                   	int3   
  4158e1:	cc                   	int3   
  4158e2:	cc                   	int3   
  4158e3:	cc                   	int3   
  4158e4:	cc                   	int3   
  4158e5:	cc                   	int3   
  4158e6:	cc                   	int3   
  4158e7:	cc                   	int3   
  4158e8:	cc                   	int3   
  4158e9:	cc                   	int3   
  4158ea:	cc                   	int3   
  4158eb:	cc                   	int3   
  4158ec:	cc                   	int3   
  4158ed:	cc                   	int3   
  4158ee:	cc                   	int3   
  4158ef:	cc                   	int3   
  4158f0:	cc                   	int3   
  4158f1:	cc                   	int3   
  4158f2:	cc                   	int3   
  4158f3:	cc                   	int3   
  4158f4:	cc                   	int3   
  4158f5:	cc                   	int3   
  4158f6:	cc                   	int3   
  4158f7:	cc                   	int3   
  4158f8:	cc                   	int3   
  4158f9:	cc                   	int3   
  4158fa:	cc                   	int3   
  4158fb:	cc                   	int3   
  4158fc:	cc                   	int3   
  4158fd:	cc                   	int3   
  4158fe:	cc                   	int3   
  4158ff:	cc                   	int3   
  415900:	cc                   	int3   
  415901:	cc                   	int3   
  415902:	cc                   	int3   
  415903:	cc                   	int3   
  415904:	cc                   	int3   
  415905:	cc                   	int3   
  415906:	cc                   	int3   
  415907:	cc                   	int3   
  415908:	cc                   	int3   
  415909:	cc                   	int3   
  41590a:	cc                   	int3   
  41590b:	cc                   	int3   
  41590c:	cc                   	int3   
  41590d:	cc                   	int3   
  41590e:	cc                   	int3   
  41590f:	cc                   	int3   
  415910:	cc                   	int3   
  415911:	cc                   	int3   
  415912:	cc                   	int3   
  415913:	cc                   	int3   
  415914:	cc                   	int3   
  415915:	cc                   	int3   
  415916:	cc                   	int3   
  415917:	cc                   	int3   
  415918:	cc                   	int3   
  415919:	cc                   	int3   
  41591a:	cc                   	int3   
  41591b:	cc                   	int3   
  41591c:	cc                   	int3   
  41591d:	cc                   	int3   
  41591e:	cc                   	int3   
  41591f:	cc                   	int3   
  415920:	cc                   	int3   
  415921:	cc                   	int3   
  415922:	cc                   	int3   
  415923:	cc                   	int3   
  415924:	cc                   	int3   
  415925:	cc                   	int3   
  415926:	cc                   	int3   
  415927:	cc                   	int3   
  415928:	cc                   	int3   
  415929:	cc                   	int3   
  41592a:	cc                   	int3   
  41592b:	cc                   	int3   
  41592c:	cc                   	int3   
  41592d:	cc                   	int3   
  41592e:	cc                   	int3   
  41592f:	cc                   	int3   
  415930:	cc                   	int3   
  415931:	cc                   	int3   
  415932:	cc                   	int3   
  415933:	cc                   	int3   
  415934:	cc                   	int3   
  415935:	cc                   	int3   
  415936:	cc                   	int3   
  415937:	cc                   	int3   
  415938:	cc                   	int3   
  415939:	cc                   	int3   
  41593a:	cc                   	int3   
  41593b:	cc                   	int3   
  41593c:	cc                   	int3   
  41593d:	cc                   	int3   
  41593e:	cc                   	int3   
  41593f:	cc                   	int3   
  415940:	cc                   	int3   
  415941:	cc                   	int3   
  415942:	cc                   	int3   
  415943:	cc                   	int3   
  415944:	cc                   	int3   
  415945:	cc                   	int3   
  415946:	cc                   	int3   
  415947:	cc                   	int3   
  415948:	cc                   	int3   
  415949:	cc                   	int3   
  41594a:	cc                   	int3   
  41594b:	cc                   	int3   
  41594c:	cc                   	int3   
  41594d:	cc                   	int3   
  41594e:	cc                   	int3   
  41594f:	cc                   	int3   
  415950:	cc                   	int3   
  415951:	cc                   	int3   
  415952:	cc                   	int3   
  415953:	cc                   	int3   
  415954:	cc                   	int3   
  415955:	cc                   	int3   
  415956:	cc                   	int3   
  415957:	cc                   	int3   
  415958:	cc                   	int3   
  415959:	cc                   	int3   
  41595a:	cc                   	int3   
  41595b:	cc                   	int3   
  41595c:	cc                   	int3   
  41595d:	cc                   	int3   
  41595e:	cc                   	int3   
  41595f:	cc                   	int3   
  415960:	cc                   	int3   
  415961:	cc                   	int3   
  415962:	cc                   	int3   
  415963:	cc                   	int3   
  415964:	cc                   	int3   
  415965:	cc                   	int3   
  415966:	cc                   	int3   
  415967:	cc                   	int3   
  415968:	cc                   	int3   
  415969:	cc                   	int3   
  41596a:	cc                   	int3   
  41596b:	cc                   	int3   
  41596c:	cc                   	int3   
  41596d:	cc                   	int3   
  41596e:	cc                   	int3   
  41596f:	cc                   	int3   
  415970:	cc                   	int3   
  415971:	cc                   	int3   
  415972:	cc                   	int3   
  415973:	cc                   	int3   
  415974:	cc                   	int3   
  415975:	cc                   	int3   
  415976:	cc                   	int3   
  415977:	cc                   	int3   
  415978:	cc                   	int3   
  415979:	cc                   	int3   
  41597a:	cc                   	int3   
  41597b:	cc                   	int3   
  41597c:	cc                   	int3   
  41597d:	cc                   	int3   
  41597e:	cc                   	int3   
  41597f:	cc                   	int3   
  415980:	cc                   	int3   
  415981:	cc                   	int3   
  415982:	cc                   	int3   
  415983:	cc                   	int3   
  415984:	cc                   	int3   
  415985:	cc                   	int3   
  415986:	cc                   	int3   
  415987:	cc                   	int3   
  415988:	cc                   	int3   
  415989:	cc                   	int3   
  41598a:	cc                   	int3   
  41598b:	cc                   	int3   
  41598c:	cc                   	int3   
  41598d:	cc                   	int3   
  41598e:	cc                   	int3   
  41598f:	cc                   	int3   
  415990:	cc                   	int3   
  415991:	cc                   	int3   
  415992:	cc                   	int3   
  415993:	cc                   	int3   
  415994:	cc                   	int3   
  415995:	cc                   	int3   
  415996:	cc                   	int3   
  415997:	cc                   	int3   
  415998:	cc                   	int3   
  415999:	cc                   	int3   
  41599a:	cc                   	int3   
  41599b:	cc                   	int3   
  41599c:	cc                   	int3   
  41599d:	cc                   	int3   
  41599e:	cc                   	int3   
  41599f:	cc                   	int3   
  4159a0:	cc                   	int3   
  4159a1:	cc                   	int3   
  4159a2:	cc                   	int3   
  4159a3:	cc                   	int3   
  4159a4:	cc                   	int3   
  4159a5:	cc                   	int3   
  4159a6:	cc                   	int3   
  4159a7:	cc                   	int3   
  4159a8:	cc                   	int3   
  4159a9:	cc                   	int3   
  4159aa:	cc                   	int3   
  4159ab:	cc                   	int3   
  4159ac:	cc                   	int3   
  4159ad:	cc                   	int3   
  4159ae:	cc                   	int3   
  4159af:	cc                   	int3   
  4159b0:	cc                   	int3   
  4159b1:	cc                   	int3   
  4159b2:	cc                   	int3   
  4159b3:	cc                   	int3   
  4159b4:	cc                   	int3   
  4159b5:	cc                   	int3   
  4159b6:	cc                   	int3   
  4159b7:	cc                   	int3   
  4159b8:	cc                   	int3   
  4159b9:	cc                   	int3   
  4159ba:	cc                   	int3   
  4159bb:	cc                   	int3   
  4159bc:	cc                   	int3   
  4159bd:	cc                   	int3   
  4159be:	cc                   	int3   
  4159bf:	cc                   	int3   
  4159c0:	cc                   	int3   
  4159c1:	cc                   	int3   
  4159c2:	cc                   	int3   
  4159c3:	cc                   	int3   
  4159c4:	cc                   	int3   
  4159c5:	cc                   	int3   
  4159c6:	cc                   	int3   
  4159c7:	cc                   	int3   
  4159c8:	cc                   	int3   
  4159c9:	cc                   	int3   
  4159ca:	cc                   	int3   
  4159cb:	cc                   	int3   
  4159cc:	cc                   	int3   
  4159cd:	cc                   	int3   
  4159ce:	cc                   	int3   
  4159cf:	cc                   	int3   
  4159d0:	cc                   	int3   
  4159d1:	cc                   	int3   
  4159d2:	cc                   	int3   
  4159d3:	cc                   	int3   
  4159d4:	cc                   	int3   
  4159d5:	cc                   	int3   
  4159d6:	cc                   	int3   
  4159d7:	cc                   	int3   
  4159d8:	cc                   	int3   
  4159d9:	cc                   	int3   
  4159da:	cc                   	int3   
  4159db:	cc                   	int3   
  4159dc:	cc                   	int3   
  4159dd:	cc                   	int3   
  4159de:	cc                   	int3   
  4159df:	cc                   	int3   
  4159e0:	cc                   	int3   
  4159e1:	cc                   	int3   
  4159e2:	cc                   	int3   
  4159e3:	cc                   	int3   
  4159e4:	cc                   	int3   
  4159e5:	cc                   	int3   
  4159e6:	cc                   	int3   
  4159e7:	cc                   	int3   
  4159e8:	cc                   	int3   
  4159e9:	cc                   	int3   
  4159ea:	cc                   	int3   
  4159eb:	cc                   	int3   
  4159ec:	cc                   	int3   
  4159ed:	cc                   	int3   
  4159ee:	cc                   	int3   
  4159ef:	cc                   	int3   
  4159f0:	cc                   	int3   
  4159f1:	cc                   	int3   
  4159f2:	cc                   	int3   
  4159f3:	cc                   	int3   
  4159f4:	cc                   	int3   
  4159f5:	cc                   	int3   
  4159f6:	cc                   	int3   
  4159f7:	cc                   	int3   
  4159f8:	cc                   	int3   
  4159f9:	cc                   	int3   
  4159fa:	cc                   	int3   
  4159fb:	cc                   	int3   
  4159fc:	cc                   	int3   
  4159fd:	cc                   	int3   
  4159fe:	cc                   	int3   
  4159ff:	cc                   	int3   
  415a00:	cc                   	int3   
  415a01:	cc                   	int3   
  415a02:	cc                   	int3   
  415a03:	cc                   	int3   
  415a04:	cc                   	int3   
  415a05:	cc                   	int3   
  415a06:	cc                   	int3   
  415a07:	cc                   	int3   
  415a08:	cc                   	int3   
  415a09:	cc                   	int3   
  415a0a:	cc                   	int3   
  415a0b:	cc                   	int3   
  415a0c:	cc                   	int3   
  415a0d:	cc                   	int3   
  415a0e:	cc                   	int3   
  415a0f:	cc                   	int3   
  415a10:	cc                   	int3   
  415a11:	cc                   	int3   
  415a12:	cc                   	int3   
  415a13:	cc                   	int3   
  415a14:	cc                   	int3   
  415a15:	cc                   	int3   
  415a16:	cc                   	int3   
  415a17:	cc                   	int3   
  415a18:	cc                   	int3   
  415a19:	cc                   	int3   
  415a1a:	cc                   	int3   
  415a1b:	cc                   	int3   
  415a1c:	cc                   	int3   
  415a1d:	cc                   	int3   
  415a1e:	cc                   	int3   
  415a1f:	cc                   	int3   
  415a20:	cc                   	int3   
  415a21:	cc                   	int3   
  415a22:	cc                   	int3   
  415a23:	cc                   	int3   
  415a24:	cc                   	int3   
  415a25:	cc                   	int3   
  415a26:	cc                   	int3   
  415a27:	cc                   	int3   
  415a28:	cc                   	int3   
  415a29:	cc                   	int3   
  415a2a:	cc                   	int3   
  415a2b:	cc                   	int3   
  415a2c:	cc                   	int3   
  415a2d:	cc                   	int3   
  415a2e:	cc                   	int3   
  415a2f:	cc                   	int3   
  415a30:	cc                   	int3   
  415a31:	cc                   	int3   
  415a32:	cc                   	int3   
  415a33:	cc                   	int3   
  415a34:	cc                   	int3   
  415a35:	cc                   	int3   
  415a36:	cc                   	int3   
  415a37:	cc                   	int3   
  415a38:	cc                   	int3   
  415a39:	cc                   	int3   
  415a3a:	cc                   	int3   
  415a3b:	cc                   	int3   
  415a3c:	cc                   	int3   
  415a3d:	cc                   	int3   
  415a3e:	cc                   	int3   
  415a3f:	cc                   	int3   
  415a40:	cc                   	int3   
  415a41:	cc                   	int3   
  415a42:	cc                   	int3   
  415a43:	cc                   	int3   
  415a44:	cc                   	int3   
  415a45:	cc                   	int3   
  415a46:	cc                   	int3   
  415a47:	cc                   	int3   
  415a48:	cc                   	int3   
  415a49:	cc                   	int3   
  415a4a:	cc                   	int3   
  415a4b:	cc                   	int3   
  415a4c:	cc                   	int3   
  415a4d:	cc                   	int3   
  415a4e:	cc                   	int3   
  415a4f:	cc                   	int3   
  415a50:	cc                   	int3   
  415a51:	cc                   	int3   
  415a52:	cc                   	int3   
  415a53:	cc                   	int3   
  415a54:	cc                   	int3   
  415a55:	cc                   	int3   
  415a56:	cc                   	int3   
  415a57:	cc                   	int3   
  415a58:	cc                   	int3   
  415a59:	cc                   	int3   
  415a5a:	cc                   	int3   
  415a5b:	cc                   	int3   
  415a5c:	cc                   	int3   
  415a5d:	cc                   	int3   
  415a5e:	cc                   	int3   
  415a5f:	cc                   	int3   
  415a60:	cc                   	int3   
  415a61:	cc                   	int3   
  415a62:	cc                   	int3   
  415a63:	cc                   	int3   
  415a64:	cc                   	int3   
  415a65:	cc                   	int3   
  415a66:	cc                   	int3   
  415a67:	cc                   	int3   
  415a68:	cc                   	int3   
  415a69:	cc                   	int3   
  415a6a:	cc                   	int3   
  415a6b:	cc                   	int3   
  415a6c:	cc                   	int3   
  415a6d:	cc                   	int3   
  415a6e:	cc                   	int3   
  415a6f:	cc                   	int3   
  415a70:	cc                   	int3   
  415a71:	cc                   	int3   
  415a72:	cc                   	int3   
  415a73:	cc                   	int3   
  415a74:	cc                   	int3   
  415a75:	cc                   	int3   
  415a76:	cc                   	int3   
  415a77:	cc                   	int3   
  415a78:	cc                   	int3   
  415a79:	cc                   	int3   
  415a7a:	cc                   	int3   
  415a7b:	cc                   	int3   
  415a7c:	cc                   	int3   
  415a7d:	cc                   	int3   
  415a7e:	cc                   	int3   
  415a7f:	cc                   	int3   
  415a80:	cc                   	int3   
  415a81:	cc                   	int3   
  415a82:	cc                   	int3   
  415a83:	cc                   	int3   
  415a84:	cc                   	int3   
  415a85:	cc                   	int3   
  415a86:	cc                   	int3   
  415a87:	cc                   	int3   
  415a88:	cc                   	int3   
  415a89:	cc                   	int3   
  415a8a:	cc                   	int3   
  415a8b:	cc                   	int3   
  415a8c:	cc                   	int3   
  415a8d:	cc                   	int3   
  415a8e:	cc                   	int3   
  415a8f:	cc                   	int3   
  415a90:	cc                   	int3   
  415a91:	cc                   	int3   
  415a92:	cc                   	int3   
  415a93:	cc                   	int3   
  415a94:	cc                   	int3   
  415a95:	cc                   	int3   
  415a96:	cc                   	int3   
  415a97:	cc                   	int3   
  415a98:	cc                   	int3   
  415a99:	cc                   	int3   
  415a9a:	cc                   	int3   
  415a9b:	cc                   	int3   
  415a9c:	cc                   	int3   
  415a9d:	cc                   	int3   
  415a9e:	cc                   	int3   
  415a9f:	cc                   	int3   
  415aa0:	cc                   	int3   
  415aa1:	cc                   	int3   
  415aa2:	cc                   	int3   
  415aa3:	cc                   	int3   
  415aa4:	cc                   	int3   
  415aa5:	cc                   	int3   
  415aa6:	cc                   	int3   
  415aa7:	cc                   	int3   
  415aa8:	cc                   	int3   
  415aa9:	cc                   	int3   
  415aaa:	cc                   	int3   
  415aab:	cc                   	int3   
  415aac:	cc                   	int3   
  415aad:	cc                   	int3   
  415aae:	cc                   	int3   
  415aaf:	cc                   	int3   
  415ab0:	cc                   	int3   
  415ab1:	cc                   	int3   
  415ab2:	cc                   	int3   
  415ab3:	cc                   	int3   
  415ab4:	cc                   	int3   
  415ab5:	cc                   	int3   
  415ab6:	cc                   	int3   
  415ab7:	cc                   	int3   
  415ab8:	cc                   	int3   
  415ab9:	cc                   	int3   
  415aba:	cc                   	int3   
  415abb:	cc                   	int3   
  415abc:	cc                   	int3   
  415abd:	cc                   	int3   
  415abe:	cc                   	int3   
  415abf:	cc                   	int3   
  415ac0:	cc                   	int3   
  415ac1:	cc                   	int3   
  415ac2:	cc                   	int3   
  415ac3:	cc                   	int3   
  415ac4:	cc                   	int3   
  415ac5:	cc                   	int3   
  415ac6:	cc                   	int3   
  415ac7:	cc                   	int3   
  415ac8:	cc                   	int3   
  415ac9:	cc                   	int3   
  415aca:	cc                   	int3   
  415acb:	cc                   	int3   
  415acc:	cc                   	int3   
  415acd:	cc                   	int3   
  415ace:	cc                   	int3   
  415acf:	cc                   	int3   
  415ad0:	cc                   	int3   
  415ad1:	cc                   	int3   
  415ad2:	cc                   	int3   
  415ad3:	cc                   	int3   
  415ad4:	cc                   	int3   
  415ad5:	cc                   	int3   
  415ad6:	cc                   	int3   
  415ad7:	cc                   	int3   
  415ad8:	cc                   	int3   
  415ad9:	cc                   	int3   
  415ada:	cc                   	int3   
  415adb:	cc                   	int3   
  415adc:	cc                   	int3   
  415add:	cc                   	int3   
  415ade:	cc                   	int3   
  415adf:	cc                   	int3   
  415ae0:	cc                   	int3   
  415ae1:	cc                   	int3   
  415ae2:	cc                   	int3   
  415ae3:	cc                   	int3   
  415ae4:	cc                   	int3   
  415ae5:	cc                   	int3   
  415ae6:	cc                   	int3   
  415ae7:	cc                   	int3   
  415ae8:	cc                   	int3   
  415ae9:	cc                   	int3   
  415aea:	cc                   	int3   
  415aeb:	cc                   	int3   
  415aec:	cc                   	int3   
  415aed:	cc                   	int3   
  415aee:	cc                   	int3   
  415aef:	cc                   	int3   
  415af0:	cc                   	int3   
  415af1:	cc                   	int3   
  415af2:	cc                   	int3   
  415af3:	cc                   	int3   
  415af4:	cc                   	int3   
  415af5:	cc                   	int3   
  415af6:	cc                   	int3   
  415af7:	cc                   	int3   
  415af8:	cc                   	int3   
  415af9:	cc                   	int3   
  415afa:	cc                   	int3   
  415afb:	cc                   	int3   
  415afc:	cc                   	int3   
  415afd:	cc                   	int3   
  415afe:	cc                   	int3   
  415aff:	cc                   	int3   
  415b00:	cc                   	int3   
  415b01:	cc                   	int3   
  415b02:	cc                   	int3   
  415b03:	cc                   	int3   
  415b04:	cc                   	int3   
  415b05:	cc                   	int3   
  415b06:	cc                   	int3   
  415b07:	cc                   	int3   
  415b08:	cc                   	int3   
  415b09:	cc                   	int3   
  415b0a:	cc                   	int3   
  415b0b:	cc                   	int3   
  415b0c:	cc                   	int3   
  415b0d:	cc                   	int3   
  415b0e:	cc                   	int3   
  415b0f:	cc                   	int3   
  415b10:	cc                   	int3   
  415b11:	cc                   	int3   
  415b12:	cc                   	int3   
  415b13:	cc                   	int3   
  415b14:	cc                   	int3   
  415b15:	cc                   	int3   
  415b16:	cc                   	int3   
  415b17:	cc                   	int3   
  415b18:	cc                   	int3   
  415b19:	cc                   	int3   
  415b1a:	cc                   	int3   
  415b1b:	cc                   	int3   
  415b1c:	cc                   	int3   
  415b1d:	cc                   	int3   
  415b1e:	cc                   	int3   
  415b1f:	cc                   	int3   
  415b20:	cc                   	int3   
  415b21:	cc                   	int3   
  415b22:	cc                   	int3   
  415b23:	cc                   	int3   
  415b24:	cc                   	int3   
  415b25:	cc                   	int3   
  415b26:	cc                   	int3   
  415b27:	cc                   	int3   
  415b28:	cc                   	int3   
  415b29:	cc                   	int3   
  415b2a:	cc                   	int3   
  415b2b:	cc                   	int3   
  415b2c:	cc                   	int3   
  415b2d:	cc                   	int3   
  415b2e:	cc                   	int3   
  415b2f:	cc                   	int3   
  415b30:	cc                   	int3   
  415b31:	cc                   	int3   
  415b32:	cc                   	int3   
  415b33:	cc                   	int3   
  415b34:	cc                   	int3   
  415b35:	cc                   	int3   
  415b36:	cc                   	int3   
  415b37:	cc                   	int3   
  415b38:	cc                   	int3   
  415b39:	cc                   	int3   
  415b3a:	cc                   	int3   
  415b3b:	cc                   	int3   
  415b3c:	cc                   	int3   
  415b3d:	cc                   	int3   
  415b3e:	cc                   	int3   
  415b3f:	cc                   	int3   
  415b40:	cc                   	int3   
  415b41:	cc                   	int3   
  415b42:	cc                   	int3   
  415b43:	cc                   	int3   
  415b44:	cc                   	int3   
  415b45:	cc                   	int3   
  415b46:	cc                   	int3   
  415b47:	cc                   	int3   
  415b48:	cc                   	int3   
  415b49:	cc                   	int3   
  415b4a:	cc                   	int3   
  415b4b:	cc                   	int3   
  415b4c:	cc                   	int3   
  415b4d:	cc                   	int3   
  415b4e:	cc                   	int3   
  415b4f:	cc                   	int3   
  415b50:	cc                   	int3   
  415b51:	cc                   	int3   
  415b52:	cc                   	int3   
  415b53:	cc                   	int3   
  415b54:	cc                   	int3   
  415b55:	cc                   	int3   
  415b56:	cc                   	int3   
  415b57:	cc                   	int3   
  415b58:	cc                   	int3   
  415b59:	cc                   	int3   
  415b5a:	cc                   	int3   
  415b5b:	cc                   	int3   
  415b5c:	cc                   	int3   
  415b5d:	cc                   	int3   
  415b5e:	cc                   	int3   
  415b5f:	cc                   	int3   
  415b60:	cc                   	int3   
  415b61:	cc                   	int3   
  415b62:	cc                   	int3   
  415b63:	cc                   	int3   
  415b64:	cc                   	int3   
  415b65:	cc                   	int3   
  415b66:	cc                   	int3   
  415b67:	cc                   	int3   
  415b68:	cc                   	int3   
  415b69:	cc                   	int3   
  415b6a:	cc                   	int3   
  415b6b:	cc                   	int3   
  415b6c:	cc                   	int3   
  415b6d:	cc                   	int3   
  415b6e:	cc                   	int3   
  415b6f:	cc                   	int3   
  415b70:	cc                   	int3   
  415b71:	cc                   	int3   
  415b72:	cc                   	int3   
  415b73:	cc                   	int3   
  415b74:	cc                   	int3   
  415b75:	cc                   	int3   
  415b76:	cc                   	int3   
  415b77:	cc                   	int3   
  415b78:	cc                   	int3   
  415b79:	cc                   	int3   
  415b7a:	cc                   	int3   
  415b7b:	cc                   	int3   
  415b7c:	cc                   	int3   
  415b7d:	cc                   	int3   
  415b7e:	cc                   	int3   
  415b7f:	cc                   	int3   
  415b80:	cc                   	int3   
  415b81:	cc                   	int3   
  415b82:	cc                   	int3   
  415b83:	cc                   	int3   
  415b84:	cc                   	int3   
  415b85:	cc                   	int3   
  415b86:	cc                   	int3   
  415b87:	cc                   	int3   
  415b88:	cc                   	int3   
  415b89:	cc                   	int3   
  415b8a:	cc                   	int3   
  415b8b:	cc                   	int3   
  415b8c:	cc                   	int3   
  415b8d:	cc                   	int3   
  415b8e:	cc                   	int3   
  415b8f:	cc                   	int3   
  415b90:	cc                   	int3   
  415b91:	cc                   	int3   
  415b92:	cc                   	int3   
  415b93:	cc                   	int3   
  415b94:	cc                   	int3   
  415b95:	cc                   	int3   
  415b96:	cc                   	int3   
  415b97:	cc                   	int3   
  415b98:	cc                   	int3   
  415b99:	cc                   	int3   
  415b9a:	cc                   	int3   
  415b9b:	cc                   	int3   
  415b9c:	cc                   	int3   
  415b9d:	cc                   	int3   
  415b9e:	cc                   	int3   
  415b9f:	cc                   	int3   
  415ba0:	cc                   	int3   
  415ba1:	cc                   	int3   
  415ba2:	cc                   	int3   
  415ba3:	cc                   	int3   
  415ba4:	cc                   	int3   
  415ba5:	cc                   	int3   
  415ba6:	cc                   	int3   
  415ba7:	cc                   	int3   
  415ba8:	cc                   	int3   
  415ba9:	cc                   	int3   
  415baa:	cc                   	int3   
  415bab:	cc                   	int3   
  415bac:	cc                   	int3   
  415bad:	cc                   	int3   
  415bae:	cc                   	int3   
  415baf:	cc                   	int3   
  415bb0:	cc                   	int3   
  415bb1:	cc                   	int3   
  415bb2:	cc                   	int3   
  415bb3:	cc                   	int3   
  415bb4:	cc                   	int3   
  415bb5:	cc                   	int3   
  415bb6:	cc                   	int3   
  415bb7:	cc                   	int3   
  415bb8:	cc                   	int3   
  415bb9:	cc                   	int3   
  415bba:	cc                   	int3   
  415bbb:	cc                   	int3   
  415bbc:	cc                   	int3   
  415bbd:	cc                   	int3   
  415bbe:	cc                   	int3   
  415bbf:	cc                   	int3   
  415bc0:	cc                   	int3   
  415bc1:	cc                   	int3   
  415bc2:	cc                   	int3   
  415bc3:	cc                   	int3   
  415bc4:	cc                   	int3   
  415bc5:	cc                   	int3   
  415bc6:	cc                   	int3   
  415bc7:	cc                   	int3   
  415bc8:	cc                   	int3   
  415bc9:	cc                   	int3   
  415bca:	cc                   	int3   
  415bcb:	cc                   	int3   
  415bcc:	cc                   	int3   
  415bcd:	cc                   	int3   
  415bce:	cc                   	int3   
  415bcf:	cc                   	int3   
  415bd0:	cc                   	int3   
  415bd1:	cc                   	int3   
  415bd2:	cc                   	int3   
  415bd3:	cc                   	int3   
  415bd4:	cc                   	int3   
  415bd5:	cc                   	int3   
  415bd6:	cc                   	int3   
  415bd7:	cc                   	int3   
  415bd8:	cc                   	int3   
  415bd9:	cc                   	int3   
  415bda:	cc                   	int3   
  415bdb:	cc                   	int3   
  415bdc:	cc                   	int3   
  415bdd:	cc                   	int3   
  415bde:	cc                   	int3   
  415bdf:	cc                   	int3   
  415be0:	cc                   	int3   
  415be1:	cc                   	int3   
  415be2:	cc                   	int3   
  415be3:	cc                   	int3   
  415be4:	cc                   	int3   
  415be5:	cc                   	int3   
  415be6:	cc                   	int3   
  415be7:	cc                   	int3   
  415be8:	cc                   	int3   
  415be9:	cc                   	int3   
  415bea:	cc                   	int3   
  415beb:	cc                   	int3   
  415bec:	cc                   	int3   
  415bed:	cc                   	int3   
  415bee:	cc                   	int3   
  415bef:	cc                   	int3   
  415bf0:	cc                   	int3   
  415bf1:	cc                   	int3   
  415bf2:	cc                   	int3   
  415bf3:	cc                   	int3   
  415bf4:	cc                   	int3   
  415bf5:	cc                   	int3   
  415bf6:	cc                   	int3   
  415bf7:	cc                   	int3   
  415bf8:	cc                   	int3   
  415bf9:	cc                   	int3   
  415bfa:	cc                   	int3   
  415bfb:	cc                   	int3   
  415bfc:	cc                   	int3   
  415bfd:	cc                   	int3   
  415bfe:	cc                   	int3   
  415bff:	cc                   	int3   
  415c00:	cc                   	int3   
  415c01:	cc                   	int3   
  415c02:	cc                   	int3   
  415c03:	cc                   	int3   
  415c04:	cc                   	int3   
  415c05:	cc                   	int3   
  415c06:	cc                   	int3   
  415c07:	cc                   	int3   
  415c08:	cc                   	int3   
  415c09:	cc                   	int3   
  415c0a:	cc                   	int3   
  415c0b:	cc                   	int3   
  415c0c:	cc                   	int3   
  415c0d:	cc                   	int3   
  415c0e:	cc                   	int3   
  415c0f:	cc                   	int3   
  415c10:	cc                   	int3   
  415c11:	cc                   	int3   
  415c12:	cc                   	int3   
  415c13:	cc                   	int3   
  415c14:	cc                   	int3   
  415c15:	cc                   	int3   
  415c16:	cc                   	int3   
  415c17:	cc                   	int3   
  415c18:	cc                   	int3   
  415c19:	cc                   	int3   
  415c1a:	cc                   	int3   
  415c1b:	cc                   	int3   
  415c1c:	cc                   	int3   
  415c1d:	cc                   	int3   
  415c1e:	cc                   	int3   
  415c1f:	cc                   	int3   
  415c20:	cc                   	int3   
  415c21:	cc                   	int3   
  415c22:	cc                   	int3   
  415c23:	cc                   	int3   
  415c24:	cc                   	int3   
  415c25:	cc                   	int3   
  415c26:	cc                   	int3   
  415c27:	cc                   	int3   
  415c28:	cc                   	int3   
  415c29:	cc                   	int3   
  415c2a:	cc                   	int3   
  415c2b:	cc                   	int3   
  415c2c:	cc                   	int3   
  415c2d:	cc                   	int3   
  415c2e:	cc                   	int3   
  415c2f:	cc                   	int3   
  415c30:	cc                   	int3   
  415c31:	cc                   	int3   
  415c32:	cc                   	int3   
  415c33:	cc                   	int3   
  415c34:	cc                   	int3   
  415c35:	cc                   	int3   
  415c36:	cc                   	int3   
  415c37:	cc                   	int3   
  415c38:	cc                   	int3   
  415c39:	cc                   	int3   
  415c3a:	cc                   	int3   
  415c3b:	cc                   	int3   
  415c3c:	cc                   	int3   
  415c3d:	cc                   	int3   
  415c3e:	cc                   	int3   
  415c3f:	cc                   	int3   
  415c40:	cc                   	int3   
  415c41:	cc                   	int3   
  415c42:	cc                   	int3   
  415c43:	cc                   	int3   
  415c44:	cc                   	int3   
  415c45:	cc                   	int3   
  415c46:	cc                   	int3   
  415c47:	cc                   	int3   
  415c48:	cc                   	int3   
  415c49:	cc                   	int3   
  415c4a:	cc                   	int3   
  415c4b:	cc                   	int3   
  415c4c:	cc                   	int3   
  415c4d:	cc                   	int3   
  415c4e:	cc                   	int3   
  415c4f:	cc                   	int3   
  415c50:	cc                   	int3   
  415c51:	cc                   	int3   
  415c52:	cc                   	int3   
  415c53:	cc                   	int3   
  415c54:	cc                   	int3   
  415c55:	cc                   	int3   
  415c56:	cc                   	int3   
  415c57:	cc                   	int3   
  415c58:	cc                   	int3   
  415c59:	cc                   	int3   
  415c5a:	cc                   	int3   
  415c5b:	cc                   	int3   
  415c5c:	cc                   	int3   
  415c5d:	cc                   	int3   
  415c5e:	cc                   	int3   
  415c5f:	cc                   	int3   
  415c60:	cc                   	int3   
  415c61:	cc                   	int3   
  415c62:	cc                   	int3   
  415c63:	cc                   	int3   
  415c64:	cc                   	int3   
  415c65:	cc                   	int3   
  415c66:	cc                   	int3   
  415c67:	cc                   	int3   
  415c68:	cc                   	int3   
  415c69:	cc                   	int3   
  415c6a:	cc                   	int3   
  415c6b:	cc                   	int3   
  415c6c:	cc                   	int3   
  415c6d:	cc                   	int3   
  415c6e:	cc                   	int3   
  415c6f:	cc                   	int3   
  415c70:	cc                   	int3   
  415c71:	cc                   	int3   
  415c72:	cc                   	int3   
  415c73:	cc                   	int3   
  415c74:	cc                   	int3   
  415c75:	cc                   	int3   
  415c76:	cc                   	int3   
  415c77:	cc                   	int3   
  415c78:	cc                   	int3   
  415c79:	cc                   	int3   
  415c7a:	cc                   	int3   
  415c7b:	cc                   	int3   
  415c7c:	cc                   	int3   
  415c7d:	cc                   	int3   
  415c7e:	cc                   	int3   
  415c7f:	cc                   	int3   
  415c80:	cc                   	int3   
  415c81:	cc                   	int3   
  415c82:	cc                   	int3   
  415c83:	cc                   	int3   
  415c84:	cc                   	int3   
  415c85:	cc                   	int3   
  415c86:	cc                   	int3   
  415c87:	cc                   	int3   
  415c88:	cc                   	int3   
  415c89:	cc                   	int3   
  415c8a:	cc                   	int3   
  415c8b:	cc                   	int3   
  415c8c:	cc                   	int3   
  415c8d:	cc                   	int3   
  415c8e:	cc                   	int3   
  415c8f:	cc                   	int3   
  415c90:	cc                   	int3   
  415c91:	cc                   	int3   
  415c92:	cc                   	int3   
  415c93:	cc                   	int3   
  415c94:	cc                   	int3   
  415c95:	cc                   	int3   
  415c96:	cc                   	int3   
  415c97:	cc                   	int3   
  415c98:	cc                   	int3   
  415c99:	cc                   	int3   
  415c9a:	cc                   	int3   
  415c9b:	cc                   	int3   
  415c9c:	cc                   	int3   
  415c9d:	cc                   	int3   
  415c9e:	cc                   	int3   
  415c9f:	cc                   	int3   
  415ca0:	cc                   	int3   
  415ca1:	cc                   	int3   
  415ca2:	cc                   	int3   
  415ca3:	cc                   	int3   
  415ca4:	cc                   	int3   
  415ca5:	cc                   	int3   
  415ca6:	cc                   	int3   
  415ca7:	cc                   	int3   
  415ca8:	cc                   	int3   
  415ca9:	cc                   	int3   
  415caa:	cc                   	int3   
  415cab:	cc                   	int3   
  415cac:	cc                   	int3   
  415cad:	cc                   	int3   
  415cae:	cc                   	int3   
  415caf:	cc                   	int3   
  415cb0:	cc                   	int3   
  415cb1:	cc                   	int3   
  415cb2:	cc                   	int3   
  415cb3:	cc                   	int3   
  415cb4:	cc                   	int3   
  415cb5:	cc                   	int3   
  415cb6:	cc                   	int3   
  415cb7:	cc                   	int3   
  415cb8:	cc                   	int3   
  415cb9:	cc                   	int3   
  415cba:	cc                   	int3   
  415cbb:	cc                   	int3   
  415cbc:	cc                   	int3   
  415cbd:	cc                   	int3   
  415cbe:	cc                   	int3   
  415cbf:	cc                   	int3   
  415cc0:	cc                   	int3   
  415cc1:	cc                   	int3   
  415cc2:	cc                   	int3   
  415cc3:	cc                   	int3   
  415cc4:	cc                   	int3   
  415cc5:	cc                   	int3   
  415cc6:	cc                   	int3   
  415cc7:	cc                   	int3   
  415cc8:	cc                   	int3   
  415cc9:	cc                   	int3   
  415cca:	cc                   	int3   
  415ccb:	cc                   	int3   
  415ccc:	cc                   	int3   
  415ccd:	cc                   	int3   
  415cce:	cc                   	int3   
  415ccf:	cc                   	int3   
  415cd0:	cc                   	int3   
  415cd1:	cc                   	int3   
  415cd2:	cc                   	int3   
  415cd3:	cc                   	int3   
  415cd4:	cc                   	int3   
  415cd5:	cc                   	int3   
  415cd6:	cc                   	int3   
  415cd7:	cc                   	int3   
  415cd8:	cc                   	int3   
  415cd9:	cc                   	int3   
  415cda:	cc                   	int3   
  415cdb:	cc                   	int3   
  415cdc:	cc                   	int3   
  415cdd:	cc                   	int3   
  415cde:	cc                   	int3   
  415cdf:	cc                   	int3   
  415ce0:	cc                   	int3   
  415ce1:	cc                   	int3   
  415ce2:	cc                   	int3   
  415ce3:	cc                   	int3   
  415ce4:	cc                   	int3   
  415ce5:	cc                   	int3   
  415ce6:	cc                   	int3   
  415ce7:	cc                   	int3   
  415ce8:	cc                   	int3   
  415ce9:	cc                   	int3   
  415cea:	cc                   	int3   
  415ceb:	cc                   	int3   
  415cec:	cc                   	int3   
  415ced:	cc                   	int3   
  415cee:	cc                   	int3   
  415cef:	cc                   	int3   
  415cf0:	cc                   	int3   
  415cf1:	cc                   	int3   
  415cf2:	cc                   	int3   
  415cf3:	cc                   	int3   
  415cf4:	cc                   	int3   
  415cf5:	cc                   	int3   
  415cf6:	cc                   	int3   
  415cf7:	cc                   	int3   
  415cf8:	cc                   	int3   
  415cf9:	cc                   	int3   
  415cfa:	cc                   	int3   
  415cfb:	cc                   	int3   
  415cfc:	cc                   	int3   
  415cfd:	cc                   	int3   
  415cfe:	cc                   	int3   
  415cff:	cc                   	int3   
  415d00:	cc                   	int3   
  415d01:	cc                   	int3   
  415d02:	cc                   	int3   
  415d03:	cc                   	int3   
  415d04:	cc                   	int3   
  415d05:	cc                   	int3   
  415d06:	cc                   	int3   
  415d07:	cc                   	int3   
  415d08:	cc                   	int3   
  415d09:	cc                   	int3   
  415d0a:	cc                   	int3   
  415d0b:	cc                   	int3   
  415d0c:	cc                   	int3   
  415d0d:	cc                   	int3   
  415d0e:	cc                   	int3   
  415d0f:	cc                   	int3   
  415d10:	cc                   	int3   
  415d11:	cc                   	int3   
  415d12:	cc                   	int3   
  415d13:	cc                   	int3   
  415d14:	cc                   	int3   
  415d15:	cc                   	int3   
  415d16:	cc                   	int3   
  415d17:	cc                   	int3   
  415d18:	cc                   	int3   
  415d19:	cc                   	int3   
  415d1a:	cc                   	int3   
  415d1b:	cc                   	int3   
  415d1c:	cc                   	int3   
  415d1d:	cc                   	int3   
  415d1e:	cc                   	int3   
  415d1f:	cc                   	int3   
  415d20:	cc                   	int3   
  415d21:	cc                   	int3   
  415d22:	cc                   	int3   
  415d23:	cc                   	int3   
  415d24:	cc                   	int3   
  415d25:	cc                   	int3   
  415d26:	cc                   	int3   
  415d27:	cc                   	int3   
  415d28:	cc                   	int3   
  415d29:	cc                   	int3   
  415d2a:	cc                   	int3   
  415d2b:	cc                   	int3   
  415d2c:	cc                   	int3   
  415d2d:	cc                   	int3   
  415d2e:	cc                   	int3   
  415d2f:	cc                   	int3   
  415d30:	cc                   	int3   
  415d31:	cc                   	int3   
  415d32:	cc                   	int3   
  415d33:	cc                   	int3   
  415d34:	cc                   	int3   
  415d35:	cc                   	int3   
  415d36:	cc                   	int3   
  415d37:	cc                   	int3   
  415d38:	cc                   	int3   
  415d39:	cc                   	int3   
  415d3a:	cc                   	int3   
  415d3b:	cc                   	int3   
  415d3c:	cc                   	int3   
  415d3d:	cc                   	int3   
  415d3e:	cc                   	int3   
  415d3f:	cc                   	int3   
  415d40:	cc                   	int3   
  415d41:	cc                   	int3   
  415d42:	cc                   	int3   
  415d43:	cc                   	int3   
  415d44:	cc                   	int3   
  415d45:	cc                   	int3   
  415d46:	cc                   	int3   
  415d47:	cc                   	int3   
  415d48:	cc                   	int3   
  415d49:	cc                   	int3   
  415d4a:	cc                   	int3   
  415d4b:	cc                   	int3   
  415d4c:	cc                   	int3   
  415d4d:	cc                   	int3   
  415d4e:	cc                   	int3   
  415d4f:	cc                   	int3   
  415d50:	cc                   	int3   
  415d51:	cc                   	int3   
  415d52:	cc                   	int3   
  415d53:	cc                   	int3   
  415d54:	cc                   	int3   
  415d55:	cc                   	int3   
  415d56:	cc                   	int3   
  415d57:	cc                   	int3   
  415d58:	cc                   	int3   
  415d59:	cc                   	int3   
  415d5a:	cc                   	int3   
  415d5b:	cc                   	int3   
  415d5c:	cc                   	int3   
  415d5d:	cc                   	int3   
  415d5e:	cc                   	int3   
  415d5f:	cc                   	int3   
  415d60:	cc                   	int3   
  415d61:	cc                   	int3   
  415d62:	cc                   	int3   
  415d63:	cc                   	int3   
  415d64:	cc                   	int3   
  415d65:	cc                   	int3   
  415d66:	cc                   	int3   
  415d67:	cc                   	int3   
  415d68:	cc                   	int3   
  415d69:	cc                   	int3   
  415d6a:	cc                   	int3   
  415d6b:	cc                   	int3   
  415d6c:	cc                   	int3   
  415d6d:	cc                   	int3   
  415d6e:	cc                   	int3   
  415d6f:	cc                   	int3   
  415d70:	cc                   	int3   
  415d71:	cc                   	int3   
  415d72:	cc                   	int3   
  415d73:	cc                   	int3   
  415d74:	cc                   	int3   
  415d75:	cc                   	int3   
  415d76:	cc                   	int3   
  415d77:	cc                   	int3   
  415d78:	cc                   	int3   
  415d79:	cc                   	int3   
  415d7a:	cc                   	int3   
  415d7b:	cc                   	int3   
  415d7c:	cc                   	int3   
  415d7d:	cc                   	int3   
  415d7e:	cc                   	int3   
  415d7f:	cc                   	int3   
  415d80:	cc                   	int3   
  415d81:	cc                   	int3   
  415d82:	cc                   	int3   
  415d83:	cc                   	int3   
  415d84:	cc                   	int3   
  415d85:	cc                   	int3   
  415d86:	cc                   	int3   
  415d87:	cc                   	int3   
  415d88:	cc                   	int3   
  415d89:	cc                   	int3   
  415d8a:	cc                   	int3   
  415d8b:	cc                   	int3   
  415d8c:	cc                   	int3   
  415d8d:	cc                   	int3   
  415d8e:	cc                   	int3   
  415d8f:	cc                   	int3   
  415d90:	cc                   	int3   
  415d91:	cc                   	int3   
  415d92:	cc                   	int3   
  415d93:	cc                   	int3   
  415d94:	cc                   	int3   
  415d95:	cc                   	int3   
  415d96:	cc                   	int3   
  415d97:	cc                   	int3   
  415d98:	cc                   	int3   
  415d99:	cc                   	int3   
  415d9a:	cc                   	int3   
  415d9b:	cc                   	int3   
  415d9c:	cc                   	int3   
  415d9d:	cc                   	int3   
  415d9e:	cc                   	int3   
  415d9f:	cc                   	int3   
  415da0:	cc                   	int3   
  415da1:	cc                   	int3   
  415da2:	cc                   	int3   
  415da3:	cc                   	int3   
  415da4:	cc                   	int3   
  415da5:	cc                   	int3   
  415da6:	cc                   	int3   
  415da7:	cc                   	int3   
  415da8:	cc                   	int3   
  415da9:	cc                   	int3   
  415daa:	cc                   	int3   
  415dab:	cc                   	int3   
  415dac:	cc                   	int3   
  415dad:	cc                   	int3   
  415dae:	cc                   	int3   
  415daf:	cc                   	int3   
  415db0:	cc                   	int3   
  415db1:	cc                   	int3   
  415db2:	cc                   	int3   
  415db3:	cc                   	int3   
  415db4:	cc                   	int3   
  415db5:	cc                   	int3   
  415db6:	cc                   	int3   
  415db7:	cc                   	int3   
  415db8:	cc                   	int3   
  415db9:	cc                   	int3   
  415dba:	cc                   	int3   
  415dbb:	cc                   	int3   
  415dbc:	cc                   	int3   
  415dbd:	cc                   	int3   
  415dbe:	cc                   	int3   
  415dbf:	cc                   	int3   
  415dc0:	cc                   	int3   
  415dc1:	cc                   	int3   
  415dc2:	cc                   	int3   
  415dc3:	cc                   	int3   
  415dc4:	cc                   	int3   
  415dc5:	cc                   	int3   
  415dc6:	cc                   	int3   
  415dc7:	cc                   	int3   
  415dc8:	cc                   	int3   
  415dc9:	cc                   	int3   
  415dca:	cc                   	int3   
  415dcb:	cc                   	int3   
  415dcc:	cc                   	int3   
  415dcd:	cc                   	int3   
  415dce:	cc                   	int3   
  415dcf:	cc                   	int3   
  415dd0:	cc                   	int3   
  415dd1:	cc                   	int3   
  415dd2:	cc                   	int3   
  415dd3:	cc                   	int3   
  415dd4:	cc                   	int3   
  415dd5:	cc                   	int3   
  415dd6:	cc                   	int3   
  415dd7:	cc                   	int3   
  415dd8:	cc                   	int3   
  415dd9:	cc                   	int3   
  415dda:	cc                   	int3   
  415ddb:	cc                   	int3   
  415ddc:	cc                   	int3   
  415ddd:	cc                   	int3   
  415dde:	cc                   	int3   
  415ddf:	cc                   	int3   
  415de0:	cc                   	int3   
  415de1:	cc                   	int3   
  415de2:	cc                   	int3   
  415de3:	cc                   	int3   
  415de4:	cc                   	int3   
  415de5:	cc                   	int3   
  415de6:	cc                   	int3   
  415de7:	cc                   	int3   
  415de8:	cc                   	int3   
  415de9:	cc                   	int3   
  415dea:	cc                   	int3   
  415deb:	cc                   	int3   
  415dec:	cc                   	int3   
  415ded:	cc                   	int3   
  415dee:	cc                   	int3   
  415def:	cc                   	int3   
  415df0:	cc                   	int3   
  415df1:	cc                   	int3   
  415df2:	cc                   	int3   
  415df3:	cc                   	int3   
  415df4:	cc                   	int3   
  415df5:	cc                   	int3   
  415df6:	cc                   	int3   
  415df7:	cc                   	int3   
  415df8:	cc                   	int3   
  415df9:	cc                   	int3   
  415dfa:	cc                   	int3   
  415dfb:	cc                   	int3   
  415dfc:	cc                   	int3   
  415dfd:	cc                   	int3   
  415dfe:	cc                   	int3   
  415dff:	cc                   	int3   
  415e00:	cc                   	int3   
  415e01:	cc                   	int3   
  415e02:	cc                   	int3   
  415e03:	cc                   	int3   
  415e04:	cc                   	int3   
  415e05:	cc                   	int3   
  415e06:	cc                   	int3   
  415e07:	cc                   	int3   
  415e08:	cc                   	int3   
  415e09:	cc                   	int3   
  415e0a:	cc                   	int3   
  415e0b:	cc                   	int3   
  415e0c:	cc                   	int3   
  415e0d:	cc                   	int3   
  415e0e:	cc                   	int3   
  415e0f:	cc                   	int3   
  415e10:	cc                   	int3   
  415e11:	cc                   	int3   
  415e12:	cc                   	int3   
  415e13:	cc                   	int3   
  415e14:	cc                   	int3   
  415e15:	cc                   	int3   
  415e16:	cc                   	int3   
  415e17:	cc                   	int3   
  415e18:	cc                   	int3   
  415e19:	cc                   	int3   
  415e1a:	cc                   	int3   
  415e1b:	cc                   	int3   
  415e1c:	cc                   	int3   
  415e1d:	cc                   	int3   
  415e1e:	cc                   	int3   
  415e1f:	cc                   	int3   
  415e20:	cc                   	int3   
  415e21:	cc                   	int3   
  415e22:	cc                   	int3   
  415e23:	cc                   	int3   
  415e24:	cc                   	int3   
  415e25:	cc                   	int3   
  415e26:	cc                   	int3   
  415e27:	cc                   	int3   
  415e28:	cc                   	int3   
  415e29:	cc                   	int3   
  415e2a:	cc                   	int3   
  415e2b:	cc                   	int3   
  415e2c:	cc                   	int3   
  415e2d:	cc                   	int3   
  415e2e:	cc                   	int3   
  415e2f:	cc                   	int3   
  415e30:	cc                   	int3   
  415e31:	cc                   	int3   
  415e32:	cc                   	int3   
  415e33:	cc                   	int3   
  415e34:	cc                   	int3   
  415e35:	cc                   	int3   
  415e36:	cc                   	int3   
  415e37:	cc                   	int3   
  415e38:	cc                   	int3   
  415e39:	cc                   	int3   
  415e3a:	cc                   	int3   
  415e3b:	cc                   	int3   
  415e3c:	cc                   	int3   
  415e3d:	cc                   	int3   
  415e3e:	cc                   	int3   
  415e3f:	cc                   	int3   
  415e40:	cc                   	int3   
  415e41:	cc                   	int3   
  415e42:	cc                   	int3   
  415e43:	cc                   	int3   
  415e44:	cc                   	int3   
  415e45:	cc                   	int3   
  415e46:	cc                   	int3   
  415e47:	cc                   	int3   
  415e48:	cc                   	int3   
  415e49:	cc                   	int3   
  415e4a:	cc                   	int3   
  415e4b:	cc                   	int3   
  415e4c:	cc                   	int3   
  415e4d:	cc                   	int3   
  415e4e:	cc                   	int3   
  415e4f:	cc                   	int3   
  415e50:	cc                   	int3   
  415e51:	cc                   	int3   
  415e52:	cc                   	int3   
  415e53:	cc                   	int3   
  415e54:	cc                   	int3   
  415e55:	cc                   	int3   
  415e56:	cc                   	int3   
  415e57:	cc                   	int3   
  415e58:	cc                   	int3   
  415e59:	cc                   	int3   
  415e5a:	cc                   	int3   
  415e5b:	cc                   	int3   
  415e5c:	cc                   	int3   
  415e5d:	cc                   	int3   
  415e5e:	cc                   	int3   
  415e5f:	cc                   	int3   
  415e60:	cc                   	int3   
  415e61:	cc                   	int3   
  415e62:	cc                   	int3   
  415e63:	cc                   	int3   
  415e64:	cc                   	int3   
  415e65:	cc                   	int3   
  415e66:	cc                   	int3   
  415e67:	cc                   	int3   
  415e68:	cc                   	int3   
  415e69:	cc                   	int3   
  415e6a:	cc                   	int3   
  415e6b:	cc                   	int3   
  415e6c:	cc                   	int3   
  415e6d:	cc                   	int3   
  415e6e:	cc                   	int3   
  415e6f:	cc                   	int3   
  415e70:	cc                   	int3   
  415e71:	cc                   	int3   
  415e72:	cc                   	int3   
  415e73:	cc                   	int3   
  415e74:	cc                   	int3   
  415e75:	cc                   	int3   
  415e76:	cc                   	int3   
  415e77:	cc                   	int3   
  415e78:	cc                   	int3   
  415e79:	cc                   	int3   
  415e7a:	cc                   	int3   
  415e7b:	cc                   	int3   
  415e7c:	cc                   	int3   
  415e7d:	cc                   	int3   
  415e7e:	cc                   	int3   
  415e7f:	cc                   	int3   
  415e80:	cc                   	int3   
  415e81:	cc                   	int3   
  415e82:	cc                   	int3   
  415e83:	cc                   	int3   
  415e84:	cc                   	int3   
  415e85:	cc                   	int3   
  415e86:	cc                   	int3   
  415e87:	cc                   	int3   
  415e88:	cc                   	int3   
  415e89:	cc                   	int3   
  415e8a:	cc                   	int3   
  415e8b:	cc                   	int3   
  415e8c:	cc                   	int3   
  415e8d:	cc                   	int3   
  415e8e:	cc                   	int3   
  415e8f:	cc                   	int3   
  415e90:	cc                   	int3   
  415e91:	cc                   	int3   
  415e92:	cc                   	int3   
  415e93:	cc                   	int3   
  415e94:	cc                   	int3   
  415e95:	cc                   	int3   
  415e96:	cc                   	int3   
  415e97:	cc                   	int3   
  415e98:	cc                   	int3   
  415e99:	cc                   	int3   
  415e9a:	cc                   	int3   
  415e9b:	cc                   	int3   
  415e9c:	cc                   	int3   
  415e9d:	cc                   	int3   
  415e9e:	cc                   	int3   
  415e9f:	cc                   	int3   
  415ea0:	cc                   	int3   
  415ea1:	cc                   	int3   
  415ea2:	cc                   	int3   
  415ea3:	cc                   	int3   
  415ea4:	cc                   	int3   
  415ea5:	cc                   	int3   
  415ea6:	cc                   	int3   
  415ea7:	cc                   	int3   
  415ea8:	cc                   	int3   
  415ea9:	cc                   	int3   
  415eaa:	cc                   	int3   
  415eab:	cc                   	int3   
  415eac:	cc                   	int3   
  415ead:	cc                   	int3   
  415eae:	cc                   	int3   
  415eaf:	cc                   	int3   
  415eb0:	cc                   	int3   
  415eb1:	cc                   	int3   
  415eb2:	cc                   	int3   
  415eb3:	cc                   	int3   
  415eb4:	cc                   	int3   
  415eb5:	cc                   	int3   
  415eb6:	cc                   	int3   
  415eb7:	cc                   	int3   
  415eb8:	cc                   	int3   
  415eb9:	cc                   	int3   
  415eba:	cc                   	int3   
  415ebb:	cc                   	int3   
  415ebc:	cc                   	int3   
  415ebd:	cc                   	int3   
  415ebe:	cc                   	int3   
  415ebf:	cc                   	int3   
  415ec0:	cc                   	int3   
  415ec1:	cc                   	int3   
  415ec2:	cc                   	int3   
  415ec3:	cc                   	int3   
  415ec4:	cc                   	int3   
  415ec5:	cc                   	int3   
  415ec6:	cc                   	int3   
  415ec7:	cc                   	int3   
  415ec8:	cc                   	int3   
  415ec9:	cc                   	int3   
  415eca:	cc                   	int3   
  415ecb:	cc                   	int3   
  415ecc:	cc                   	int3   
  415ecd:	cc                   	int3   
  415ece:	cc                   	int3   
  415ecf:	cc                   	int3   
  415ed0:	cc                   	int3   
  415ed1:	cc                   	int3   
  415ed2:	cc                   	int3   
  415ed3:	cc                   	int3   
  415ed4:	cc                   	int3   
  415ed5:	cc                   	int3   
  415ed6:	cc                   	int3   
  415ed7:	cc                   	int3   
  415ed8:	cc                   	int3   
  415ed9:	cc                   	int3   
  415eda:	cc                   	int3   
  415edb:	cc                   	int3   
  415edc:	cc                   	int3   
  415edd:	cc                   	int3   
  415ede:	cc                   	int3   
  415edf:	cc                   	int3   
  415ee0:	cc                   	int3   
  415ee1:	cc                   	int3   
  415ee2:	cc                   	int3   
  415ee3:	cc                   	int3   
  415ee4:	cc                   	int3   
  415ee5:	cc                   	int3   
  415ee6:	cc                   	int3   
  415ee7:	cc                   	int3   
  415ee8:	cc                   	int3   
  415ee9:	cc                   	int3   
  415eea:	cc                   	int3   
  415eeb:	cc                   	int3   
  415eec:	cc                   	int3   
  415eed:	cc                   	int3   
  415eee:	cc                   	int3   
  415eef:	cc                   	int3   
  415ef0:	cc                   	int3   
  415ef1:	cc                   	int3   
  415ef2:	cc                   	int3   
  415ef3:	cc                   	int3   
  415ef4:	cc                   	int3   
  415ef5:	cc                   	int3   
  415ef6:	cc                   	int3   
  415ef7:	cc                   	int3   
  415ef8:	cc                   	int3   
  415ef9:	cc                   	int3   
  415efa:	cc                   	int3   
  415efb:	cc                   	int3   
  415efc:	cc                   	int3   
  415efd:	cc                   	int3   
  415efe:	cc                   	int3   
  415eff:	cc                   	int3   
  415f00:	cc                   	int3   
  415f01:	cc                   	int3   
  415f02:	cc                   	int3   
  415f03:	cc                   	int3   
  415f04:	cc                   	int3   
  415f05:	cc                   	int3   
  415f06:	cc                   	int3   
  415f07:	cc                   	int3   
  415f08:	cc                   	int3   
  415f09:	cc                   	int3   
  415f0a:	cc                   	int3   
  415f0b:	cc                   	int3   
  415f0c:	cc                   	int3   
  415f0d:	cc                   	int3   
  415f0e:	cc                   	int3   
  415f0f:	cc                   	int3   
  415f10:	cc                   	int3   
  415f11:	cc                   	int3   
  415f12:	cc                   	int3   
  415f13:	cc                   	int3   
  415f14:	cc                   	int3   
  415f15:	cc                   	int3   
  415f16:	cc                   	int3   
  415f17:	cc                   	int3   
  415f18:	cc                   	int3   
  415f19:	cc                   	int3   
  415f1a:	cc                   	int3   
  415f1b:	cc                   	int3   
  415f1c:	cc                   	int3   
  415f1d:	cc                   	int3   
  415f1e:	cc                   	int3   
  415f1f:	cc                   	int3   
  415f20:	cc                   	int3   
  415f21:	cc                   	int3   
  415f22:	cc                   	int3   
  415f23:	cc                   	int3   
  415f24:	cc                   	int3   
  415f25:	cc                   	int3   
  415f26:	cc                   	int3   
  415f27:	cc                   	int3   
  415f28:	cc                   	int3   
  415f29:	cc                   	int3   
  415f2a:	cc                   	int3   
  415f2b:	cc                   	int3   
  415f2c:	cc                   	int3   
  415f2d:	cc                   	int3   
  415f2e:	cc                   	int3   
  415f2f:	cc                   	int3   
  415f30:	cc                   	int3   
  415f31:	cc                   	int3   
  415f32:	cc                   	int3   
  415f33:	cc                   	int3   
  415f34:	cc                   	int3   
  415f35:	cc                   	int3   
  415f36:	cc                   	int3   
  415f37:	cc                   	int3   
  415f38:	cc                   	int3   
  415f39:	cc                   	int3   
  415f3a:	cc                   	int3   
  415f3b:	cc                   	int3   
  415f3c:	cc                   	int3   
  415f3d:	cc                   	int3   
  415f3e:	cc                   	int3   
  415f3f:	cc                   	int3   
  415f40:	cc                   	int3   
  415f41:	cc                   	int3   
  415f42:	cc                   	int3   
  415f43:	cc                   	int3   
  415f44:	cc                   	int3   
  415f45:	cc                   	int3   
  415f46:	cc                   	int3   
  415f47:	cc                   	int3   
  415f48:	cc                   	int3   
  415f49:	cc                   	int3   
  415f4a:	cc                   	int3   
  415f4b:	cc                   	int3   
  415f4c:	cc                   	int3   
  415f4d:	cc                   	int3   
  415f4e:	cc                   	int3   
  415f4f:	cc                   	int3   
  415f50:	cc                   	int3   
  415f51:	cc                   	int3   
  415f52:	cc                   	int3   
  415f53:	cc                   	int3   
  415f54:	cc                   	int3   
  415f55:	cc                   	int3   
  415f56:	cc                   	int3   
  415f57:	cc                   	int3   
  415f58:	cc                   	int3   
  415f59:	cc                   	int3   
  415f5a:	cc                   	int3   
  415f5b:	cc                   	int3   
  415f5c:	cc                   	int3   
  415f5d:	cc                   	int3   
  415f5e:	cc                   	int3   
  415f5f:	cc                   	int3   
  415f60:	cc                   	int3   
  415f61:	cc                   	int3   
  415f62:	cc                   	int3   
  415f63:	cc                   	int3   
  415f64:	cc                   	int3   
  415f65:	cc                   	int3   
  415f66:	cc                   	int3   
  415f67:	cc                   	int3   
  415f68:	cc                   	int3   
  415f69:	cc                   	int3   
  415f6a:	cc                   	int3   
  415f6b:	cc                   	int3   
  415f6c:	cc                   	int3   
  415f6d:	cc                   	int3   
  415f6e:	cc                   	int3   
  415f6f:	cc                   	int3   
  415f70:	cc                   	int3   
  415f71:	cc                   	int3   
  415f72:	cc                   	int3   
  415f73:	cc                   	int3   
  415f74:	cc                   	int3   
  415f75:	cc                   	int3   
  415f76:	cc                   	int3   
  415f77:	cc                   	int3   
  415f78:	cc                   	int3   
  415f79:	cc                   	int3   
  415f7a:	cc                   	int3   
  415f7b:	cc                   	int3   
  415f7c:	cc                   	int3   
  415f7d:	cc                   	int3   
  415f7e:	cc                   	int3   
  415f7f:	cc                   	int3   
  415f80:	cc                   	int3   
  415f81:	cc                   	int3   
  415f82:	cc                   	int3   
  415f83:	cc                   	int3   
  415f84:	cc                   	int3   
  415f85:	cc                   	int3   
  415f86:	cc                   	int3   
  415f87:	cc                   	int3   
  415f88:	cc                   	int3   
  415f89:	cc                   	int3   
  415f8a:	cc                   	int3   
  415f8b:	cc                   	int3   
  415f8c:	cc                   	int3   
  415f8d:	cc                   	int3   
  415f8e:	cc                   	int3   
  415f8f:	cc                   	int3   
  415f90:	cc                   	int3   
  415f91:	cc                   	int3   
  415f92:	cc                   	int3   
  415f93:	cc                   	int3   
  415f94:	cc                   	int3   
  415f95:	cc                   	int3   
  415f96:	cc                   	int3   
  415f97:	cc                   	int3   
  415f98:	cc                   	int3   
  415f99:	cc                   	int3   
  415f9a:	cc                   	int3   
  415f9b:	cc                   	int3   
  415f9c:	cc                   	int3   
  415f9d:	cc                   	int3   
  415f9e:	cc                   	int3   
  415f9f:	cc                   	int3   
  415fa0:	cc                   	int3   
  415fa1:	cc                   	int3   
  415fa2:	cc                   	int3   
  415fa3:	cc                   	int3   
  415fa4:	cc                   	int3   
  415fa5:	cc                   	int3   
  415fa6:	cc                   	int3   
  415fa7:	cc                   	int3   
  415fa8:	cc                   	int3   
  415fa9:	cc                   	int3   
  415faa:	cc                   	int3   
  415fab:	cc                   	int3   
  415fac:	cc                   	int3   
  415fad:	cc                   	int3   
  415fae:	cc                   	int3   
  415faf:	cc                   	int3   
  415fb0:	cc                   	int3   
  415fb1:	cc                   	int3   
  415fb2:	cc                   	int3   
  415fb3:	cc                   	int3   
  415fb4:	cc                   	int3   
  415fb5:	cc                   	int3   
  415fb6:	cc                   	int3   
  415fb7:	cc                   	int3   
  415fb8:	cc                   	int3   
  415fb9:	cc                   	int3   
  415fba:	cc                   	int3   
  415fbb:	cc                   	int3   
  415fbc:	cc                   	int3   
  415fbd:	cc                   	int3   
  415fbe:	cc                   	int3   
  415fbf:	cc                   	int3   
  415fc0:	cc                   	int3   
  415fc1:	cc                   	int3   
  415fc2:	cc                   	int3   
  415fc3:	cc                   	int3   
  415fc4:	cc                   	int3   
  415fc5:	cc                   	int3   
  415fc6:	cc                   	int3   
  415fc7:	cc                   	int3   
  415fc8:	cc                   	int3   
  415fc9:	cc                   	int3   
  415fca:	cc                   	int3   
  415fcb:	cc                   	int3   
  415fcc:	cc                   	int3   
  415fcd:	cc                   	int3   
  415fce:	cc                   	int3   
  415fcf:	cc                   	int3   
  415fd0:	cc                   	int3   
  415fd1:	cc                   	int3   
  415fd2:	cc                   	int3   
  415fd3:	cc                   	int3   
  415fd4:	cc                   	int3   
  415fd5:	cc                   	int3   
  415fd6:	cc                   	int3   
  415fd7:	cc                   	int3   
  415fd8:	cc                   	int3   
  415fd9:	cc                   	int3   
  415fda:	cc                   	int3   
  415fdb:	cc                   	int3   
  415fdc:	cc                   	int3   
  415fdd:	cc                   	int3   
  415fde:	cc                   	int3   
  415fdf:	cc                   	int3   
  415fe0:	cc                   	int3   
  415fe1:	cc                   	int3   
  415fe2:	cc                   	int3   
  415fe3:	cc                   	int3   
  415fe4:	cc                   	int3   
  415fe5:	cc                   	int3   
  415fe6:	cc                   	int3   
  415fe7:	cc                   	int3   
  415fe8:	cc                   	int3   
  415fe9:	cc                   	int3   
  415fea:	cc                   	int3   
  415feb:	cc                   	int3   
  415fec:	cc                   	int3   
  415fed:	cc                   	int3   
  415fee:	cc                   	int3   
  415fef:	cc                   	int3   
  415ff0:	cc                   	int3   
  415ff1:	cc                   	int3   
  415ff2:	cc                   	int3   
  415ff3:	cc                   	int3   
  415ff4:	cc                   	int3   
  415ff5:	cc                   	int3   
  415ff6:	cc                   	int3   
  415ff7:	cc                   	int3   
  415ff8:	cc                   	int3   
  415ff9:	cc                   	int3   
  415ffa:	cc                   	int3   
  415ffb:	cc                   	int3   
  415ffc:	cc                   	int3   
  415ffd:	cc                   	int3   
  415ffe:	cc                   	int3   
  415fff:	cc                   	int3   
  416000:	cc                   	int3   
  416001:	cc                   	int3   
  416002:	cc                   	int3   
  416003:	cc                   	int3   
  416004:	cc                   	int3   
  416005:	cc                   	int3   
  416006:	cc                   	int3   
  416007:	cc                   	int3   
  416008:	cc                   	int3   
  416009:	cc                   	int3   
  41600a:	cc                   	int3   
  41600b:	cc                   	int3   
  41600c:	cc                   	int3   
  41600d:	cc                   	int3   
  41600e:	cc                   	int3   
  41600f:	cc                   	int3   
  416010:	cc                   	int3   
  416011:	cc                   	int3   
  416012:	cc                   	int3   
  416013:	cc                   	int3   
  416014:	cc                   	int3   
  416015:	cc                   	int3   
  416016:	cc                   	int3   
  416017:	cc                   	int3   
  416018:	cc                   	int3   
  416019:	cc                   	int3   
  41601a:	cc                   	int3   
  41601b:	cc                   	int3   
  41601c:	cc                   	int3   
  41601d:	cc                   	int3   
  41601e:	cc                   	int3   
  41601f:	cc                   	int3   
  416020:	cc                   	int3   
  416021:	cc                   	int3   
  416022:	cc                   	int3   
  416023:	cc                   	int3   
  416024:	cc                   	int3   
  416025:	cc                   	int3   
  416026:	cc                   	int3   
  416027:	cc                   	int3   
  416028:	cc                   	int3   
  416029:	cc                   	int3   
  41602a:	cc                   	int3   
  41602b:	cc                   	int3   
  41602c:	cc                   	int3   
  41602d:	cc                   	int3   
  41602e:	cc                   	int3   
  41602f:	cc                   	int3   
  416030:	cc                   	int3   
  416031:	cc                   	int3   
  416032:	cc                   	int3   
  416033:	cc                   	int3   
  416034:	cc                   	int3   
  416035:	cc                   	int3   
  416036:	cc                   	int3   
  416037:	cc                   	int3   
  416038:	cc                   	int3   
  416039:	cc                   	int3   
  41603a:	cc                   	int3   
  41603b:	cc                   	int3   
  41603c:	cc                   	int3   
  41603d:	cc                   	int3   
  41603e:	cc                   	int3   
  41603f:	cc                   	int3   
  416040:	cc                   	int3   
  416041:	cc                   	int3   
  416042:	cc                   	int3   
  416043:	cc                   	int3   
  416044:	cc                   	int3   
  416045:	cc                   	int3   
  416046:	cc                   	int3   
  416047:	cc                   	int3   
  416048:	cc                   	int3   
  416049:	cc                   	int3   
  41604a:	cc                   	int3   
  41604b:	cc                   	int3   
  41604c:	cc                   	int3   
  41604d:	cc                   	int3   
  41604e:	cc                   	int3   
  41604f:	cc                   	int3   
  416050:	cc                   	int3   
  416051:	cc                   	int3   
  416052:	cc                   	int3   
  416053:	cc                   	int3   
  416054:	cc                   	int3   
  416055:	cc                   	int3   
  416056:	cc                   	int3   
  416057:	cc                   	int3   
  416058:	cc                   	int3   
  416059:	cc                   	int3   
  41605a:	cc                   	int3   
  41605b:	cc                   	int3   
  41605c:	cc                   	int3   
  41605d:	cc                   	int3   
  41605e:	cc                   	int3   
  41605f:	cc                   	int3   
  416060:	cc                   	int3   
  416061:	cc                   	int3   
  416062:	cc                   	int3   
  416063:	cc                   	int3   
  416064:	cc                   	int3   
  416065:	cc                   	int3   
  416066:	cc                   	int3   
  416067:	cc                   	int3   
  416068:	cc                   	int3   
  416069:	cc                   	int3   
  41606a:	cc                   	int3   
  41606b:	cc                   	int3   
  41606c:	cc                   	int3   
  41606d:	cc                   	int3   
  41606e:	cc                   	int3   
  41606f:	cc                   	int3   
  416070:	cc                   	int3   
  416071:	cc                   	int3   
  416072:	cc                   	int3   
  416073:	cc                   	int3   
  416074:	cc                   	int3   
  416075:	cc                   	int3   
  416076:	cc                   	int3   
  416077:	cc                   	int3   
  416078:	cc                   	int3   
  416079:	cc                   	int3   
  41607a:	cc                   	int3   
  41607b:	cc                   	int3   
  41607c:	cc                   	int3   
  41607d:	cc                   	int3   
  41607e:	cc                   	int3   
  41607f:	cc                   	int3   
  416080:	cc                   	int3   
  416081:	cc                   	int3   
  416082:	cc                   	int3   
  416083:	cc                   	int3   
  416084:	cc                   	int3   
  416085:	cc                   	int3   
  416086:	cc                   	int3   
  416087:	cc                   	int3   
  416088:	cc                   	int3   
  416089:	cc                   	int3   
  41608a:	cc                   	int3   
  41608b:	cc                   	int3   
  41608c:	cc                   	int3   
  41608d:	cc                   	int3   
  41608e:	cc                   	int3   
  41608f:	cc                   	int3   
  416090:	cc                   	int3   
  416091:	cc                   	int3   
  416092:	cc                   	int3   
  416093:	cc                   	int3   
  416094:	cc                   	int3   
  416095:	cc                   	int3   
  416096:	cc                   	int3   
  416097:	cc                   	int3   
  416098:	cc                   	int3   
  416099:	cc                   	int3   
  41609a:	cc                   	int3   
  41609b:	cc                   	int3   
  41609c:	cc                   	int3   
  41609d:	cc                   	int3   
  41609e:	cc                   	int3   
  41609f:	cc                   	int3   
  4160a0:	cc                   	int3   
  4160a1:	cc                   	int3   
  4160a2:	cc                   	int3   
  4160a3:	cc                   	int3   
  4160a4:	cc                   	int3   
  4160a5:	cc                   	int3   
  4160a6:	cc                   	int3   
  4160a7:	cc                   	int3   
  4160a8:	cc                   	int3   
  4160a9:	cc                   	int3   
  4160aa:	cc                   	int3   
  4160ab:	cc                   	int3   
  4160ac:	cc                   	int3   
  4160ad:	cc                   	int3   
  4160ae:	cc                   	int3   
  4160af:	cc                   	int3   
  4160b0:	cc                   	int3   
  4160b1:	cc                   	int3   
  4160b2:	cc                   	int3   
  4160b3:	cc                   	int3   
  4160b4:	cc                   	int3   
  4160b5:	cc                   	int3   
  4160b6:	cc                   	int3   
  4160b7:	cc                   	int3   
  4160b8:	cc                   	int3   
  4160b9:	cc                   	int3   
  4160ba:	cc                   	int3   
  4160bb:	cc                   	int3   
  4160bc:	cc                   	int3   
  4160bd:	cc                   	int3   
  4160be:	cc                   	int3   
  4160bf:	cc                   	int3   
  4160c0:	cc                   	int3   
  4160c1:	cc                   	int3   
  4160c2:	cc                   	int3   
  4160c3:	cc                   	int3   
  4160c4:	cc                   	int3   
  4160c5:	cc                   	int3   
  4160c6:	cc                   	int3   
  4160c7:	cc                   	int3   
  4160c8:	cc                   	int3   
  4160c9:	cc                   	int3   
  4160ca:	cc                   	int3   
  4160cb:	cc                   	int3   
  4160cc:	cc                   	int3   
  4160cd:	cc                   	int3   
  4160ce:	cc                   	int3   
  4160cf:	cc                   	int3   
  4160d0:	cc                   	int3   
  4160d1:	cc                   	int3   
  4160d2:	cc                   	int3   
  4160d3:	cc                   	int3   
  4160d4:	cc                   	int3   
  4160d5:	cc                   	int3   
  4160d6:	cc                   	int3   
  4160d7:	cc                   	int3   
  4160d8:	cc                   	int3   
  4160d9:	cc                   	int3   
  4160da:	cc                   	int3   
  4160db:	cc                   	int3   
  4160dc:	cc                   	int3   
  4160dd:	cc                   	int3   
  4160de:	cc                   	int3   
  4160df:	cc                   	int3   
  4160e0:	cc                   	int3   
  4160e1:	cc                   	int3   
  4160e2:	cc                   	int3   
  4160e3:	cc                   	int3   
  4160e4:	cc                   	int3   
  4160e5:	cc                   	int3   
  4160e6:	cc                   	int3   
  4160e7:	cc                   	int3   
  4160e8:	cc                   	int3   
  4160e9:	cc                   	int3   
  4160ea:	cc                   	int3   
  4160eb:	cc                   	int3   
  4160ec:	cc                   	int3   
  4160ed:	cc                   	int3   
  4160ee:	cc                   	int3   
  4160ef:	cc                   	int3   
  4160f0:	cc                   	int3   
  4160f1:	cc                   	int3   
  4160f2:	cc                   	int3   
  4160f3:	cc                   	int3   
  4160f4:	cc                   	int3   
  4160f5:	cc                   	int3   
  4160f6:	cc                   	int3   
  4160f7:	cc                   	int3   
  4160f8:	cc                   	int3   
  4160f9:	cc                   	int3   
  4160fa:	cc                   	int3   
  4160fb:	cc                   	int3   
  4160fc:	cc                   	int3   
  4160fd:	cc                   	int3   
  4160fe:	cc                   	int3   
  4160ff:	cc                   	int3   
  416100:	cc                   	int3   
  416101:	cc                   	int3   
  416102:	cc                   	int3   
  416103:	cc                   	int3   
  416104:	cc                   	int3   
  416105:	cc                   	int3   
  416106:	cc                   	int3   
  416107:	cc                   	int3   
  416108:	cc                   	int3   
  416109:	cc                   	int3   
  41610a:	cc                   	int3   
  41610b:	cc                   	int3   
  41610c:	cc                   	int3   
  41610d:	cc                   	int3   
  41610e:	cc                   	int3   
  41610f:	cc                   	int3   
  416110:	cc                   	int3   
  416111:	cc                   	int3   
  416112:	cc                   	int3   
  416113:	cc                   	int3   
  416114:	cc                   	int3   
  416115:	cc                   	int3   
  416116:	cc                   	int3   
  416117:	cc                   	int3   
  416118:	cc                   	int3   
  416119:	cc                   	int3   
  41611a:	cc                   	int3   
  41611b:	cc                   	int3   
  41611c:	cc                   	int3   
  41611d:	cc                   	int3   
  41611e:	cc                   	int3   
  41611f:	cc                   	int3   
  416120:	cc                   	int3   
  416121:	cc                   	int3   
  416122:	cc                   	int3   
  416123:	cc                   	int3   
  416124:	cc                   	int3   
  416125:	cc                   	int3   
  416126:	cc                   	int3   
  416127:	cc                   	int3   
  416128:	cc                   	int3   
  416129:	cc                   	int3   
  41612a:	cc                   	int3   
  41612b:	cc                   	int3   
  41612c:	cc                   	int3   
  41612d:	cc                   	int3   
  41612e:	cc                   	int3   
  41612f:	cc                   	int3   
  416130:	cc                   	int3   
  416131:	cc                   	int3   
  416132:	cc                   	int3   
  416133:	cc                   	int3   
  416134:	cc                   	int3   
  416135:	cc                   	int3   
  416136:	cc                   	int3   
  416137:	cc                   	int3   
  416138:	cc                   	int3   
  416139:	cc                   	int3   
  41613a:	cc                   	int3   
  41613b:	cc                   	int3   
  41613c:	cc                   	int3   
  41613d:	cc                   	int3   
  41613e:	cc                   	int3   
  41613f:	cc                   	int3   
  416140:	cc                   	int3   
  416141:	cc                   	int3   
  416142:	cc                   	int3   
  416143:	cc                   	int3   
  416144:	cc                   	int3   
  416145:	cc                   	int3   
  416146:	cc                   	int3   
  416147:	cc                   	int3   
  416148:	cc                   	int3   
  416149:	cc                   	int3   
  41614a:	cc                   	int3   
  41614b:	cc                   	int3   
  41614c:	cc                   	int3   
  41614d:	cc                   	int3   
  41614e:	cc                   	int3   
  41614f:	cc                   	int3   
  416150:	cc                   	int3   
  416151:	cc                   	int3   
  416152:	cc                   	int3   
  416153:	cc                   	int3   
  416154:	cc                   	int3   
  416155:	cc                   	int3   
  416156:	cc                   	int3   
  416157:	cc                   	int3   
  416158:	cc                   	int3   
  416159:	cc                   	int3   
  41615a:	cc                   	int3   
  41615b:	cc                   	int3   
  41615c:	cc                   	int3   
  41615d:	cc                   	int3   
  41615e:	cc                   	int3   
  41615f:	cc                   	int3   
  416160:	cc                   	int3   
  416161:	cc                   	int3   
  416162:	cc                   	int3   
  416163:	cc                   	int3   
  416164:	cc                   	int3   
  416165:	cc                   	int3   
  416166:	cc                   	int3   
  416167:	cc                   	int3   
  416168:	cc                   	int3   
  416169:	cc                   	int3   
  41616a:	cc                   	int3   
  41616b:	cc                   	int3   
  41616c:	cc                   	int3   
  41616d:	cc                   	int3   
  41616e:	cc                   	int3   
  41616f:	cc                   	int3   
  416170:	cc                   	int3   
  416171:	cc                   	int3   
  416172:	cc                   	int3   
  416173:	cc                   	int3   
  416174:	cc                   	int3   
  416175:	cc                   	int3   
  416176:	cc                   	int3   
  416177:	cc                   	int3   
  416178:	cc                   	int3   
  416179:	cc                   	int3   
  41617a:	cc                   	int3   
  41617b:	cc                   	int3   
  41617c:	cc                   	int3   
  41617d:	cc                   	int3   
  41617e:	cc                   	int3   
  41617f:	cc                   	int3   
  416180:	cc                   	int3   
  416181:	cc                   	int3   
  416182:	cc                   	int3   
  416183:	cc                   	int3   
  416184:	cc                   	int3   
  416185:	cc                   	int3   
  416186:	cc                   	int3   
  416187:	cc                   	int3   
  416188:	cc                   	int3   
  416189:	cc                   	int3   
  41618a:	cc                   	int3   
  41618b:	cc                   	int3   
  41618c:	cc                   	int3   
  41618d:	cc                   	int3   
  41618e:	cc                   	int3   
  41618f:	cc                   	int3   
  416190:	cc                   	int3   
  416191:	cc                   	int3   
  416192:	cc                   	int3   
  416193:	cc                   	int3   
  416194:	cc                   	int3   
  416195:	cc                   	int3   
  416196:	cc                   	int3   
  416197:	cc                   	int3   
  416198:	cc                   	int3   
  416199:	cc                   	int3   
  41619a:	cc                   	int3   
  41619b:	cc                   	int3   
  41619c:	cc                   	int3   
  41619d:	cc                   	int3   
  41619e:	cc                   	int3   
  41619f:	cc                   	int3   
  4161a0:	cc                   	int3   
  4161a1:	cc                   	int3   
  4161a2:	cc                   	int3   
  4161a3:	cc                   	int3   
  4161a4:	cc                   	int3   
  4161a5:	cc                   	int3   
  4161a6:	cc                   	int3   
  4161a7:	cc                   	int3   
  4161a8:	cc                   	int3   
  4161a9:	cc                   	int3   
  4161aa:	cc                   	int3   
  4161ab:	cc                   	int3   
  4161ac:	cc                   	int3   
  4161ad:	cc                   	int3   
  4161ae:	cc                   	int3   
  4161af:	cc                   	int3   
  4161b0:	cc                   	int3   
  4161b1:	cc                   	int3   
  4161b2:	cc                   	int3   
  4161b3:	cc                   	int3   
  4161b4:	cc                   	int3   
  4161b5:	cc                   	int3   
  4161b6:	cc                   	int3   
  4161b7:	cc                   	int3   
  4161b8:	cc                   	int3   
  4161b9:	cc                   	int3   
  4161ba:	cc                   	int3   
  4161bb:	cc                   	int3   
  4161bc:	cc                   	int3   
  4161bd:	cc                   	int3   
  4161be:	cc                   	int3   
  4161bf:	cc                   	int3   
  4161c0:	cc                   	int3   
  4161c1:	cc                   	int3   
  4161c2:	cc                   	int3   
  4161c3:	cc                   	int3   
  4161c4:	cc                   	int3   
  4161c5:	cc                   	int3   
  4161c6:	cc                   	int3   
  4161c7:	cc                   	int3   
  4161c8:	cc                   	int3   
  4161c9:	cc                   	int3   
  4161ca:	cc                   	int3   
  4161cb:	cc                   	int3   
  4161cc:	cc                   	int3   
  4161cd:	cc                   	int3   
  4161ce:	cc                   	int3   
  4161cf:	cc                   	int3   
  4161d0:	cc                   	int3   
  4161d1:	cc                   	int3   
  4161d2:	cc                   	int3   
  4161d3:	cc                   	int3   
  4161d4:	cc                   	int3   
  4161d5:	cc                   	int3   
  4161d6:	cc                   	int3   
  4161d7:	cc                   	int3   
  4161d8:	cc                   	int3   
  4161d9:	cc                   	int3   
  4161da:	cc                   	int3   
  4161db:	cc                   	int3   
  4161dc:	cc                   	int3   
  4161dd:	cc                   	int3   
  4161de:	cc                   	int3   
  4161df:	cc                   	int3   
  4161e0:	cc                   	int3   
  4161e1:	cc                   	int3   
  4161e2:	cc                   	int3   
  4161e3:	cc                   	int3   
  4161e4:	cc                   	int3   
  4161e5:	cc                   	int3   
  4161e6:	cc                   	int3   
  4161e7:	cc                   	int3   
  4161e8:	cc                   	int3   
  4161e9:	cc                   	int3   
  4161ea:	cc                   	int3   
  4161eb:	cc                   	int3   
  4161ec:	cc                   	int3   
  4161ed:	cc                   	int3   
  4161ee:	cc                   	int3   
  4161ef:	cc                   	int3   
  4161f0:	cc                   	int3   
  4161f1:	cc                   	int3   
  4161f2:	cc                   	int3   
  4161f3:	cc                   	int3   
  4161f4:	cc                   	int3   
  4161f5:	cc                   	int3   
  4161f6:	cc                   	int3   
  4161f7:	cc                   	int3   
  4161f8:	cc                   	int3   
  4161f9:	cc                   	int3   
  4161fa:	cc                   	int3   
  4161fb:	cc                   	int3   
  4161fc:	cc                   	int3   
  4161fd:	cc                   	int3   
  4161fe:	cc                   	int3   
  4161ff:	cc                   	int3   
  416200:	cc                   	int3   
  416201:	cc                   	int3   
  416202:	cc                   	int3   
  416203:	cc                   	int3   
  416204:	cc                   	int3   
  416205:	cc                   	int3   
  416206:	cc                   	int3   
  416207:	cc                   	int3   
  416208:	cc                   	int3   
  416209:	cc                   	int3   
  41620a:	cc                   	int3   
  41620b:	cc                   	int3   
  41620c:	cc                   	int3   
  41620d:	cc                   	int3   
  41620e:	cc                   	int3   
  41620f:	cc                   	int3   
  416210:	cc                   	int3   
  416211:	cc                   	int3   
  416212:	cc                   	int3   
  416213:	cc                   	int3   
  416214:	cc                   	int3   
  416215:	cc                   	int3   
  416216:	cc                   	int3   
  416217:	cc                   	int3   
  416218:	cc                   	int3   
  416219:	cc                   	int3   
  41621a:	cc                   	int3   
  41621b:	cc                   	int3   
  41621c:	cc                   	int3   
  41621d:	cc                   	int3   
  41621e:	cc                   	int3   
  41621f:	cc                   	int3   
  416220:	cc                   	int3   
  416221:	cc                   	int3   
  416222:	cc                   	int3   
  416223:	cc                   	int3   
  416224:	cc                   	int3   
  416225:	cc                   	int3   
  416226:	cc                   	int3   
  416227:	cc                   	int3   
  416228:	cc                   	int3   
  416229:	cc                   	int3   
  41622a:	cc                   	int3   
  41622b:	cc                   	int3   
  41622c:	cc                   	int3   
  41622d:	cc                   	int3   
  41622e:	cc                   	int3   
  41622f:	cc                   	int3   
  416230:	cc                   	int3   
  416231:	cc                   	int3   
  416232:	cc                   	int3   
