
search?token=eyJ1c2VyX2lkIjo3MCwidGVhbV9pZCI6bnVsbCwiZmlsZV9pZCI6MTR9.YE7tjg.d2Iucqud6d9k0h7IFDyTkL2s0Ac      檔案格式 elf64-x86-64


.init 區段的反組譯：

0000000000000530 <_init>:
 530:	48 83 ec 08          	sub    $0x8,%rsp
 534:	48 8b 05 a5 1a 21 00 	mov    0x211aa5(%rip),%rax        # 211fe0 <__gmon_start__>
 53b:	48 85 c0             	test   %rax,%rax
 53e:	74 02                	je     542 <_init+0x12>
 540:	ff d0                	callq  *%rax
 542:	48 83 c4 08          	add    $0x8,%rsp
 546:	c3                   	retq   

.plt 區段的反組譯：

0000000000000550 <.plt>:
 550:	ff 35 62 1a 21 00    	pushq  0x211a62(%rip)        # 211fb8 <_GLOBAL_OFFSET_TABLE_+0x8>
 556:	ff 25 64 1a 21 00    	jmpq   *0x211a64(%rip)        # 211fc0 <_GLOBAL_OFFSET_TABLE_+0x10>
 55c:	0f 1f 40 00          	nopl   0x0(%rax)

.plt.got 區段的反組譯：

0000000000000560 <puts@plt>:
 560:	ff 25 6a 1a 21 00    	jmpq   *0x211a6a(%rip)        # 211fd0 <puts@GLIBC_2.2.5>
 566:	66 90                	xchg   %ax,%ax

0000000000000568 <__cxa_finalize@plt>:
 568:	ff 25 8a 1a 21 00    	jmpq   *0x211a8a(%rip)        # 211ff8 <__cxa_finalize@GLIBC_2.2.5>
 56e:	66 90                	xchg   %ax,%ax

.text 區段的反組譯：

0000000000000570 <_start>:
     570:	31 ed                	xor    %ebp,%ebp
     572:	49 89 d1             	mov    %rdx,%r9
     575:	5e                   	pop    %rsi
     576:	48 89 e2             	mov    %rsp,%rdx
     579:	48 83 e4 f0          	and    $0xfffffffffffffff0,%rsp
     57d:	50                   	push   %rax
     57e:	54                   	push   %rsp
     57f:	4c 8d 05 ea 13 01 00 	lea    0x113ea(%rip),%r8        # 11970 <__libc_csu_fini>
     586:	48 8d 0d 73 13 01 00 	lea    0x11373(%rip),%rcx        # 11900 <__libc_csu_init>
     58d:	48 8d 3d 0c 01 00 00 	lea    0x10c(%rip),%rdi        # 6a0 <main>
     594:	ff 15 3e 1a 21 00    	callq  *0x211a3e(%rip)        # 211fd8 <__libc_start_main@GLIBC_2.2.5>
     59a:	f4                   	hlt    
     59b:	0f 1f 44 00 00       	nopl   0x0(%rax,%rax,1)

00000000000005a0 <deregister_tm_clones>:
     5a0:	48 8d 3d 69 1a 21 00 	lea    0x211a69(%rip),%rdi        # 212010 <__TMC_END__>
     5a7:	48 8d 05 69 1a 21 00 	lea    0x211a69(%rip),%rax        # 212017 <__TMC_END__+0x7>
     5ae:	55                   	push   %rbp
     5af:	48 29 f8             	sub    %rdi,%rax
     5b2:	48 89 e5             	mov    %rsp,%rbp
     5b5:	48 83 f8 0e          	cmp    $0xe,%rax
     5b9:	76 15                	jbe    5d0 <deregister_tm_clones+0x30>
     5bb:	48 8b 05 06 1a 21 00 	mov    0x211a06(%rip),%rax        # 211fc8 <_ITM_deregisterTMCloneTable>
     5c2:	48 85 c0             	test   %rax,%rax
     5c5:	74 09                	je     5d0 <deregister_tm_clones+0x30>
     5c7:	5d                   	pop    %rbp
     5c8:	ff e0                	jmpq   *%rax
     5ca:	66 0f 1f 44 00 00    	nopw   0x0(%rax,%rax,1)
     5d0:	5d                   	pop    %rbp
     5d1:	c3                   	retq   
     5d2:	0f 1f 40 00          	nopl   0x0(%rax)
     5d6:	66 2e 0f 1f 84 00 00 	nopw   %cs:0x0(%rax,%rax,1)
     5dd:	00 00 00 

00000000000005e0 <register_tm_clones>:
     5e0:	48 8d 3d 29 1a 21 00 	lea    0x211a29(%rip),%rdi        # 212010 <__TMC_END__>
     5e7:	48 8d 35 22 1a 21 00 	lea    0x211a22(%rip),%rsi        # 212010 <__TMC_END__>
     5ee:	55                   	push   %rbp
     5ef:	48 29 fe             	sub    %rdi,%rsi
     5f2:	48 89 e5             	mov    %rsp,%rbp
     5f5:	48 c1 fe 03          	sar    $0x3,%rsi
     5f9:	48 89 f0             	mov    %rsi,%rax
     5fc:	48 c1 e8 3f          	shr    $0x3f,%rax
     600:	48 01 c6             	add    %rax,%rsi
     603:	48 d1 fe             	sar    %rsi
     606:	74 18                	je     620 <register_tm_clones+0x40>
     608:	48 8b 05 e1 19 21 00 	mov    0x2119e1(%rip),%rax        # 211ff0 <_ITM_registerTMCloneTable>
     60f:	48 85 c0             	test   %rax,%rax
     612:	74 0c                	je     620 <register_tm_clones+0x40>
     614:	5d                   	pop    %rbp
     615:	ff e0                	jmpq   *%rax
     617:	66 0f 1f 84 00 00 00 	nopw   0x0(%rax,%rax,1)
     61e:	00 00 
     620:	5d                   	pop    %rbp
     621:	c3                   	retq   
     622:	0f 1f 40 00          	nopl   0x0(%rax)
     626:	66 2e 0f 1f 84 00 00 	nopw   %cs:0x0(%rax,%rax,1)
     62d:	00 00 00 

0000000000000630 <__do_global_dtors_aux>:
     630:	80 3d e9 19 21 00 00 	cmpb   $0x0,0x2119e9(%rip)        # 212020 <completed.7561>
     637:	75 27                	jne    660 <__do_global_dtors_aux+0x30>
     639:	48 83 3d b7 19 21 00 	cmpq   $0x0,0x2119b7(%rip)        # 211ff8 <__cxa_finalize@GLIBC_2.2.5>
     640:	00 
     641:	55                   	push   %rbp
     642:	48 89 e5             	mov    %rsp,%rbp
     645:	74 0c                	je     653 <__do_global_dtors_aux+0x23>
     647:	48 8b 3d ba 19 21 00 	mov    0x2119ba(%rip),%rdi        # 212008 <__dso_handle>
     64e:	e8 15 ff ff ff       	callq  568 <__cxa_finalize@plt>
     653:	e8 48 ff ff ff       	callq  5a0 <deregister_tm_clones>
     658:	5d                   	pop    %rbp
     659:	c6 05 c0 19 21 00 01 	movb   $0x1,0x2119c0(%rip)        # 212020 <completed.7561>
     660:	f3 c3                	repz retq 
     662:	0f 1f 40 00          	nopl   0x0(%rax)
     666:	66 2e 0f 1f 84 00 00 	nopw   %cs:0x0(%rax,%rax,1)
     66d:	00 00 00 

0000000000000670 <frame_dummy>:
     670:	48 8d 3d 71 17 21 00 	lea    0x211771(%rip),%rdi        # 211de8 <__JCR_END__>
     677:	48 83 3f 00          	cmpq   $0x0,(%rdi)
     67b:	75 0b                	jne    688 <frame_dummy+0x18>
     67d:	e9 5e ff ff ff       	jmpq   5e0 <register_tm_clones>
     682:	66 0f 1f 44 00 00    	nopw   0x0(%rax,%rax,1)
     688:	48 8b 05 59 19 21 00 	mov    0x211959(%rip),%rax        # 211fe8 <_Jv_RegisterClasses>
     68f:	48 85 c0             	test   %rax,%rax
     692:	74 e9                	je     67d <frame_dummy+0xd>
     694:	55                   	push   %rbp
     695:	48 89 e5             	mov    %rsp,%rbp
     698:	ff d0                	callq  *%rax
     69a:	5d                   	pop    %rbp
     69b:	e9 40 ff ff ff       	jmpq   5e0 <register_tm_clones>

00000000000006a0 <main>:
     6a0:	55                   	push   %rbp
     6a1:	48 89 e5             	mov    %rsp,%rbp
     6a4:	48 8d 3d d9 12 01 00 	lea    0x112d9(%rip),%rdi        # 11984 <_IO_stdin_used+0x4>
     6ab:	e8 b0 fe ff ff       	callq  560 <puts@plt>
     6b0:	b8 00 00 00 00       	mov    $0x0,%eax
     6b5:	5d                   	pop    %rbp
     6b6:	c3                   	retq   

00000000000006b7 <do_nothing>:
     6b7:	55                   	push   %rbp
     6b8:	48 89 e5             	mov    %rsp,%rbp
     6bb:	c6 05 8c 19 21 00 25 	movb   $0x25,0x21198c(%rip)        # 21204e <s+0xe>
     6c2:	c6 05 9e 19 21 00 25 	movb   $0x25,0x21199e(%rip)        # 212067 <s+0x27>
     6c9:	c6 05 8e 19 21 00 6a 	movb   $0x6a,0x21198e(%rip)        # 21205e <s+0x1e>
     6d0:	c6 05 6e 19 21 00 44 	movb   $0x44,0x21196e(%rip)        # 212045 <s+0x5>
     6d7:	c6 05 79 19 21 00 22 	movb   $0x22,0x211979(%rip)        # 212057 <s+0x17>
     6de:	c6 05 64 19 21 00 5e 	movb   $0x5e,0x211964(%rip)        # 212049 <s+0x9>
     6e5:	c6 05 71 19 21 00 5f 	movb   $0x5f,0x211971(%rip)        # 21205d <s+0x1d>
     6ec:	c6 05 72 19 21 00 69 	movb   $0x69,0x211972(%rip)        # 212065 <s+0x25>
     6f3:	c6 05 66 19 21 00 4c 	movb   $0x4c,0x211966(%rip)        # 212060 <s+0x20>
     6fa:	c6 05 53 19 21 00 60 	movb   $0x60,0x211953(%rip)        # 212054 <s+0x14>
     701:	c6 05 49 19 21 00 2a 	movb   $0x2a,0x211949(%rip)        # 212051 <s+0x11>
     708:	c6 05 57 19 21 00 71 	movb   $0x71,0x211957(%rip)        # 212066 <s+0x26>
     70f:	c6 05 2f 19 21 00 4f 	movb   $0x4f,0x21192f(%rip)        # 212045 <s+0x5>
     716:	c6 05 40 19 21 00 3c 	movb   $0x3c,0x211940(%rip)        # 21205d <s+0x1d>
     71d:	c6 05 34 19 21 00 7e 	movb   $0x7e,0x211934(%rip)        # 212058 <s+0x18>
     724:	c6 05 35 19 21 00 45 	movb   $0x45,0x211935(%rip)        # 212060 <s+0x20>
     72b:	c6 05 31 19 21 00 2e 	movb   $0x2e,0x211931(%rip)        # 212063 <s+0x23>
     732:	c6 05 1b 19 21 00 57 	movb   $0x57,0x21191b(%rip)        # 212054 <s+0x14>
     739:	c6 05 00 19 21 00 78 	movb   $0x78,0x211900(%rip)        # 212040 <s>
     740:	c6 05 0d 19 21 00 29 	movb   $0x29,0x21190d(%rip)        # 212054 <s+0x14>
     747:	c6 05 f2 18 21 00 4b 	movb   $0x4b,0x2118f2(%rip)        # 212040 <s>
     74e:	c6 05 fc 18 21 00 5b 	movb   $0x5b,0x2118fc(%rip)        # 212051 <s+0x11>
     755:	c6 05 fe 18 21 00 65 	movb   $0x65,0x2118fe(%rip)        # 21205a <s+0x1a>
     75c:	c6 05 f9 18 21 00 4a 	movb   $0x4a,0x2118f9(%rip)        # 21205c <s+0x1c>
     763:	c6 05 f4 18 21 00 2b 	movb   $0x2b,0x2118f4(%rip)        # 21205e <s+0x1e>
     76a:	c6 05 e1 18 21 00 68 	movb   $0x68,0x2118e1(%rip)        # 212052 <s+0x12>
     771:	c6 05 d9 18 21 00 24 	movb   $0x24,0x2118d9(%rip)        # 212051 <s+0x11>
     778:	c6 05 df 18 21 00 59 	movb   $0x59,0x2118df(%rip)        # 21205e <s+0x1e>
     77f:	c6 05 db 18 21 00 4d 	movb   $0x4d,0x2118db(%rip)        # 212061 <s+0x21>
     786:	c6 05 c0 18 21 00 30 	movb   $0x30,0x2118c0(%rip)        # 21204d <s+0xd>
     78d:	c6 05 b8 18 21 00 7e 	movb   $0x7e,0x2118b8(%rip)        # 21204c <s+0xc>
     794:	c6 05 bc 18 21 00 5d 	movb   $0x5d,0x2118bc(%rip)        # 212057 <s+0x17>
     79b:	c6 05 af 18 21 00 33 	movb   $0x33,0x2118af(%rip)        # 212051 <s+0x11>
     7a2:	c6 05 98 18 21 00 73 	movb   $0x73,0x211898(%rip)        # 212041 <s+0x1>
     7a9:	c6 05 af 18 21 00 68 	movb   $0x68,0x2118af(%rip)        # 21205f <s+0x1f>
     7b0:	c6 05 9a 18 21 00 6c 	movb   $0x6c,0x21189a(%rip)        # 212051 <s+0x11>
     7b7:	c6 05 a8 18 21 00 25 	movb   $0x25,0x2118a8(%rip)        # 212066 <s+0x26>
     7be:	c6 05 a1 18 21 00 40 	movb   $0x40,0x2118a1(%rip)        # 212066 <s+0x26>
     7c5:	c6 05 8a 18 21 00 34 	movb   $0x34,0x21188a(%rip)        # 212056 <s+0x16>
     7cc:	c6 05 7e 18 21 00 3c 	movb   $0x3c,0x21187e(%rip)        # 212051 <s+0x11>
     7d3:	c6 05 86 18 21 00 70 	movb   $0x70,0x211886(%rip)        # 212060 <s+0x20>
     7da:	c6 05 7e 18 21 00 2a 	movb   $0x2a,0x21187e(%rip)        # 21205f <s+0x1f>
     7e1:	c6 05 70 18 21 00 2a 	movb   $0x2a,0x211870(%rip)        # 212058 <s+0x18>
     7e8:	c6 05 66 18 21 00 64 	movb   $0x64,0x211866(%rip)        # 212055 <s+0x15>
     7ef:	c6 05 6c 18 21 00 49 	movb   $0x49,0x21186c(%rip)        # 212062 <s+0x22>
     7f6:	c6 05 67 18 21 00 58 	movb   $0x58,0x211867(%rip)        # 212064 <s+0x24>
     7fd:	c6 05 41 18 21 00 22 	movb   $0x22,0x211841(%rip)        # 212045 <s+0x5>
     804:	c6 05 39 18 21 00 5e 	movb   $0x5e,0x211839(%rip)        # 212044 <s+0x4>
     80b:	c6 05 53 18 21 00 73 	movb   $0x73,0x211853(%rip)        # 212065 <s+0x25>
     812:	c6 05 2b 18 21 00 28 	movb   $0x28,0x21182b(%rip)        # 212044 <s+0x4>
     819:	c6 05 37 18 21 00 66 	movb   $0x66,0x211837(%rip)        # 212057 <s+0x17>
     820:	c6 05 33 18 21 00 79 	movb   $0x79,0x211833(%rip)        # 21205a <s+0x1a>
     827:	c6 05 1d 18 21 00 25 	movb   $0x25,0x21181d(%rip)        # 21204b <s+0xb>
     82e:	c6 05 25 18 21 00 64 	movb   $0x64,0x211825(%rip)        # 21205a <s+0x1a>
     835:	c6 05 2b 18 21 00 2b 	movb   $0x2b,0x21182b(%rip)        # 212067 <s+0x27>
     83c:	c6 05 0c 18 21 00 41 	movb   $0x41,0x21180c(%rip)        # 21204f <s+0xf>
     843:	c6 05 0e 18 21 00 3f 	movb   $0x3f,0x21180e(%rip)        # 212058 <s+0x18>
     84a:	c6 05 f7 17 21 00 2e 	movb   $0x2e,0x2117f7(%rip)        # 212048 <s+0x8>
     851:	c6 05 f0 17 21 00 35 	movb   $0x35,0x2117f0(%rip)        # 212048 <s+0x8>
     858:	c6 05 ed 17 21 00 34 	movb   $0x34,0x2117ed(%rip)        # 21204c <s+0xc>
     85f:	c6 05 01 18 21 00 68 	movb   $0x68,0x211801(%rip)        # 212067 <s+0x27>
     866:	c6 05 f6 17 21 00 26 	movb   $0x26,0x2117f6(%rip)        # 212063 <s+0x23>
     86d:	c6 05 cc 17 21 00 6b 	movb   $0x6b,0x2117cc(%rip)        # 212040 <s>
     874:	c6 05 dd 17 21 00 43 	movb   $0x43,0x2117dd(%rip)        # 212058 <s+0x18>
     87b:	c6 05 ce 17 21 00 79 	movb   $0x79,0x2117ce(%rip)        # 212050 <s+0x10>
     882:	c6 05 d7 17 21 00 5b 	movb   $0x5b,0x2117d7(%rip)        # 212060 <s+0x20>
     889:	c6 05 ca 17 21 00 56 	movb   $0x56,0x2117ca(%rip)        # 21205a <s+0x1a>
     890:	c6 05 b4 17 21 00 4f 	movb   $0x4f,0x2117b4(%rip)        # 21204b <s+0xb>
     897:	c6 05 bb 17 21 00 7e 	movb   $0x7e,0x2117bb(%rip)        # 212059 <s+0x19>
     89e:	c6 05 b3 17 21 00 24 	movb   $0x24,0x2117b3(%rip)        # 212058 <s+0x18>
     8a5:	c6 05 b8 17 21 00 64 	movb   $0x64,0x2117b8(%rip)        # 212064 <s+0x24>
     8ac:	c6 05 ad 17 21 00 24 	movb   $0x24,0x2117ad(%rip)        # 212060 <s+0x20>
     8b3:	c6 05 ab 17 21 00 2f 	movb   $0x2f,0x2117ab(%rip)        # 212065 <s+0x25>
     8ba:	c6 05 95 17 21 00 70 	movb   $0x70,0x211795(%rip)        # 212056 <s+0x16>
     8c1:	c6 05 85 17 21 00 3b 	movb   $0x3b,0x211785(%rip)        # 21204d <s+0xd>
     8c8:	c6 05 8c 17 21 00 7e 	movb   $0x7e,0x21178c(%rip)        # 21205b <s+0x1b>
     8cf:	c6 05 6d 17 21 00 6c 	movb   $0x6c,0x21176d(%rip)        # 212043 <s+0x3>
     8d6:	c6 05 77 17 21 00 6c 	movb   $0x6c,0x211777(%rip)        # 212054 <s+0x14>
     8dd:	c6 05 75 17 21 00 3d 	movb   $0x3d,0x211775(%rip)        # 212059 <s+0x19>
     8e4:	c6 05 6c 17 21 00 3d 	movb   $0x3d,0x21176c(%rip)        # 212057 <s+0x17>
     8eb:	c6 05 57 17 21 00 3e 	movb   $0x3e,0x211757(%rip)        # 212049 <s+0x9>
     8f2:	c6 05 58 17 21 00 6b 	movb   $0x6b,0x211758(%rip)        # 212051 <s+0x11>
     8f9:	c6 05 46 17 21 00 61 	movb   $0x61,0x211746(%rip)        # 212046 <s+0x6>
     900:	c6 05 60 17 21 00 5b 	movb   $0x5b,0x211760(%rip)        # 212067 <s+0x27>
     907:	c6 05 44 17 21 00 28 	movb   $0x28,0x211744(%rip)        # 212052 <s+0x12>
     90e:	c6 05 32 17 21 00 68 	movb   $0x68,0x211732(%rip)        # 212047 <s+0x7>
     915:	c6 05 3c 17 21 00 59 	movb   $0x59,0x21173c(%rip)        # 212058 <s+0x18>
     91c:	c6 05 36 17 21 00 2d 	movb   $0x2d,0x211736(%rip)        # 212059 <s+0x19>
     923:	c6 05 1c 17 21 00 59 	movb   $0x59,0x21171c(%rip)        # 212046 <s+0x6>
     92a:	c6 05 0f 17 21 00 7e 	movb   $0x7e,0x21170f(%rip)        # 212040 <s>
     931:	c6 05 0f 17 21 00 3c 	movb   $0x3c,0x21170f(%rip)        # 212047 <s+0x7>
     938:	c6 05 0c 17 21 00 25 	movb   $0x25,0x21170c(%rip)        # 21204b <s+0xb>
     93f:	c6 05 1e 17 21 00 65 	movb   $0x65,0x21171e(%rip)        # 212064 <s+0x24>
     946:	c6 05 fd 16 21 00 5e 	movb   $0x5e,0x2116fd(%rip)        # 21204a <s+0xa>
     94d:	c6 05 03 17 21 00 64 	movb   $0x64,0x211703(%rip)        # 212057 <s+0x17>
     954:	c6 05 f4 16 21 00 54 	movb   $0x54,0x2116f4(%rip)        # 21204f <s+0xf>
     95b:	c6 05 ed 16 21 00 68 	movb   $0x68,0x2116ed(%rip)        # 21204f <s+0xf>
     962:	c6 05 fb 16 21 00 62 	movb   $0x62,0x2116fb(%rip)        # 212064 <s+0x24>
     969:	c6 05 eb 16 21 00 6f 	movb   $0x6f,0x2116eb(%rip)        # 21205b <s+0x1b>
     970:	c6 05 ed 16 21 00 70 	movb   $0x70,0x2116ed(%rip)        # 212064 <s+0x24>
     977:	c6 05 d8 16 21 00 6e 	movb   $0x6e,0x2116d8(%rip)        # 212056 <s+0x16>
     97e:	c6 05 c7 16 21 00 5e 	movb   $0x5e,0x2116c7(%rip)        # 21204c <s+0xc>
     985:	c6 05 c4 16 21 00 4b 	movb   $0x4b,0x2116c4(%rip)        # 212050 <s+0x10>
     98c:	c6 05 cf 16 21 00 7e 	movb   $0x7e,0x2116cf(%rip)        # 212062 <s+0x22>
     993:	c6 05 c7 16 21 00 2f 	movb   $0x2f,0x2116c7(%rip)        # 212061 <s+0x21>
     99a:	c6 05 c5 16 21 00 79 	movb   $0x79,0x2116c5(%rip)        # 212066 <s+0x26>
     9a1:	c6 05 99 16 21 00 70 	movb   $0x70,0x211699(%rip)        # 212041 <s+0x1>
     9a8:	c6 05 91 16 21 00 69 	movb   $0x69,0x211691(%rip)        # 212040 <s>
     9af:	c6 05 9d 16 21 00 57 	movb   $0x57,0x21169d(%rip)        # 212053 <s+0x13>
     9b6:	c6 05 a5 16 21 00 52 	movb   $0x52,0x2116a5(%rip)        # 212062 <s+0x22>
     9bd:	c6 05 9b 16 21 00 7e 	movb   $0x7e,0x21169b(%rip)        # 21205f <s+0x1f>
     9c4:	c6 05 76 16 21 00 44 	movb   $0x44,0x211676(%rip)        # 212041 <s+0x1>
     9cb:	c6 05 85 16 21 00 5f 	movb   $0x5f,0x211685(%rip)        # 212057 <s+0x17>
     9d2:	c6 05 8d 16 21 00 54 	movb   $0x54,0x21168d(%rip)        # 212066 <s+0x26>
     9d9:	c6 05 61 16 21 00 6c 	movb   $0x6c,0x211661(%rip)        # 212041 <s+0x1>
     9e0:	c6 05 70 16 21 00 55 	movb   $0x55,0x211670(%rip)        # 212057 <s+0x17>
     9e7:	c6 05 74 16 21 00 44 	movb   $0x44,0x211674(%rip)        # 212062 <s+0x22>
     9ee:	c6 05 66 16 21 00 5f 	movb   $0x5f,0x211666(%rip)        # 21205b <s+0x1b>
     9f5:	c6 05 4b 16 21 00 5e 	movb   $0x5e,0x21164b(%rip)        # 212047 <s+0x7>
     9fc:	c6 05 4b 16 21 00 51 	movb   $0x51,0x21164b(%rip)        # 21204e <s+0xe>
     a03:	c6 05 47 16 21 00 38 	movb   $0x38,0x211647(%rip)        # 212051 <s+0x11>
     a0a:	c6 05 4c 16 21 00 78 	movb   $0x78,0x21164c(%rip)        # 21205d <s+0x1d>
     a11:	c6 05 4f 16 21 00 3f 	movb   $0x3f,0x21164f(%rip)        # 212067 <s+0x27>
     a18:	c6 05 2c 16 21 00 75 	movb   $0x75,0x21162c(%rip)        # 21204b <s+0xb>
     a1f:	c6 05 32 16 21 00 7c 	movb   $0x7c,0x211632(%rip)        # 212058 <s+0x18>
     a26:	c6 05 39 16 21 00 36 	movb   $0x36,0x211639(%rip)        # 212066 <s+0x26>
     a2d:	c6 05 29 16 21 00 52 	movb   $0x52,0x211629(%rip)        # 21205d <s+0x1d>
     a34:	c6 05 0b 16 21 00 69 	movb   $0x69,0x21160b(%rip)        # 212046 <s+0x6>
     a3b:	c6 05 04 16 21 00 70 	movb   $0x70,0x211604(%rip)        # 212046 <s+0x6>
     a42:	c6 05 f9 15 21 00 4b 	movb   $0x4b,0x2115f9(%rip)        # 212042 <s+0x2>
     a49:	c6 05 0e 16 21 00 53 	movb   $0x53,0x21160e(%rip)        # 21205e <s+0x1e>
     a50:	c6 05 03 16 21 00 70 	movb   $0x70,0x211603(%rip)        # 21205a <s+0x1a>
     a57:	c6 05 fe 15 21 00 45 	movb   $0x45,0x2115fe(%rip)        # 21205c <s+0x1c>
     a5e:	c6 05 01 16 21 00 41 	movb   $0x41,0x211601(%rip)        # 212066 <s+0x26>
     a65:	c6 05 dc 15 21 00 4f 	movb   $0x4f,0x2115dc(%rip)        # 212048 <s+0x8>
     a6c:	c6 05 e4 15 21 00 70 	movb   $0x70,0x2115e4(%rip)        # 212057 <s+0x17>
     a73:	c6 05 da 15 21 00 4c 	movb   $0x4c,0x2115da(%rip)        # 212054 <s+0x14>
     a7a:	c6 05 c0 15 21 00 76 	movb   $0x76,0x2115c0(%rip)        # 212041 <s+0x1>
     a81:	c6 05 ca 15 21 00 52 	movb   $0x52,0x2115ca(%rip)        # 212052 <s+0x12>
     a88:	c6 05 b8 15 21 00 45 	movb   $0x45,0x2115b8(%rip)        # 212047 <s+0x7>
     a8f:	c6 05 b4 15 21 00 22 	movb   $0x22,0x2115b4(%rip)        # 21204a <s+0xa>
     a96:	c6 05 b0 15 21 00 66 	movb   $0x66,0x2115b0(%rip)        # 21204d <s+0xd>
     a9d:	c6 05 af 15 21 00 54 	movb   $0x54,0x2115af(%rip)        # 212053 <s+0x13>
     aa4:	c6 05 bc 15 21 00 60 	movb   $0x60,0x2115bc(%rip)        # 212067 <s+0x27>
     aab:	c6 05 b1 15 21 00 45 	movb   $0x45,0x2115b1(%rip)        # 212063 <s+0x23>
     ab2:	c6 05 99 15 21 00 36 	movb   $0x36,0x211599(%rip)        # 212052 <s+0x12>
     ab9:	c6 05 95 15 21 00 3b 	movb   $0x3b,0x211595(%rip)        # 212055 <s+0x15>
     ac0:	c6 05 92 15 21 00 25 	movb   $0x25,0x211592(%rip)        # 212059 <s+0x19>
     ac7:	c6 05 92 15 21 00 45 	movb   $0x45,0x211592(%rip)        # 212060 <s+0x20>
     ace:	c6 05 71 15 21 00 28 	movb   $0x28,0x211571(%rip)        # 212046 <s+0x6>
     ad5:	c6 05 7f 15 21 00 6d 	movb   $0x6d,0x21157f(%rip)        # 21205b <s+0x1b>
     adc:	c6 05 83 15 21 00 49 	movb   $0x49,0x211583(%rip)        # 212066 <s+0x26>
     ae3:	c6 05 68 15 21 00 69 	movb   $0x69,0x211568(%rip)        # 212052 <s+0x12>
     aea:	c6 05 70 15 21 00 7a 	movb   $0x7a,0x211570(%rip)        # 212061 <s+0x21>
     af1:	c6 05 5f 15 21 00 6b 	movb   $0x6b,0x21155f(%rip)        # 212057 <s+0x17>
     af8:	c6 05 65 15 21 00 31 	movb   $0x31,0x211565(%rip)        # 212064 <s+0x24>
     aff:	c6 05 51 15 21 00 5f 	movb   $0x5f,0x211551(%rip)        # 212057 <s+0x17>
     b06:	c6 05 35 15 21 00 28 	movb   $0x28,0x211535(%rip)        # 212042 <s+0x2>
     b0d:	c6 05 34 15 21 00 58 	movb   $0x58,0x211534(%rip)        # 212048 <s+0x8>
     b14:	c6 05 49 15 21 00 42 	movb   $0x42,0x211549(%rip)        # 212064 <s+0x24>
     b1b:	c6 05 1f 15 21 00 3a 	movb   $0x3a,0x21151f(%rip)        # 212041 <s+0x1>
     b22:	c6 05 25 15 21 00 71 	movb   $0x71,0x211525(%rip)        # 21204e <s+0xe>
     b29:	c6 05 33 15 21 00 60 	movb   $0x60,0x211533(%rip)        # 212063 <s+0x23>
     b30:	c6 05 1c 15 21 00 73 	movb   $0x73,0x21151c(%rip)        # 212053 <s+0x13>
     b37:	c6 05 07 15 21 00 6e 	movb   $0x6e,0x211507(%rip)        # 212045 <s+0x5>
     b3e:	c6 05 16 15 21 00 6a 	movb   $0x6a,0x211516(%rip)        # 21205b <s+0x1b>
     b45:	c6 05 01 15 21 00 3d 	movb   $0x3d,0x211501(%rip)        # 21204d <s+0xd>
     b4c:	c6 05 f8 14 21 00 2e 	movb   $0x2e,0x2114f8(%rip)        # 21204b <s+0xb>
     b53:	c6 05 08 15 21 00 3f 	movb   $0x3f,0x211508(%rip)        # 212062 <s+0x22>
     b5a:	c6 05 fe 14 21 00 66 	movb   $0x66,0x2114fe(%rip)        # 21205f <s+0x1f>
     b61:	c6 05 ed 14 21 00 71 	movb   $0x71,0x2114ed(%rip)        # 212055 <s+0x15>
     b68:	c6 05 db 14 21 00 69 	movb   $0x69,0x2114db(%rip)        # 21204a <s+0xa>
     b6f:	c6 05 e8 14 21 00 6b 	movb   $0x6b,0x2114e8(%rip)        # 21205e <s+0x1e>
     b76:	c6 05 e5 14 21 00 31 	movb   $0x31,0x2114e5(%rip)        # 212062 <s+0x22>
     b7d:	c6 05 ca 14 21 00 45 	movb   $0x45,0x2114ca(%rip)        # 21204e <s+0xe>
     b84:	c6 05 cf 14 21 00 44 	movb   $0x44,0x2114cf(%rip)        # 21205a <s+0x1a>
     b8b:	c6 05 c6 14 21 00 64 	movb   $0x64,0x2114c6(%rip)        # 212058 <s+0x18>
     b92:	c6 05 bb 14 21 00 64 	movb   $0x64,0x2114bb(%rip)        # 212054 <s+0x14>
     b99:	c6 05 b1 14 21 00 2c 	movb   $0x2c,0x2114b1(%rip)        # 212051 <s+0x11>
     ba0:	c6 05 a1 14 21 00 69 	movb   $0x69,0x2114a1(%rip)        # 212048 <s+0x8>
     ba7:	c6 05 b1 14 21 00 30 	movb   $0x30,0x2114b1(%rip)        # 21205f <s+0x1f>
     bae:	c6 05 a8 14 21 00 42 	movb   $0x42,0x2114a8(%rip)        # 21205d <s+0x1d>
     bb5:	c6 05 8a 14 21 00 39 	movb   $0x39,0x21148a(%rip)        # 212046 <s+0x6>
     bbc:	c6 05 9a 14 21 00 59 	movb   $0x59,0x21149a(%rip)        # 21205d <s+0x1d>
     bc3:	c6 05 8d 14 21 00 45 	movb   $0x45,0x21148d(%rip)        # 212057 <s+0x17>
     bca:	c6 05 8f 14 21 00 41 	movb   $0x41,0x21148f(%rip)        # 212060 <s+0x20>
     bd1:	c6 05 87 14 21 00 3c 	movb   $0x3c,0x211487(%rip)        # 21205f <s+0x1f>
     bd8:	c6 05 85 14 21 00 5b 	movb   $0x5b,0x211485(%rip)        # 212064 <s+0x24>
     bdf:	c6 05 77 14 21 00 2b 	movb   $0x2b,0x211477(%rip)        # 21205d <s+0x1d>
     be6:	c6 05 54 14 21 00 4b 	movb   $0x4b,0x211454(%rip)        # 212041 <s+0x1>
     bed:	c6 05 4f 14 21 00 79 	movb   $0x79,0x21144f(%rip)        # 212043 <s+0x3>
     bf4:	c6 05 5a 14 21 00 4f 	movb   $0x4f,0x21145a(%rip)        # 212055 <s+0x15>
     bfb:	c6 05 51 14 21 00 7a 	movb   $0x7a,0x211451(%rip)        # 212053 <s+0x13>
     c02:	c6 05 4c 14 21 00 3b 	movb   $0x3b,0x21144c(%rip)        # 212055 <s+0x15>
     c09:	c6 05 4a 14 21 00 36 	movb   $0x36,0x21144a(%rip)        # 21205a <s+0x1a>
     c10:	c6 05 3c 14 21 00 35 	movb   $0x35,0x21143c(%rip)        # 212053 <s+0x13>
     c17:	c6 05 46 14 21 00 2b 	movb   $0x2b,0x211446(%rip)        # 212064 <s+0x24>
     c1e:	c6 05 31 14 21 00 7d 	movb   $0x7d,0x211431(%rip)        # 212056 <s+0x16>
     c25:	c6 05 35 14 21 00 2e 	movb   $0x2e,0x211435(%rip)        # 212061 <s+0x21>
     c2c:	c6 05 10 14 21 00 2e 	movb   $0x2e,0x211410(%rip)        # 212043 <s+0x3>
     c33:	c6 05 0a 14 21 00 6e 	movb   $0x6e,0x21140a(%rip)        # 212044 <s+0x4>
     c3a:	c6 05 16 14 21 00 5f 	movb   $0x5f,0x211416(%rip)        # 212057 <s+0x17>
     c41:	c6 05 18 14 21 00 5d 	movb   $0x5d,0x211418(%rip)        # 212060 <s+0x20>
     c48:	c6 05 f2 13 21 00 21 	movb   $0x21,0x2113f2(%rip)        # 212041 <s+0x1>
     c4f:	c6 05 04 14 21 00 7e 	movb   $0x7e,0x211404(%rip)        # 21205a <s+0x1a>
     c56:	c6 05 fe 13 21 00 3b 	movb   $0x3b,0x2113fe(%rip)        # 21205b <s+0x1b>
     c5d:	c6 05 f7 13 21 00 73 	movb   $0x73,0x2113f7(%rip)        # 21205b <s+0x1b>
     c64:	c6 05 f2 13 21 00 53 	movb   $0x53,0x2113f2(%rip)        # 21205d <s+0x1d>
     c6b:	c6 05 ee 13 21 00 3a 	movb   $0x3a,0x2113ee(%rip)        # 212060 <s+0x20>
     c72:	c6 05 de 13 21 00 57 	movb   $0x57,0x2113de(%rip)        # 212057 <s+0x17>
     c79:	c6 05 ce 13 21 00 54 	movb   $0x54,0x2113ce(%rip)        # 21204e <s+0xe>
     c80:	c6 05 cb 13 21 00 33 	movb   $0x33,0x2113cb(%rip)        # 212052 <s+0x12>
     c87:	c6 05 b2 13 21 00 76 	movb   $0x76,0x2113b2(%rip)        # 212040 <s>
     c8e:	c6 05 b2 13 21 00 46 	movb   $0x46,0x2113b2(%rip)        # 212047 <s+0x7>
     c95:	c6 05 c1 13 21 00 66 	movb   $0x66,0x2113c1(%rip)        # 21205d <s+0x1d>
     c9c:	c6 05 b6 13 21 00 49 	movb   $0x49,0x2113b6(%rip)        # 212059 <s+0x19>
     ca3:	c6 05 b7 13 21 00 35 	movb   $0x35,0x2113b7(%rip)        # 212061 <s+0x21>
     caa:	c6 05 99 13 21 00 4f 	movb   $0x4f,0x211399(%rip)        # 21204a <s+0xa>
     cb1:	c6 05 a4 13 21 00 4e 	movb   $0x4e,0x2113a4(%rip)        # 21205c <s+0x1c>
     cb8:	c6 05 a5 13 21 00 6c 	movb   $0x6c,0x2113a5(%rip)        # 212064 <s+0x24>
     cbf:	c6 05 9c 13 21 00 76 	movb   $0x76,0x21139c(%rip)        # 212062 <s+0x22>
     cc6:	c6 05 7b 13 21 00 3c 	movb   $0x3c,0x21137b(%rip)        # 212048 <s+0x8>
     ccd:	c6 05 81 13 21 00 55 	movb   $0x55,0x211381(%rip)        # 212055 <s+0x15>
     cd4:	c6 05 75 13 21 00 31 	movb   $0x31,0x211375(%rip)        # 212050 <s+0x10>
     cdb:	c6 05 81 13 21 00 2a 	movb   $0x2a,0x211381(%rip)        # 212063 <s+0x23>
     ce2:	c6 05 73 13 21 00 71 	movb   $0x71,0x211373(%rip)        # 21205c <s+0x1c>
     ce9:	c6 05 56 13 21 00 44 	movb   $0x44,0x211356(%rip)        # 212046 <s+0x6>
     cf0:	c6 05 63 13 21 00 45 	movb   $0x45,0x211363(%rip)        # 21205a <s+0x1a>
     cf7:	c6 05 62 13 21 00 66 	movb   $0x66,0x211362(%rip)        # 212060 <s+0x20>
     cfe:	c6 05 5b 13 21 00 36 	movb   $0x36,0x21135b(%rip)        # 212060 <s+0x20>
     d05:	c6 05 47 13 21 00 3f 	movb   $0x3f,0x211347(%rip)        # 212053 <s+0x13>
     d0c:	c6 05 36 13 21 00 3d 	movb   $0x3d,0x211336(%rip)        # 212049 <s+0x9>
     d13:	c6 05 49 13 21 00 46 	movb   $0x46,0x211349(%rip)        # 212063 <s+0x23>
     d1a:	c6 05 2a 13 21 00 37 	movb   $0x37,0x21132a(%rip)        # 21204b <s+0xb>
     d21:	c6 05 3a 13 21 00 7e 	movb   $0x7e,0x21133a(%rip)        # 212062 <s+0x22>
     d28:	c6 05 37 13 21 00 31 	movb   $0x31,0x211337(%rip)        # 212066 <s+0x26>
     d2f:	c6 05 13 13 21 00 4d 	movb   $0x4d,0x211313(%rip)        # 212049 <s+0x9>
     d36:	c6 05 0d 13 21 00 56 	movb   $0x56,0x21130d(%rip)        # 21204a <s+0xa>
     d3d:	c6 05 11 13 21 00 58 	movb   $0x58,0x211311(%rip)        # 212055 <s+0x15>
     d44:	c6 05 fc 12 21 00 30 	movb   $0x30,0x2112fc(%rip)        # 212047 <s+0x7>
     d4b:	c6 05 09 13 21 00 25 	movb   $0x25,0x211309(%rip)        # 21205b <s+0x1b>
     d52:	c6 05 f3 12 21 00 69 	movb   $0x69,0x2112f3(%rip)        # 21204c <s+0xc>
     d59:	c6 05 f6 12 21 00 7e 	movb   $0x7e,0x2112f6(%rip)        # 212056 <s+0x16>
     d60:	c6 05 e9 12 21 00 51 	movb   $0x51,0x2112e9(%rip)        # 212050 <s+0x10>
     d67:	c6 05 f2 12 21 00 51 	movb   $0x51,0x2112f2(%rip)        # 212060 <s+0x20>
     d6e:	c6 05 e3 12 21 00 69 	movb   $0x69,0x2112e3(%rip)        # 212058 <s+0x18>
     d75:	c6 05 d8 12 21 00 38 	movb   $0x38,0x2112d8(%rip)        # 212054 <s+0x14>
     d7c:	c6 05 c4 12 21 00 39 	movb   $0x39,0x2112c4(%rip)        # 212047 <s+0x7>
     d83:	c6 05 da 12 21 00 24 	movb   $0x24,0x2112da(%rip)        # 212064 <s+0x24>
     d8a:	c6 05 c6 12 21 00 62 	movb   $0x62,0x2112c6(%rip)        # 212057 <s+0x17>
     d91:	c6 05 af 12 21 00 22 	movb   $0x22,0x2112af(%rip)        # 212047 <s+0x7>
     d98:	c6 05 b1 12 21 00 20 	movb   $0x20,0x2112b1(%rip)        # 212050 <s+0x10>
     d9f:	c6 05 b6 12 21 00 26 	movb   $0x26,0x2112b6(%rip)        # 21205c <s+0x1c>
     da6:	c6 05 9f 12 21 00 51 	movb   $0x51,0x21129f(%rip)        # 21204c <s+0xc>
     dad:	c6 05 ad 12 21 00 6e 	movb   $0x6e,0x2112ad(%rip)        # 212061 <s+0x21>
     db4:	c6 05 ab 12 21 00 7e 	movb   $0x7e,0x2112ab(%rip)        # 212066 <s+0x26>
     dbb:	c6 05 81 12 21 00 74 	movb   $0x74,0x211281(%rip)        # 212043 <s+0x3>
     dc2:	c6 05 7f 12 21 00 60 	movb   $0x60,0x21127f(%rip)        # 212048 <s+0x8>
     dc9:	c6 05 87 12 21 00 68 	movb   $0x68,0x211287(%rip)        # 212057 <s+0x17>
     dd0:	c6 05 8b 12 21 00 2f 	movb   $0x2f,0x21128b(%rip)        # 212062 <s+0x22>
     dd7:	c6 05 65 12 21 00 6d 	movb   $0x6d,0x211265(%rip)        # 212043 <s+0x3>
     dde:	c6 05 67 12 21 00 4a 	movb   $0x4a,0x211267(%rip)        # 21204c <s+0xc>
     de5:	c6 05 74 12 21 00 4c 	movb   $0x4c,0x211274(%rip)        # 212060 <s+0x20>
     dec:	c6 05 51 12 21 00 68 	movb   $0x68,0x211251(%rip)        # 212044 <s+0x4>
     df3:	c6 05 53 12 21 00 68 	movb   $0x68,0x211253(%rip)        # 21204d <s+0xd>
     dfa:	c6 05 53 12 21 00 50 	movb   $0x50,0x211253(%rip)        # 212054 <s+0x14>
     e01:	c6 05 4e 12 21 00 44 	movb   $0x44,0x21124e(%rip)        # 212056 <s+0x16>
     e08:	c6 05 3c 12 21 00 39 	movb   $0x39,0x21123c(%rip)        # 21204b <s+0xb>
     e0f:	c6 05 2f 12 21 00 4e 	movb   $0x4e,0x21122f(%rip)        # 212045 <s+0x5>
     e16:	c6 05 35 12 21 00 6c 	movb   $0x6c,0x211235(%rip)        # 212052 <s+0x12>
     e1d:	c6 05 1c 12 21 00 2c 	movb   $0x2c,0x21121c(%rip)        # 212040 <s>
     e24:	c6 05 39 12 21 00 55 	movb   $0x55,0x211239(%rip)        # 212064 <s+0x24>
     e2b:	c6 05 16 12 21 00 51 	movb   $0x51,0x211216(%rip)        # 212048 <s+0x8>
     e32:	c6 05 15 12 21 00 3b 	movb   $0x3b,0x211215(%rip)        # 21204e <s+0xe>
     e39:	c6 05 03 12 21 00 63 	movb   $0x63,0x211203(%rip)        # 212043 <s+0x3>
     e40:	c6 05 01 12 21 00 24 	movb   $0x24,0x211201(%rip)        # 212048 <s+0x8>
     e47:	c6 05 19 12 21 00 3f 	movb   $0x3f,0x211219(%rip)        # 212067 <s+0x27>
     e4e:	c6 05 0c 12 21 00 43 	movb   $0x43,0x21120c(%rip)        # 212061 <s+0x21>
     e55:	c6 05 ef 11 21 00 72 	movb   $0x72,0x2111ef(%rip)        # 21204b <s+0xb>
     e5c:	c6 05 04 12 21 00 35 	movb   $0x35,0x211204(%rip)        # 212067 <s+0x27>
     e63:	c6 05 ec 11 21 00 39 	movb   $0x39,0x2111ec(%rip)        # 212056 <s+0x16>
     e6a:	c6 05 f6 11 21 00 40 	movb   $0x40,0x2111f6(%rip)        # 212067 <s+0x27>
     e71:	c6 05 e8 11 21 00 6f 	movb   $0x6f,0x2111e8(%rip)        # 212060 <s+0x20>
     e78:	c6 05 cd 11 21 00 5e 	movb   $0x5e,0x2111cd(%rip)        # 21204c <s+0xc>
     e7f:	c6 05 cc 11 21 00 3f 	movb   $0x3f,0x2111cc(%rip)        # 212052 <s+0x12>
     e86:	c6 05 d2 11 21 00 35 	movb   $0x35,0x2111d2(%rip)        # 21205f <s+0x1f>
     e8d:	c6 05 b7 11 21 00 7a 	movb   $0x7a,0x2111b7(%rip)        # 21204b <s+0xb>
     e94:	c6 05 b9 11 21 00 51 	movb   $0x51,0x2111b9(%rip)        # 212054 <s+0x14>
     e9b:	c6 05 bd 11 21 00 3f 	movb   $0x3f,0x2111bd(%rip)        # 21205f <s+0x1f>
     ea2:	c6 05 a6 11 21 00 55 	movb   $0x55,0x2111a6(%rip)        # 21204f <s+0xf>
     ea9:	c6 05 95 11 21 00 39 	movb   $0x39,0x211195(%rip)        # 212045 <s+0x5>
     eb0:	c6 05 ab 11 21 00 70 	movb   $0x70,0x2111ab(%rip)        # 212062 <s+0x22>
     eb7:	c6 05 92 11 21 00 59 	movb   $0x59,0x211192(%rip)        # 212050 <s+0x10>
     ebe:	c6 05 98 11 21 00 5f 	movb   $0x5f,0x211198(%rip)        # 21205d <s+0x1d>
     ec5:	c6 05 92 11 21 00 6f 	movb   $0x6f,0x211192(%rip)        # 21205e <s+0x1e>
     ecc:	c6 05 8e 11 21 00 6f 	movb   $0x6f,0x21118e(%rip)        # 212061 <s+0x21>
     ed3:	c6 05 85 11 21 00 4e 	movb   $0x4e,0x211185(%rip)        # 21205f <s+0x1f>
     eda:	c6 05 61 11 21 00 57 	movb   $0x57,0x211161(%rip)        # 212042 <s+0x2>
     ee1:	c6 05 7d 11 21 00 2b 	movb   $0x2b,0x21117d(%rip)        # 212065 <s+0x25>
     ee8:	c6 05 59 11 21 00 6d 	movb   $0x6d,0x211159(%rip)        # 212048 <s+0x8>
     eef:	c6 05 54 11 21 00 66 	movb   $0x66,0x211154(%rip)        # 21204a <s+0xa>
     ef6:	c6 05 62 11 21 00 2d 	movb   $0x2d,0x211162(%rip)        # 21205f <s+0x1f>
     efd:	c6 05 4a 11 21 00 31 	movb   $0x31,0x21114a(%rip)        # 21204e <s+0xe>
     f04:	c6 05 53 11 21 00 55 	movb   $0x55,0x211153(%rip)        # 21205e <s+0x1e>
     f0b:	c6 05 41 11 21 00 39 	movb   $0x39,0x211141(%rip)        # 212053 <s+0x13>
     f12:	c6 05 38 11 21 00 44 	movb   $0x44,0x211138(%rip)        # 212051 <s+0x11>
     f19:	c6 05 3a 11 21 00 4c 	movb   $0x4c,0x21113a(%rip)        # 21205a <s+0x1a>
     f20:	c6 05 33 11 21 00 42 	movb   $0x42,0x211133(%rip)        # 21205a <s+0x1a>
     f27:	c6 05 34 11 21 00 3f 	movb   $0x3f,0x211134(%rip)        # 212062 <s+0x22>
     f2e:	c6 05 0f 11 21 00 50 	movb   $0x50,0x21110f(%rip)        # 212044 <s+0x4>
     f35:	c6 05 0f 11 21 00 78 	movb   $0x78,0x21110f(%rip)        # 21204b <s+0xb>
     f3c:	c6 05 0b 11 21 00 5a 	movb   $0x5a,0x21110b(%rip)        # 21204e <s+0xe>
     f43:	c6 05 02 11 21 00 41 	movb   $0x41,0x211102(%rip)        # 21204c <s+0xc>
     f4a:	c6 05 14 11 21 00 22 	movb   $0x22,0x211114(%rip)        # 212065 <s+0x25>
     f51:	c6 05 0a 11 21 00 22 	movb   $0x22,0x21110a(%rip)        # 212062 <s+0x22>
     f58:	c6 05 ec 10 21 00 35 	movb   $0x35,0x2110ec(%rip)        # 21204b <s+0xb>
     f5f:	c6 05 e0 10 21 00 4c 	movb   $0x4c,0x2110e0(%rip)        # 212046 <s+0x6>
     f66:	c6 05 ee 10 21 00 67 	movb   $0x67,0x2110ee(%rip)        # 21205b <s+0x1b>
     f6d:	c6 05 d9 10 21 00 65 	movb   $0x65,0x2110d9(%rip)        # 21204d <s+0xd>
     f74:	c6 05 d4 10 21 00 76 	movb   $0x76,0x2110d4(%rip)        # 21204f <s+0xf>
     f7b:	c6 05 df 10 21 00 73 	movb   $0x73,0x2110df(%rip)        # 212061 <s+0x21>
     f82:	c6 05 c2 10 21 00 3d 	movb   $0x3d,0x2110c2(%rip)        # 21204b <s+0xb>
     f89:	c6 05 c7 10 21 00 48 	movb   $0x48,0x2110c7(%rip)        # 212057 <s+0x17>
     f90:	c6 05 cf 10 21 00 2a 	movb   $0x2a,0x2110cf(%rip)        # 212066 <s+0x26>
     f97:	c6 05 ae 10 21 00 46 	movb   $0x46,0x2110ae(%rip)        # 21204c <s+0xc>
     f9e:	c6 05 b9 10 21 00 46 	movb   $0x46,0x2110b9(%rip)        # 21205e <s+0x1e>
     fa5:	c6 05 b0 10 21 00 3b 	movb   $0x3b,0x2110b0(%rip)        # 21205c <s+0x1c>
     fac:	c6 05 a5 10 21 00 76 	movb   $0x76,0x2110a5(%rip)        # 212058 <s+0x18>
     fb3:	c6 05 92 10 21 00 4c 	movb   $0x4c,0x211092(%rip)        # 21204c <s+0xc>
     fba:	c6 05 95 10 21 00 31 	movb   $0x31,0x211095(%rip)        # 212056 <s+0x16>
     fc1:	c6 05 93 10 21 00 5e 	movb   $0x5e,0x211093(%rip)        # 21205b <s+0x1b>
     fc8:	c6 05 8d 10 21 00 5b 	movb   $0x5b,0x21108d(%rip)        # 21205c <s+0x1c>
     fcf:	c6 05 73 10 21 00 32 	movb   $0x32,0x211073(%rip)        # 212049 <s+0x9>
     fd6:	c6 05 86 10 21 00 5e 	movb   $0x5e,0x211086(%rip)        # 212063 <s+0x23>
     fdd:	c6 05 7b 10 21 00 3b 	movb   $0x3b,0x21107b(%rip)        # 21205f <s+0x1f>
     fe4:	c6 05 6c 10 21 00 68 	movb   $0x68,0x21106c(%rip)        # 212057 <s+0x17>
     feb:	c6 05 69 10 21 00 24 	movb   $0x24,0x211069(%rip)        # 21205b <s+0x1b>
     ff2:	c6 05 6a 10 21 00 38 	movb   $0x38,0x21106a(%rip)        # 212063 <s+0x23>
     ff9:	c6 05 49 10 21 00 63 	movb   $0x63,0x211049(%rip)        # 212049 <s+0x9>
    1000:	c6 05 50 10 21 00 39 	movb   $0x39,0x211050(%rip)        # 212057 <s+0x17>
    1007:	c6 05 52 10 21 00 2f 	movb   $0x2f,0x211052(%rip)        # 212060 <s+0x20>
    100e:	c6 05 3a 10 21 00 61 	movb   $0x61,0x21103a(%rip)        # 21204f <s+0xf>
    1015:	c6 05 2e 10 21 00 52 	movb   $0x52,0x21102e(%rip)        # 21204a <s+0xa>
    101c:	c6 05 28 10 21 00 6d 	movb   $0x6d,0x211028(%rip)        # 21204b <s+0xb>
    1023:	c6 05 33 10 21 00 2b 	movb   $0x2b,0x211033(%rip)        # 21205d <s+0x1d>
    102a:	c6 05 11 10 21 00 77 	movb   $0x77,0x211011(%rip)        # 212042 <s+0x2>
    1031:	c6 05 15 10 21 00 7c 	movb   $0x7c,0x211015(%rip)        # 21204d <s+0xd>
    1038:	c6 05 1c 10 21 00 2b 	movb   $0x2b,0x21101c(%rip)        # 21205b <s+0x1b>
    103f:	c6 05 13 10 21 00 68 	movb   $0x68,0x211013(%rip)        # 212059 <s+0x19>
    1046:	c6 05 18 10 21 00 66 	movb   $0x66,0x211018(%rip)        # 212065 <s+0x25>
    104d:	c6 05 03 10 21 00 7e 	movb   $0x7e,0x211003(%rip)        # 212057 <s+0x17>
    1054:	c6 05 ec 0f 21 00 2e 	movb   $0x2e,0x210fec(%rip)        # 212047 <s+0x7>
    105b:	c6 05 ea 0f 21 00 51 	movb   $0x51,0x210fea(%rip)        # 21204c <s+0xc>
    1062:	c6 05 f1 0f 21 00 41 	movb   $0x41,0x210ff1(%rip)        # 21205a <s+0x1a>
    1069:	c6 05 d2 0f 21 00 60 	movb   $0x60,0x210fd2(%rip)        # 212042 <s+0x2>
    1070:	c6 05 e5 0f 21 00 42 	movb   $0x42,0x210fe5(%rip)        # 21205c <s+0x1c>
    1077:	c6 05 c3 0f 21 00 42 	movb   $0x42,0x210fc3(%rip)        # 212041 <s+0x1>
    107e:	c6 05 d7 0f 21 00 4d 	movb   $0x4d,0x210fd7(%rip)        # 21205c <s+0x1c>
    1085:	c6 05 da 0f 21 00 58 	movb   $0x58,0x210fda(%rip)        # 212066 <s+0x26>
    108c:	c6 05 bb 0f 21 00 50 	movb   $0x50,0x210fbb(%rip)        # 21204e <s+0xe>
    1093:	c6 05 aa 0f 21 00 5f 	movb   $0x5f,0x210faa(%rip)        # 212044 <s+0x4>
    109a:	c6 05 ad 0f 21 00 4c 	movb   $0x4c,0x210fad(%rip)        # 21204e <s+0xe>
    10a1:	c6 05 b7 0f 21 00 74 	movb   $0x74,0x210fb7(%rip)        # 21205f <s+0x1f>
    10a8:	c6 05 94 0f 21 00 2f 	movb   $0x2f,0x210f94(%rip)        # 212043 <s+0x3>
    10af:	c6 05 ab 0f 21 00 30 	movb   $0x30,0x210fab(%rip)        # 212061 <s+0x21>
    10b6:	c6 05 a9 0f 21 00 48 	movb   $0x48,0x210fa9(%rip)        # 212066 <s+0x26>
    10bd:	c6 05 a0 0f 21 00 7b 	movb   $0x7b,0x210fa0(%rip)        # 212064 <s+0x24>
    10c4:	c6 05 9a 0f 21 00 58 	movb   $0x58,0x210f9a(%rip)        # 212065 <s+0x25>
    10cb:	c6 05 80 0f 21 00 28 	movb   $0x28,0x210f80(%rip)        # 212052 <s+0x12>
    10d2:	c6 05 7d 0f 21 00 36 	movb   $0x36,0x210f7d(%rip)        # 212056 <s+0x16>
    10d9:	c6 05 87 0f 21 00 7b 	movb   $0x7b,0x210f87(%rip)        # 212067 <s+0x27>
    10e0:	c6 05 73 0f 21 00 30 	movb   $0x30,0x210f73(%rip)        # 21205a <s+0x1a>
    10e7:	c6 05 63 0f 21 00 51 	movb   $0x51,0x210f63(%rip)        # 212051 <s+0x11>
    10ee:	c6 05 70 0f 21 00 7e 	movb   $0x7e,0x210f70(%rip)        # 212065 <s+0x25>
    10f5:	c6 05 4a 0f 21 00 52 	movb   $0x52,0x210f4a(%rip)        # 212046 <s+0x6>
    10fc:	c6 05 4c 0f 21 00 26 	movb   $0x26,0x210f4c(%rip)        # 21204f <s+0xf>
    1103:	c6 05 40 0f 21 00 20 	movb   $0x20,0x210f40(%rip)        # 21204a <s+0xa>
    110a:	c6 05 56 0f 21 00 59 	movb   $0x59,0x210f56(%rip)        # 212067 <s+0x27>
    1111:	c6 05 46 0f 21 00 34 	movb   $0x34,0x210f46(%rip)        # 21205e <s+0x1e>
    1118:	c6 05 32 0f 21 00 3b 	movb   $0x3b,0x210f32(%rip)        # 212051 <s+0x11>
    111f:	c6 05 1d 0f 21 00 43 	movb   $0x43,0x210f1d(%rip)        # 212043 <s+0x3>
    1126:	c6 05 33 0f 21 00 53 	movb   $0x53,0x210f33(%rip)        # 212060 <s+0x20>
    112d:	c6 05 12 0f 21 00 44 	movb   $0x44,0x210f12(%rip)        # 212046 <s+0x6>
    1134:	c6 05 0c 0f 21 00 33 	movb   $0x33,0x210f0c(%rip)        # 212047 <s+0x7>
    113b:	c6 05 1f 0f 21 00 3c 	movb   $0x3c,0x210f1f(%rip)        # 212061 <s+0x21>
    1142:	c6 05 0c 0f 21 00 33 	movb   $0x33,0x210f0c(%rip)        # 212055 <s+0x15>
    1149:	c6 05 12 0f 21 00 5f 	movb   $0x5f,0x210f12(%rip)        # 212062 <s+0x22>
    1150:	c6 05 0c 0f 21 00 43 	movb   $0x43,0x210f0c(%rip)        # 212063 <s+0x23>
    1157:	c6 05 05 0f 21 00 2e 	movb   $0x2e,0x210f05(%rip)        # 212063 <s+0x23>
    115e:	c6 05 fe 0e 21 00 37 	movb   $0x37,0x210efe(%rip)        # 212063 <s+0x23>
    1165:	c6 05 ea 0e 21 00 4c 	movb   $0x4c,0x210eea(%rip)        # 212056 <s+0x16>
    116c:	c6 05 db 0e 21 00 6c 	movb   $0x6c,0x210edb(%rip)        # 21204e <s+0xe>
    1173:	c6 05 d8 0e 21 00 55 	movb   $0x55,0x210ed8(%rip)        # 212052 <s+0x12>
    117a:	c6 05 d7 0e 21 00 6f 	movb   $0x6f,0x210ed7(%rip)        # 212058 <s+0x18>
    1181:	c6 05 da 0e 21 00 78 	movb   $0x78,0x210eda(%rip)        # 212062 <s+0x22>
    1188:	c6 05 be 0e 21 00 30 	movb   $0x30,0x210ebe(%rip)        # 21204d <s+0xd>
    118f:	c6 05 b2 0e 21 00 5f 	movb   $0x5f,0x210eb2(%rip)        # 212048 <s+0x8>
    1196:	c6 05 ad 0e 21 00 5e 	movb   $0x5e,0x210ead(%rip)        # 21204a <s+0xa>
    119d:	c6 05 ab 0e 21 00 4b 	movb   $0x4b,0x210eab(%rip)        # 21204f <s+0xf>
    11a4:	c6 05 99 0e 21 00 66 	movb   $0x66,0x210e99(%rip)        # 212044 <s+0x4>
    11ab:	c6 05 97 0e 21 00 41 	movb   $0x41,0x210e97(%rip)        # 212049 <s+0x9>
    11b2:	c6 05 94 0e 21 00 74 	movb   $0x74,0x210e94(%rip)        # 21204d <s+0xd>
    11b9:	c6 05 a0 0e 21 00 6b 	movb   $0x6b,0x210ea0(%rip)        # 212060 <s+0x20>
    11c0:	c6 05 8d 0e 21 00 3a 	movb   $0x3a,0x210e8d(%rip)        # 212054 <s+0x14>
    11c7:	c6 05 85 0e 21 00 71 	movb   $0x71,0x210e85(%rip)        # 212053 <s+0x13>
    11ce:	c6 05 84 0e 21 00 2c 	movb   $0x2c,0x210e84(%rip)        # 212059 <s+0x19>
    11d5:	c6 05 7c 0e 21 00 78 	movb   $0x78,0x210e7c(%rip)        # 212058 <s+0x18>
    11dc:	c6 05 80 0e 21 00 4f 	movb   $0x4f,0x210e80(%rip)        # 212063 <s+0x23>
    11e3:	c6 05 6f 0e 21 00 50 	movb   $0x50,0x210e6f(%rip)        # 212059 <s+0x19>
    11ea:	c6 05 6c 0e 21 00 3e 	movb   $0x3e,0x210e6c(%rip)        # 21205d <s+0x1d>
    11f1:	c6 05 4c 0e 21 00 7e 	movb   $0x7e,0x210e4c(%rip)        # 212044 <s+0x4>
    11f8:	c6 05 64 0e 21 00 20 	movb   $0x20,0x210e64(%rip)        # 212063 <s+0x23>
    11ff:	c6 05 60 0e 21 00 67 	movb   $0x67,0x210e60(%rip)        # 212066 <s+0x26>
    1206:	c6 05 58 0e 21 00 44 	movb   $0x44,0x210e58(%rip)        # 212065 <s+0x25>
    120d:	c6 05 4b 0e 21 00 6e 	movb   $0x6e,0x210e4b(%rip)        # 21205f <s+0x1f>
    1214:	c6 05 3f 0e 21 00 22 	movb   $0x22,0x210e3f(%rip)        # 21205a <s+0x1a>
    121b:	c6 05 36 0e 21 00 2b 	movb   $0x2b,0x210e36(%rip)        # 212058 <s+0x18>
    1222:	c6 05 25 0e 21 00 31 	movb   $0x31,0x210e25(%rip)        # 21204e <s+0xe>
    1229:	c6 05 2c 0e 21 00 5e 	movb   $0x5e,0x210e2c(%rip)        # 21205c <s+0x1c>
    1230:	c6 05 0e 0e 21 00 73 	movb   $0x73,0x210e0e(%rip)        # 212045 <s+0x5>
    1237:	c6 05 17 0e 21 00 44 	movb   $0x44,0x210e17(%rip)        # 212055 <s+0x15>
    123e:	c6 05 17 0e 21 00 56 	movb   $0x56,0x210e17(%rip)        # 21205c <s+0x1c>
    1245:	c6 05 f7 0d 21 00 39 	movb   $0x39,0x210df7(%rip)        # 212043 <s+0x3>
    124c:	c6 05 0b 0e 21 00 70 	movb   $0x70,0x210e0b(%rip)        # 21205e <s+0x1e>
    1253:	c6 05 ee 0d 21 00 39 	movb   $0x39,0x210dee(%rip)        # 212048 <s+0x8>
    125a:	c6 05 eb 0d 21 00 50 	movb   $0x50,0x210deb(%rip)        # 21204c <s+0xc>
    1261:	c6 05 de 0d 21 00 7d 	movb   $0x7d,0x210dde(%rip)        # 212046 <s+0x6>
    1268:	c6 05 e2 0d 21 00 67 	movb   $0x67,0x210de2(%rip)        # 212051 <s+0x11>
    126f:	c6 05 e8 0d 21 00 45 	movb   $0x45,0x210de8(%rip)        # 21205e <s+0x1e>
    1276:	c6 05 da 0d 21 00 55 	movb   $0x55,0x210dda(%rip)        # 212057 <s+0x17>
    127d:	c6 05 da 0d 21 00 60 	movb   $0x60,0x210dda(%rip)        # 21205e <s+0x1e>
    1284:	c6 05 b8 0d 21 00 5d 	movb   $0x5d,0x210db8(%rip)        # 212043 <s+0x3>
    128b:	c6 05 b6 0d 21 00 62 	movb   $0x62,0x210db6(%rip)        # 212048 <s+0x8>
    1292:	c6 05 b0 0d 21 00 52 	movb   $0x52,0x210db0(%rip)        # 212049 <s+0x9>
    1299:	c6 05 b9 0d 21 00 7b 	movb   $0x7b,0x210db9(%rip)        # 212059 <s+0x19>
    12a0:	c6 05 ae 0d 21 00 3a 	movb   $0x3a,0x210dae(%rip)        # 212055 <s+0x15>
    12a7:	c6 05 a5 0d 21 00 42 	movb   $0x42,0x210da5(%rip)        # 212053 <s+0x13>
    12ae:	c6 05 b0 0d 21 00 40 	movb   $0x40,0x210db0(%rip)        # 212065 <s+0x25>
    12b5:	c6 05 a8 0d 21 00 6b 	movb   $0x6b,0x210da8(%rip)        # 212064 <s+0x24>
    12bc:	c6 05 97 0d 21 00 6e 	movb   $0x6e,0x210d97(%rip)        # 21205a <s+0x1a>
    12c3:	c6 05 76 0d 21 00 58 	movb   $0x58,0x210d76(%rip)        # 212040 <s>
    12ca:	c6 05 74 0d 21 00 20 	movb   $0x20,0x210d74(%rip)        # 212045 <s+0x5>
    12d1:	c6 05 7c 0d 21 00 3d 	movb   $0x3d,0x210d7c(%rip)        # 212054 <s+0x14>
    12d8:	c6 05 87 0d 21 00 22 	movb   $0x22,0x210d87(%rip)        # 212066 <s+0x26>
    12df:	c6 05 60 0d 21 00 57 	movb   $0x57,0x210d60(%rip)        # 212046 <s+0x6>
    12e6:	c6 05 75 0d 21 00 73 	movb   $0x73,0x210d75(%rip)        # 212062 <s+0x22>
    12ed:	c6 05 54 0d 21 00 5d 	movb   $0x5d,0x210d54(%rip)        # 212048 <s+0x8>
    12f4:	c6 05 6b 0d 21 00 73 	movb   $0x73,0x210d6b(%rip)        # 212066 <s+0x26>
    12fb:	c6 05 40 0d 21 00 30 	movb   $0x30,0x210d40(%rip)        # 212042 <s+0x2>
    1302:	c6 05 52 0d 21 00 47 	movb   $0x47,0x210d52(%rip)        # 21205b <s+0x1b>
    1309:	c6 05 33 0d 21 00 6f 	movb   $0x6f,0x210d33(%rip)        # 212043 <s+0x3>
    1310:	c6 05 50 0d 21 00 2e 	movb   $0x2e,0x210d50(%rip)        # 212067 <s+0x27>
    1317:	c6 05 28 0d 21 00 4a 	movb   $0x4a,0x210d28(%rip)        # 212046 <s+0x6>
    131e:	c6 05 1d 0d 21 00 2d 	movb   $0x2d,0x210d1d(%rip)        # 212042 <s+0x2>
    1325:	c6 05 24 0d 21 00 6f 	movb   $0x6f,0x210d24(%rip)        # 212050 <s+0x10>
    132c:	c6 05 1f 0d 21 00 68 	movb   $0x68,0x210d1f(%rip)        # 212052 <s+0x12>
    1333:	c6 05 25 0d 21 00 2a 	movb   $0x2a,0x210d25(%rip)        # 21205f <s+0x1f>
    133a:	c6 05 07 0d 21 00 70 	movb   $0x70,0x210d07(%rip)        # 212048 <s+0x8>
    1341:	c6 05 fd 0c 21 00 23 	movb   $0x23,0x210cfd(%rip)        # 212045 <s+0x5>
    1348:	c6 05 06 0d 21 00 75 	movb   $0x75,0x210d06(%rip)        # 212055 <s+0x15>
    134f:	c6 05 0d 0d 21 00 20 	movb   $0x20,0x210d0d(%rip)        # 212063 <s+0x23>
    1356:	c6 05 06 0d 21 00 58 	movb   $0x58,0x210d06(%rip)        # 212063 <s+0x23>
    135d:	c6 05 df 0c 21 00 45 	movb   $0x45,0x210cdf(%rip)        # 212043 <s+0x3>
    1364:	c6 05 f3 0c 21 00 24 	movb   $0x24,0x210cf3(%rip)        # 21205e <s+0x1e>
    136b:	c6 05 df 0c 21 00 43 	movb   $0x43,0x210cdf(%rip)        # 212051 <s+0x11>
    1372:	c6 05 d0 0c 21 00 64 	movb   $0x64,0x210cd0(%rip)        # 212049 <s+0x9>
    1379:	c6 05 ca 0c 21 00 68 	movb   $0x68,0x210cca(%rip)        # 21204a <s+0xa>
    1380:	c6 05 bb 0c 21 00 4f 	movb   $0x4f,0x210cbb(%rip)        # 212042 <s+0x2>
    1387:	c6 05 d5 0c 21 00 24 	movb   $0x24,0x210cd5(%rip)        # 212063 <s+0x23>
    138e:	c6 05 b9 0c 21 00 71 	movb   $0x71,0x210cb9(%rip)        # 21204e <s+0xe>
    1395:	c6 05 ac 0c 21 00 4b 	movb   $0x4b,0x210cac(%rip)        # 212048 <s+0x8>
    139c:	c6 05 b4 0c 21 00 59 	movb   $0x59,0x210cb4(%rip)        # 212057 <s+0x17>
    13a3:	c6 05 ac 0c 21 00 43 	movb   $0x43,0x210cac(%rip)        # 212056 <s+0x16>
    13aa:	c6 05 9e 0c 21 00 2b 	movb   $0x2b,0x210c9e(%rip)        # 21204f <s+0xf>
    13b1:	c6 05 95 0c 21 00 2a 	movb   $0x2a,0x210c95(%rip)        # 21204d <s+0xd>
    13b8:	c6 05 a0 0c 21 00 7e 	movb   $0x7e,0x210ca0(%rip)        # 21205f <s+0x1f>
    13bf:	c6 05 a0 0c 21 00 48 	movb   $0x48,0x210ca0(%rip)        # 212066 <s+0x26>
    13c6:	c6 05 78 0c 21 00 5d 	movb   $0x5d,0x210c78(%rip)        # 212045 <s+0x5>
    13cd:	c6 05 76 0c 21 00 6b 	movb   $0x6b,0x210c76(%rip)        # 21204a <s+0xa>
    13d4:	c6 05 8a 0c 21 00 6d 	movb   $0x6d,0x210c8a(%rip)        # 212065 <s+0x25>
    13db:	c6 05 79 0c 21 00 5b 	movb   $0x5b,0x210c79(%rip)        # 21205b <s+0x1b>
    13e2:	c6 05 76 0c 21 00 58 	movb   $0x58,0x210c76(%rip)        # 21205f <s+0x1f>
    13e9:	c6 05 77 0c 21 00 53 	movb   $0x53,0x210c77(%rip)        # 212067 <s+0x27>
    13f0:	c6 05 67 0c 21 00 23 	movb   $0x23,0x210c67(%rip)        # 21205e <s+0x1e>
    13f7:	c6 05 4f 0c 21 00 3d 	movb   $0x3d,0x210c4f(%rip)        # 21204d <s+0xd>
    13fe:	c6 05 5c 0c 21 00 48 	movb   $0x48,0x210c5c(%rip)        # 212061 <s+0x21>
    1405:	c6 05 3d 0c 21 00 5b 	movb   $0x5b,0x210c3d(%rip)        # 212049 <s+0x9>
    140c:	c6 05 4a 0c 21 00 44 	movb   $0x44,0x210c4a(%rip)        # 21205d <s+0x1d>
    1413:	c6 05 44 0c 21 00 5f 	movb   $0x5f,0x210c44(%rip)        # 21205e <s+0x1e>
    141a:	c6 05 34 0c 21 00 4c 	movb   $0x4c,0x210c34(%rip)        # 212055 <s+0x15>
    1421:	c6 05 2f 0c 21 00 79 	movb   $0x79,0x210c2f(%rip)        # 212057 <s+0x17>
    1428:	c6 05 11 0c 21 00 71 	movb   $0x71,0x210c11(%rip)        # 212040 <s>
    142f:	c6 05 24 0c 21 00 2b 	movb   $0x2b,0x210c24(%rip)        # 21205a <s+0x1a>
    1436:	c6 05 11 0c 21 00 68 	movb   $0x68,0x210c11(%rip)        # 21204e <s+0xe>
    143d:	c6 05 10 0c 21 00 72 	movb   $0x72,0x210c10(%rip)        # 212054 <s+0x14>
    1444:	c6 05 fa 0b 21 00 2e 	movb   $0x2e,0x210bfa(%rip)        # 212045 <s+0x5>
    144b:	c6 05 ef 0b 21 00 48 	movb   $0x48,0x210bef(%rip)        # 212041 <s+0x1>
    1452:	c6 05 fa 0b 21 00 32 	movb   $0x32,0x210bfa(%rip)        # 212053 <s+0x13>
    1459:	c6 05 04 0c 21 00 4c 	movb   $0x4c,0x210c04(%rip)        # 212064 <s+0x24>
    1460:	c6 05 ee 0b 21 00 5a 	movb   $0x5a,0x210bee(%rip)        # 212055 <s+0x15>
    1467:	c6 05 f7 0b 21 00 2b 	movb   $0x2b,0x210bf7(%rip)        # 212065 <s+0x25>
    146e:	c6 05 cd 0b 21 00 73 	movb   $0x73,0x210bcd(%rip)        # 212042 <s+0x2>
    1475:	c6 05 cd 0b 21 00 62 	movb   $0x62,0x210bcd(%rip)        # 212049 <s+0x9>
    147c:	c6 05 e3 0b 21 00 69 	movb   $0x69,0x210be3(%rip)        # 212066 <s+0x26>
    1483:	c6 05 d1 0b 21 00 72 	movb   $0x72,0x210bd1(%rip)        # 21205b <s+0x1b>
    148a:	c6 05 cf 0b 21 00 25 	movb   $0x25,0x210bcf(%rip)        # 212060 <s+0x20>
    1491:	c6 05 b0 0b 21 00 5a 	movb   $0x5a,0x210bb0(%rip)        # 212048 <s+0x8>
    1498:	c6 05 b8 0b 21 00 5f 	movb   $0x5f,0x210bb8(%rip)        # 212057 <s+0x17>
    149f:	c6 05 a7 0b 21 00 46 	movb   $0x46,0x210ba7(%rip)        # 21204d <s+0xd>
    14a6:	c6 05 9b 0b 21 00 79 	movb   $0x79,0x210b9b(%rip)        # 212048 <s+0x8>
    14ad:	c6 05 8c 0b 21 00 6f 	movb   $0x6f,0x210b8c(%rip)        # 212040 <s>
    14b4:	c6 05 a6 0b 21 00 2e 	movb   $0x2e,0x210ba6(%rip)        # 212061 <s+0x21>
    14bb:	c6 05 84 0b 21 00 40 	movb   $0x40,0x210b84(%rip)        # 212046 <s+0x6>
    14c2:	c6 05 99 0b 21 00 3f 	movb   $0x3f,0x210b99(%rip)        # 212062 <s+0x22>
    14c9:	c6 05 91 0b 21 00 6e 	movb   $0x6e,0x210b91(%rip)        # 212061 <s+0x21>
    14d0:	c6 05 8b 0b 21 00 58 	movb   $0x58,0x210b8b(%rip)        # 212062 <s+0x22>
    14d7:	c6 05 80 0b 21 00 72 	movb   $0x72,0x210b80(%rip)        # 21205e <s+0x1e>
    14de:	c6 05 75 0b 21 00 3e 	movb   $0x3e,0x210b75(%rip)        # 21205a <s+0x1a>
    14e5:	c6 05 77 0b 21 00 54 	movb   $0x54,0x210b77(%rip)        # 212063 <s+0x23>
    14ec:	c6 05 6b 0b 21 00 26 	movb   $0x26,0x210b6b(%rip)        # 21205e <s+0x1e>
    14f3:	c6 05 57 0b 21 00 3a 	movb   $0x3a,0x210b57(%rip)        # 212051 <s+0x11>
    14fa:	c6 05 66 0b 21 00 2a 	movb   $0x2a,0x210b66(%rip)        # 212067 <s+0x27>
    1501:	c6 05 53 0b 21 00 48 	movb   $0x48,0x210b53(%rip)        # 21205b <s+0x1b>
    1508:	c6 05 40 0b 21 00 69 	movb   $0x69,0x210b40(%rip)        # 21204f <s+0xf>
    150f:	c6 05 37 0b 21 00 6f 	movb   $0x6f,0x210b37(%rip)        # 21204d <s+0xd>
    1516:	c6 05 3c 0b 21 00 2d 	movb   $0x2d,0x210b3c(%rip)        # 212059 <s+0x19>
    151d:	c6 05 3c 0b 21 00 37 	movb   $0x37,0x210b3c(%rip)        # 212060 <s+0x20>
    1524:	c6 05 32 0b 21 00 32 	movb   $0x32,0x210b32(%rip)        # 21205d <s+0x1d>
    152b:	c6 05 2e 0b 21 00 64 	movb   $0x64,0x210b2e(%rip)        # 212060 <s+0x20>
    1532:	c6 05 07 0b 21 00 3b 	movb   $0x3b,0x210b07(%rip)        # 212040 <s>
    1539:	c6 05 01 0b 21 00 71 	movb   $0x71,0x210b01(%rip)        # 212041 <s+0x1>
    1540:	c6 05 19 0b 21 00 20 	movb   $0x20,0x210b19(%rip)        # 212060 <s+0x20>
    1547:	c6 05 08 0b 21 00 46 	movb   $0x46,0x210b08(%rip)        # 212056 <s+0x16>
    154e:	c6 05 0f 0b 21 00 44 	movb   $0x44,0x210b0f(%rip)        # 212064 <s+0x24>
    1555:	c6 05 e8 0a 21 00 79 	movb   $0x79,0x210ae8(%rip)        # 212044 <s+0x4>
    155c:	c6 05 f9 0a 21 00 21 	movb   $0x21,0x210af9(%rip)        # 21205c <s+0x1c>
    1563:	c6 05 e1 0a 21 00 6d 	movb   $0x6d,0x210ae1(%rip)        # 21204b <s+0xb>
    156a:	c6 05 d8 0a 21 00 53 	movb   $0x53,0x210ad8(%rip)        # 212049 <s+0x9>
    1571:	c6 05 d7 0a 21 00 70 	movb   $0x70,0x210ad7(%rip)        # 21204f <s+0xf>
    1578:	c6 05 cc 0a 21 00 6f 	movb   $0x6f,0x210acc(%rip)        # 21204b <s+0xb>
    157f:	c6 05 d7 0a 21 00 60 	movb   $0x60,0x210ad7(%rip)        # 21205d <s+0x1d>
    1586:	c6 05 d9 0a 21 00 53 	movb   $0x53,0x210ad9(%rip)        # 212066 <s+0x26>
    158d:	c6 05 c7 0a 21 00 4c 	movb   $0x4c,0x210ac7(%rip)        # 21205b <s+0x1b>
    1594:	c6 05 aa 0a 21 00 26 	movb   $0x26,0x210aaa(%rip)        # 212045 <s+0x5>
    159b:	c6 05 bc 0a 21 00 43 	movb   $0x43,0x210abc(%rip)        # 21205e <s+0x1e>
    15a2:	c6 05 b8 0a 21 00 6d 	movb   $0x6d,0x210ab8(%rip)        # 212061 <s+0x21>
    15a9:	c6 05 a4 0a 21 00 7e 	movb   $0x7e,0x210aa4(%rip)        # 212054 <s+0x14>
    15b0:	c6 05 a6 0a 21 00 28 	movb   $0x28,0x210aa6(%rip)        # 21205d <s+0x1d>
    15b7:	c6 05 97 0a 21 00 40 	movb   $0x40,0x210a97(%rip)        # 212055 <s+0x15>
    15be:	c6 05 9e 0a 21 00 33 	movb   $0x33,0x210a9e(%rip)        # 212063 <s+0x23>
    15c5:	c6 05 74 0a 21 00 3a 	movb   $0x3a,0x210a74(%rip)        # 212040 <s>
    15cc:	c6 05 70 0a 21 00 5d 	movb   $0x5d,0x210a70(%rip)        # 212043 <s+0x3>
    15d3:	c6 05 80 0a 21 00 5a 	movb   $0x5a,0x210a80(%rip)        # 21205a <s+0x1a>
    15da:	c6 05 65 0a 21 00 76 	movb   $0x76,0x210a65(%rip)        # 212046 <s+0x6>
    15e1:	c6 05 60 0a 21 00 79 	movb   $0x79,0x210a60(%rip)        # 212048 <s+0x8>
    15e8:	c6 05 58 0a 21 00 61 	movb   $0x61,0x210a58(%rip)        # 212047 <s+0x7>
    15ef:	c6 05 6b 0a 21 00 2a 	movb   $0x2a,0x210a6b(%rip)        # 212061 <s+0x21>
    15f6:	c6 05 55 0a 21 00 56 	movb   $0x56,0x210a55(%rip)        # 212052 <s+0x12>
    15fd:	c6 05 53 0a 21 00 20 	movb   $0x20,0x210a53(%rip)        # 212057 <s+0x17>
    1604:	c6 05 47 0a 21 00 2b 	movb   $0x2b,0x210a47(%rip)        # 212052 <s+0x12>
    160b:	c6 05 51 0a 21 00 63 	movb   $0x63,0x210a51(%rip)        # 212063 <s+0x23>
    1612:	c6 05 2c 0a 21 00 32 	movb   $0x32,0x210a2c(%rip)        # 212045 <s+0x5>
    1619:	c6 05 26 0a 21 00 69 	movb   $0x69,0x210a26(%rip)        # 212046 <s+0x6>
    1620:	c6 05 20 0a 21 00 48 	movb   $0x48,0x210a20(%rip)        # 212047 <s+0x7>
    1627:	c6 05 14 0a 21 00 57 	movb   $0x57,0x210a14(%rip)        # 212042 <s+0x2>
    162e:	c6 05 28 0a 21 00 5d 	movb   $0x5d,0x210a28(%rip)        # 21205d <s+0x1d>
    1635:	c6 05 04 0a 21 00 6c 	movb   $0x6c,0x210a04(%rip)        # 212040 <s>
    163c:	c6 05 15 0a 21 00 49 	movb   $0x49,0x210a15(%rip)        # 212058 <s+0x18>
    1643:	c6 05 0d 0a 21 00 28 	movb   $0x28,0x210a0d(%rip)        # 212057 <s+0x17>
    164a:	c6 05 f3 09 21 00 79 	movb   $0x79,0x2109f3(%rip)        # 212044 <s+0x4>
    1651:	c6 05 02 0a 21 00 69 	movb   $0x69,0x210a02(%rip)        # 21205a <s+0x1a>
    1658:	c6 05 ef 09 21 00 3f 	movb   $0x3f,0x2109ef(%rip)        # 21204e <s+0xe>
    165f:	c6 05 ed 09 21 00 50 	movb   $0x50,0x2109ed(%rip)        # 212053 <s+0x13>
    1666:	c6 05 df 09 21 00 7d 	movb   $0x7d,0x2109df(%rip)        # 21204c <s+0xc>
    166d:	c6 05 f3 09 21 00 2e 	movb   $0x2e,0x2109f3(%rip)        # 212067 <s+0x27>
    1674:	c6 05 e8 09 21 00 69 	movb   $0x69,0x2109e8(%rip)        # 212063 <s+0x23>
    167b:	c6 05 df 09 21 00 78 	movb   $0x78,0x2109df(%rip)        # 212061 <s+0x21>
    1682:	c6 05 de 09 21 00 7c 	movb   $0x7c,0x2109de(%rip)        # 212067 <s+0x27>
    1689:	c6 05 b1 09 21 00 43 	movb   $0x43,0x2109b1(%rip)        # 212041 <s+0x1>
    1690:	c6 05 cc 09 21 00 54 	movb   $0x54,0x2109cc(%rip)        # 212063 <s+0x23>
    1697:	c6 05 ab 09 21 00 63 	movb   $0x63,0x2109ab(%rip)        # 212049 <s+0x9>
    169e:	c6 05 a8 09 21 00 3e 	movb   $0x3e,0x2109a8(%rip)        # 21204d <s+0xd>
    16a5:	c6 05 b0 09 21 00 75 	movb   $0x75,0x2109b0(%rip)        # 21205c <s+0x1c>
    16ac:	c6 05 92 09 21 00 7e 	movb   $0x7e,0x210992(%rip)        # 212045 <s+0x5>
    16b3:	c6 05 96 09 21 00 74 	movb   $0x74,0x210996(%rip)        # 212050 <s+0x10>
    16ba:	c6 05 9f 09 21 00 45 	movb   $0x45,0x21099f(%rip)        # 212060 <s+0x20>
    16c1:	c6 05 7a 09 21 00 5e 	movb   $0x5e,0x21097a(%rip)        # 212042 <s+0x2>
    16c8:	c6 05 8c 09 21 00 32 	movb   $0x32,0x21098c(%rip)        # 21205b <s+0x1b>
    16cf:	c6 05 8f 09 21 00 28 	movb   $0x28,0x21098f(%rip)        # 212065 <s+0x25>
    16d6:	c6 05 7a 09 21 00 40 	movb   $0x40,0x21097a(%rip)        # 212057 <s+0x17>
    16dd:	c6 05 75 09 21 00 24 	movb   $0x24,0x210975(%rip)        # 212059 <s+0x19>
    16e4:	c6 05 78 09 21 00 6a 	movb   $0x6a,0x210978(%rip)        # 212063 <s+0x23>
    16eb:	c6 05 5d 09 21 00 65 	movb   $0x65,0x21095d(%rip)        # 21204f <s+0xf>
    16f2:	c6 05 6b 09 21 00 63 	movb   $0x63,0x21096b(%rip)        # 212064 <s+0x24>
    16f9:	c6 05 50 09 21 00 68 	movb   $0x68,0x210950(%rip)        # 212050 <s+0x10>
    1700:	c6 05 50 09 21 00 29 	movb   $0x29,0x210950(%rip)        # 212057 <s+0x17>
    1707:	c6 05 35 09 21 00 73 	movb   $0x73,0x210935(%rip)        # 212043 <s+0x3>
    170e:	c6 05 48 09 21 00 40 	movb   $0x40,0x210948(%rip)        # 21205d <s+0x1d>
    1715:	c6 05 4a 09 21 00 4a 	movb   $0x4a,0x21094a(%rip)        # 212066 <s+0x26>
    171c:	c6 05 44 09 21 00 4f 	movb   $0x4f,0x210944(%rip)        # 212067 <s+0x27>
    1723:	c6 05 32 09 21 00 79 	movb   $0x79,0x210932(%rip)        # 21205c <s+0x1c>
    172a:	c6 05 2c 09 21 00 52 	movb   $0x52,0x21092c(%rip)        # 21205d <s+0x1d>
    1731:	c6 05 1a 09 21 00 6e 	movb   $0x6e,0x21091a(%rip)        # 212052 <s+0x12>
    1738:	c6 05 0d 09 21 00 55 	movb   $0x55,0x21090d(%rip)        # 21204c <s+0xc>
    173f:	c6 05 1d 09 21 00 2a 	movb   $0x2a,0x21091d(%rip)        # 212063 <s+0x23>
    1746:	c6 05 13 09 21 00 3e 	movb   $0x3e,0x210913(%rip)        # 212060 <s+0x20>
    174d:	c6 05 f9 08 21 00 25 	movb   $0x25,0x2108f9(%rip)        # 21204d <s+0xd>
    1754:	c6 05 f2 08 21 00 77 	movb   $0x77,0x2108f2(%rip)        # 21204d <s+0xd>
    175b:	c6 05 fe 08 21 00 23 	movb   $0x23,0x2108fe(%rip)        # 212060 <s+0x20>
    1762:	c6 05 df 08 21 00 76 	movb   $0x76,0x2108df(%rip)        # 212048 <s+0x8>
    1769:	c6 05 f7 08 21 00 67 	movb   $0x67,0x2108f7(%rip)        # 212067 <s+0x27>
    1770:	c6 05 d9 08 21 00 53 	movb   $0x53,0x2108d9(%rip)        # 212050 <s+0x10>
    1777:	c6 05 cd 08 21 00 67 	movb   $0x67,0x2108cd(%rip)        # 21204b <s+0xb>
    177e:	c6 05 de 08 21 00 43 	movb   $0x43,0x2108de(%rip)        # 212063 <s+0x23>
    1785:	c6 05 c8 08 21 00 73 	movb   $0x73,0x2108c8(%rip)        # 212054 <s+0x14>
    178c:	c6 05 d3 08 21 00 57 	movb   $0x57,0x2108d3(%rip)        # 212066 <s+0x26>
    1793:	c6 05 a9 08 21 00 49 	movb   $0x49,0x2108a9(%rip)        # 212043 <s+0x3>
    179a:	c6 05 b7 08 21 00 45 	movb   $0x45,0x2108b7(%rip)        # 212058 <s+0x18>
    17a1:	c6 05 9d 08 21 00 43 	movb   $0x43,0x21089d(%rip)        # 212045 <s+0x5>
    17a8:	c6 05 a4 08 21 00 33 	movb   $0x33,0x2108a4(%rip)        # 212053 <s+0x13>
    17af:	c6 05 93 08 21 00 55 	movb   $0x55,0x210893(%rip)        # 212049 <s+0x9>
    17b6:	c6 05 a4 08 21 00 6c 	movb   $0x6c,0x2108a4(%rip)        # 212061 <s+0x21>
    17bd:	c6 05 80 08 21 00 46 	movb   $0x46,0x210880(%rip)        # 212044 <s+0x4>
    17c4:	c6 05 87 08 21 00 64 	movb   $0x64,0x210887(%rip)        # 212052 <s+0x12>
    17cb:	c6 05 6e 08 21 00 35 	movb   $0x35,0x21086e(%rip)        # 212040 <s>
    17d2:	c6 05 83 08 21 00 44 	movb   $0x44,0x210883(%rip)        # 21205c <s+0x1c>
    17d9:	c6 05 80 08 21 00 41 	movb   $0x41,0x210880(%rip)        # 212060 <s+0x20>
    17e0:	c6 05 7d 08 21 00 59 	movb   $0x59,0x21087d(%rip)        # 212064 <s+0x24>
    17e7:	c6 05 6d 08 21 00 6f 	movb   $0x6f,0x21086d(%rip)        # 21205b <s+0x1b>
    17ee:	c6 05 4f 08 21 00 74 	movb   $0x74,0x21084f(%rip)        # 212044 <s+0x4>
    17f5:	c6 05 6a 08 21 00 45 	movb   $0x45,0x21086a(%rip)        # 212066 <s+0x26>
    17fc:	c6 05 48 08 21 00 4e 	movb   $0x4e,0x210848(%rip)        # 21204b <s+0xb>
    1803:	c6 05 48 08 21 00 56 	movb   $0x56,0x210848(%rip)        # 212052 <s+0x12>
    180a:	c6 05 3e 08 21 00 21 	movb   $0x21,0x21083e(%rip)        # 21204f <s+0xf>
    1811:	c6 05 40 08 21 00 7e 	movb   $0x7e,0x210840(%rip)        # 212058 <s+0x18>
    1818:	c6 05 48 08 21 00 6f 	movb   $0x6f,0x210848(%rip)        # 212067 <s+0x27>
    181f:	c6 05 1c 08 21 00 22 	movb   $0x22,0x21081c(%rip)        # 212042 <s+0x2>
    1826:	c6 05 3a 08 21 00 67 	movb   $0x67,0x21083a(%rip)        # 212067 <s+0x27>
    182d:	c6 05 0f 08 21 00 34 	movb   $0x34,0x21080f(%rip)        # 212043 <s+0x3>
    1834:	c6 05 09 08 21 00 25 	movb   $0x25,0x210809(%rip)        # 212044 <s+0x4>
    183b:	c6 05 14 08 21 00 50 	movb   $0x50,0x210814(%rip)        # 212056 <s+0x16>
    1842:	c6 05 07 08 21 00 5b 	movb   $0x5b,0x210807(%rip)        # 212050 <s+0x10>
    1849:	c6 05 0a 08 21 00 37 	movb   $0x37,0x21080a(%rip)        # 21205a <s+0x1a>
    1850:	c6 05 f1 07 21 00 7c 	movb   $0x7c,0x2107f1(%rip)        # 212048 <s+0x8>
    1857:	c6 05 e2 07 21 00 24 	movb   $0x24,0x2107e2(%rip)        # 212040 <s>
    185e:	c6 05 f6 07 21 00 79 	movb   $0x79,0x2107f6(%rip)        # 21205b <s+0x1b>
    1865:	c6 05 f1 07 21 00 3a 	movb   $0x3a,0x2107f1(%rip)        # 21205d <s+0x1d>
    186c:	c6 05 d8 07 21 00 35 	movb   $0x35,0x2107d8(%rip)        # 21204b <s+0xb>
    1873:	c6 05 d2 07 21 00 53 	movb   $0x53,0x2107d2(%rip)        # 21204c <s+0xc>
    187a:	c6 05 d9 07 21 00 33 	movb   $0x33,0x2107d9(%rip)        # 21205a <s+0x1a>
    1881:	c6 05 d6 07 21 00 24 	movb   $0x24,0x2107d6(%rip)        # 21205e <s+0x1e>
    1888:	c6 05 b6 07 21 00 77 	movb   $0x77,0x2107b6(%rip)        # 212045 <s+0x5>
    188f:	c6 05 c6 07 21 00 4b 	movb   $0x4b,0x2107c6(%rip)        # 21205c <s+0x1c>
    1896:	c6 05 b4 07 21 00 28 	movb   $0x28,0x2107b4(%rip)        # 212051 <s+0x11>
    189d:	c6 05 b4 07 21 00 4e 	movb   $0x4e,0x2107b4(%rip)        # 212058 <s+0x18>
    18a4:	c6 05 ba 07 21 00 55 	movb   $0x55,0x2107ba(%rip)        # 212065 <s+0x25>
    18ab:	c6 05 b0 07 21 00 4a 	movb   $0x4a,0x2107b0(%rip)        # 212062 <s+0x22>
    18b2:	c6 05 9c 07 21 00 44 	movb   $0x44,0x21079c(%rip)        # 212055 <s+0x15>
    18b9:	c6 05 83 07 21 00 74 	movb   $0x74,0x210783(%rip)        # 212043 <s+0x3>
    18c0:	c6 05 8a 07 21 00 30 	movb   $0x30,0x21078a(%rip)        # 212051 <s+0x11>
    18c7:	c6 05 75 07 21 00 3f 	movb   $0x3f,0x210775(%rip)        # 212043 <s+0x3>
    18ce:	c6 05 74 07 21 00 3a 	movb   $0x3a,0x210774(%rip)        # 212049 <s+0x9>
    18d5:	c6 05 79 07 21 00 23 	movb   $0x23,0x210779(%rip)        # 212055 <s+0x15>
    18dc:	c6 05 7b 07 21 00 70 	movb   $0x70,0x21077b(%rip)        # 21205e <s+0x1e>
    18e3:	c6 05 6d 07 21 00 24 	movb   $0x24,0x21076d(%rip)        # 212057 <s+0x17>
    18ea:	c6 05 59 07 21 00 52 	movb   $0x52,0x210759(%rip)        # 21204a <s+0xa>
    18f1:	c6 05 4d 07 21 00 74 	movb   $0x74,0x21074d(%rip)        # 212045 <s+0x5>
    18f8:	c6 05 63 07 21 00 4a 	movb   $0x4a,0x210763(%rip)        # 212062 <s+0x22>
    18ff:	c6 05 42 07 21 00 3e 	movb   $0x3e,0x210742(%rip)        # 212048 <s+0x8>
    1906:	c6 05 41 07 21 00 55 	movb   $0x55,0x210741(%rip)        # 21204e <s+0xe>
    190d:	c6 05 50 07 21 00 4c 	movb   $0x4c,0x210750(%rip)        # 212064 <s+0x24>
    1914:	c6 05 27 07 21 00 33 	movb   $0x33,0x210727(%rip)        # 212042 <s+0x2>
    191b:	c6 05 27 07 21 00 2b 	movb   $0x2b,0x210727(%rip)        # 212049 <s+0x9>
    1922:	c6 05 27 07 21 00 69 	movb   $0x69,0x210727(%rip)        # 212050 <s+0x10>
    1929:	c6 05 28 07 21 00 6a 	movb   $0x6a,0x210728(%rip)        # 212058 <s+0x18>
    1930:	c6 05 11 07 21 00 77 	movb   $0x77,0x210711(%rip)        # 212048 <s+0x8>
    1937:	c6 05 1b 07 21 00 65 	movb   $0x65,0x21071b(%rip)        # 212059 <s+0x19>
    193e:	c6 05 08 07 21 00 60 	movb   $0x60,0x210708(%rip)        # 21204d <s+0xd>
    1945:	c6 05 f9 06 21 00 55 	movb   $0x55,0x2106f9(%rip)        # 212045 <s+0x5>
    194c:	c6 05 f4 06 21 00 51 	movb   $0x51,0x2106f4(%rip)        # 212047 <s+0x7>
    1953:	c6 05 0a 07 21 00 31 	movb   $0x31,0x21070a(%rip)        # 212064 <s+0x24>
    195a:	c6 05 e6 06 21 00 29 	movb   $0x29,0x2106e6(%rip)        # 212047 <s+0x7>
    1961:	c6 05 dd 06 21 00 37 	movb   $0x37,0x2106dd(%rip)        # 212045 <s+0x5>
    1968:	c6 05 f7 06 21 00 5f 	movb   $0x5f,0x2106f7(%rip)        # 212066 <s+0x26>
    196f:	c6 05 cc 06 21 00 2b 	movb   $0x2b,0x2106cc(%rip)        # 212042 <s+0x2>
    1976:	c6 05 d7 06 21 00 6a 	movb   $0x6a,0x2106d7(%rip)        # 212054 <s+0x14>
    197d:	c6 05 d3 06 21 00 61 	movb   $0x61,0x2106d3(%rip)        # 212057 <s+0x17>
    1984:	c6 05 d3 06 21 00 5a 	movb   $0x5a,0x2106d3(%rip)        # 21205e <s+0x1e>
    198b:	c6 05 b4 06 21 00 3b 	movb   $0x3b,0x2106b4(%rip)        # 212046 <s+0x6>
    1992:	c6 05 c4 06 21 00 50 	movb   $0x50,0x2106c4(%rip)        # 21205d <s+0x1d>
    1999:	c6 05 b8 06 21 00 63 	movb   $0x63,0x2106b8(%rip)        # 212058 <s+0x18>
    19a0:	c6 05 b9 06 21 00 55 	movb   $0x55,0x2106b9(%rip)        # 212060 <s+0x20>
    19a7:	c6 05 96 06 21 00 77 	movb   $0x77,0x210696(%rip)        # 212044 <s+0x4>
    19ae:	c6 05 a7 06 21 00 3d 	movb   $0x3d,0x2106a7(%rip)        # 21205c <s+0x1c>
    19b5:	c6 05 a1 06 21 00 52 	movb   $0x52,0x2106a1(%rip)        # 21205d <s+0x1d>
    19bc:	c6 05 86 06 21 00 4a 	movb   $0x4a,0x210686(%rip)        # 212049 <s+0x9>
    19c3:	c6 05 88 06 21 00 24 	movb   $0x24,0x210688(%rip)        # 212052 <s+0x12>
    19ca:	c6 05 7d 06 21 00 5b 	movb   $0x5b,0x21067d(%rip)        # 21204e <s+0xe>
    19d1:	c6 05 6f 06 21 00 54 	movb   $0x54,0x21066f(%rip)        # 212047 <s+0x7>
    19d8:	c6 05 87 06 21 00 57 	movb   $0x57,0x210687(%rip)        # 212066 <s+0x26>
    19df:	c6 05 81 06 21 00 3c 	movb   $0x3c,0x210681(%rip)        # 212067 <s+0x27>
    19e6:	c6 05 65 06 21 00 7a 	movb   $0x7a,0x210665(%rip)        # 212052 <s+0x12>
    19ed:	c6 05 66 06 21 00 62 	movb   $0x62,0x210666(%rip)        # 21205a <s+0x1a>
    19f4:	c6 05 53 06 21 00 67 	movb   $0x67,0x210653(%rip)        # 21204e <s+0xe>
    19fb:	c6 05 53 06 21 00 44 	movb   $0x44,0x210653(%rip)        # 212055 <s+0x15>
    1a02:	c6 05 4e 06 21 00 2c 	movb   $0x2c,0x21064e(%rip)        # 212057 <s+0x17>
    1a09:	c6 05 35 06 21 00 49 	movb   $0x49,0x210635(%rip)        # 212045 <s+0x5>
    1a10:	c6 05 45 06 21 00 2f 	movb   $0x2f,0x210645(%rip)        # 21205c <s+0x1c>
    1a17:	c6 05 30 06 21 00 5a 	movb   $0x5a,0x210630(%rip)        # 21204e <s+0xe>
    1a1e:	c6 05 33 06 21 00 4d 	movb   $0x4d,0x210633(%rip)        # 212058 <s+0x18>
    1a25:	c6 05 21 06 21 00 3d 	movb   $0x3d,0x210621(%rip)        # 21204d <s+0xd>
    1a2c:	c6 05 1d 06 21 00 72 	movb   $0x72,0x21061d(%rip)        # 212050 <s+0x10>
    1a33:	c6 05 20 06 21 00 31 	movb   $0x31,0x210620(%rip)        # 21205a <s+0x1a>
    1a3a:	c6 05 22 06 21 00 4c 	movb   $0x4c,0x210622(%rip)        # 212063 <s+0x23>
    1a41:	c6 05 1d 06 21 00 70 	movb   $0x70,0x21061d(%rip)        # 212065 <s+0x25>
    1a48:	c6 05 05 06 21 00 44 	movb   $0x44,0x210605(%rip)        # 212054 <s+0x14>
    1a4f:	c6 05 03 06 21 00 57 	movb   $0x57,0x210603(%rip)        # 212059 <s+0x19>
    1a56:	c6 05 f0 05 21 00 2e 	movb   $0x2e,0x2105f0(%rip)        # 21204d <s+0xd>
    1a5d:	c6 05 00 06 21 00 7e 	movb   $0x7e,0x210600(%rip)        # 212064 <s+0x24>
    1a64:	c6 05 f0 05 21 00 64 	movb   $0x64,0x2105f0(%rip)        # 21205b <s+0x1b>
    1a6b:	c6 05 e0 05 21 00 34 	movb   $0x34,0x2105e0(%rip)        # 212052 <s+0x12>
    1a72:	c6 05 ee 05 21 00 3c 	movb   $0x3c,0x2105ee(%rip)        # 212067 <s+0x27>
    1a79:	c6 05 de 05 21 00 5f 	movb   $0x5f,0x2105de(%rip)        # 21205e <s+0x1e>
    1a80:	c6 05 bd 05 21 00 26 	movb   $0x26,0x2105bd(%rip)        # 212044 <s+0x4>
    1a87:	c6 05 cc 05 21 00 60 	movb   $0x60,0x2105cc(%rip)        # 21205a <s+0x1a>
    1a8e:	c6 05 be 05 21 00 34 	movb   $0x34,0x2105be(%rip)        # 212053 <s+0x13>
    1a95:	c6 05 b3 05 21 00 33 	movb   $0x33,0x2105b3(%rip)        # 21204f <s+0xf>
    1a9c:	c6 05 bf 05 21 00 40 	movb   $0x40,0x2105bf(%rip)        # 212062 <s+0x22>
    1aa3:	c6 05 a0 05 21 00 60 	movb   $0x60,0x2105a0(%rip)        # 21204a <s+0xa>
    1aaa:	c6 05 8f 05 21 00 5e 	movb   $0x5e,0x21058f(%rip)        # 212040 <s>
    1ab1:	c6 05 a2 05 21 00 2e 	movb   $0x2e,0x2105a2(%rip)        # 21205a <s+0x1a>
    1ab8:	c6 05 a5 05 21 00 53 	movb   $0x53,0x2105a5(%rip)        # 212064 <s+0x24>
    1abf:	c6 05 89 05 21 00 6f 	movb   $0x6f,0x210589(%rip)        # 21204f <s+0xf>
    1ac6:	c6 05 99 05 21 00 37 	movb   $0x37,0x210599(%rip)        # 212066 <s+0x26>
    1acd:	c6 05 77 05 21 00 48 	movb   $0x48,0x210577(%rip)        # 21204b <s+0xb>
    1ad4:	c6 05 6c 05 21 00 23 	movb   $0x23,0x21056c(%rip)        # 212047 <s+0x7>
    1adb:	c6 05 71 05 21 00 5f 	movb   $0x5f,0x210571(%rip)        # 212053 <s+0x13>
    1ae2:	c6 05 63 05 21 00 5a 	movb   $0x5a,0x210563(%rip)        # 21204c <s+0xc>
    1ae9:	c6 05 71 05 21 00 62 	movb   $0x62,0x210571(%rip)        # 212061 <s+0x21>
    1af0:	c6 05 70 05 21 00 26 	movb   $0x26,0x210570(%rip)        # 212067 <s+0x27>
    1af7:	c6 05 68 05 21 00 50 	movb   $0x50,0x210568(%rip)        # 212066 <s+0x26>
    1afe:	c6 05 46 05 21 00 50 	movb   $0x50,0x210546(%rip)        # 21204b <s+0xb>
    1b05:	c6 05 50 05 21 00 3a 	movb   $0x3a,0x210550(%rip)        # 21205c <s+0x1c>
    1b0c:	c6 05 36 05 21 00 3d 	movb   $0x3d,0x210536(%rip)        # 212049 <s+0x9>
    1b13:	c6 05 32 05 21 00 4c 	movb   $0x4c,0x210532(%rip)        # 21204c <s+0xc>
    1b1a:	c6 05 3d 05 21 00 71 	movb   $0x71,0x21053d(%rip)        # 21205e <s+0x1e>
    1b21:	c6 05 1e 05 21 00 26 	movb   $0x26,0x21051e(%rip)        # 212046 <s+0x6>
    1b28:	c6 05 18 05 21 00 45 	movb   $0x45,0x210518(%rip)        # 212047 <s+0x7>
    1b2f:	c6 05 28 05 21 00 3d 	movb   $0x3d,0x210528(%rip)        # 21205e <s+0x1e>
    1b36:	c6 05 06 05 21 00 21 	movb   $0x21,0x210506(%rip)        # 212043 <s+0x3>
    1b3d:	c6 05 03 05 21 00 33 	movb   $0x33,0x210503(%rip)        # 212047 <s+0x7>
    1b44:	c6 05 02 05 21 00 41 	movb   $0x41,0x210502(%rip)        # 21204d <s+0xd>
    1b4b:	c6 05 f8 04 21 00 67 	movb   $0x67,0x2104f8(%rip)        # 21204a <s+0xa>
    1b52:	c6 05 e9 04 21 00 50 	movb   $0x50,0x2104e9(%rip)        # 212042 <s+0x2>
    1b59:	c6 05 04 05 21 00 37 	movb   $0x37,0x210504(%rip)        # 212064 <s+0x24>
    1b60:	c6 05 e9 04 21 00 36 	movb   $0x36,0x2104e9(%rip)        # 212050 <s+0x10>
    1b67:	c6 05 d7 04 21 00 63 	movb   $0x63,0x2104d7(%rip)        # 212045 <s+0x5>
    1b6e:	c6 05 e9 04 21 00 40 	movb   $0x40,0x2104e9(%rip)        # 21205e <s+0x1e>
    1b75:	c6 05 dc 04 21 00 70 	movb   $0x70,0x2104dc(%rip)        # 212058 <s+0x18>
    1b7c:	c6 05 d9 04 21 00 36 	movb   $0x36,0x2104d9(%rip)        # 21205c <s+0x1c>
    1b83:	c6 05 d9 04 21 00 24 	movb   $0x24,0x2104d9(%rip)        # 212063 <s+0x23>
    1b8a:	c6 05 ba 04 21 00 56 	movb   $0x56,0x2104ba(%rip)        # 21204b <s+0xb>
    1b91:	c6 05 b0 04 21 00 51 	movb   $0x51,0x2104b0(%rip)        # 212048 <s+0x8>
    1b98:	c6 05 ad 04 21 00 6c 	movb   $0x6c,0x2104ad(%rip)        # 21204c <s+0xc>
    1b9f:	c6 05 be 04 21 00 36 	movb   $0x36,0x2104be(%rip)        # 212064 <s+0x24>
    1ba6:	c6 05 9c 04 21 00 37 	movb   $0x37,0x21049c(%rip)        # 212049 <s+0x9>
    1bad:	c6 05 93 04 21 00 2e 	movb   $0x2e,0x210493(%rip)        # 212047 <s+0x7>
    1bb4:	c6 05 9a 04 21 00 53 	movb   $0x53,0x21049a(%rip)        # 212055 <s+0x15>
    1bbb:	c6 05 7e 04 21 00 37 	movb   $0x37,0x21047e(%rip)        # 212040 <s>
    1bc2:	c6 05 92 04 21 00 3b 	movb   $0x3b,0x210492(%rip)        # 21205b <s+0x1b>
    1bc9:	c6 05 7f 04 21 00 47 	movb   $0x47,0x21047f(%rip)        # 21204f <s+0xf>
    1bd0:	c6 05 76 04 21 00 74 	movb   $0x74,0x210476(%rip)        # 21204d <s+0xd>
    1bd7:	c6 05 7e 04 21 00 38 	movb   $0x38,0x21047e(%rip)        # 21205c <s+0x1c>
    1bde:	c6 05 78 04 21 00 5b 	movb   $0x5b,0x210478(%rip)        # 21205d <s+0x1d>
    1be5:	c6 05 6c 04 21 00 5f 	movb   $0x5f,0x21046c(%rip)        # 212058 <s+0x18>
    1bec:	c6 05 52 04 21 00 5e 	movb   $0x5e,0x210452(%rip)        # 212045 <s+0x5>
    1bf3:	c6 05 4c 04 21 00 65 	movb   $0x65,0x21044c(%rip)        # 212046 <s+0x6>
    1bfa:	c6 05 40 04 21 00 24 	movb   $0x24,0x210440(%rip)        # 212041 <s+0x1>
    1c01:	c6 05 4e 04 21 00 7b 	movb   $0x7b,0x21044e(%rip)        # 212056 <s+0x16>
    1c08:	c6 05 3b 04 21 00 5a 	movb   $0x5a,0x21043b(%rip)        # 21204a <s+0xa>
    1c0f:	c6 05 50 04 21 00 28 	movb   $0x28,0x210450(%rip)        # 212066 <s+0x26>
    1c16:	c6 05 3b 04 21 00 70 	movb   $0x70,0x21043b(%rip)        # 212058 <s+0x18>
    1c1d:	c6 05 1e 04 21 00 6e 	movb   $0x6e,0x21041e(%rip)        # 212042 <s+0x2>
    1c24:	c6 05 18 04 21 00 5b 	movb   $0x5b,0x210418(%rip)        # 212043 <s+0x3>
    1c2b:	c6 05 16 04 21 00 2e 	movb   $0x2e,0x210416(%rip)        # 212048 <s+0x8>
    1c32:	c6 05 1a 04 21 00 33 	movb   $0x33,0x21041a(%rip)        # 212053 <s+0x13>
    1c39:	c6 05 0d 04 21 00 51 	movb   $0x51,0x21040d(%rip)        # 21204d <s+0xd>
    1c40:	c6 05 04 04 21 00 59 	movb   $0x59,0x210404(%rip)        # 21204b <s+0xb>
    1c47:	c6 05 11 04 21 00 20 	movb   $0x20,0x210411(%rip)        # 21205f <s+0x1f>
    1c4e:	c6 05 f9 03 21 00 31 	movb   $0x31,0x2103f9(%rip)        # 21204e <s+0xe>
    1c55:	c6 05 ef 03 21 00 6b 	movb   $0x6b,0x2103ef(%rip)        # 21204b <s+0xb>
    1c5c:	c6 05 f1 03 21 00 30 	movb   $0x30,0x2103f1(%rip)        # 212054 <s+0x14>
    1c63:	c6 05 fb 03 21 00 5e 	movb   $0x5e,0x2103fb(%rip)        # 212065 <s+0x25>
    1c6a:	c6 05 dc 03 21 00 6f 	movb   $0x6f,0x2103dc(%rip)        # 21204d <s+0xd>
    1c71:	c6 05 d4 03 21 00 55 	movb   $0x55,0x2103d4(%rip)        # 21204c <s+0xc>
    1c78:	c6 05 c4 03 21 00 75 	movb   $0x75,0x2103c4(%rip)        # 212043 <s+0x3>
    1c7f:	c6 05 c2 03 21 00 7d 	movb   $0x7d,0x2103c2(%rip)        # 212048 <s+0x8>
    1c86:	c6 05 b4 03 21 00 6e 	movb   $0x6e,0x2103b4(%rip)        # 212041 <s+0x1>
    1c8d:	c6 05 c1 03 21 00 42 	movb   $0x42,0x2103c1(%rip)        # 212055 <s+0x15>
    1c94:	c6 05 a6 03 21 00 39 	movb   $0x39,0x2103a6(%rip)        # 212041 <s+0x1>
    1c9b:	c6 05 c4 03 21 00 75 	movb   $0x75,0x2103c4(%rip)        # 212066 <s+0x26>
    1ca2:	c6 05 b0 03 21 00 7a 	movb   $0x7a,0x2103b0(%rip)        # 212059 <s+0x19>
    1ca9:	c6 05 96 03 21 00 6f 	movb   $0x6f,0x210396(%rip)        # 212046 <s+0x6>
    1cb0:	c6 05 9d 03 21 00 6f 	movb   $0x6f,0x21039d(%rip)        # 212054 <s+0x14>
    1cb7:	c6 05 8f 03 21 00 31 	movb   $0x31,0x21038f(%rip)        # 21204d <s+0xd>
    1cbe:	c6 05 7b 03 21 00 29 	movb   $0x29,0x21037b(%rip)        # 212040 <s>
    1cc5:	c6 05 75 03 21 00 6e 	movb   $0x6e,0x210375(%rip)        # 212041 <s+0x1>
    1ccc:	c6 05 79 03 21 00 33 	movb   $0x33,0x210379(%rip)        # 21204c <s+0xc>
    1cd3:	c6 05 7c 03 21 00 64 	movb   $0x64,0x21037c(%rip)        # 212056 <s+0x16>
    1cda:	c6 05 77 03 21 00 70 	movb   $0x70,0x210377(%rip)        # 212058 <s+0x18>
    1ce1:	c6 05 64 03 21 00 65 	movb   $0x65,0x210364(%rip)        # 21204c <s+0xc>
    1ce8:	c6 05 54 03 21 00 31 	movb   $0x31,0x210354(%rip)        # 212043 <s+0x3>
    1cef:	c6 05 6e 03 21 00 41 	movb   $0x41,0x21036e(%rip)        # 212064 <s+0x24>
    1cf6:	c6 05 60 03 21 00 46 	movb   $0x46,0x210360(%rip)        # 21205d <s+0x1d>
    1cfd:	c6 05 5e 03 21 00 66 	movb   $0x66,0x21035e(%rip)        # 212062 <s+0x22>
    1d04:	c6 05 3b 03 21 00 48 	movb   $0x48,0x21033b(%rip)        # 212046 <s+0x6>
    1d0b:	c6 05 4e 03 21 00 55 	movb   $0x55,0x21034e(%rip)        # 212060 <s+0x20>
    1d12:	c6 05 34 03 21 00 31 	movb   $0x31,0x210334(%rip)        # 21204d <s+0xd>
    1d19:	c6 05 3a 03 21 00 34 	movb   $0x34,0x21033a(%rip)        # 21205a <s+0x1a>
    1d20:	c6 05 2b 03 21 00 23 	movb   $0x23,0x21032b(%rip)        # 212052 <s+0x12>
    1d27:	c6 05 39 03 21 00 29 	movb   $0x29,0x210339(%rip)        # 212067 <s+0x27>
    1d2e:	c6 05 0b 03 21 00 64 	movb   $0x64,0x21030b(%rip)        # 212040 <s>
    1d35:	c6 05 10 03 21 00 6f 	movb   $0x6f,0x210310(%rip)        # 21204c <s+0xc>
    1d3c:	c6 05 23 03 21 00 4d 	movb   $0x4d,0x210323(%rip)        # 212066 <s+0x26>
    1d43:	c6 05 0f 03 21 00 7e 	movb   $0x7e,0x21030f(%rip)        # 212059 <s+0x19>
    1d4a:	c6 05 13 03 21 00 4b 	movb   $0x4b,0x210313(%rip)        # 212064 <s+0x24>
    1d51:	c6 05 f7 02 21 00 5b 	movb   $0x5b,0x2102f7(%rip)        # 21204f <s+0xf>
    1d58:	c6 05 ff 02 21 00 3c 	movb   $0x3c,0x2102ff(%rip)        # 21205e <s+0x1e>
    1d5f:	c6 05 e3 02 21 00 3e 	movb   $0x3e,0x2102e3(%rip)        # 212049 <s+0x9>
    1d66:	c6 05 e2 02 21 00 78 	movb   $0x78,0x2102e2(%rip)        # 21204f <s+0xf>
    1d6d:	c6 05 cf 02 21 00 3e 	movb   $0x3e,0x2102cf(%rip)        # 212043 <s+0x3>
    1d74:	c6 05 d5 02 21 00 73 	movb   $0x73,0x2102d5(%rip)        # 212050 <s+0x10>
    1d7b:	c6 05 e3 02 21 00 67 	movb   $0x67,0x2102e3(%rip)        # 212065 <s+0x25>
    1d82:	c6 05 de 02 21 00 47 	movb   $0x47,0x2102de(%rip)        # 212067 <s+0x27>
    1d89:	c6 05 c0 02 21 00 3a 	movb   $0x3a,0x2102c0(%rip)        # 212050 <s+0x10>
    1d90:	c6 05 bc 02 21 00 46 	movb   $0x46,0x2102bc(%rip)        # 212053 <s+0x13>
    1d97:	c6 05 aa 02 21 00 40 	movb   $0x40,0x2102aa(%rip)        # 212048 <s+0x8>
    1d9e:	c6 05 af 02 21 00 66 	movb   $0x66,0x2102af(%rip)        # 212054 <s+0x14>
    1da5:	c6 05 9b 02 21 00 3a 	movb   $0x3a,0x21029b(%rip)        # 212047 <s+0x7>
    1dac:	c6 05 b2 02 21 00 40 	movb   $0x40,0x2102b2(%rip)        # 212065 <s+0x25>
    1db3:	c6 05 a9 02 21 00 2d 	movb   $0x2d,0x2102a9(%rip)        # 212063 <s+0x23>
    1dba:	c6 05 93 02 21 00 4e 	movb   $0x4e,0x210293(%rip)        # 212054 <s+0x14>
    1dc1:	c6 05 9b 02 21 00 28 	movb   $0x28,0x21029b(%rip)        # 212063 <s+0x23>
    1dc8:	c6 05 84 02 21 00 4c 	movb   $0x4c,0x210284(%rip)        # 212053 <s+0x13>
    1dcf:	c6 05 7d 02 21 00 6e 	movb   $0x6e,0x21027d(%rip)        # 212053 <s+0x13>
    1dd6:	c6 05 80 02 21 00 70 	movb   $0x70,0x210280(%rip)        # 21205d <s+0x1d>
    1ddd:	c6 05 63 02 21 00 5d 	movb   $0x5d,0x210263(%rip)        # 212047 <s+0x7>
    1de4:	c6 05 59 02 21 00 6e 	movb   $0x6e,0x210259(%rip)        # 212044 <s+0x4>
    1deb:	c6 05 74 02 21 00 69 	movb   $0x69,0x210274(%rip)        # 212066 <s+0x26>
    1df2:	c6 05 4d 02 21 00 64 	movb   $0x64,0x21024d(%rip)        # 212046 <s+0x6>
    1df9:	c6 05 67 02 21 00 3e 	movb   $0x3e,0x210267(%rip)        # 212067 <s+0x27>
    1e00:	c6 05 5c 02 21 00 53 	movb   $0x53,0x21025c(%rip)        # 212063 <s+0x23>
    1e07:	c6 05 34 02 21 00 4d 	movb   $0x4d,0x210234(%rip)        # 212042 <s+0x2>
    1e0e:	c6 05 3d 02 21 00 7e 	movb   $0x7e,0x21023d(%rip)        # 212052 <s+0x12>
    1e15:	c6 05 4b 02 21 00 53 	movb   $0x53,0x21024b(%rip)        # 212067 <s+0x27>
    1e1c:	c6 05 39 02 21 00 4f 	movb   $0x4f,0x210239(%rip)        # 21205c <s+0x1c>
    1e23:	c6 05 25 02 21 00 29 	movb   $0x29,0x210225(%rip)        # 21204f <s+0xf>
    1e2a:	c6 05 0f 02 21 00 6f 	movb   $0x6f,0x21020f(%rip)        # 212040 <s>
    1e31:	c6 05 10 02 21 00 3b 	movb   $0x3b,0x210210(%rip)        # 212048 <s+0x8>
    1e38:	c6 05 10 02 21 00 7b 	movb   $0x7b,0x210210(%rip)        # 21204f <s+0xf>
    1e3f:	c6 05 08 02 21 00 56 	movb   $0x56,0x210208(%rip)        # 21204e <s+0xe>
    1e46:	c6 05 fd 01 21 00 7b 	movb   $0x7b,0x2101fd(%rip)        # 21204a <s+0xa>
    1e4d:	c6 05 05 02 21 00 6d 	movb   $0x6d,0x210205(%rip)        # 212059 <s+0x19>
    1e54:	c6 05 08 02 21 00 55 	movb   $0x55,0x210208(%rip)        # 212063 <s+0x23>
    1e5b:	c6 05 e3 01 21 00 5f 	movb   $0x5f,0x2101e3(%rip)        # 212045 <s+0x5>
    1e62:	c6 05 ee 01 21 00 4a 	movb   $0x4a,0x2101ee(%rip)        # 212057 <s+0x17>
    1e69:	c6 05 e1 01 21 00 4f 	movb   $0x4f,0x2101e1(%rip)        # 212051 <s+0x11>
    1e70:	c6 05 e0 01 21 00 67 	movb   $0x67,0x2101e0(%rip)        # 212057 <s+0x17>
    1e77:	c6 05 cb 01 21 00 3c 	movb   $0x3c,0x2101cb(%rip)        # 212049 <s+0x9>
    1e7e:	c6 05 dc 01 21 00 5a 	movb   $0x5a,0x2101dc(%rip)        # 212061 <s+0x21>
    1e85:	c6 05 da 01 21 00 6a 	movb   $0x6a,0x2101da(%rip)        # 212066 <s+0x26>
    1e8c:	c6 05 c2 01 21 00 41 	movb   $0x41,0x2101c2(%rip)        # 212055 <s+0x15>
    1e93:	c6 05 a6 01 21 00 74 	movb   $0x74,0x2101a6(%rip)        # 212040 <s>
    1e9a:	c6 05 b7 01 21 00 7a 	movb   $0x7a,0x2101b7(%rip)        # 212058 <s+0x18>
    1ea1:	c6 05 a3 01 21 00 60 	movb   $0x60,0x2101a3(%rip)        # 21204b <s+0xb>
    1ea8:	c6 05 ac 01 21 00 50 	movb   $0x50,0x2101ac(%rip)        # 21205b <s+0x1b>
    1eaf:	c6 05 98 01 21 00 41 	movb   $0x41,0x210198(%rip)        # 21204e <s+0xe>
    1eb6:	c6 05 88 01 21 00 2b 	movb   $0x2b,0x210188(%rip)        # 212045 <s+0x5>
    1ebd:	c6 05 98 01 21 00 20 	movb   $0x20,0x210198(%rip)        # 21205c <s+0x1c>
    1ec4:	c6 05 94 01 21 00 5f 	movb   $0x5f,0x210194(%rip)        # 21205f <s+0x1f>
    1ecb:	c6 05 85 01 21 00 20 	movb   $0x20,0x210185(%rip)        # 212057 <s+0x17>
    1ed2:	c6 05 8c 01 21 00 35 	movb   $0x35,0x21018c(%rip)        # 212065 <s+0x25>
    1ed9:	c6 05 86 01 21 00 34 	movb   $0x34,0x210186(%rip)        # 212066 <s+0x26>
    1ee0:	c6 05 68 01 21 00 7d 	movb   $0x7d,0x210168(%rip)        # 21204f <s+0xf>
    1ee7:	c6 05 60 01 21 00 53 	movb   $0x53,0x210160(%rip)        # 21204e <s+0xe>
    1eee:	c6 05 58 01 21 00 49 	movb   $0x49,0x210158(%rip)        # 21204d <s+0xd>
    1ef5:	c6 05 5b 01 21 00 2f 	movb   $0x2f,0x21015b(%rip)        # 212057 <s+0x17>
    1efc:	c6 05 3d 01 21 00 66 	movb   $0x66,0x21013d(%rip)        # 212040 <s>
    1f03:	c6 05 59 01 21 00 6a 	movb   $0x6a,0x210159(%rip)        # 212063 <s+0x23>
    1f0a:	c6 05 4f 01 21 00 21 	movb   $0x21,0x21014f(%rip)        # 212060 <s+0x20>
    1f11:	c6 05 2a 01 21 00 2e 	movb   $0x2e,0x21012a(%rip)        # 212042 <s+0x2>
    1f18:	c6 05 39 01 21 00 69 	movb   $0x69,0x210139(%rip)        # 212058 <s+0x18>
    1f1f:	c6 05 24 01 21 00 4f 	movb   $0x4f,0x210124(%rip)        # 21204a <s+0xa>
    1f26:	c6 05 2e 01 21 00 49 	movb   $0x49,0x21012e(%rip)        # 21205b <s+0x1b>
    1f2d:	c6 05 2f 01 21 00 65 	movb   $0x65,0x21012f(%rip)        # 212063 <s+0x23>
    1f34:	c6 05 19 01 21 00 46 	movb   $0x46,0x210119(%rip)        # 212054 <s+0x14>
    1f3b:	c6 05 01 01 21 00 55 	movb   $0x55,0x210101(%rip)        # 212043 <s+0x3>
    1f42:	c6 05 16 01 21 00 2f 	movb   $0x2f,0x210116(%rip)        # 21205f <s+0x1f>
    1f49:	c6 05 fa 00 21 00 34 	movb   $0x34,0x2100fa(%rip)        # 21204a <s+0xa>
    1f50:	c6 05 f8 00 21 00 44 	movb   $0x44,0x2100f8(%rip)        # 21204f <s+0xf>
    1f57:	c6 05 e7 00 21 00 4e 	movb   $0x4e,0x2100e7(%rip)        # 212045 <s+0x5>
    1f5e:	c6 05 fa 00 21 00 2e 	movb   $0x2e,0x2100fa(%rip)        # 21205f <s+0x1f>
    1f65:	c6 05 f3 00 21 00 20 	movb   $0x20,0x2100f3(%rip)        # 21205f <s+0x1f>
    1f6c:	c6 05 d9 00 21 00 34 	movb   $0x34,0x2100d9(%rip)        # 21204c <s+0xc>
    1f73:	c6 05 c8 00 21 00 52 	movb   $0x52,0x2100c8(%rip)        # 212042 <s+0x2>
    1f7a:	c6 05 c6 00 21 00 40 	movb   $0x40,0x2100c6(%rip)        # 212047 <s+0x7>
    1f81:	c6 05 ba 00 21 00 34 	movb   $0x34,0x2100ba(%rip)        # 212042 <s+0x2>
    1f88:	c6 05 d5 00 21 00 5b 	movb   $0x5b,0x2100d5(%rip)        # 212064 <s+0x24>
    1f8f:	c6 05 d0 00 21 00 6d 	movb   $0x6d,0x2100d0(%rip)        # 212066 <s+0x26>
    1f96:	c6 05 c4 00 21 00 60 	movb   $0x60,0x2100c4(%rip)        # 212061 <s+0x21>
    1f9d:	c6 05 9d 00 21 00 34 	movb   $0x34,0x21009d(%rip)        # 212041 <s+0x1>
    1fa4:	c6 05 ba 00 21 00 67 	movb   $0x67,0x2100ba(%rip)        # 212065 <s+0x25>
    1fab:	c6 05 a5 00 21 00 35 	movb   $0x35,0x2100a5(%rip)        # 212057 <s+0x17>
    1fb2:	c6 05 94 00 21 00 31 	movb   $0x31,0x210094(%rip)        # 21204d <s+0xd>
    1fb9:	c6 05 95 00 21 00 6b 	movb   $0x6b,0x210095(%rip)        # 212055 <s+0x15>
    1fc0:	c6 05 8b 00 21 00 4c 	movb   $0x4c,0x21008b(%rip)        # 212052 <s+0x12>
    1fc7:	c6 05 79 00 21 00 69 	movb   $0x69,0x210079(%rip)        # 212047 <s+0x7>
    1fce:	c6 05 6c 00 21 00 2c 	movb   $0x2c,0x21006c(%rip)        # 212041 <s+0x1>
    1fd5:	c6 05 7e 00 21 00 50 	movb   $0x50,0x21007e(%rip)        # 21205a <s+0x1a>
    1fdc:	c6 05 81 00 21 00 33 	movb   $0x33,0x210081(%rip)        # 212064 <s+0x24>
    1fe3:	c6 05 5f 00 21 00 39 	movb   $0x39,0x21005f(%rip)        # 212049 <s+0x9>
    1fea:	c6 05 58 00 21 00 47 	movb   $0x47,0x210058(%rip)        # 212049 <s+0x9>
    1ff1:	c6 05 6c 00 21 00 78 	movb   $0x78,0x21006c(%rip)        # 212064 <s+0x24>
    1ff8:	c6 05 5f 00 21 00 6a 	movb   $0x6a,0x21005f(%rip)        # 21205e <s+0x1e>
    1fff:	c6 05 3a 00 21 00 6b 	movb   $0x6b,0x21003a(%rip)        # 212040 <s>
    2006:	c6 05 45 00 21 00 6e 	movb   $0x6e,0x210045(%rip)        # 212052 <s+0x12>
    200d:	c6 05 3a 00 21 00 41 	movb   $0x41,0x21003a(%rip)        # 21204e <s+0xe>
    2014:	c6 05 29 00 21 00 6a 	movb   $0x6a,0x210029(%rip)        # 212044 <s+0x4>
    201b:	c6 05 40 00 21 00 5b 	movb   $0x5b,0x210040(%rip)        # 212062 <s+0x22>
    2022:	c6 05 3b 00 21 00 2f 	movb   $0x2f,0x21003b(%rip)        # 212064 <s+0x24>
    2029:	c6 05 34 00 21 00 2e 	movb   $0x2e,0x210034(%rip)        # 212064 <s+0x24>
    2030:	c6 05 10 00 21 00 2b 	movb   $0x2b,0x210010(%rip)        # 212047 <s+0x7>
    2037:	c6 05 22 00 21 00 61 	movb   $0x61,0x210022(%rip)        # 212060 <s+0x20>
    203e:	c6 05 06 00 21 00 38 	movb   $0x38,0x210006(%rip)        # 21204b <s+0xb>
    2045:	c6 05 0b 00 21 00 74 	movb   $0x74,0x21000b(%rip)        # 212057 <s+0x17>
    204c:	c6 05 11 00 21 00 72 	movb   $0x72,0x210011(%rip)        # 212064 <s+0x24>
    2053:	c6 05 f8 ff 20 00 44 	movb   $0x44,0x20fff8(%rip)        # 212052 <s+0x12>
    205a:	c6 05 ea ff 20 00 42 	movb   $0x42,0x20ffea(%rip)        # 21204b <s+0xb>
    2061:	c6 05 de ff 20 00 31 	movb   $0x31,0x20ffde(%rip)        # 212046 <s+0x6>
    2068:	c6 05 f8 ff 20 00 5d 	movb   $0x5d,0x20fff8(%rip)        # 212067 <s+0x27>
    206f:	c6 05 f0 ff 20 00 23 	movb   $0x23,0x20fff0(%rip)        # 212066 <s+0x26>
    2076:	c6 05 c8 ff 20 00 25 	movb   $0x25,0x20ffc8(%rip)        # 212045 <s+0x5>
    207d:	c6 05 de ff 20 00 56 	movb   $0x56,0x20ffde(%rip)        # 212062 <s+0x22>
    2084:	c6 05 d6 ff 20 00 71 	movb   $0x71,0x20ffd6(%rip)        # 212061 <s+0x21>
    208b:	c6 05 b2 ff 20 00 4f 	movb   $0x4f,0x20ffb2(%rip)        # 212044 <s+0x4>
    2092:	c6 05 aa ff 20 00 55 	movb   $0x55,0x20ffaa(%rip)        # 212043 <s+0x3>
    2099:	c6 05 bd ff 20 00 20 	movb   $0x20,0x20ffbd(%rip)        # 21205d <s+0x1d>
    20a0:	c6 05 b6 ff 20 00 7e 	movb   $0x7e,0x20ffb6(%rip)        # 21205d <s+0x1d>
    20a7:	c6 05 a7 ff 20 00 56 	movb   $0x56,0x20ffa7(%rip)        # 212055 <s+0x15>
    20ae:	c6 05 8e ff 20 00 70 	movb   $0x70,0x20ff8e(%rip)        # 212043 <s+0x3>
    20b5:	c6 05 96 ff 20 00 59 	movb   $0x59,0x20ff96(%rip)        # 212052 <s+0x12>
    20bc:	c6 05 8b ff 20 00 37 	movb   $0x37,0x20ff8b(%rip)        # 21204e <s+0xe>
    20c3:	c6 05 93 ff 20 00 4f 	movb   $0x4f,0x20ff93(%rip)        # 21205d <s+0x1d>
    20ca:	c6 05 81 ff 20 00 5d 	movb   $0x5d,0x20ff81(%rip)        # 212052 <s+0x12>
    20d1:	c6 05 70 ff 20 00 69 	movb   $0x69,0x20ff70(%rip)        # 212048 <s+0x8>
    20d8:	c6 05 82 ff 20 00 35 	movb   $0x35,0x20ff82(%rip)        # 212061 <s+0x21>
    20df:	c6 05 7e ff 20 00 41 	movb   $0x41,0x20ff7e(%rip)        # 212064 <s+0x24>
    20e6:	c6 05 68 ff 20 00 38 	movb   $0x38,0x20ff68(%rip)        # 212055 <s+0x15>
    20ed:	c6 05 72 ff 20 00 5f 	movb   $0x5f,0x20ff72(%rip)        # 212066 <s+0x26>
    20f4:	c6 05 4e ff 20 00 4e 	movb   $0x4e,0x20ff4e(%rip)        # 212049 <s+0x9>
    20fb:	c6 05 56 ff 20 00 6f 	movb   $0x6f,0x20ff56(%rip)        # 212058 <s+0x18>
    2102:	c6 05 56 ff 20 00 51 	movb   $0x51,0x20ff56(%rip)        # 21205f <s+0x1f>
    2109:	c6 05 40 ff 20 00 34 	movb   $0x34,0x20ff40(%rip)        # 212050 <s+0x10>
    2110:	c6 05 4d ff 20 00 2c 	movb   $0x2c,0x20ff4d(%rip)        # 212064 <s+0x24>
    2117:	c6 05 28 ff 20 00 43 	movb   $0x43,0x20ff28(%rip)        # 212046 <s+0x6>
    211e:	c6 05 2c ff 20 00 74 	movb   $0x74,0x20ff2c(%rip)        # 212051 <s+0x11>
    2125:	c6 05 30 ff 20 00 28 	movb   $0x28,0x20ff30(%rip)        # 21205c <s+0x1c>
    212c:	c6 05 1b ff 20 00 6c 	movb   $0x6c,0x20ff1b(%rip)        # 21204e <s+0xe>
    2133:	c6 05 0d ff 20 00 60 	movb   $0x60,0x20ff0d(%rip)        # 212047 <s+0x7>
    213a:	c6 05 22 ff 20 00 62 	movb   $0x62,0x20ff22(%rip)        # 212063 <s+0x23>
    2141:	c6 05 00 ff 20 00 6d 	movb   $0x6d,0x20ff00(%rip)        # 212048 <s+0x8>
    2148:	c6 05 fe fe 20 00 74 	movb   $0x74,0x20fefe(%rip)        # 21204d <s+0xd>
    214f:	c6 05 02 ff 20 00 2c 	movb   $0x2c,0x20ff02(%rip)        # 212058 <s+0x18>
    2156:	c6 05 f0 fe 20 00 33 	movb   $0x33,0x20fef0(%rip)        # 21204d <s+0xd>
    215d:	c6 05 fb fe 20 00 6e 	movb   $0x6e,0x20fefb(%rip)        # 21205f <s+0x1f>
    2164:	c6 05 e5 fe 20 00 2c 	movb   $0x2c,0x20fee5(%rip)        # 212050 <s+0x10>
    216b:	c6 05 dd fe 20 00 64 	movb   $0x64,0x20fedd(%rip)        # 21204f <s+0xf>
    2172:	c6 05 ec fe 20 00 6e 	movb   $0x6e,0x20feec(%rip)        # 212065 <s+0x25>
    2179:	c6 05 c7 fe 20 00 3a 	movb   $0x3a,0x20fec7(%rip)        # 212047 <s+0x7>
    2180:	c6 05 df fe 20 00 61 	movb   $0x61,0x20fedf(%rip)        # 212066 <s+0x26>
    2187:	c6 05 c3 fe 20 00 34 	movb   $0x34,0x20fec3(%rip)        # 212051 <s+0x11>
    218e:	c6 05 c2 fe 20 00 48 	movb   $0x48,0x20fec2(%rip)        # 212057 <s+0x17>
    2195:	c6 05 b9 fe 20 00 67 	movb   $0x67,0x20feb9(%rip)        # 212055 <s+0x15>
    219c:	c6 05 bc fe 20 00 2b 	movb   $0x2b,0x20febc(%rip)        # 21205f <s+0x1f>
    21a3:	c6 05 ab fe 20 00 62 	movb   $0x62,0x20feab(%rip)        # 212055 <s+0x15>
    21aa:	c6 05 8f fe 20 00 36 	movb   $0x36,0x20fe8f(%rip)        # 212040 <s>
    21b1:	c6 05 9b fe 20 00 42 	movb   $0x42,0x20fe9b(%rip)        # 212053 <s+0x13>
    21b8:	c6 05 83 fe 20 00 2f 	movb   $0x2f,0x20fe83(%rip)        # 212042 <s+0x2>
    21bf:	c6 05 7f fe 20 00 61 	movb   $0x61,0x20fe7f(%rip)        # 212045 <s+0x5>
    21c6:	c6 05 9a fe 20 00 36 	movb   $0x36,0x20fe9a(%rip)        # 212067 <s+0x27>
    21cd:	c6 05 8e fe 20 00 7e 	movb   $0x7e,0x20fe8e(%rip)        # 212062 <s+0x22>
    21d4:	c6 05 72 fe 20 00 4a 	movb   $0x4a,0x20fe72(%rip)        # 21204d <s+0xd>
    21db:	c6 05 74 fe 20 00 77 	movb   $0x77,0x20fe74(%rip)        # 212056 <s+0x16>
    21e2:	c6 05 6b fe 20 00 58 	movb   $0x58,0x20fe6b(%rip)        # 212054 <s+0x14>
    21e9:	c6 05 66 fe 20 00 4d 	movb   $0x4d,0x20fe66(%rip)        # 212056 <s+0x16>
    21f0:	c6 05 68 fe 20 00 79 	movb   $0x79,0x20fe68(%rip)        # 21205f <s+0x1f>
    21f7:	c6 05 66 fe 20 00 46 	movb   $0x46,0x20fe66(%rip)        # 212064 <s+0x24>
    21fe:	c6 05 4c fe 20 00 69 	movb   $0x69,0x20fe4c(%rip)        # 212051 <s+0x11>
    2205:	c6 05 3b fe 20 00 72 	movb   $0x72,0x20fe3b(%rip)        # 212047 <s+0x7>
    220c:	c6 05 46 fe 20 00 73 	movb   $0x73,0x20fe46(%rip)        # 212059 <s+0x19>
    2213:	c6 05 35 fe 20 00 74 	movb   $0x74,0x20fe35(%rip)        # 21204f <s+0xf>
    221a:	c6 05 22 fe 20 00 43 	movb   $0x43,0x20fe22(%rip)        # 212043 <s+0x3>
    2221:	c6 05 33 fe 20 00 54 	movb   $0x54,0x20fe33(%rip)        # 21205b <s+0x1b>
    2228:	c6 05 12 fe 20 00 46 	movb   $0x46,0x20fe12(%rip)        # 212041 <s+0x1>
    222f:	c6 05 28 fe 20 00 7b 	movb   $0x7b,0x20fe28(%rip)        # 21205e <s+0x1e>
    2236:	c6 05 24 fe 20 00 44 	movb   $0x44,0x20fe24(%rip)        # 212061 <s+0x21>
    223d:	c6 05 10 fe 20 00 30 	movb   $0x30,0x20fe10(%rip)        # 212054 <s+0x14>
    2244:	c6 05 06 fe 20 00 5f 	movb   $0x5f,0x20fe06(%rip)        # 212051 <s+0x11>
    224b:	c6 05 f3 fd 20 00 41 	movb   $0x41,0x20fdf3(%rip)        # 212045 <s+0x5>
    2252:	c6 05 eb fd 20 00 5f 	movb   $0x5f,0x20fdeb(%rip)        # 212044 <s+0x4>
    2259:	c6 05 07 fe 20 00 31 	movb   $0x31,0x20fe07(%rip)        # 212067 <s+0x27>
    2260:	c6 05 e4 fd 20 00 4f 	movb   $0x4f,0x20fde4(%rip)        # 21204b <s+0xb>
    2267:	c6 05 e0 fd 20 00 54 	movb   $0x54,0x20fde0(%rip)        # 21204e <s+0xe>
    226e:	c6 05 e8 fd 20 00 5f 	movb   $0x5f,0x20fde8(%rip)        # 21205d <s+0x1d>
    2275:	c6 05 d1 fd 20 00 34 	movb   $0x34,0x20fdd1(%rip)        # 21204d <s+0xd>
    227c:	c6 05 e3 fd 20 00 6e 	movb   $0x6e,0x20fde3(%rip)        # 212066 <s+0x26>
    2283:	c6 05 d2 fd 20 00 64 	movb   $0x64,0x20fdd2(%rip)        # 21205c <s+0x1c>
    228a:	c6 05 b8 fd 20 00 5f 	movb   $0x5f,0x20fdb8(%rip)        # 212049 <s+0x9>
    2291:	c6 05 ba fd 20 00 66 	movb   $0x66,0x20fdba(%rip)        # 212052 <s+0x12>
    2298:	c6 05 a1 fd 20 00 31 	movb   $0x31,0x20fda1(%rip)        # 212040 <s>
    229f:	c6 05 a2 fd 20 00 4e 	movb   $0x4e,0x20fda2(%rip)        # 212048 <s+0x8>
    22a6:	c6 05 ac fd 20 00 64 	movb   $0x64,0x20fdac(%rip)        # 212059 <s+0x19>
    22ad:	c6 05 a2 fd 20 00 5f 	movb   $0x5f,0x20fda2(%rip)        # 212056 <s+0x16>
    22b4:	c6 05 a4 fd 20 00 46 	movb   $0x46,0x20fda4(%rip)        # 21205f <s+0x1f>
    22bb:	c6 05 84 fd 20 00 31 	movb   $0x31,0x20fd84(%rip)        # 212046 <s+0x6>
    22c2:	c6 05 9c fd 20 00 34 	movb   $0x34,0x20fd9c(%rip)        # 212065 <s+0x25>
    22c9:	c6 05 7e fd 20 00 47 	movb   $0x47,0x20fd7e(%rip)        # 21204e <s+0xe>
    22d0:	c6 05 6d fd 20 00 7d 	movb   $0x7d,0x20fd6d(%rip)        # 212044 <s+0x4>
    22d7:	c6 05 79 fd 20 00 7a 	movb   $0x7a,0x20fd79(%rip)        # 212057 <s+0x17>
    22de:	c6 05 81 fd 20 00 71 	movb   $0x71,0x20fd81(%rip)        # 212066 <s+0x26>
    22e5:	c6 05 55 fd 20 00 38 	movb   $0x38,0x20fd55(%rip)        # 212041 <s+0x1>
    22ec:	c6 05 6c fd 20 00 63 	movb   $0x63,0x20fd6c(%rip)        # 21205f <s+0x1f>
    22f3:	c6 05 6a fd 20 00 74 	movb   $0x74,0x20fd6a(%rip)        # 212064 <s+0x24>
    22fa:	c6 05 40 fd 20 00 4a 	movb   $0x4a,0x20fd40(%rip)        # 212041 <s+0x1>
    2301:	c6 05 55 fd 20 00 4f 	movb   $0x4f,0x20fd55(%rip)        # 21205d <s+0x1d>
    2308:	c6 05 3a fd 20 00 54 	movb   $0x54,0x20fd3a(%rip)        # 212049 <s+0x9>
    230f:	c6 05 32 fd 20 00 59 	movb   $0x59,0x20fd32(%rip)        # 212048 <s+0x8>
    2316:	c6 05 30 fd 20 00 25 	movb   $0x25,0x20fd30(%rip)        # 21204d <s+0xd>
    231d:	c6 05 2c fd 20 00 2c 	movb   $0x2c,0x20fd2c(%rip)        # 212050 <s+0x10>
    2324:	c6 05 15 fd 20 00 24 	movb   $0x24,0x20fd15(%rip)        # 212040 <s>
    232b:	c6 05 14 fd 20 00 65 	movb   $0x65,0x20fd14(%rip)        # 212046 <s+0x6>
    2332:	c6 05 2d fd 20 00 6c 	movb   $0x6c,0x20fd2d(%rip)        # 212066 <s+0x26>
    2339:	c6 05 1a fd 20 00 42 	movb   $0x42,0x20fd1a(%rip)        # 21205a <s+0x1a>
    2340:	c6 05 f9 fc 20 00 53 	movb   $0x53,0x20fcf9(%rip)        # 212040 <s>
    2347:	c6 05 00 fd 20 00 6b 	movb   $0x6b,0x20fd00(%rip)        # 21204e <s+0xe>
    234e:	c6 05 05 fd 20 00 45 	movb   $0x45,0x20fd05(%rip)        # 21205a <s+0x1a>
    2355:	c6 05 f6 fc 20 00 24 	movb   $0x24,0x20fcf6(%rip)        # 212052 <s+0x12>
    235c:	c6 05 fd fc 20 00 56 	movb   $0x56,0x20fcfd(%rip)        # 212060 <s+0x20>
    2363:	c6 05 ec fc 20 00 4c 	movb   $0x4c,0x20fcec(%rip)        # 212056 <s+0x16>
    236a:	c6 05 e5 fc 20 00 30 	movb   $0x30,0x20fce5(%rip)        # 212056 <s+0x16>
    2371:	c6 05 ea fc 20 00 45 	movb   $0x45,0x20fcea(%rip)        # 212062 <s+0x22>
    2378:	c6 05 d0 fc 20 00 5f 	movb   $0x5f,0x20fcd0(%rip)        # 21204f <s+0xf>
    237f:	c6 05 d2 fc 20 00 2e 	movb   $0x2e,0x20fcd2(%rip)        # 212058 <s+0x18>
    2386:	c6 05 be fc 20 00 22 	movb   $0x22,0x20fcbe(%rip)        # 21204b <s+0xb>
    238d:	c6 05 ca fc 20 00 44 	movb   $0x44,0x20fcca(%rip)        # 21205e <s+0x1e>
    2394:	c6 05 c3 fc 20 00 4f 	movb   $0x4f,0x20fcc3(%rip)        # 21205e <s+0x1e>
    239b:	c6 05 c1 fc 20 00 5d 	movb   $0x5d,0x20fcc1(%rip)        # 212063 <s+0x23>
    23a2:	c6 05 bb fc 20 00 73 	movb   $0x73,0x20fcbb(%rip)        # 212064 <s+0x24>
    23a9:	c6 05 a3 fc 20 00 38 	movb   $0x38,0x20fca3(%rip)        # 212053 <s+0x13>
    23b0:	c6 05 a1 fc 20 00 35 	movb   $0x35,0x20fca1(%rip)        # 212058 <s+0x18>
    23b7:	c6 05 9a fc 20 00 58 	movb   $0x58,0x20fc9a(%rip)        # 212058 <s+0x18>
    23be:	c6 05 83 fc 20 00 7b 	movb   $0x7b,0x20fc83(%rip)        # 212048 <s+0x8>
    23c5:	c6 05 98 fc 20 00 7c 	movb   $0x7c,0x20fc98(%rip)        # 212064 <s+0x24>
    23cc:	c6 05 7c fc 20 00 32 	movb   $0x32,0x20fc7c(%rip)        # 21204f <s+0xf>
    23d3:	c6 05 84 fc 20 00 36 	movb   $0x36,0x20fc84(%rip)        # 21205e <s+0x1e>
    23da:	c6 05 79 fc 20 00 53 	movb   $0x53,0x20fc79(%rip)        # 21205a <s+0x1a>
    23e1:	c6 05 7a fc 20 00 61 	movb   $0x61,0x20fc7a(%rip)        # 212062 <s+0x22>
    23e8:	c6 05 6b fc 20 00 42 	movb   $0x42,0x20fc6b(%rip)        # 21205a <s+0x1a>
    23ef:	c6 05 62 fc 20 00 53 	movb   $0x53,0x20fc62(%rip)        # 212058 <s+0x18>
    23f6:	c6 05 5b fc 20 00 6d 	movb   $0x6d,0x20fc5b(%rip)        # 212058 <s+0x18>
    23fd:	c6 05 5b fc 20 00 2e 	movb   $0x2e,0x20fc5b(%rip)        # 21205f <s+0x1f>
    2404:	c6 05 41 fc 20 00 4a 	movb   $0x4a,0x20fc41(%rip)        # 21204c <s+0xc>
    240b:	c6 05 30 fc 20 00 50 	movb   $0x50,0x20fc30(%rip)        # 212042 <s+0x2>
    2412:	c6 05 2e fc 20 00 53 	movb   $0x53,0x20fc2e(%rip)        # 212047 <s+0x7>
    2419:	c6 05 37 fc 20 00 48 	movb   $0x48,0x20fc37(%rip)        # 212057 <s+0x17>
    2420:	c6 05 23 fc 20 00 70 	movb   $0x70,0x20fc23(%rip)        # 21204a <s+0xa>
    2427:	c6 05 1e fc 20 00 25 	movb   $0x25,0x20fc1e(%rip)        # 21204c <s+0xc>
    242e:	c6 05 2b fc 20 00 5e 	movb   $0x5e,0x20fc2b(%rip)        # 212060 <s+0x20>
    2435:	c6 05 21 fc 20 00 3d 	movb   $0x3d,0x20fc21(%rip)        # 21205d <s+0x1d>
    243c:	c6 05 0c fc 20 00 76 	movb   $0x76,0x20fc0c(%rip)        # 21204f <s+0xf>
    2443:	c6 05 14 fc 20 00 59 	movb   $0x59,0x20fc14(%rip)        # 21205e <s+0x1e>
    244a:	c6 05 f4 fb 20 00 31 	movb   $0x31,0x20fbf4(%rip)        # 212045 <s+0x5>
    2451:	c6 05 f2 fb 20 00 4e 	movb   $0x4e,0x20fbf2(%rip)        # 21204a <s+0xa>
    2458:	c6 05 07 fc 20 00 2b 	movb   $0x2b,0x20fc07(%rip)        # 212066 <s+0x26>
    245f:	c6 05 01 fc 20 00 3d 	movb   $0x3d,0x20fc01(%rip)        # 212067 <s+0x27>
    2466:	c6 05 de fb 20 00 7e 	movb   $0x7e,0x20fbde(%rip)        # 21204b <s+0xb>
    246d:	c6 05 d6 fb 20 00 72 	movb   $0x72,0x20fbd6(%rip)        # 21204a <s+0xa>
    2474:	c6 05 d3 fb 20 00 6f 	movb   $0x6f,0x20fbd3(%rip)        # 21204e <s+0xe>
    247b:	c6 05 c4 fb 20 00 3f 	movb   $0x3f,0x20fbc4(%rip)        # 212046 <s+0x6>
    2482:	c6 05 ba fb 20 00 3c 	movb   $0x3c,0x20fbba(%rip)        # 212043 <s+0x3>
    2489:	c6 05 c7 fb 20 00 49 	movb   $0x49,0x20fbc7(%rip)        # 212057 <s+0x17>
    2490:	c6 05 cf fb 20 00 50 	movb   $0x50,0x20fbcf(%rip)        # 212066 <s+0x26>
    2497:	c6 05 a8 fb 20 00 7a 	movb   $0x7a,0x20fba8(%rip)        # 212046 <s+0x6>
    249e:	c6 05 a2 fb 20 00 62 	movb   $0x62,0x20fba2(%rip)        # 212047 <s+0x7>
    24a5:	c6 05 9f fb 20 00 20 	movb   $0x20,0x20fb9f(%rip)        # 21204b <s+0xb>
    24ac:	c6 05 9f fb 20 00 22 	movb   $0x22,0x20fb9f(%rip)        # 212052 <s+0x12>
    24b3:	c6 05 90 fb 20 00 69 	movb   $0x69,0x20fb90(%rip)        # 21204a <s+0xa>
    24ba:	c6 05 82 fb 20 00 72 	movb   $0x72,0x20fb82(%rip)        # 212043 <s+0x3>
    24c1:	c6 05 99 fb 20 00 69 	movb   $0x69,0x20fb99(%rip)        # 212061 <s+0x21>
    24c8:	c6 05 94 fb 20 00 76 	movb   $0x76,0x20fb94(%rip)        # 212063 <s+0x23>
    24cf:	c6 05 84 fb 20 00 60 	movb   $0x60,0x20fb84(%rip)        # 21205a <s+0x1a>
    24d6:	c6 05 66 fb 20 00 47 	movb   $0x47,0x20fb66(%rip)        # 212043 <s+0x3>
    24dd:	c6 05 7f fb 20 00 66 	movb   $0x66,0x20fb7f(%rip)        # 212063 <s+0x23>
    24e4:	c6 05 69 fb 20 00 59 	movb   $0x59,0x20fb69(%rip)        # 212054 <s+0x14>
    24eb:	c6 05 5e fb 20 00 2e 	movb   $0x2e,0x20fb5e(%rip)        # 212050 <s+0x10>
    24f2:	c6 05 5a fb 20 00 7b 	movb   $0x7b,0x20fb5a(%rip)        # 212053 <s+0x13>
    24f9:	c6 05 65 fb 20 00 32 	movb   $0x32,0x20fb65(%rip)        # 212065 <s+0x25>
    2500:	c6 05 56 fb 20 00 7d 	movb   $0x7d,0x20fb56(%rip)        # 21205d <s+0x1d>
    2507:	c6 05 42 fb 20 00 21 	movb   $0x21,0x20fb42(%rip)        # 212050 <s+0x10>
    250e:	c6 05 33 fb 20 00 48 	movb   $0x48,0x20fb33(%rip)        # 212048 <s+0x8>
    2515:	c6 05 24 fb 20 00 2c 	movb   $0x2c,0x20fb24(%rip)        # 212040 <s>
    251c:	c6 05 27 fb 20 00 61 	movb   $0x61,0x20fb27(%rip)        # 21204a <s+0xa>
    2523:	c6 05 37 fb 20 00 6d 	movb   $0x6d,0x20fb37(%rip)        # 212061 <s+0x21>
    252a:	c6 05 28 fb 20 00 2b 	movb   $0x2b,0x20fb28(%rip)        # 212059 <s+0x19>
    2531:	c6 05 21 fb 20 00 46 	movb   $0x46,0x20fb21(%rip)        # 212059 <s+0x19>
    2538:	c6 05 03 fb 20 00 7e 	movb   $0x7e,0x20fb03(%rip)        # 212042 <s+0x2>
    253f:	c6 05 1f fb 20 00 62 	movb   $0x62,0x20fb1f(%rip)        # 212065 <s+0x25>
    2546:	c6 05 0f fb 20 00 5a 	movb   $0x5a,0x20fb0f(%rip)        # 21205c <s+0x1c>
    254d:	c6 05 f2 fa 20 00 4f 	movb   $0x4f,0x20faf2(%rip)        # 212046 <s+0x6>
    2554:	c6 05 f8 fa 20 00 52 	movb   $0x52,0x20faf8(%rip)        # 212053 <s+0x13>
    255b:	c6 05 f9 fa 20 00 5a 	movb   $0x5a,0x20faf9(%rip)        # 21205b <s+0x1b>
    2562:	c6 05 f8 fa 20 00 78 	movb   $0x78,0x20faf8(%rip)        # 212061 <s+0x21>
    2569:	c6 05 d7 fa 20 00 2a 	movb   $0x2a,0x20fad7(%rip)        # 212047 <s+0x7>
    2570:	c6 05 e0 fa 20 00 35 	movb   $0x35,0x20fae0(%rip)        # 212057 <s+0x17>
    2577:	c6 05 d8 fa 20 00 3a 	movb   $0x3a,0x20fad8(%rip)        # 212056 <s+0x16>
    257e:	c6 05 c8 fa 20 00 70 	movb   $0x70,0x20fac8(%rip)        # 21204d <s+0xd>
    2585:	c6 05 bc fa 20 00 54 	movb   $0x54,0x20fabc(%rip)        # 212048 <s+0x8>
    258c:	c6 05 ae fa 20 00 2f 	movb   $0x2f,0x20faae(%rip)        # 212041 <s+0x1>
    2593:	c6 05 be fa 20 00 62 	movb   $0x62,0x20fabe(%rip)        # 212058 <s+0x18>
    259a:	c6 05 c0 fa 20 00 37 	movb   $0x37,0x20fac0(%rip)        # 212061 <s+0x21>
    25a1:	c6 05 bf fa 20 00 21 	movb   $0x21,0x20fabf(%rip)        # 212067 <s+0x27>
    25a8:	c6 05 99 fa 20 00 22 	movb   $0x22,0x20fa99(%rip)        # 212048 <s+0x8>
    25af:	c6 05 ab fa 20 00 62 	movb   $0x62,0x20faab(%rip)        # 212061 <s+0x21>
    25b6:	c6 05 97 fa 20 00 39 	movb   $0x39,0x20fa97(%rip)        # 212054 <s+0x14>
    25bd:	c6 05 91 fa 20 00 75 	movb   $0x75,0x20fa91(%rip)        # 212055 <s+0x15>
    25c4:	c6 05 7c fa 20 00 77 	movb   $0x77,0x20fa7c(%rip)        # 212047 <s+0x7>
    25cb:	c6 05 80 fa 20 00 2d 	movb   $0x2d,0x20fa80(%rip)        # 212052 <s+0x12>
    25d2:	c6 05 89 fa 20 00 79 	movb   $0x79,0x20fa89(%rip)        # 212062 <s+0x22>
    25d9:	c6 05 7f fa 20 00 65 	movb   $0x65,0x20fa7f(%rip)        # 21205f <s+0x1f>
    25e0:	c6 05 5e fa 20 00 79 	movb   $0x79,0x20fa5e(%rip)        # 212045 <s+0x5>
    25e7:	c6 05 61 fa 20 00 26 	movb   $0x26,0x20fa61(%rip)        # 21204f <s+0xf>
    25ee:	c6 05 65 fa 20 00 32 	movb   $0x32,0x20fa65(%rip)        # 21205a <s+0x1a>
    25f5:	c6 05 53 fa 20 00 22 	movb   $0x22,0x20fa53(%rip)        # 21204f <s+0xf>
    25fc:	c6 05 43 fa 20 00 79 	movb   $0x79,0x20fa43(%rip)        # 212046 <s+0x6>
    2603:	c6 05 3e fa 20 00 3f 	movb   $0x3f,0x20fa3e(%rip)        # 212048 <s+0x8>
    260a:	c6 05 44 fa 20 00 7b 	movb   $0x7b,0x20fa44(%rip)        # 212055 <s+0x15>
    2611:	c6 05 44 fa 20 00 5b 	movb   $0x5b,0x20fa44(%rip)        # 21205c <s+0x1c>
    2618:	c6 05 2b fa 20 00 7c 	movb   $0x7c,0x20fa2b(%rip)        # 21204a <s+0xa>
    261f:	c6 05 31 fa 20 00 3f 	movb   $0x3f,0x20fa31(%rip)        # 212057 <s+0x17>
    2626:	c6 05 18 fa 20 00 7e 	movb   $0x7e,0x20fa18(%rip)        # 212045 <s+0x5>
    262d:	c6 05 1f fa 20 00 47 	movb   $0x47,0x20fa1f(%rip)        # 212053 <s+0x13>
    2634:	c6 05 29 fa 20 00 26 	movb   $0x26,0x20fa29(%rip)        # 212064 <s+0x24>
    263b:	c6 05 12 fa 20 00 68 	movb   $0x68,0x20fa12(%rip)        # 212054 <s+0x14>
    2642:	c6 05 00 fa 20 00 58 	movb   $0x58,0x20fa00(%rip)        # 212049 <s+0x9>
    2649:	c6 05 16 fa 20 00 4f 	movb   $0x4f,0x20fa16(%rip)        # 212066 <s+0x26>
    2650:	c6 05 0c fa 20 00 38 	movb   $0x38,0x20fa0c(%rip)        # 212063 <s+0x23>
    2657:	c6 05 f0 f9 20 00 45 	movb   $0x45,0x20f9f0(%rip)        # 21204e <s+0xe>
    265e:	c6 05 00 fa 20 00 4b 	movb   $0x4b,0x20fa00(%rip)        # 212065 <s+0x25>
    2665:	c6 05 f6 f9 20 00 75 	movb   $0x75,0x20f9f6(%rip)        # 212062 <s+0x22>
    266c:	c6 05 d9 f9 20 00 20 	movb   $0x20,0x20f9d9(%rip)        # 21204c <s+0xc>
    2673:	c6 05 e3 f9 20 00 4e 	movb   $0x4e,0x20f9e3(%rip)        # 21205d <s+0x1d>
    267a:	c6 05 d0 f9 20 00 47 	movb   $0x47,0x20f9d0(%rip)        # 212051 <s+0x11>
    2681:	c6 05 d8 f9 20 00 35 	movb   $0x35,0x20f9d8(%rip)        # 212060 <s+0x20>
    2688:	c6 05 ca f9 20 00 56 	movb   $0x56,0x20f9ca(%rip)        # 212059 <s+0x19>
    268f:	c6 05 b8 f9 20 00 21 	movb   $0x21,0x20f9b8(%rip)        # 21204e <s+0xe>
    2696:	c6 05 bc f9 20 00 60 	movb   $0x60,0x20f9bc(%rip)        # 212059 <s+0x19>
    269d:	c6 05 a4 f9 20 00 3a 	movb   $0x3a,0x20f9a4(%rip)        # 212048 <s+0x8>
    26a4:	c6 05 af f9 20 00 5a 	movb   $0x5a,0x20f9af(%rip)        # 21205a <s+0x1a>
    26ab:	c6 05 95 f9 20 00 7d 	movb   $0x7d,0x20f995(%rip)        # 212047 <s+0x7>
    26b2:	c6 05 ab f9 20 00 7b 	movb   $0x7b,0x20f9ab(%rip)        # 212064 <s+0x24>
    26b9:	c6 05 89 f9 20 00 4e 	movb   $0x4e,0x20f989(%rip)        # 212049 <s+0x9>
    26c0:	c6 05 82 f9 20 00 44 	movb   $0x44,0x20f982(%rip)        # 212049 <s+0x9>
    26c7:	c6 05 89 f9 20 00 54 	movb   $0x54,0x20f989(%rip)        # 212057 <s+0x17>
    26ce:	c6 05 6e f9 20 00 33 	movb   $0x33,0x20f96e(%rip)        # 212043 <s+0x3>
    26d5:	c6 05 68 f9 20 00 3a 	movb   $0x3a,0x20f968(%rip)        # 212044 <s+0x4>
    26dc:	c6 05 66 f9 20 00 67 	movb   $0x67,0x20f966(%rip)        # 212049 <s+0x9>
    26e3:	c6 05 75 f9 20 00 53 	movb   $0x53,0x20f975(%rip)        # 21205f <s+0x1f>
    26ea:	c6 05 4f f9 20 00 63 	movb   $0x63,0x20f94f(%rip)        # 212040 <s>
    26f1:	c6 05 65 f9 20 00 4f 	movb   $0x4f,0x20f965(%rip)        # 21205d <s+0x1d>
    26f8:	c6 05 45 f9 20 00 75 	movb   $0x75,0x20f945(%rip)        # 212044 <s+0x4>
    26ff:	c6 05 56 f9 20 00 29 	movb   $0x29,0x20f956(%rip)        # 21205c <s+0x1c>
    2706:	c6 05 33 f9 20 00 57 	movb   $0x57,0x20f933(%rip)        # 212040 <s>
    270d:	c6 05 3e f9 20 00 48 	movb   $0x48,0x20f93e(%rip)        # 212052 <s+0x12>
    2714:	c6 05 42 f9 20 00 7d 	movb   $0x7d,0x20f942(%rip)        # 21205d <s+0x1d>
    271b:	c6 05 32 f9 20 00 5d 	movb   $0x5d,0x20f932(%rip)        # 212054 <s+0x14>
    2722:	c6 05 39 f9 20 00 71 	movb   $0x71,0x20f939(%rip)        # 212062 <s+0x22>
    2729:	c6 05 28 f9 20 00 34 	movb   $0x34,0x20f928(%rip)        # 212058 <s+0x18>
    2730:	c6 05 26 f9 20 00 33 	movb   $0x33,0x20f926(%rip)        # 21205d <s+0x1d>
    2737:	c6 05 12 f9 20 00 36 	movb   $0x36,0x20f912(%rip)        # 212050 <s+0x10>
    273e:	c6 05 fd f8 20 00 43 	movb   $0x43,0x20f8fd(%rip)        # 212042 <s+0x2>
    2745:	c6 05 f5 f8 20 00 3c 	movb   $0x3c,0x20f8f5(%rip)        # 212041 <s+0x1>
    274c:	c6 05 f9 f8 20 00 35 	movb   $0x35,0x20f8f9(%rip)        # 21204c <s+0xc>
    2753:	c6 05 fa f8 20 00 54 	movb   $0x54,0x20f8fa(%rip)        # 212054 <s+0x14>
    275a:	c6 05 ef f8 20 00 2a 	movb   $0x2a,0x20f8ef(%rip)        # 212050 <s+0x10>
    2761:	c6 05 f1 f8 20 00 39 	movb   $0x39,0x20f8f1(%rip)        # 212059 <s+0x19>
    2768:	c6 05 ed f8 20 00 59 	movb   $0x59,0x20f8ed(%rip)        # 21205c <s+0x1c>
    276f:	c6 05 ea f8 20 00 61 	movb   $0x61,0x20f8ea(%rip)        # 212060 <s+0x20>
    2776:	c6 05 e1 f8 20 00 4c 	movb   $0x4c,0x20f8e1(%rip)        # 21205e <s+0x1e>
    277d:	c6 05 d9 f8 20 00 52 	movb   $0x52,0x20f8d9(%rip)        # 21205d <s+0x1d>
    2784:	c6 05 be f8 20 00 23 	movb   $0x23,0x20f8be(%rip)        # 212049 <s+0x9>
    278b:	c6 05 af f8 20 00 3c 	movb   $0x3c,0x20f8af(%rip)        # 212041 <s+0x1>
    2792:	c6 05 c2 f8 20 00 2d 	movb   $0x2d,0x20f8c2(%rip)        # 21205b <s+0x1b>
    2799:	c6 05 c7 f8 20 00 23 	movb   $0x23,0x20f8c7(%rip)        # 212067 <s+0x27>
    27a0:	c6 05 b6 f8 20 00 4e 	movb   $0x4e,0x20f8b6(%rip)        # 21205d <s+0x1d>
    27a7:	c6 05 95 f8 20 00 65 	movb   $0x65,0x20f895(%rip)        # 212043 <s+0x3>
    27ae:	c6 05 9a f8 20 00 5b 	movb   $0x5b,0x20f89a(%rip)        # 21204f <s+0xf>
    27b5:	c6 05 a4 f8 20 00 70 	movb   $0x70,0x20f8a4(%rip)        # 212060 <s+0x20>
    27bc:	c6 05 a4 f8 20 00 36 	movb   $0x36,0x20f8a4(%rip)        # 212067 <s+0x27>
    27c3:	c6 05 97 f8 20 00 6f 	movb   $0x6f,0x20f897(%rip)        # 212061 <s+0x21>
    27ca:	c6 05 93 f8 20 00 52 	movb   $0x52,0x20f893(%rip)        # 212064 <s+0x24>
    27d1:	c6 05 6a f8 20 00 4d 	movb   $0x4d,0x20f86a(%rip)        # 212042 <s+0x2>
    27d8:	c6 05 86 f8 20 00 75 	movb   $0x75,0x20f886(%rip)        # 212065 <s+0x25>
    27df:	c6 05 6d f8 20 00 69 	movb   $0x69,0x20f86d(%rip)        # 212053 <s+0x13>
    27e6:	c6 05 64 f8 20 00 5b 	movb   $0x5b,0x20f864(%rip)        # 212051 <s+0x11>
    27ed:	c6 05 5a f8 20 00 59 	movb   $0x59,0x20f85a(%rip)        # 21204e <s+0xe>
    27f4:	c6 05 50 f8 20 00 2a 	movb   $0x2a,0x20f850(%rip)        # 21204b <s+0xb>
    27fb:	c6 05 4e f8 20 00 3c 	movb   $0x3c,0x20f84e(%rip)        # 212050 <s+0x10>
    2802:	c6 05 54 f8 20 00 2d 	movb   $0x2d,0x20f854(%rip)        # 21205d <s+0x1d>
    2809:	c6 05 54 f8 20 00 32 	movb   $0x32,0x20f854(%rip)        # 212064 <s+0x24>
    2810:	c6 05 31 f8 20 00 2f 	movb   $0x2f,0x20f831(%rip)        # 212048 <s+0x8>
    2817:	c6 05 31 f8 20 00 2a 	movb   $0x2a,0x20f831(%rip)        # 21204f <s+0xf>
    281e:	c6 05 20 f8 20 00 63 	movb   $0x63,0x20f820(%rip)        # 212045 <s+0x5>
    2825:	c6 05 2c f8 20 00 2f 	movb   $0x2f,0x20f82c(%rip)        # 212058 <s+0x18>
    282c:	c6 05 34 f8 20 00 56 	movb   $0x56,0x20f834(%rip)        # 212067 <s+0x27>
    2833:	c6 05 11 f8 20 00 38 	movb   $0x38,0x20f811(%rip)        # 21204b <s+0xb>
    283a:	c6 05 12 f8 20 00 53 	movb   $0x53,0x20f812(%rip)        # 212053 <s+0x13>
    2841:	c6 05 0f f8 20 00 57 	movb   $0x57,0x20f80f(%rip)        # 212057 <s+0x17>
    2848:	c6 05 ff f7 20 00 5e 	movb   $0x5e,0x20f7ff(%rip)        # 21204e <s+0xe>
    284f:	c6 05 f0 f7 20 00 51 	movb   $0x51,0x20f7f0(%rip)        # 212046 <s+0x6>
    2856:	c6 05 08 f8 20 00 2e 	movb   $0x2e,0x20f808(%rip)        # 212065 <s+0x25>
    285d:	c6 05 fb f7 20 00 5e 	movb   $0x5e,0x20f7fb(%rip)        # 21205f <s+0x1f>
    2864:	c6 05 e6 f7 20 00 35 	movb   $0x35,0x20f7e6(%rip)        # 212051 <s+0x11>
    286b:	c6 05 f1 f7 20 00 34 	movb   $0x34,0x20f7f1(%rip)        # 212063 <s+0x23>
    2872:	c6 05 d6 f7 20 00 24 	movb   $0x24,0x20f7d6(%rip)        # 21204f <s+0xf>
    2879:	c6 05 cf f7 20 00 65 	movb   $0x65,0x20f7cf(%rip)        # 21204f <s+0xf>
    2880:	c6 05 bf f7 20 00 37 	movb   $0x37,0x20f7bf(%rip)        # 212046 <s+0x6>
    2887:	c6 05 c7 f7 20 00 79 	movb   $0x79,0x20f7c7(%rip)        # 212055 <s+0x15>
    288e:	c6 05 c0 f7 20 00 6c 	movb   $0x6c,0x20f7c0(%rip)        # 212055 <s+0x15>
    2895:	c6 05 b9 f7 20 00 64 	movb   $0x64,0x20f7b9(%rip)        # 212055 <s+0x15>
    289c:	c6 05 b8 f7 20 00 76 	movb   $0x76,0x20f7b8(%rip)        # 21205b <s+0x1b>
    28a3:	c6 05 99 f7 20 00 69 	movb   $0x69,0x20f799(%rip)        # 212043 <s+0x3>
    28aa:	c6 05 99 f7 20 00 6d 	movb   $0x6d,0x20f799(%rip)        # 21204a <s+0xa>
    28b1:	c6 05 9f f7 20 00 40 	movb   $0x40,0x20f79f(%rip)        # 212057 <s+0x17>
    28b8:	c6 05 8a f7 20 00 4b 	movb   $0x4b,0x20f78a(%rip)        # 212049 <s+0x9>
    28bf:	c6 05 9d f7 20 00 2c 	movb   $0x2c,0x20f79d(%rip)        # 212063 <s+0x23>
    28c6:	c6 05 7d f7 20 00 3a 	movb   $0x3a,0x20f77d(%rip)        # 21204a <s+0xa>
    28cd:	c6 05 7e f7 20 00 60 	movb   $0x60,0x20f77e(%rip)        # 212052 <s+0x12>
    28d4:	c6 05 7c f7 20 00 4a 	movb   $0x4a,0x20f77c(%rip)        # 212057 <s+0x17>
    28db:	c6 05 6a f7 20 00 43 	movb   $0x43,0x20f76a(%rip)        # 21204c <s+0xc>
    28e2:	c6 05 78 f7 20 00 61 	movb   $0x61,0x20f778(%rip)        # 212061 <s+0x21>
    28e9:	c6 05 60 f7 20 00 31 	movb   $0x31,0x20f760(%rip)        # 212050 <s+0x10>
    28f0:	c6 05 59 f7 20 00 38 	movb   $0x38,0x20f759(%rip)        # 212050 <s+0x10>
    28f7:	c6 05 61 f7 20 00 47 	movb   $0x47,0x20f761(%rip)        # 21205f <s+0x1f>
    28fe:	c6 05 44 f7 20 00 64 	movb   $0x64,0x20f744(%rip)        # 212049 <s+0x9>
    2905:	c6 05 3c f7 20 00 4d 	movb   $0x4d,0x20f73c(%rip)        # 212048 <s+0x8>
    290c:	c6 05 33 f7 20 00 4b 	movb   $0x4b,0x20f733(%rip)        # 212046 <s+0x6>
    2913:	c6 05 37 f7 20 00 36 	movb   $0x36,0x20f737(%rip)        # 212051 <s+0x11>
    291a:	c6 05 42 f7 20 00 3f 	movb   $0x3f,0x20f742(%rip)        # 212063 <s+0x23>
    2921:	c6 05 1f f7 20 00 76 	movb   $0x76,0x20f71f(%rip)        # 212047 <s+0x7>
    2928:	c6 05 33 f7 20 00 51 	movb   $0x51,0x20f733(%rip)        # 212062 <s+0x22>
    292f:	c6 05 0b f7 20 00 6d 	movb   $0x6d,0x20f70b(%rip)        # 212041 <s+0x1>
    2936:	c6 05 0e f7 20 00 52 	movb   $0x52,0x20f70e(%rip)        # 21204b <s+0xb>
    293d:	c6 05 1c f7 20 00 58 	movb   $0x58,0x20f71c(%rip)        # 212060 <s+0x20>
    2944:	c6 05 ff f6 20 00 39 	movb   $0x39,0x20f6ff(%rip)        # 21204a <s+0xa>
    294b:	c6 05 0c f7 20 00 3d 	movb   $0x3d,0x20f70c(%rip)        # 21205e <s+0x1e>
    2952:	c6 05 00 f7 20 00 45 	movb   $0x45,0x20f700(%rip)        # 212059 <s+0x19>
    2959:	c6 05 fa f6 20 00 4a 	movb   $0x4a,0x20f6fa(%rip)        # 21205a <s+0x1a>
    2960:	c6 05 fb f6 20 00 68 	movb   $0x68,0x20f6fb(%rip)        # 212062 <s+0x22>
    2967:	c6 05 f3 f6 20 00 46 	movb   $0x46,0x20f6f3(%rip)        # 212061 <s+0x21>
    296e:	c6 05 cd f6 20 00 72 	movb   $0x72,0x20f6cd(%rip)        # 212042 <s+0x2>
    2975:	c6 05 ea f6 20 00 32 	movb   $0x32,0x20f6ea(%rip)        # 212066 <s+0x26>
    297c:	c6 05 e3 f6 20 00 3e 	movb   $0x3e,0x20f6e3(%rip)        # 212066 <s+0x26>
    2983:	c6 05 db f6 20 00 63 	movb   $0x63,0x20f6db(%rip)        # 212065 <s+0x25>
    298a:	c6 05 d0 f6 20 00 4c 	movb   $0x4c,0x20f6d0(%rip)        # 212061 <s+0x21>
    2991:	c6 05 ba f6 20 00 5f 	movb   $0x5f,0x20f6ba(%rip)        # 212052 <s+0x12>
    2998:	c6 05 b4 f6 20 00 63 	movb   $0x63,0x20f6b4(%rip)        # 212053 <s+0x13>
    299f:	c6 05 b6 f6 20 00 34 	movb   $0x34,0x20f6b6(%rip)        # 21205c <s+0x1c>
    29a6:	c6 05 99 f6 20 00 7b 	movb   $0x7b,0x20f699(%rip)        # 212046 <s+0x6>
    29ad:	c6 05 a3 f6 20 00 51 	movb   $0x51,0x20f6a3(%rip)        # 212057 <s+0x17>
    29b4:	c6 05 a6 f6 20 00 35 	movb   $0x35,0x20f6a6(%rip)        # 212061 <s+0x21>
    29bb:	c6 05 9b f6 20 00 47 	movb   $0x47,0x20f69b(%rip)        # 21205d <s+0x1d>
    29c2:	c6 05 89 f6 20 00 53 	movb   $0x53,0x20f689(%rip)        # 212052 <s+0x12>
    29c9:	c6 05 86 f6 20 00 74 	movb   $0x74,0x20f686(%rip)        # 212056 <s+0x16>
    29d0:	c6 05 75 f6 20 00 2e 	movb   $0x2e,0x20f675(%rip)        # 21204c <s+0xc>
    29d7:	c6 05 81 f6 20 00 2a 	movb   $0x2a,0x20f681(%rip)        # 21205f <s+0x1f>
    29de:	c6 05 62 f6 20 00 35 	movb   $0x35,0x20f662(%rip)        # 212047 <s+0x7>
    29e5:	c6 05 59 f6 20 00 5d 	movb   $0x5d,0x20f659(%rip)        # 212045 <s+0x5>
    29ec:	c6 05 59 f6 20 00 4b 	movb   $0x4b,0x20f659(%rip)        # 21204c <s+0xc>
    29f3:	c6 05 56 f6 20 00 30 	movb   $0x30,0x20f656(%rip)        # 212050 <s+0x10>
    29fa:	c6 05 54 f6 20 00 35 	movb   $0x35,0x20f654(%rip)        # 212055 <s+0x15>
    2a01:	c6 05 5d f6 20 00 68 	movb   $0x68,0x20f65d(%rip)        # 212065 <s+0x25>
    2a08:	c6 05 40 f6 20 00 57 	movb   $0x57,0x20f640(%rip)        # 21204f <s+0xf>
    2a0f:	c6 05 50 f6 20 00 62 	movb   $0x62,0x20f650(%rip)        # 212066 <s+0x26>
    2a16:	c6 05 24 f6 20 00 60 	movb   $0x60,0x20f624(%rip)        # 212041 <s+0x1>
    2a1d:	c6 05 22 f6 20 00 7a 	movb   $0x7a,0x20f622(%rip)        # 212046 <s+0x6>
    2a24:	c6 05 39 f6 20 00 56 	movb   $0x56,0x20f639(%rip)        # 212064 <s+0x24>
    2a2b:	c6 05 25 f6 20 00 2b 	movb   $0x2b,0x20f625(%rip)        # 212057 <s+0x17>
    2a32:	c6 05 16 f6 20 00 3c 	movb   $0x3c,0x20f616(%rip)        # 21204f <s+0xf>
    2a39:	c6 05 07 f6 20 00 61 	movb   $0x61,0x20f607(%rip)        # 212047 <s+0x7>
    2a40:	c6 05 08 f6 20 00 75 	movb   $0x75,0x20f608(%rip)        # 21204f <s+0xf>
    2a47:	c6 05 03 f6 20 00 79 	movb   $0x79,0x20f603(%rip)        # 212051 <s+0x11>
    2a4e:	c6 05 f7 f5 20 00 2b 	movb   $0x2b,0x20f5f7(%rip)        # 21204c <s+0xc>
    2a55:	c6 05 f2 f5 20 00 36 	movb   $0x36,0x20f5f2(%rip)        # 21204e <s+0xe>
    2a5c:	c6 05 fd f5 20 00 7e 	movb   $0x7e,0x20f5fd(%rip)        # 212060 <s+0x20>
    2a63:	c6 05 e6 f5 20 00 72 	movb   $0x72,0x20f5e6(%rip)        # 212050 <s+0x10>
    2a6a:	c6 05 f3 f5 20 00 23 	movb   $0x23,0x20f5f3(%rip)        # 212064 <s+0x24>
    2a71:	c6 05 de f5 20 00 76 	movb   $0x76,0x20f5de(%rip)        # 212056 <s+0x16>
    2a78:	c6 05 d3 f5 20 00 3c 	movb   $0x3c,0x20f5d3(%rip)        # 212052 <s+0x12>
    2a7f:	c6 05 cf f5 20 00 68 	movb   $0x68,0x20f5cf(%rip)        # 212055 <s+0x15>
    2a86:	c6 05 d3 f5 20 00 32 	movb   $0x32,0x20f5d3(%rip)        # 212060 <s+0x20>
    2a8d:	c6 05 b1 f5 20 00 2c 	movb   $0x2c,0x20f5b1(%rip)        # 212045 <s+0x5>
    2a94:	c6 05 c7 f5 20 00 51 	movb   $0x51,0x20f5c7(%rip)        # 212062 <s+0x22>
    2a9b:	c6 05 b6 f5 20 00 71 	movb   $0x71,0x20f5b6(%rip)        # 212058 <s+0x18>
    2aa2:	c6 05 a8 f5 20 00 2e 	movb   $0x2e,0x20f5a8(%rip)        # 212051 <s+0x11>
    2aa9:	c6 05 a6 f5 20 00 49 	movb   $0x49,0x20f5a6(%rip)        # 212056 <s+0x16>
    2ab0:	c6 05 8a f5 20 00 2d 	movb   $0x2d,0x20f58a(%rip)        # 212041 <s+0x1>
    2ab7:	c6 05 8a f5 20 00 3c 	movb   $0x3c,0x20f58a(%rip)        # 212048 <s+0x8>
    2abe:	c6 05 94 f5 20 00 6f 	movb   $0x6f,0x20f594(%rip)        # 212059 <s+0x19>
    2ac5:	c6 05 80 f5 20 00 65 	movb   $0x65,0x20f580(%rip)        # 21204c <s+0xc>
    2acc:	c6 05 94 f5 20 00 6e 	movb   $0x6e,0x20f594(%rip)        # 212067 <s+0x27>
    2ad3:	c6 05 80 f5 20 00 4b 	movb   $0x4b,0x20f580(%rip)        # 21205a <s+0x1a>
    2ada:	c6 05 69 f5 20 00 76 	movb   $0x76,0x20f569(%rip)        # 21204a <s+0xa>
    2ae1:	c6 05 69 f5 20 00 76 	movb   $0x76,0x20f569(%rip)        # 212051 <s+0x11>
    2ae8:	c6 05 56 f5 20 00 76 	movb   $0x76,0x20f556(%rip)        # 212045 <s+0x5>
    2aef:	c6 05 61 f5 20 00 50 	movb   $0x50,0x20f561(%rip)        # 212057 <s+0x17>
    2af6:	c6 05 61 f5 20 00 7c 	movb   $0x7c,0x20f561(%rip)        # 21205e <s+0x1e>
    2afd:	c6 05 46 f5 20 00 3d 	movb   $0x3d,0x20f546(%rip)        # 21204a <s+0xa>
    2b04:	c6 05 4b f5 20 00 2f 	movb   $0x2f,0x20f54b(%rip)        # 212056 <s+0x16>
    2b0b:	c6 05 4c f5 20 00 53 	movb   $0x53,0x20f54c(%rip)        # 21205e <s+0x1e>
    2b12:	c6 05 3d f5 20 00 62 	movb   $0x62,0x20f53d(%rip)        # 212056 <s+0x16>
    2b19:	c6 05 45 f5 20 00 42 	movb   $0x42,0x20f545(%rip)        # 212065 <s+0x25>
    2b20:	c6 05 36 f5 20 00 5a 	movb   $0x5a,0x20f536(%rip)        # 21205d <s+0x1d>
    2b27:	c6 05 13 f5 20 00 28 	movb   $0x28,0x20f513(%rip)        # 212041 <s+0x1>
    2b2e:	c6 05 13 f5 20 00 54 	movb   $0x54,0x20f513(%rip)        # 212048 <s+0x8>
    2b35:	c6 05 10 f5 20 00 6f 	movb   $0x6f,0x20f510(%rip)        # 21204c <s+0xc>
    2b3c:	c6 05 fe f4 20 00 41 	movb   $0x41,0x20f4fe(%rip)        # 212041 <s+0x1>
    2b43:	c6 05 0c f5 20 00 5d 	movb   $0x5d,0x20f50c(%rip)        # 212056 <s+0x16>
    2b4a:	c6 05 02 f5 20 00 3a 	movb   $0x3a,0x20f502(%rip)        # 212053 <s+0x13>
    2b51:	c6 05 fe f4 20 00 78 	movb   $0x78,0x20f4fe(%rip)        # 212056 <s+0x16>
    2b58:	c6 05 e9 f4 20 00 68 	movb   $0x68,0x20f4e9(%rip)        # 212048 <s+0x8>
    2b5f:	c6 05 e4 f4 20 00 5b 	movb   $0x5b,0x20f4e4(%rip)        # 21204a <s+0xa>
    2b66:	c6 05 e2 f4 20 00 4a 	movb   $0x4a,0x20f4e2(%rip)        # 21204f <s+0xf>
    2b6d:	c6 05 e1 f4 20 00 49 	movb   $0x49,0x20f4e1(%rip)        # 212055 <s+0x15>
    2b74:	c6 05 cc f4 20 00 22 	movb   $0x22,0x20f4cc(%rip)        # 212047 <s+0x7>
    2b7b:	c6 05 da f4 20 00 6e 	movb   $0x6e,0x20f4da(%rip)        # 21205c <s+0x1c>
    2b82:	c6 05 c1 f4 20 00 2a 	movb   $0x2a,0x20f4c1(%rip)        # 21204a <s+0xa>
    2b89:	c6 05 c4 f4 20 00 34 	movb   $0x34,0x20f4c4(%rip)        # 212054 <s+0x14>
    2b90:	c6 05 ce f4 20 00 49 	movb   $0x49,0x20f4ce(%rip)        # 212065 <s+0x25>
    2b97:	c6 05 bd f4 20 00 6e 	movb   $0x6e,0x20f4bd(%rip)        # 21205b <s+0x1b>
    2b9e:	c6 05 c2 f4 20 00 3b 	movb   $0x3b,0x20f4c2(%rip)        # 212067 <s+0x27>
    2ba5:	c6 05 a0 f4 20 00 37 	movb   $0x37,0x20f4a0(%rip)        # 21204c <s+0xc>
    2bac:	c6 05 aa f4 20 00 4f 	movb   $0x4f,0x20f4aa(%rip)        # 21205d <s+0x1d>
    2bb3:	c6 05 a1 f4 20 00 49 	movb   $0x49,0x20f4a1(%rip)        # 21205b <s+0x1b>
    2bba:	c6 05 9e f4 20 00 5b 	movb   $0x5b,0x20f49e(%rip)        # 21205f <s+0x1f>
    2bc1:	c6 05 87 f4 20 00 7a 	movb   $0x7a,0x20f487(%rip)        # 21204f <s+0xf>
    2bc8:	c6 05 92 f4 20 00 67 	movb   $0x67,0x20f492(%rip)        # 212061 <s+0x21>
    2bcf:	c6 05 88 f4 20 00 45 	movb   $0x45,0x20f488(%rip)        # 21205e <s+0x1e>
    2bd6:	c6 05 6c f4 20 00 26 	movb   $0x26,0x20f46c(%rip)        # 212049 <s+0x9>
    2bdd:	c6 05 72 f4 20 00 56 	movb   $0x56,0x20f472(%rip)        # 212056 <s+0x16>
    2be4:	c6 05 64 f4 20 00 52 	movb   $0x52,0x20f464(%rip)        # 21204f <s+0xf>
    2beb:	c6 05 50 f4 20 00 55 	movb   $0x55,0x20f450(%rip)        # 212042 <s+0x2>
    2bf2:	c6 05 5d f4 20 00 4f 	movb   $0x4f,0x20f45d(%rip)        # 212056 <s+0x16>
    2bf9:	c6 05 50 f4 20 00 69 	movb   $0x69,0x20f450(%rip)        # 212050 <s+0x10>
    2c00:	c6 05 5d f4 20 00 47 	movb   $0x47,0x20f45d(%rip)        # 212064 <s+0x24>
    2c07:	c6 05 45 f4 20 00 67 	movb   $0x67,0x20f445(%rip)        # 212053 <s+0x13>
    2c0e:	c6 05 44 f4 20 00 4e 	movb   $0x4e,0x20f444(%rip)        # 212059 <s+0x19>
    2c15:	c6 05 24 f4 20 00 38 	movb   $0x38,0x20f424(%rip)        # 212040 <s>
    2c1c:	c6 05 1e f4 20 00 5d 	movb   $0x5d,0x20f41e(%rip)        # 212041 <s+0x1>
    2c23:	c6 05 3a f4 20 00 7c 	movb   $0x7c,0x20f43a(%rip)        # 212064 <s+0x24>
    2c2a:	c6 05 1a f4 20 00 36 	movb   $0x36,0x20f41a(%rip)        # 21204b <s+0xb>
    2c31:	c6 05 23 f4 20 00 53 	movb   $0x53,0x20f423(%rip)        # 21205b <s+0x1b>
    2c38:	c6 05 14 f4 20 00 60 	movb   $0x60,0x20f414(%rip)        # 212053 <s+0x13>
    2c3f:	c6 05 1f f4 20 00 76 	movb   $0x76,0x20f41f(%rip)        # 212065 <s+0x25>
    2c46:	c6 05 15 f4 20 00 62 	movb   $0x62,0x20f415(%rip)        # 212062 <s+0x22>
    2c4d:	c6 05 ed f3 20 00 22 	movb   $0x22,0x20f3ed(%rip)        # 212041 <s+0x1>
    2c54:	c6 05 ef f3 20 00 33 	movb   $0x33,0x20f3ef(%rip)        # 21204a <s+0xa>
    2c5b:	c6 05 ff f3 20 00 44 	movb   $0x44,0x20f3ff(%rip)        # 212061 <s+0x21>
    2c62:	c6 05 ef f3 20 00 64 	movb   $0x64,0x20f3ef(%rip)        # 212058 <s+0x18>
    2c69:	c6 05 d6 f3 20 00 6e 	movb   $0x6e,0x20f3d6(%rip)        # 212046 <s+0x6>
    2c70:	c6 05 cb f3 20 00 31 	movb   $0x31,0x20f3cb(%rip)        # 212042 <s+0x2>
    2c77:	c6 05 c8 f3 20 00 7a 	movb   $0x7a,0x20f3c8(%rip)        # 212046 <s+0x6>
    2c7e:	c6 05 c3 f3 20 00 3e 	movb   $0x3e,0x20f3c3(%rip)        # 212048 <s+0x8>
    2c85:	c6 05 d4 f3 20 00 48 	movb   $0x48,0x20f3d4(%rip)        # 212060 <s+0x20>
    2c8c:	c6 05 af f3 20 00 5f 	movb   $0x5f,0x20f3af(%rip)        # 212042 <s+0x2>
    2c93:	c6 05 a8 f3 20 00 7e 	movb   $0x7e,0x20f3a8(%rip)        # 212042 <s+0x2>
    2c9a:	c6 05 c3 f3 20 00 57 	movb   $0x57,0x20f3c3(%rip)        # 212064 <s+0x24>
    2ca1:	c6 05 a1 f3 20 00 73 	movb   $0x73,0x20f3a1(%rip)        # 212049 <s+0x9>
    2ca8:	c6 05 af f3 20 00 3e 	movb   $0x3e,0x20f3af(%rip)        # 21205e <s+0x1e>
    2caf:	c6 05 95 f3 20 00 5e 	movb   $0x5e,0x20f395(%rip)        # 21204b <s+0xb>
    2cb6:	c6 05 8b f3 20 00 7b 	movb   $0x7b,0x20f38b(%rip)        # 212048 <s+0x8>
    2cbd:	c6 05 8a f3 20 00 3e 	movb   $0x3e,0x20f38a(%rip)        # 21204e <s+0xe>
    2cc4:	c6 05 98 f3 20 00 45 	movb   $0x45,0x20f398(%rip)        # 212063 <s+0x23>
    2ccb:	c6 05 79 f3 20 00 78 	movb   $0x78,0x20f379(%rip)        # 21204b <s+0xb>
    2cd2:	c6 05 88 f3 20 00 52 	movb   $0x52,0x20f388(%rip)        # 212061 <s+0x21>
    2cd9:	c6 05 6e f3 20 00 79 	movb   $0x79,0x20f36e(%rip)        # 21204e <s+0xe>
    2ce0:	c6 05 7a f3 20 00 43 	movb   $0x43,0x20f37a(%rip)        # 212061 <s+0x21>
    2ce7:	c6 05 6a f3 20 00 72 	movb   $0x72,0x20f36a(%rip)        # 212058 <s+0x18>
    2cee:	c6 05 4f f3 20 00 22 	movb   $0x22,0x20f34f(%rip)        # 212044 <s+0x4>
    2cf5:	c6 05 58 f3 20 00 57 	movb   $0x57,0x20f358(%rip)        # 212054 <s+0x14>
    2cfc:	c6 05 47 f3 20 00 3c 	movb   $0x3c,0x20f347(%rip)        # 21204a <s+0xa>
    2d03:	c6 05 41 f3 20 00 31 	movb   $0x31,0x20f341(%rip)        # 21204b <s+0xb>
    2d0a:	c6 05 34 f3 20 00 51 	movb   $0x51,0x20f334(%rip)        # 212045 <s+0x5>
    2d11:	c6 05 30 f3 20 00 62 	movb   $0x62,0x20f330(%rip)        # 212048 <s+0x8>
    2d18:	c6 05 37 f3 20 00 30 	movb   $0x30,0x20f337(%rip)        # 212056 <s+0x16>
    2d1f:	c6 05 28 f3 20 00 35 	movb   $0x35,0x20f328(%rip)        # 21204e <s+0xe>
    2d26:	c6 05 28 f3 20 00 4e 	movb   $0x4e,0x20f328(%rip)        # 212055 <s+0x15>
    2d2d:	c6 05 2f f3 20 00 7a 	movb   $0x7a,0x20f32f(%rip)        # 212063 <s+0x23>
    2d34:	c6 05 1f f3 20 00 59 	movb   $0x59,0x20f31f(%rip)        # 21205a <s+0x1a>
    2d3b:	c6 05 24 f3 20 00 7a 	movb   $0x7a,0x20f324(%rip)        # 212066 <s+0x26>
    2d42:	c6 05 0d f3 20 00 63 	movb   $0x63,0x20f30d(%rip)        # 212056 <s+0x16>
    2d49:	c6 05 fb f2 20 00 20 	movb   $0x20,0x20f2fb(%rip)        # 21204b <s+0xb>
    2d50:	c6 05 f9 f2 20 00 61 	movb   $0x61,0x20f2f9(%rip)        # 212050 <s+0x10>
    2d57:	c6 05 ed f2 20 00 47 	movb   $0x47,0x20f2ed(%rip)        # 21204b <s+0xb>
    2d5e:	c6 05 e5 f2 20 00 34 	movb   $0x34,0x20f2e5(%rip)        # 21204a <s+0xa>
    2d65:	c6 05 d8 f2 20 00 58 	movb   $0x58,0x20f2d8(%rip)        # 212044 <s+0x4>
    2d6c:	c6 05 dc f2 20 00 45 	movb   $0x45,0x20f2dc(%rip)        # 21204f <s+0xf>
    2d73:	c6 05 d4 f2 20 00 2e 	movb   $0x2e,0x20f2d4(%rip)        # 21204e <s+0xe>
    2d7a:	c6 05 d3 f2 20 00 64 	movb   $0x64,0x20f2d3(%rip)        # 212054 <s+0x14>
    2d81:	c6 05 c3 f2 20 00 5e 	movb   $0x5e,0x20f2c3(%rip)        # 21204b <s+0xb>
    2d88:	c6 05 b7 f2 20 00 56 	movb   $0x56,0x20f2b7(%rip)        # 212046 <s+0x6>
    2d8f:	c6 05 b4 f2 20 00 3e 	movb   $0x3e,0x20f2b4(%rip)        # 21204a <s+0xa>
    2d96:	c6 05 af f2 20 00 43 	movb   $0x43,0x20f2af(%rip)        # 21204c <s+0xc>
    2d9d:	c6 05 a1 f2 20 00 30 	movb   $0x30,0x20f2a1(%rip)        # 212045 <s+0x5>
    2da4:	c6 05 b8 f2 20 00 3b 	movb   $0x3b,0x20f2b8(%rip)        # 212063 <s+0x23>
    2dab:	c6 05 9a f2 20 00 7b 	movb   $0x7b,0x20f29a(%rip)        # 21204c <s+0xc>
    2db2:	c6 05 8b f2 20 00 78 	movb   $0x78,0x20f28b(%rip)        # 212044 <s+0x4>
    2db9:	c6 05 89 f2 20 00 53 	movb   $0x53,0x20f289(%rip)        # 212049 <s+0x9>
    2dc0:	c6 05 80 f2 20 00 43 	movb   $0x43,0x20f280(%rip)        # 212047 <s+0x7>
    2dc7:	c6 05 82 f2 20 00 22 	movb   $0x22,0x20f282(%rip)        # 212050 <s+0x10>
    2dce:	c6 05 7a f2 20 00 68 	movb   $0x68,0x20f27a(%rip)        # 21204f <s+0xf>
    2dd5:	c6 05 80 f2 20 00 37 	movb   $0x37,0x20f280(%rip)        # 21205c <s+0x1c>
    2ddc:	c6 05 77 f2 20 00 68 	movb   $0x68,0x20f277(%rip)        # 21205a <s+0x1a>
    2de3:	c6 05 5e f2 20 00 64 	movb   $0x64,0x20f25e(%rip)        # 212048 <s+0x8>
    2dea:	c6 05 6a f2 20 00 2d 	movb   $0x2d,0x20f26a(%rip)        # 21205b <s+0x1b>
    2df1:	c6 05 62 f2 20 00 5e 	movb   $0x5e,0x20f262(%rip)        # 21205a <s+0x1a>
    2df8:	c6 05 5a f2 20 00 69 	movb   $0x69,0x20f25a(%rip)        # 212059 <s+0x19>
    2dff:	c6 05 53 f2 20 00 50 	movb   $0x50,0x20f253(%rip)        # 212059 <s+0x19>
    2e06:	c6 05 51 f2 20 00 44 	movb   $0x44,0x20f251(%rip)        # 21205e <s+0x1e>
    2e0d:	c6 05 42 f2 20 00 5b 	movb   $0x5b,0x20f242(%rip)        # 212056 <s+0x16>
    2e14:	c6 05 47 f2 20 00 5a 	movb   $0x5a,0x20f247(%rip)        # 212062 <s+0x22>
    2e1b:	c6 05 2c f2 20 00 4f 	movb   $0x4f,0x20f22c(%rip)        # 21204e <s+0xe>
    2e22:	c6 05 37 f2 20 00 5d 	movb   $0x5d,0x20f237(%rip)        # 212060 <s+0x20>
    2e29:	c6 05 19 f2 20 00 5e 	movb   $0x5e,0x20f219(%rip)        # 212049 <s+0x9>
    2e30:	c6 05 2a f2 20 00 68 	movb   $0x68,0x20f22a(%rip)        # 212061 <s+0x21>
    2e37:	c6 05 1d f2 20 00 2f 	movb   $0x2f,0x20f21d(%rip)        # 21205b <s+0x1b>
    2e3e:	c6 05 16 f2 20 00 66 	movb   $0x66,0x20f216(%rip)        # 21205b <s+0x1b>
    2e45:	c6 05 11 f2 20 00 73 	movb   $0x73,0x20f211(%rip)        # 21205d <s+0x1d>
    2e4c:	c6 05 0e f2 20 00 23 	movb   $0x23,0x20f20e(%rip)        # 212061 <s+0x21>
    2e53:	c6 05 eb f1 20 00 22 	movb   $0x22,0x20f1eb(%rip)        # 212045 <s+0x5>
    2e5a:	c6 05 f1 f1 20 00 51 	movb   $0x51,0x20f1f1(%rip)        # 212052 <s+0x12>
    2e61:	c6 05 e3 f1 20 00 4d 	movb   $0x4d,0x20f1e3(%rip)        # 21204b <s+0xb>
    2e68:	c6 05 f5 f1 20 00 33 	movb   $0x33,0x20f1f5(%rip)        # 212064 <s+0x24>
    2e6f:	c6 05 e8 f1 20 00 2a 	movb   $0x2a,0x20f1e8(%rip)        # 21205e <s+0x1e>
    2e76:	c6 05 e2 f1 20 00 7a 	movb   $0x7a,0x20f1e2(%rip)        # 21205f <s+0x1f>
    2e7d:	c6 05 c3 f1 20 00 48 	movb   $0x48,0x20f1c3(%rip)        # 212047 <s+0x7>
    2e84:	c6 05 d3 f1 20 00 78 	movb   $0x78,0x20f1d3(%rip)        # 21205e <s+0x1e>
    2e8b:	c6 05 b2 f1 20 00 2e 	movb   $0x2e,0x20f1b2(%rip)        # 212044 <s+0x4>
    2e92:	c6 05 ac f1 20 00 2e 	movb   $0x2e,0x20f1ac(%rip)        # 212045 <s+0x5>
    2e99:	c6 05 af f1 20 00 20 	movb   $0x20,0x20f1af(%rip)        # 21204f <s+0xf>
    2ea0:	c6 05 99 f1 20 00 7b 	movb   $0x7b,0x20f199(%rip)        # 212040 <s>
    2ea7:	c6 05 9d f1 20 00 78 	movb   $0x78,0x20f19d(%rip)        # 21204b <s+0xb>
    2eae:	c6 05 a0 f1 20 00 2f 	movb   $0x2f,0x20f1a0(%rip)        # 212055 <s+0x15>
    2eb5:	c6 05 97 f1 20 00 61 	movb   $0x61,0x20f197(%rip)        # 212053 <s+0x13>
    2ebc:	c6 05 8a f1 20 00 2e 	movb   $0x2e,0x20f18a(%rip)        # 21204d <s+0xd>
    2ec3:	c6 05 97 f1 20 00 60 	movb   $0x60,0x20f197(%rip)        # 212061 <s+0x21>
    2eca:	c6 05 7b f1 20 00 5a 	movb   $0x5a,0x20f17b(%rip)        # 21204c <s+0xc>
    2ed1:	c6 05 8f f1 20 00 40 	movb   $0x40,0x20f18f(%rip)        # 212067 <s+0x27>
    2ed8:	c6 05 71 f1 20 00 31 	movb   $0x31,0x20f171(%rip)        # 212050 <s+0x10>
    2edf:	c6 05 77 f1 20 00 75 	movb   $0x75,0x20f177(%rip)        # 21205d <s+0x1d>
    2ee6:	c6 05 5a f1 20 00 21 	movb   $0x21,0x20f15a(%rip)        # 212047 <s+0x7>
    2eed:	c6 05 62 f1 20 00 40 	movb   $0x40,0x20f162(%rip)        # 212056 <s+0x16>
    2ef4:	c6 05 4f f1 20 00 59 	movb   $0x59,0x20f14f(%rip)        # 21204a <s+0xa>
    2efb:	c6 05 40 f1 20 00 7e 	movb   $0x7e,0x20f140(%rip)        # 212042 <s+0x2>
    2f02:	c6 05 43 f1 20 00 39 	movb   $0x39,0x20f143(%rip)        # 21204c <s+0xc>
    2f09:	c6 05 4e f1 20 00 37 	movb   $0x37,0x20f14e(%rip)        # 21205e <s+0x1e>
    2f10:	c6 05 30 f1 20 00 31 	movb   $0x31,0x20f130(%rip)        # 212047 <s+0x7>
    2f17:	c6 05 36 f1 20 00 2f 	movb   $0x2f,0x20f136(%rip)        # 212054 <s+0x14>
    2f1e:	c6 05 34 f1 20 00 2a 	movb   $0x2a,0x20f134(%rip)        # 212059 <s+0x19>
    2f25:	c6 05 36 f1 20 00 40 	movb   $0x40,0x20f136(%rip)        # 212062 <s+0x22>
    2f2c:	c6 05 2c f1 20 00 48 	movb   $0x48,0x20f12c(%rip)        # 21205f <s+0x1f>
    2f33:	c6 05 12 f1 20 00 5b 	movb   $0x5b,0x20f112(%rip)        # 21204c <s+0xc>
    2f3a:	c6 05 22 f1 20 00 4d 	movb   $0x4d,0x20f122(%rip)        # 212063 <s+0x23>
    2f41:	c6 05 0f f1 20 00 37 	movb   $0x37,0x20f10f(%rip)        # 212057 <s+0x17>
    2f48:	c6 05 15 f1 20 00 72 	movb   $0x72,0x20f115(%rip)        # 212064 <s+0x24>
    2f4f:	c6 05 ec f0 20 00 3a 	movb   $0x3a,0x20f0ec(%rip)        # 212042 <s+0x2>
    2f56:	c6 05 ec f0 20 00 58 	movb   $0x58,0x20f0ec(%rip)        # 212049 <s+0x9>
    2f5d:	c6 05 ed f0 20 00 22 	movb   $0x22,0x20f0ed(%rip)        # 212051 <s+0x11>
    2f64:	c6 05 e9 f0 20 00 29 	movb   $0x29,0x20f0e9(%rip)        # 212054 <s+0x14>
    2f6b:	c6 05 d7 f0 20 00 78 	movb   $0x78,0x20f0d7(%rip)        # 212049 <s+0x9>
    2f72:	c6 05 e7 f0 20 00 7d 	movb   $0x7d,0x20f0e7(%rip)        # 212060 <s+0x20>
    2f79:	c6 05 e1 f0 20 00 45 	movb   $0x45,0x20f0e1(%rip)        # 212061 <s+0x21>
    2f80:	c6 05 c5 f0 20 00 48 	movb   $0x48,0x20f0c5(%rip)        # 21204c <s+0xc>
    2f87:	c6 05 b5 f0 20 00 76 	movb   $0x76,0x20f0b5(%rip)        # 212043 <s+0x3>
    2f8e:	c6 05 d0 f0 20 00 47 	movb   $0x47,0x20f0d0(%rip)        # 212065 <s+0x25>
    2f95:	c6 05 b1 f0 20 00 4a 	movb   $0x4a,0x20f0b1(%rip)        # 21204d <s+0xd>
    2f9c:	c6 05 c2 f0 20 00 35 	movb   $0x35,0x20f0c2(%rip)        # 212065 <s+0x25>
    2fa3:	c6 05 a1 f0 20 00 34 	movb   $0x34,0x20f0a1(%rip)        # 21204b <s+0xb>
    2faa:	c6 05 98 f0 20 00 59 	movb   $0x59,0x20f098(%rip)        # 212049 <s+0x9>
    2fb1:	c6 05 8d f0 20 00 7c 	movb   $0x7c,0x20f08d(%rip)        # 212045 <s+0x5>
    2fb8:	c6 05 99 f0 20 00 5a 	movb   $0x5a,0x20f099(%rip)        # 212058 <s+0x18>
    2fbf:	c6 05 7c f0 20 00 4d 	movb   $0x4d,0x20f07c(%rip)        # 212042 <s+0x2>
    2fc6:	c6 05 9a f0 20 00 58 	movb   $0x58,0x20f09a(%rip)        # 212067 <s+0x27>
    2fcd:	c6 05 92 f0 20 00 6c 	movb   $0x6c,0x20f092(%rip)        # 212066 <s+0x26>
    2fd4:	c6 05 67 f0 20 00 34 	movb   $0x34,0x20f067(%rip)        # 212042 <s+0x2>
    2fdb:	c6 05 77 f0 20 00 65 	movb   $0x65,0x20f077(%rip)        # 212059 <s+0x19>
    2fe2:	c6 05 68 f0 20 00 33 	movb   $0x33,0x20f068(%rip)        # 212051 <s+0x11>
    2fe9:	c6 05 77 f0 20 00 56 	movb   $0x56,0x20f077(%rip)        # 212067 <s+0x27>
    2ff0:	c6 05 51 f0 20 00 74 	movb   $0x74,0x20f051(%rip)        # 212048 <s+0x8>
    2ff7:	c6 05 5a f0 20 00 64 	movb   $0x64,0x20f05a(%rip)        # 212058 <s+0x18>
    2ffe:	c6 05 47 f0 20 00 25 	movb   $0x25,0x20f047(%rip)        # 21204c <s+0xc>
    3005:	c6 05 39 f0 20 00 22 	movb   $0x22,0x20f039(%rip)        # 212045 <s+0x5>
    300c:	c6 05 44 f0 20 00 29 	movb   $0x29,0x20f044(%rip)        # 212057 <s+0x17>
    3013:	c6 05 43 f0 20 00 4c 	movb   $0x4c,0x20f043(%rip)        # 21205d <s+0x1d>
    301a:	c6 05 45 f0 20 00 6d 	movb   $0x6d,0x20f045(%rip)        # 212066 <s+0x26>
    3021:	c6 05 3f f0 20 00 55 	movb   $0x55,0x20f03f(%rip)        # 212067 <s+0x27>
    3028:	c6 05 11 f0 20 00 31 	movb   $0x31,0x20f011(%rip)        # 212040 <s>
    302f:	c6 05 31 f0 20 00 5d 	movb   $0x5d,0x20f031(%rip)        # 212067 <s+0x27>
    3036:	c6 05 0a f0 20 00 20 	movb   $0x20,0x20f00a(%rip)        # 212047 <s+0x7>
    303d:	c6 05 13 f0 20 00 7e 	movb   $0x7e,0x20f013(%rip)        # 212057 <s+0x17>
    3044:	c6 05 14 f0 20 00 6e 	movb   $0x6e,0x20f014(%rip)        # 21205f <s+0x1f>
    304b:	c6 05 04 f0 20 00 76 	movb   $0x76,0x20f004(%rip)        # 212056 <s+0x16>
    3052:	c6 05 05 f0 20 00 7e 	movb   $0x7e,0x20f005(%rip)        # 21205e <s+0x1e>
    3059:	c6 05 ed ef 20 00 24 	movb   $0x24,0x20efed(%rip)        # 21204d <s+0xd>
    3060:	c6 05 fc ef 20 00 4f 	movb   $0x4f,0x20effc(%rip)        # 212063 <s+0x23>
    3067:	c6 05 d7 ef 20 00 30 	movb   $0x30,0x20efd7(%rip)        # 212045 <s+0x5>
    306e:	c6 05 cc ef 20 00 4f 	movb   $0x4f,0x20efcc(%rip)        # 212041 <s+0x1>
    3075:	c6 05 c8 ef 20 00 64 	movb   $0x64,0x20efc8(%rip)        # 212044 <s+0x4>
    307c:	c6 05 cd ef 20 00 3e 	movb   $0x3e,0x20efcd(%rip)        # 212050 <s+0x10>
    3083:	c6 05 dc ef 20 00 6f 	movb   $0x6f,0x20efdc(%rip)        # 212066 <s+0x26>
    308a:	c6 05 c4 ef 20 00 37 	movb   $0x37,0x20efc4(%rip)        # 212055 <s+0x15>
    3091:	c6 05 b6 ef 20 00 2f 	movb   $0x2f,0x20efb6(%rip)        # 21204e <s+0xe>
    3098:	c6 05 b6 ef 20 00 62 	movb   $0x62,0x20efb6(%rip)        # 212055 <s+0x15>
    309f:	c6 05 aa ef 20 00 42 	movb   $0x42,0x20efaa(%rip)        # 212050 <s+0x10>
    30a6:	c6 05 ba ef 20 00 3a 	movb   $0x3a,0x20efba(%rip)        # 212067 <s+0x27>
    30ad:	c6 05 ab ef 20 00 39 	movb   $0x39,0x20efab(%rip)        # 21205f <s+0x1f>
    30b4:	c6 05 96 ef 20 00 75 	movb   $0x75,0x20ef96(%rip)        # 212051 <s+0x11>
    30bb:	c6 05 93 ef 20 00 6b 	movb   $0x6b,0x20ef93(%rip)        # 212055 <s+0x15>
    30c2:	c6 05 83 ef 20 00 38 	movb   $0x38,0x20ef83(%rip)        # 21204c <s+0xc>
    30c9:	c6 05 95 ef 20 00 6d 	movb   $0x6d,0x20ef95(%rip)        # 212065 <s+0x25>
    30d0:	c6 05 8d ef 20 00 59 	movb   $0x59,0x20ef8d(%rip)        # 212064 <s+0x24>
    30d7:	c6 05 7b ef 20 00 24 	movb   $0x24,0x20ef7b(%rip)        # 212059 <s+0x19>
    30de:	c6 05 5d ef 20 00 70 	movb   $0x70,0x20ef5d(%rip)        # 212042 <s+0x2>
    30e5:	c6 05 6a ef 20 00 2a 	movb   $0x2a,0x20ef6a(%rip)        # 212056 <s+0x16>
    30ec:	c6 05 4f ef 20 00 4f 	movb   $0x4f,0x20ef4f(%rip)        # 212042 <s+0x2>
    30f3:	c6 05 67 ef 20 00 3c 	movb   $0x3c,0x20ef67(%rip)        # 212061 <s+0x21>
    30fa:	c6 05 5c ef 20 00 7e 	movb   $0x7e,0x20ef5c(%rip)        # 21205d <s+0x1d>
    3101:	c6 05 3e ef 20 00 62 	movb   $0x62,0x20ef3e(%rip)        # 212046 <s+0x6>
    3108:	c6 05 41 ef 20 00 23 	movb   $0x23,0x20ef41(%rip)        # 212050 <s+0x10>
    310f:	c6 05 50 ef 20 00 59 	movb   $0x59,0x20ef50(%rip)        # 212066 <s+0x26>
    3116:	c6 05 3e ef 20 00 20 	movb   $0x20,0x20ef3e(%rip)        # 21205b <s+0x1b>
    311d:	c6 05 1d ef 20 00 22 	movb   $0x22,0x20ef1d(%rip)        # 212041 <s+0x1>
    3124:	c6 05 3a ef 20 00 55 	movb   $0x55,0x20ef3a(%rip)        # 212065 <s+0x25>
    312b:	c6 05 2d ef 20 00 3d 	movb   $0x3d,0x20ef2d(%rip)        # 21205f <s+0x1f>
    3132:	c6 05 2a ef 20 00 7c 	movb   $0x7c,0x20ef2a(%rip)        # 212063 <s+0x23>
    3139:	c6 05 18 ef 20 00 47 	movb   $0x47,0x20ef18(%rip)        # 212058 <s+0x18>
    3140:	c6 05 fb ee 20 00 67 	movb   $0x67,0x20eefb(%rip)        # 212042 <s+0x2>
    3147:	c6 05 18 ef 20 00 62 	movb   $0x62,0x20ef18(%rip)        # 212066 <s+0x26>
    314e:	c6 05 ee ee 20 00 7d 	movb   $0x7d,0x20eeee(%rip)        # 212043 <s+0x3>
    3155:	c6 05 f6 ee 20 00 35 	movb   $0x35,0x20eef6(%rip)        # 212052 <s+0x12>
    315c:	c6 05 e9 ee 20 00 70 	movb   $0x70,0x20eee9(%rip)        # 21204c <s+0xc>
    3163:	c6 05 f7 ee 20 00 49 	movb   $0x49,0x20eef7(%rip)        # 212061 <s+0x21>
    316a:	c6 05 d6 ee 20 00 6c 	movb   $0x6c,0x20eed6(%rip)        # 212047 <s+0x7>
    3171:	c6 05 ee ee 20 00 3a 	movb   $0x3a,0x20eeee(%rip)        # 212066 <s+0x26>
    3178:	c6 05 e6 ee 20 00 6b 	movb   $0x6b,0x20eee6(%rip)        # 212065 <s+0x25>
    317f:	c6 05 d6 ee 20 00 57 	movb   $0x57,0x20eed6(%rip)        # 21205c <s+0x1c>
    3186:	c6 05 b9 ee 20 00 39 	movb   $0x39,0x20eeb9(%rip)        # 212046 <s+0x6>
    318d:	c6 05 b4 ee 20 00 28 	movb   $0x28,0x20eeb4(%rip)        # 212048 <s+0x8>
    3194:	c6 05 c4 ee 20 00 7e 	movb   $0x7e,0x20eec4(%rip)        # 21205f <s+0x1f>
    319b:	c6 05 bf ee 20 00 29 	movb   $0x29,0x20eebf(%rip)        # 212061 <s+0x21>
    31a2:	c6 05 aa ee 20 00 72 	movb   $0x72,0x20eeaa(%rip)        # 212053 <s+0x13>
    31a9:	c6 05 97 ee 20 00 6f 	movb   $0x6f,0x20ee97(%rip)        # 212047 <s+0x7>
    31b0:	c6 05 94 ee 20 00 57 	movb   $0x57,0x20ee94(%rip)        # 21204b <s+0xb>
    31b7:	c6 05 a6 ee 20 00 74 	movb   $0x74,0x20eea6(%rip)        # 212064 <s+0x24>
    31be:	c6 05 8c ee 20 00 5f 	movb   $0x5f,0x20ee8c(%rip)        # 212051 <s+0x11>
    31c5:	c6 05 7d ee 20 00 28 	movb   $0x28,0x20ee7d(%rip)        # 212049 <s+0x9>
    31cc:	c6 05 6d ee 20 00 7b 	movb   $0x7b,0x20ee6d(%rip)        # 212040 <s>
    31d3:	c6 05 77 ee 20 00 4e 	movb   $0x4e,0x20ee77(%rip)        # 212051 <s+0x11>
    31da:	c6 05 68 ee 20 00 72 	movb   $0x72,0x20ee68(%rip)        # 212049 <s+0x9>
    31e1:	c6 05 61 ee 20 00 7e 	movb   $0x7e,0x20ee61(%rip)        # 212049 <s+0x9>
    31e8:	c6 05 60 ee 20 00 54 	movb   $0x54,0x20ee60(%rip)        # 21204f <s+0xf>
    31ef:	c6 05 57 ee 20 00 78 	movb   $0x78,0x20ee57(%rip)        # 21204d <s+0xd>
    31f6:	c6 05 55 ee 20 00 5e 	movb   $0x5e,0x20ee55(%rip)        # 212052 <s+0x12>
    31fd:	c6 05 42 ee 20 00 59 	movb   $0x59,0x20ee42(%rip)        # 212046 <s+0x6>
    3204:	c6 05 39 ee 20 00 23 	movb   $0x23,0x20ee39(%rip)        # 212044 <s+0x4>
    320b:	c6 05 3f ee 20 00 71 	movb   $0x71,0x20ee3f(%rip)        # 212051 <s+0x11>
    3212:	c6 05 48 ee 20 00 5e 	movb   $0x5e,0x20ee48(%rip)        # 212061 <s+0x21>
    3219:	c6 05 27 ee 20 00 57 	movb   $0x57,0x20ee27(%rip)        # 212047 <s+0x7>
    3220:	c6 05 3b ee 20 00 3a 	movb   $0x3a,0x20ee3b(%rip)        # 212062 <s+0x22>
    3227:	c6 05 15 ee 20 00 47 	movb   $0x47,0x20ee15(%rip)        # 212043 <s+0x3>
    322e:	c6 05 0e ee 20 00 3d 	movb   $0x3d,0x20ee0e(%rip)        # 212043 <s+0x3>
    3235:	c6 05 0a ee 20 00 7e 	movb   $0x7e,0x20ee0a(%rip)        # 212046 <s+0x6>
    323c:	c6 05 00 ee 20 00 68 	movb   $0x68,0x20ee00(%rip)        # 212043 <s+0x3>
    3243:	c6 05 19 ee 20 00 34 	movb   $0x34,0x20ee19(%rip)        # 212063 <s+0x23>
    324a:	c6 05 09 ee 20 00 29 	movb   $0x29,0x20ee09(%rip)        # 21205a <s+0x1a>
    3251:	c6 05 fb ed 20 00 2f 	movb   $0x2f,0x20edfb(%rip)        # 212053 <s+0x13>
    3258:	c6 05 ea ed 20 00 52 	movb   $0x52,0x20edea(%rip)        # 212049 <s+0x9>
    325f:	c6 05 dd ed 20 00 7c 	movb   $0x7c,0x20eddd(%rip)        # 212043 <s+0x3>
    3266:	c6 05 e8 ed 20 00 4e 	movb   $0x4e,0x20ede8(%rip)        # 212055 <s+0x15>
    326d:	c6 05 f1 ed 20 00 3a 	movb   $0x3a,0x20edf1(%rip)        # 212065 <s+0x25>
    3274:	c6 05 df ed 20 00 6c 	movb   $0x6c,0x20eddf(%rip)        # 21205a <s+0x1a>
    327b:	c6 05 e2 ed 20 00 6d 	movb   $0x6d,0x20ede2(%rip)        # 212064 <s+0x24>
    3282:	c6 05 cb ed 20 00 28 	movb   $0x28,0x20edcb(%rip)        # 212054 <s+0x14>
    3289:	c6 05 bf ed 20 00 7d 	movb   $0x7d,0x20edbf(%rip)        # 21204f <s+0xf>
    3290:	c6 05 cc ed 20 00 3b 	movb   $0x3b,0x20edcc(%rip)        # 212063 <s+0x23>
    3297:	c6 05 b3 ed 20 00 4d 	movb   $0x4d,0x20edb3(%rip)        # 212051 <s+0x11>
    329e:	c6 05 a4 ed 20 00 34 	movb   $0x34,0x20eda4(%rip)        # 212049 <s+0x9>
    32a5:	c6 05 b4 ed 20 00 3f 	movb   $0x3f,0x20edb4(%rip)        # 212060 <s+0x20>
    32ac:	c6 05 b4 ed 20 00 32 	movb   $0x32,0x20edb4(%rip)        # 212067 <s+0x27>
    32b3:	c6 05 97 ed 20 00 44 	movb   $0x44,0x20ed97(%rip)        # 212051 <s+0x11>
    32ba:	c6 05 89 ed 20 00 72 	movb   $0x72,0x20ed89(%rip)        # 21204a <s+0xa>
    32c1:	c6 05 8c ed 20 00 60 	movb   $0x60,0x20ed8c(%rip)        # 212054 <s+0x14>
    32c8:	c6 05 7e ed 20 00 7e 	movb   $0x7e,0x20ed7e(%rip)        # 21204d <s+0xd>
    32cf:	c6 05 78 ed 20 00 45 	movb   $0x45,0x20ed78(%rip)        # 21204e <s+0xe>
    32d6:	c6 05 76 ed 20 00 7e 	movb   $0x7e,0x20ed76(%rip)        # 212053 <s+0x13>
    32dd:	c6 05 68 ed 20 00 68 	movb   $0x68,0x20ed68(%rip)        # 21204c <s+0xc>
    32e4:	c6 05 6e ed 20 00 5d 	movb   $0x5d,0x20ed6e(%rip)        # 212059 <s+0x19>
    32eb:	c6 05 68 ed 20 00 4a 	movb   $0x4a,0x20ed68(%rip)        # 21205a <s+0x1a>
    32f2:	c6 05 56 ed 20 00 71 	movb   $0x71,0x20ed56(%rip)        # 21204f <s+0xf>
    32f9:	c6 05 60 ed 20 00 32 	movb   $0x32,0x20ed60(%rip)        # 212060 <s+0x20>
    3300:	c6 05 47 ed 20 00 7a 	movb   $0x7a,0x20ed47(%rip)        # 21204e <s+0xe>
    3307:	c6 05 51 ed 20 00 2a 	movb   $0x2a,0x20ed51(%rip)        # 21205f <s+0x1f>
    330e:	c6 05 3a ed 20 00 65 	movb   $0x65,0x20ed3a(%rip)        # 21204f <s+0xf>
    3315:	c6 05 27 ed 20 00 66 	movb   $0x66,0x20ed27(%rip)        # 212043 <s+0x3>
    331c:	c6 05 31 ed 20 00 35 	movb   $0x35,0x20ed31(%rip)        # 212054 <s+0x14>
    3323:	c6 05 30 ed 20 00 37 	movb   $0x37,0x20ed30(%rip)        # 21205a <s+0x1a>
    332a:	c6 05 23 ed 20 00 6e 	movb   $0x6e,0x20ed23(%rip)        # 212054 <s+0x14>
    3331:	c6 05 0f ed 20 00 2f 	movb   $0x2f,0x20ed0f(%rip)        # 212047 <s+0x7>
    3338:	c6 05 21 ed 20 00 4e 	movb   $0x4e,0x20ed21(%rip)        # 212060 <s+0x20>
    333f:	c6 05 11 ed 20 00 52 	movb   $0x52,0x20ed11(%rip)        # 212057 <s+0x17>
    3346:	c6 05 1a ed 20 00 3d 	movb   $0x3d,0x20ed1a(%rip)        # 212067 <s+0x27>
    334d:	c6 05 f2 ec 20 00 46 	movb   $0x46,0x20ecf2(%rip)        # 212046 <s+0x6>
    3354:	c6 05 fc ec 20 00 59 	movb   $0x59,0x20ecfc(%rip)        # 212057 <s+0x17>
    335b:	c6 05 f3 ec 20 00 4a 	movb   $0x4a,0x20ecf3(%rip)        # 212055 <s+0x15>
    3362:	c6 05 d9 ec 20 00 2d 	movb   $0x2d,0x20ecd9(%rip)        # 212042 <s+0x2>
    3369:	c6 05 d7 ec 20 00 2d 	movb   $0x2d,0x20ecd7(%rip)        # 212047 <s+0x7>
    3370:	c6 05 e9 ec 20 00 5a 	movb   $0x5a,0x20ece9(%rip)        # 212060 <s+0x20>
    3377:	c6 05 e3 ec 20 00 7a 	movb   $0x7a,0x20ece3(%rip)        # 212061 <s+0x21>
    337e:	c6 05 e2 ec 20 00 4f 	movb   $0x4f,0x20ece2(%rip)        # 212067 <s+0x27>
    3385:	c6 05 ce ec 20 00 40 	movb   $0x40,0x20ecce(%rip)        # 21205a <s+0x1a>
    338c:	c6 05 c0 ec 20 00 5f 	movb   $0x5f,0x20ecc0(%rip)        # 212053 <s+0x13>
    3393:	c6 05 cc ec 20 00 74 	movb   $0x74,0x20eccc(%rip)        # 212066 <s+0x26>
    339a:	c6 05 bd ec 20 00 7e 	movb   $0x7e,0x20ecbd(%rip)        # 21205e <s+0x1e>
    33a1:	c6 05 b7 ec 20 00 45 	movb   $0x45,0x20ecb7(%rip)        # 21205f <s+0x1f>
    33a8:	c6 05 a5 ec 20 00 26 	movb   $0x26,0x20eca5(%rip)        # 212054 <s+0x14>
    33af:	c6 05 94 ec 20 00 3c 	movb   $0x3c,0x20ec94(%rip)        # 21204a <s+0xa>
    33b6:	c6 05 9f ec 20 00 42 	movb   $0x42,0x20ec9f(%rip)        # 21205c <s+0x1c>
    33bd:	c6 05 9c ec 20 00 73 	movb   $0x73,0x20ec9c(%rip)        # 212060 <s+0x20>
    33c4:	c6 05 8c ec 20 00 3a 	movb   $0x3a,0x20ec8c(%rip)        # 212057 <s+0x17>
    33cb:	c6 05 77 ec 20 00 2d 	movb   $0x2d,0x20ec77(%rip)        # 212049 <s+0x9>
    33d2:	c6 05 6b ec 20 00 5b 	movb   $0x5b,0x20ec6b(%rip)        # 212044 <s+0x4>
    33d9:	c6 05 6d ec 20 00 30 	movb   $0x30,0x20ec6d(%rip)        # 21204d <s+0xd>
    33e0:	c6 05 7f ec 20 00 79 	movb   $0x79,0x20ec7f(%rip)        # 212066 <s+0x26>
    33e7:	c6 05 58 ec 20 00 40 	movb   $0x40,0x20ec58(%rip)        # 212046 <s+0x6>
    33ee:	c6 05 5a ec 20 00 5f 	movb   $0x5f,0x20ec5a(%rip)        # 21204f <s+0xf>
    33f5:	c6 05 4e ec 20 00 32 	movb   $0x32,0x20ec4e(%rip)        # 21204a <s+0xa>
    33fc:	c6 05 43 ec 20 00 7a 	movb   $0x7a,0x20ec43(%rip)        # 212046 <s+0x6>
    3403:	c6 05 48 ec 20 00 69 	movb   $0x69,0x20ec48(%rip)        # 212052 <s+0x12>
    340a:	c6 05 3a ec 20 00 33 	movb   $0x33,0x20ec3a(%rip)        # 21204b <s+0xb>
    3411:	c6 05 40 ec 20 00 57 	movb   $0x57,0x20ec40(%rip)        # 212058 <s+0x18>
    3418:	c6 05 2f ec 20 00 75 	movb   $0x75,0x20ec2f(%rip)        # 21204e <s+0xe>
    341f:	c6 05 33 ec 20 00 3c 	movb   $0x3c,0x20ec33(%rip)        # 212059 <s+0x19>
    3426:	c6 05 34 ec 20 00 45 	movb   $0x45,0x20ec34(%rip)        # 212061 <s+0x21>
    342d:	c6 05 0e ec 20 00 23 	movb   $0x23,0x20ec0e(%rip)        # 212042 <s+0x2>
    3434:	c6 05 09 ec 20 00 21 	movb   $0x21,0x20ec09(%rip)        # 212044 <s+0x4>
    343b:	c6 05 20 ec 20 00 63 	movb   $0x63,0x20ec20(%rip)        # 212062 <s+0x22>
    3442:	c6 05 ff eb 20 00 34 	movb   $0x34,0x20ebff(%rip)        # 212048 <s+0x8>
    3449:	c6 05 f7 eb 20 00 6e 	movb   $0x6e,0x20ebf7(%rip)        # 212047 <s+0x7>
    3450:	c6 05 fa eb 20 00 6a 	movb   $0x6a,0x20ebfa(%rip)        # 212051 <s+0x11>
    3457:	c6 05 f3 eb 20 00 4a 	movb   $0x4a,0x20ebf3(%rip)        # 212051 <s+0x11>
    345e:	c6 05 e0 eb 20 00 78 	movb   $0x78,0x20ebe0(%rip)        # 212045 <s+0x5>
    3465:	c6 05 eb eb 20 00 76 	movb   $0x76,0x20ebeb(%rip)        # 212057 <s+0x17>
    346c:	c6 05 ce eb 20 00 58 	movb   $0x58,0x20ebce(%rip)        # 212041 <s+0x1>
    3473:	c6 05 c8 eb 20 00 65 	movb   $0x65,0x20ebc8(%rip)        # 212042 <s+0x2>
    347a:	c6 05 ce eb 20 00 5f 	movb   $0x5f,0x20ebce(%rip)        # 21204f <s+0xf>
    3481:	c6 05 d7 eb 20 00 75 	movb   $0x75,0x20ebd7(%rip)        # 21205f <s+0x1f>
    3488:	c6 05 be eb 20 00 28 	movb   $0x28,0x20ebbe(%rip)        # 21204d <s+0xd>
    348f:	c6 05 c1 eb 20 00 6c 	movb   $0x6c,0x20ebc1(%rip)        # 212057 <s+0x17>
    3496:	c6 05 ca eb 20 00 2e 	movb   $0x2e,0x20ebca(%rip)        # 212067 <s+0x27>
    349d:	c6 05 9e eb 20 00 51 	movb   $0x51,0x20eb9e(%rip)        # 212042 <s+0x2>
    34a4:	c6 05 a7 eb 20 00 7e 	movb   $0x7e,0x20eba7(%rip)        # 212052 <s+0x12>
    34ab:	c6 05 a5 eb 20 00 69 	movb   $0x69,0x20eba5(%rip)        # 212057 <s+0x17>
    34b2:	c6 05 88 eb 20 00 7b 	movb   $0x7b,0x20eb88(%rip)        # 212041 <s+0x1>
    34b9:	c6 05 a4 eb 20 00 49 	movb   $0x49,0x20eba4(%rip)        # 212064 <s+0x24>
    34c0:	c6 05 7c eb 20 00 69 	movb   $0x69,0x20eb7c(%rip)        # 212043 <s+0x3>
    34c7:	c6 05 78 eb 20 00 49 	movb   $0x49,0x20eb78(%rip)        # 212046 <s+0x6>
    34ce:	c6 05 7d eb 20 00 39 	movb   $0x39,0x20eb7d(%rip)        # 212052 <s+0x12>
    34d5:	c6 05 6d eb 20 00 20 	movb   $0x20,0x20eb6d(%rip)        # 212049 <s+0x9>
    34dc:	c6 05 61 eb 20 00 47 	movb   $0x47,0x20eb61(%rip)        # 212044 <s+0x4>
    34e3:	c6 05 5b eb 20 00 3d 	movb   $0x3d,0x20eb5b(%rip)        # 212045 <s+0x5>
    34ea:	c6 05 6e eb 20 00 67 	movb   $0x67,0x20eb6e(%rip)        # 21205f <s+0x1f>
    34f1:	c6 05 4c eb 20 00 36 	movb   $0x36,0x20eb4c(%rip)        # 212044 <s+0x4>
    34f8:	c6 05 52 eb 20 00 54 	movb   $0x54,0x20eb52(%rip)        # 212051 <s+0x11>
    34ff:	c6 05 45 eb 20 00 4d 	movb   $0x4d,0x20eb45(%rip)        # 21204b <s+0xb>
    3506:	c6 05 3b eb 20 00 36 	movb   $0x36,0x20eb3b(%rip)        # 212048 <s+0x8>
    350d:	c6 05 2c eb 20 00 33 	movb   $0x33,0x20eb2c(%rip)        # 212040 <s>
    3514:	c6 05 30 eb 20 00 69 	movb   $0x69,0x20eb30(%rip)        # 21204b <s+0xb>
    351b:	c6 05 3e eb 20 00 45 	movb   $0x45,0x20eb3e(%rip)        # 212060 <s+0x20>
    3522:	c6 05 28 eb 20 00 22 	movb   $0x22,0x20eb28(%rip)        # 212051 <s+0x11>
    3529:	c6 05 1c eb 20 00 23 	movb   $0x23,0x20eb1c(%rip)        # 21204c <s+0xc>
    3530:	c6 05 24 eb 20 00 28 	movb   $0x28,0x20eb24(%rip)        # 21205b <s+0x1b>
    3537:	c6 05 02 eb 20 00 74 	movb   $0x74,0x20eb02(%rip)        # 212040 <s>
    353e:	c6 05 0f eb 20 00 39 	movb   $0x39,0x20eb0f(%rip)        # 212054 <s+0x14>
    3545:	c6 05 f8 ea 20 00 21 	movb   $0x21,0x20eaf8(%rip)        # 212044 <s+0x4>
    354c:	c6 05 00 eb 20 00 4d 	movb   $0x4d,0x20eb00(%rip)        # 212053 <s+0x13>
    3553:	c6 05 04 eb 20 00 29 	movb   $0x29,0x20eb04(%rip)        # 21205e <s+0x1e>
    355a:	c6 05 df ea 20 00 39 	movb   $0x39,0x20eadf(%rip)        # 212040 <s>
    3561:	c6 05 f9 ea 20 00 42 	movb   $0x42,0x20eaf9(%rip)        # 212061 <s+0x21>
    3568:	c6 05 f7 ea 20 00 6e 	movb   $0x6e,0x20eaf7(%rip)        # 212066 <s+0x26>
    356f:	c6 05 f0 ea 20 00 64 	movb   $0x64,0x20eaf0(%rip)        # 212066 <s+0x26>
    3576:	c6 05 d5 ea 20 00 69 	movb   $0x69,0x20ead5(%rip)        # 212052 <s+0x12>
    357d:	c6 05 d6 ea 20 00 60 	movb   $0x60,0x20ead6(%rip)        # 21205a <s+0x1a>
    3584:	c6 05 d5 ea 20 00 41 	movb   $0x41,0x20ead5(%rip)        # 212060 <s+0x20>
    358b:	c6 05 b5 ea 20 00 4d 	movb   $0x4d,0x20eab5(%rip)        # 212047 <s+0x7>
    3592:	c6 05 ca ea 20 00 4e 	movb   $0x4e,0x20eaca(%rip)        # 212063 <s+0x23>
    3599:	c6 05 c4 ea 20 00 41 	movb   $0x41,0x20eac4(%rip)        # 212064 <s+0x24>
    35a0:	c6 05 99 ea 20 00 23 	movb   $0x23,0x20ea99(%rip)        # 212040 <s>
    35a7:	c6 05 b6 ea 20 00 67 	movb   $0x67,0x20eab6(%rip)        # 212064 <s+0x24>
    35ae:	c6 05 8f ea 20 00 3e 	movb   $0x3e,0x20ea8f(%rip)        # 212044 <s+0x4>
    35b5:	c6 05 a4 ea 20 00 26 	movb   $0x26,0x20eaa4(%rip)        # 212060 <s+0x20>
    35bc:	c6 05 84 ea 20 00 6c 	movb   $0x6c,0x20ea84(%rip)        # 212047 <s+0x7>
    35c3:	c6 05 9c ea 20 00 67 	movb   $0x67,0x20ea9c(%rip)        # 212066 <s+0x26>
    35ca:	c6 05 74 ea 20 00 45 	movb   $0x45,0x20ea74(%rip)        # 212045 <s+0x5>
    35d1:	c6 05 74 ea 20 00 35 	movb   $0x35,0x20ea74(%rip)        # 21204c <s+0xc>
    35d8:	c6 05 63 ea 20 00 7e 	movb   $0x7e,0x20ea63(%rip)        # 212042 <s+0x2>
    35df:	c6 05 5c ea 20 00 69 	movb   $0x69,0x20ea5c(%rip)        # 212042 <s+0x2>
    35e6:	c6 05 5a ea 20 00 58 	movb   $0x58,0x20ea5a(%rip)        # 212047 <s+0x7>
    35ed:	c6 05 6b ea 20 00 36 	movb   $0x36,0x20ea6b(%rip)        # 21205f <s+0x1f>
    35f4:	c6 05 46 ea 20 00 3e 	movb   $0x3e,0x20ea46(%rip)        # 212041 <s+0x1>
    35fb:	c6 05 53 ea 20 00 20 	movb   $0x20,0x20ea53(%rip)        # 212055 <s+0x15>
    3602:	c6 05 5d ea 20 00 25 	movb   $0x25,0x20ea5d(%rip)        # 212066 <s+0x26>
    3609:	c6 05 38 ea 20 00 52 	movb   $0x52,0x20ea38(%rip)        # 212048 <s+0x8>
    3610:	c6 05 32 ea 20 00 33 	movb   $0x33,0x20ea32(%rip)        # 212049 <s+0x9>
    3617:	c6 05 29 ea 20 00 24 	movb   $0x24,0x20ea29(%rip)        # 212047 <s+0x7>
    361e:	c6 05 3b ea 20 00 7c 	movb   $0x7c,0x20ea3b(%rip)        # 212060 <s+0x20>
    3625:	c6 05 20 ea 20 00 3f 	movb   $0x3f,0x20ea20(%rip)        # 21204c <s+0xc>
    362c:	c6 05 1c ea 20 00 5d 	movb   $0x5d,0x20ea1c(%rip)        # 21204f <s+0xf>
    3633:	c6 05 23 ea 20 00 2c 	movb   $0x2c,0x20ea23(%rip)        # 21205d <s+0x1d>
    363a:	c6 05 05 ea 20 00 44 	movb   $0x44,0x20ea05(%rip)        # 212046 <s+0x6>
    3641:	c6 05 1c ea 20 00 48 	movb   $0x48,0x20ea1c(%rip)        # 212064 <s+0x24>
    3648:	c6 05 12 ea 20 00 20 	movb   $0x20,0x20ea12(%rip)        # 212061 <s+0x21>
    364f:	c6 05 0f ea 20 00 61 	movb   $0x61,0x20ea0f(%rip)        # 212065 <s+0x25>
    3656:	c6 05 07 ea 20 00 58 	movb   $0x58,0x20ea07(%rip)        # 212064 <s+0x24>
    365d:	c6 05 ee e9 20 00 49 	movb   $0x49,0x20e9ee(%rip)        # 212052 <s+0x12>
    3664:	c6 05 da e9 20 00 49 	movb   $0x49,0x20e9da(%rip)        # 212045 <s+0x5>
    366b:	c6 05 e9 e9 20 00 57 	movb   $0x57,0x20e9e9(%rip)        # 21205b <s+0x1b>
    3672:	c6 05 da e9 20 00 75 	movb   $0x75,0x20e9da(%rip)        # 212053 <s+0x13>
    3679:	c6 05 e3 e9 20 00 70 	movb   $0x70,0x20e9e3(%rip)        # 212063 <s+0x23>
    3680:	c6 05 bd e9 20 00 77 	movb   $0x77,0x20e9bd(%rip)        # 212044 <s+0x4>
    3687:	c6 05 ba e9 20 00 30 	movb   $0x30,0x20e9ba(%rip)        # 212048 <s+0x8>
    368e:	c6 05 cf e9 20 00 24 	movb   $0x24,0x20e9cf(%rip)        # 212064 <s+0x24>
    3695:	c6 05 c2 e9 20 00 22 	movb   $0x22,0x20e9c2(%rip)        # 21205e <s+0x1e>
    369c:	c6 05 b7 e9 20 00 41 	movb   $0x41,0x20e9b7(%rip)        # 21205a <s+0x1a>
    36a3:	c6 05 ae e9 20 00 44 	movb   $0x44,0x20e9ae(%rip)        # 212058 <s+0x18>
    36aa:	c6 05 b3 e9 20 00 5b 	movb   $0x5b,0x20e9b3(%rip)        # 212064 <s+0x24>
    36b1:	c6 05 a0 e9 20 00 6e 	movb   $0x6e,0x20e9a0(%rip)        # 212058 <s+0x18>
    36b8:	c6 05 a2 e9 20 00 35 	movb   $0x35,0x20e9a2(%rip)        # 212061 <s+0x21>
    36bf:	c6 05 99 e9 20 00 4e 	movb   $0x4e,0x20e999(%rip)        # 21205f <s+0x1f>
    36c6:	c6 05 96 e9 20 00 58 	movb   $0x58,0x20e996(%rip)        # 212063 <s+0x23>
    36cd:	c6 05 78 e9 20 00 47 	movb   $0x47,0x20e978(%rip)        # 21204c <s+0xc>
    36d4:	c6 05 86 e9 20 00 25 	movb   $0x25,0x20e986(%rip)        # 212061 <s+0x21>
    36db:	c6 05 71 e9 20 00 78 	movb   $0x78,0x20e971(%rip)        # 212053 <s+0x13>
    36e2:	c6 05 76 e9 20 00 7e 	movb   $0x7e,0x20e976(%rip)        # 21205f <s+0x1f>
    36e9:	c6 05 71 e9 20 00 7e 	movb   $0x7e,0x20e971(%rip)        # 212061 <s+0x21>
    36f0:	c6 05 69 e9 20 00 77 	movb   $0x77,0x20e969(%rip)        # 212060 <s+0x20>
    36f7:	c6 05 63 e9 20 00 77 	movb   $0x77,0x20e963(%rip)        # 212061 <s+0x21>
    36fe:	c6 05 53 e9 20 00 54 	movb   $0x54,0x20e953(%rip)        # 212058 <s+0x18>
    3705:	c6 05 34 e9 20 00 7b 	movb   $0x7b,0x20e934(%rip)        # 212040 <s>
    370c:	c6 05 3e e9 20 00 7a 	movb   $0x7a,0x20e93e(%rip)        # 212051 <s+0x11>
    3713:	c6 05 44 e9 20 00 4b 	movb   $0x4b,0x20e944(%rip)        # 21205e <s+0x1e>
    371a:	c6 05 2e e9 20 00 7b 	movb   $0x7b,0x20e92e(%rip)        # 21204f <s+0xf>
    3721:	c6 05 2a e9 20 00 76 	movb   $0x76,0x20e92a(%rip)        # 212052 <s+0x12>
    3728:	c6 05 37 e9 20 00 6e 	movb   $0x6e,0x20e937(%rip)        # 212066 <s+0x26>
    372f:	c6 05 2f e9 20 00 68 	movb   $0x68,0x20e92f(%rip)        # 212065 <s+0x25>
    3736:	c6 05 14 e9 20 00 7e 	movb   $0x7e,0x20e914(%rip)        # 212051 <s+0x11>
    373d:	c6 05 01 e9 20 00 3f 	movb   $0x3f,0x20e901(%rip)        # 212045 <s+0x5>
    3744:	c6 05 19 e9 20 00 39 	movb   $0x39,0x20e919(%rip)        # 212064 <s+0x24>
    374b:	c6 05 f3 e8 20 00 60 	movb   $0x60,0x20e8f3(%rip)        # 212045 <s+0x5>
    3752:	c6 05 ed e8 20 00 7e 	movb   $0x7e,0x20e8ed(%rip)        # 212046 <s+0x6>
    3759:	c6 05 f8 e8 20 00 44 	movb   $0x44,0x20e8f8(%rip)        # 212058 <s+0x18>
    3760:	c6 05 ec e8 20 00 3b 	movb   $0x3b,0x20e8ec(%rip)        # 212053 <s+0x13>
    3767:	c6 05 f3 e8 20 00 53 	movb   $0x53,0x20e8f3(%rip)        # 212061 <s+0x21>
    376e:	c6 05 e5 e8 20 00 39 	movb   $0x39,0x20e8e5(%rip)        # 21205a <s+0x1a>
    3775:	c6 05 cc e8 20 00 7c 	movb   $0x7c,0x20e8cc(%rip)        # 212048 <s+0x8>
    377c:	c6 05 cb e8 20 00 72 	movb   $0x72,0x20e8cb(%rip)        # 21204e <s+0xe>
    3783:	c6 05 b9 e8 20 00 34 	movb   $0x34,0x20e8b9(%rip)        # 212043 <s+0x3>
    378a:	c6 05 bc e8 20 00 44 	movb   $0x44,0x20e8bc(%rip)        # 21204d <s+0xd>
    3791:	c6 05 c1 e8 20 00 5b 	movb   $0x5b,0x20e8c1(%rip)        # 212059 <s+0x19>
    3798:	c6 05 c6 e8 20 00 62 	movb   $0x62,0x20e8c6(%rip)        # 212065 <s+0x25>
    379f:	c6 05 aa e8 20 00 4c 	movb   $0x4c,0x20e8aa(%rip)        # 212050 <s+0x10>
    37a6:	c6 05 9c e8 20 00 61 	movb   $0x61,0x20e89c(%rip)        # 212049 <s+0x9>
    37ad:	c6 05 af e8 20 00 39 	movb   $0x39,0x20e8af(%rip)        # 212063 <s+0x23>
    37b4:	c6 05 8d e8 20 00 30 	movb   $0x30,0x20e88d(%rip)        # 212048 <s+0x8>
    37bb:	c6 05 8b e8 20 00 28 	movb   $0x28,0x20e88b(%rip)        # 21204d <s+0xd>
    37c2:	c6 05 7b e8 20 00 79 	movb   $0x79,0x20e87b(%rip)        # 212044 <s+0x4>
    37c9:	c6 05 7e e8 20 00 2c 	movb   $0x2c,0x20e87e(%rip)        # 21204e <s+0xe>
    37d0:	c6 05 6f e8 20 00 34 	movb   $0x34,0x20e86f(%rip)        # 212046 <s+0x6>
    37d7:	c6 05 6c e8 20 00 43 	movb   $0x43,0x20e86c(%rip)        # 21204a <s+0xa>
    37de:	c6 05 64 e8 20 00 7a 	movb   $0x7a,0x20e864(%rip)        # 212049 <s+0x9>
    37e5:	c6 05 70 e8 20 00 48 	movb   $0x48,0x20e870(%rip)        # 21205c <s+0x1c>
    37ec:	c6 05 60 e8 20 00 46 	movb   $0x46,0x20e860(%rip)        # 212053 <s+0x13>
    37f3:	c6 05 67 e8 20 00 56 	movb   $0x56,0x20e867(%rip)        # 212061 <s+0x21>
    37fa:	c6 05 5c e8 20 00 66 	movb   $0x66,0x20e85c(%rip)        # 21205d <s+0x1d>
    3801:	c6 05 3c e8 20 00 66 	movb   $0x66,0x20e83c(%rip)        # 212044 <s+0x4>
    3808:	c6 05 35 e8 20 00 6b 	movb   $0x6b,0x20e835(%rip)        # 212044 <s+0x4>
    380f:	c6 05 3b e8 20 00 64 	movb   $0x64,0x20e83b(%rip)        # 212051 <s+0x11>
    3816:	c6 05 31 e8 20 00 40 	movb   $0x40,0x20e831(%rip)        # 21204e <s+0xe>
    381d:	c6 05 2e e8 20 00 6d 	movb   $0x6d,0x20e82e(%rip)        # 212052 <s+0x12>
    3824:	c6 05 30 e8 20 00 3c 	movb   $0x3c,0x20e830(%rip)        # 21205b <s+0x1b>
    382b:	c6 05 1b e8 20 00 57 	movb   $0x57,0x20e81b(%rip)        # 21204d <s+0xd>
    3832:	c6 05 0e e8 20 00 48 	movb   $0x48,0x20e80e(%rip)        # 212047 <s+0x7>
    3839:	c6 05 00 e8 20 00 24 	movb   $0x24,0x20e800(%rip)        # 212040 <s>
    3840:	c6 05 fc e7 20 00 3e 	movb   $0x3e,0x20e7fc(%rip)        # 212043 <s+0x3>
    3847:	c6 05 17 e8 20 00 6f 	movb   $0x6f,0x20e817(%rip)        # 212065 <s+0x25>
    384e:	c6 05 05 e8 20 00 2e 	movb   $0x2e,0x20e805(%rip)        # 21205a <s+0x1a>
    3855:	c6 05 fe e7 20 00 70 	movb   $0x70,0x20e7fe(%rip)        # 21205a <s+0x1a>
    385c:	c6 05 e6 e7 20 00 53 	movb   $0x53,0x20e7e6(%rip)        # 212049 <s+0x9>
    3863:	c6 05 f8 e7 20 00 67 	movb   $0x67,0x20e7f8(%rip)        # 212062 <s+0x22>
    386a:	c6 05 e6 e7 20 00 39 	movb   $0x39,0x20e7e6(%rip)        # 212057 <s+0x17>
    3871:	c6 05 c9 e7 20 00 7a 	movb   $0x7a,0x20e7c9(%rip)        # 212041 <s+0x1>
    3878:	c6 05 cf e7 20 00 31 	movb   $0x31,0x20e7cf(%rip)        # 21204e <s+0xe>
    387f:	c6 05 ba e7 20 00 5e 	movb   $0x5e,0x20e7ba(%rip)        # 212040 <s>
    3886:	c6 05 c8 e7 20 00 72 	movb   $0x72,0x20e7c8(%rip)        # 212055 <s+0x15>
    388d:	c6 05 b9 e7 20 00 6d 	movb   $0x6d,0x20e7b9(%rip)        # 21204d <s+0xd>
    3894:	c6 05 ab e7 20 00 5b 	movb   $0x5b,0x20e7ab(%rip)        # 212046 <s+0x6>
    389b:	c6 05 be e7 20 00 59 	movb   $0x59,0x20e7be(%rip)        # 212060 <s+0x20>
    38a2:	c6 05 b3 e7 20 00 6f 	movb   $0x6f,0x20e7b3(%rip)        # 21205c <s+0x1c>
    38a9:	c6 05 b2 e7 20 00 6f 	movb   $0x6f,0x20e7b2(%rip)        # 212062 <s+0x22>
    38b0:	c6 05 93 e7 20 00 65 	movb   $0x65,0x20e793(%rip)        # 21204a <s+0xa>
    38b7:	c6 05 86 e7 20 00 46 	movb   $0x46,0x20e786(%rip)        # 212044 <s+0x4>
    38be:	c6 05 89 e7 20 00 53 	movb   $0x53,0x20e789(%rip)        # 21204e <s+0xe>
    38c5:	c6 05 83 e7 20 00 51 	movb   $0x51,0x20e783(%rip)        # 21204f <s+0xf>
    38cc:	c6 05 7b e7 20 00 21 	movb   $0x21,0x20e77b(%rip)        # 21204e <s+0xe>
    38d3:	c6 05 7d e7 20 00 58 	movb   $0x58,0x20e77d(%rip)        # 212057 <s+0x17>
    38da:	c6 05 7a e7 20 00 79 	movb   $0x79,0x20e77a(%rip)        # 21205b <s+0x1b>
    38e1:	c6 05 73 e7 20 00 66 	movb   $0x66,0x20e773(%rip)        # 21205b <s+0x1b>
    38e8:	c6 05 53 e7 20 00 6a 	movb   $0x6a,0x20e753(%rip)        # 212042 <s+0x2>
    38ef:	c6 05 63 e7 20 00 6f 	movb   $0x6f,0x20e763(%rip)        # 212059 <s+0x19>
    38f6:	c6 05 68 e7 20 00 75 	movb   $0x75,0x20e768(%rip)        # 212065 <s+0x25>
    38fd:	c6 05 4d e7 20 00 2c 	movb   $0x2c,0x20e74d(%rip)        # 212051 <s+0x11>
    3904:	c6 05 5a e7 20 00 6d 	movb   $0x6d,0x20e75a(%rip)        # 212065 <s+0x25>
    390b:	c6 05 37 e7 20 00 5a 	movb   $0x5a,0x20e737(%rip)        # 212049 <s+0x9>
    3912:	c6 05 45 e7 20 00 5b 	movb   $0x5b,0x20e745(%rip)        # 21205e <s+0x1e>
    3919:	c6 05 2e e7 20 00 6c 	movb   $0x6c,0x20e72e(%rip)        # 21204e <s+0xe>
    3920:	c6 05 26 e7 20 00 45 	movb   $0x45,0x20e726(%rip)        # 21204d <s+0xd>
    3927:	c6 05 36 e7 20 00 5e 	movb   $0x5e,0x20e736(%rip)        # 212064 <s+0x24>
    392e:	c6 05 23 e7 20 00 46 	movb   $0x46,0x20e723(%rip)        # 212058 <s+0x18>
    3935:	c6 05 1f e7 20 00 59 	movb   $0x59,0x20e71f(%rip)        # 21205b <s+0x1b>
    393c:	c6 05 06 e7 20 00 4f 	movb   $0x4f,0x20e706(%rip)        # 212049 <s+0x9>
    3943:	c6 05 fb e6 20 00 4a 	movb   $0x4a,0x20e6fb(%rip)        # 212045 <s+0x5>
    394a:	c6 05 f2 e6 20 00 74 	movb   $0x74,0x20e6f2(%rip)        # 212043 <s+0x3>
    3951:	c6 05 e9 e6 20 00 2a 	movb   $0x2a,0x20e6e9(%rip)        # 212041 <s+0x1>
    3958:	c6 05 ee e6 20 00 3f 	movb   $0x3f,0x20e6ee(%rip)        # 21204d <s+0xd>
    395f:	c6 05 eb e6 20 00 3f 	movb   $0x3f,0x20e6eb(%rip)        # 212051 <s+0x11>
    3966:	c6 05 e2 e6 20 00 4b 	movb   $0x4b,0x20e6e2(%rip)        # 21204f <s+0xf>
    396d:	c6 05 cf e6 20 00 2a 	movb   $0x2a,0x20e6cf(%rip)        # 212043 <s+0x3>
    3974:	c6 05 dc e6 20 00 29 	movb   $0x29,0x20e6dc(%rip)        # 212057 <s+0x17>
    397b:	c6 05 d5 e6 20 00 44 	movb   $0x44,0x20e6d5(%rip)        # 212057 <s+0x17>
    3982:	c6 05 c7 e6 20 00 76 	movb   $0x76,0x20e6c7(%rip)        # 212050 <s+0x10>
    3989:	c6 05 b4 e6 20 00 69 	movb   $0x69,0x20e6b4(%rip)        # 212044 <s+0x4>
    3990:	c6 05 c8 e6 20 00 5e 	movb   $0x5e,0x20e6c8(%rip)        # 21205f <s+0x1f>
    3997:	c6 05 a4 e6 20 00 69 	movb   $0x69,0x20e6a4(%rip)        # 212042 <s+0x2>
    399e:	c6 05 a2 e6 20 00 39 	movb   $0x39,0x20e6a2(%rip)        # 212047 <s+0x7>
    39a5:	c6 05 a0 e6 20 00 62 	movb   $0x62,0x20e6a0(%rip)        # 21204c <s+0xc>
    39ac:	c6 05 a3 e6 20 00 62 	movb   $0x62,0x20e6a3(%rip)        # 212056 <s+0x16>
    39b3:	c6 05 8d e6 20 00 71 	movb   $0x71,0x20e68d(%rip)        # 212047 <s+0x7>
    39ba:	c6 05 a0 e6 20 00 66 	movb   $0x66,0x20e6a0(%rip)        # 212061 <s+0x21>
    39c1:	c6 05 79 e6 20 00 64 	movb   $0x64,0x20e679(%rip)        # 212041 <s+0x1>
    39c8:	c6 05 8d e6 20 00 67 	movb   $0x67,0x20e68d(%rip)        # 21205c <s+0x1c>
    39cf:	c6 05 7d e6 20 00 76 	movb   $0x76,0x20e67d(%rip)        # 212053 <s+0x13>
    39d6:	c6 05 7b e6 20 00 72 	movb   $0x72,0x20e67b(%rip)        # 212058 <s+0x18>
    39dd:	c6 05 74 e6 20 00 6c 	movb   $0x6c,0x20e674(%rip)        # 212058 <s+0x18>
    39e4:	c6 05 6d e6 20 00 6d 	movb   $0x6d,0x20e66d(%rip)        # 212058 <s+0x18>
    39eb:	c6 05 73 e6 20 00 45 	movb   $0x45,0x20e673(%rip)        # 212065 <s+0x25>
    39f2:	c6 05 4c e6 20 00 3f 	movb   $0x3f,0x20e64c(%rip)        # 212045 <s+0x5>
    39f9:	c6 05 5f e6 20 00 7e 	movb   $0x7e,0x20e65f(%rip)        # 21205f <s+0x1f>
    3a00:	c6 05 55 e6 20 00 4a 	movb   $0x4a,0x20e655(%rip)        # 21205c <s+0x1c>
    3a07:	c6 05 52 e6 20 00 40 	movb   $0x40,0x20e652(%rip)        # 212060 <s+0x20>
    3a0e:	c6 05 31 e6 20 00 61 	movb   $0x61,0x20e631(%rip)        # 212046 <s+0x6>
    3a15:	c6 05 4b e6 20 00 29 	movb   $0x29,0x20e64b(%rip)        # 212067 <s+0x27>
    3a1c:	c6 05 2a e6 20 00 31 	movb   $0x31,0x20e62a(%rip)        # 21204d <s+0xd>
    3a23:	c6 05 23 e6 20 00 3b 	movb   $0x3b,0x20e623(%rip)        # 21204d <s+0xd>
    3a2a:	c6 05 32 e6 20 00 5e 	movb   $0x5e,0x20e632(%rip)        # 212063 <s+0x23>
    3a31:	c6 05 1e e6 20 00 61 	movb   $0x61,0x20e61e(%rip)        # 212056 <s+0x16>
    3a38:	c6 05 23 e6 20 00 53 	movb   $0x53,0x20e623(%rip)        # 212062 <s+0x22>
    3a3f:	c6 05 0a e6 20 00 4d 	movb   $0x4d,0x20e60a(%rip)        # 212050 <s+0x10>
    3a46:	c6 05 f8 e5 20 00 23 	movb   $0x23,0x20e5f8(%rip)        # 212045 <s+0x5>
    3a4d:	c6 05 0f e6 20 00 74 	movb   $0x74,0x20e60f(%rip)        # 212063 <s+0x23>
    3a54:	c6 05 fb e5 20 00 47 	movb   $0x47,0x20e5fb(%rip)        # 212056 <s+0x16>
    3a5b:	c6 05 e2 e5 20 00 2a 	movb   $0x2a,0x20e5e2(%rip)        # 212044 <s+0x4>
    3a62:	c6 05 fd e5 20 00 6b 	movb   $0x6b,0x20e5fd(%rip)        # 212066 <s+0x26>
    3a69:	c6 05 d4 e5 20 00 45 	movb   $0x45,0x20e5d4(%rip)        # 212044 <s+0x4>
    3a70:	c6 05 e1 e5 20 00 61 	movb   $0x61,0x20e5e1(%rip)        # 212058 <s+0x18>
    3a77:	c6 05 ce e5 20 00 73 	movb   $0x73,0x20e5ce(%rip)        # 21204c <s+0xc>
    3a7e:	c6 05 ce e5 20 00 61 	movb   $0x61,0x20e5ce(%rip)        # 212053 <s+0x13>
    3a85:	c6 05 da e5 20 00 67 	movb   $0x67,0x20e5da(%rip)        # 212066 <s+0x26>
    3a8c:	c6 05 c4 e5 20 00 68 	movb   $0x68,0x20e5c4(%rip)        # 212057 <s+0x17>
    3a93:	c6 05 bb e5 20 00 63 	movb   $0x63,0x20e5bb(%rip)        # 212055 <s+0x15>
    3a9a:	c6 05 c0 e5 20 00 4c 	movb   $0x4c,0x20e5c0(%rip)        # 212061 <s+0x21>
    3aa1:	c6 05 ae e5 20 00 4d 	movb   $0x4d,0x20e5ae(%rip)        # 212056 <s+0x16>
    3aa8:	c6 05 9c e5 20 00 66 	movb   $0x66,0x20e59c(%rip)        # 21204b <s+0xb>
    3aaf:	c6 05 b0 e5 20 00 68 	movb   $0x68,0x20e5b0(%rip)        # 212066 <s+0x26>
    3ab6:	c6 05 a5 e5 20 00 7c 	movb   $0x7c,0x20e5a5(%rip)        # 212062 <s+0x22>
    3abd:	c6 05 92 e5 20 00 6c 	movb   $0x6c,0x20e592(%rip)        # 212056 <s+0x16>
    3ac4:	c6 05 90 e5 20 00 33 	movb   $0x33,0x20e590(%rip)        # 21205b <s+0x1b>
    3acb:	c6 05 8a e5 20 00 20 	movb   $0x20,0x20e58a(%rip)        # 21205c <s+0x1c>
    3ad2:	c6 05 72 e5 20 00 24 	movb   $0x24,0x20e572(%rip)        # 21204b <s+0xb>
    3ad9:	c6 05 70 e5 20 00 61 	movb   $0x61,0x20e570(%rip)        # 212050 <s+0x10>
    3ae0:	c6 05 77 e5 20 00 3f 	movb   $0x3f,0x20e577(%rip)        # 21205e <s+0x1e>
    3ae7:	c6 05 6e e5 20 00 7e 	movb   $0x7e,0x20e56e(%rip)        # 21205c <s+0x1c>
    3aee:	c6 05 59 e5 20 00 2a 	movb   $0x2a,0x20e559(%rip)        # 21204e <s+0xe>
    3af5:	c6 05 5e e5 20 00 7e 	movb   $0x7e,0x20e55e(%rip)        # 21205a <s+0x1a>
    3afc:	c6 05 49 e5 20 00 53 	movb   $0x53,0x20e549(%rip)        # 21204c <s+0xc>
    3b03:	c6 05 39 e5 20 00 74 	movb   $0x74,0x20e539(%rip)        # 212043 <s+0x3>
    3b0a:	c6 05 4b e5 20 00 58 	movb   $0x58,0x20e54b(%rip)        # 21205c <s+0x1c>
    3b11:	c6 05 30 e5 20 00 71 	movb   $0x71,0x20e530(%rip)        # 212048 <s+0x8>
    3b18:	c6 05 40 e5 20 00 55 	movb   $0x55,0x20e540(%rip)        # 21205f <s+0x1f>
    3b1f:	c6 05 3f e5 20 00 7e 	movb   $0x7e,0x20e53f(%rip)        # 212065 <s+0x25>
    3b26:	c6 05 24 e5 20 00 3b 	movb   $0x3b,0x20e524(%rip)        # 212051 <s+0x11>
    3b2d:	c6 05 18 e5 20 00 34 	movb   $0x34,0x20e518(%rip)        # 21204c <s+0xc>
    3b34:	c6 05 12 e5 20 00 6e 	movb   $0x6e,0x20e512(%rip)        # 21204d <s+0xd>
    3b3b:	c6 05 10 e5 20 00 56 	movb   $0x56,0x20e510(%rip)        # 212052 <s+0x12>
    3b42:	c6 05 0f e5 20 00 60 	movb   $0x60,0x20e50f(%rip)        # 212058 <s+0x18>
    3b49:	c6 05 f9 e4 20 00 72 	movb   $0x72,0x20e4f9(%rip)        # 212049 <s+0x9>
    3b50:	c6 05 06 e5 20 00 43 	movb   $0x43,0x20e506(%rip)        # 21205d <s+0x1d>
    3b57:	c6 05 f9 e4 20 00 5d 	movb   $0x5d,0x20e4f9(%rip)        # 212057 <s+0x17>
    3b5e:	c6 05 f6 e4 20 00 6b 	movb   $0x6b,0x20e4f6(%rip)        # 21205b <s+0x1b>
    3b65:	c6 05 fb e4 20 00 52 	movb   $0x52,0x20e4fb(%rip)        # 212067 <s+0x27>
    3b6c:	c6 05 e5 e4 20 00 37 	movb   $0x37,0x20e4e5(%rip)        # 212058 <s+0x18>
    3b73:	c6 05 e8 e4 20 00 76 	movb   $0x76,0x20e4e8(%rip)        # 212062 <s+0x22>
    3b7a:	c6 05 c9 e4 20 00 4b 	movb   $0x4b,0x20e4c9(%rip)        # 21204a <s+0xa>
    3b81:	c6 05 cd e4 20 00 28 	movb   $0x28,0x20e4cd(%rip)        # 212055 <s+0x15>
    3b88:	c6 05 c1 e4 20 00 5b 	movb   $0x5b,0x20e4c1(%rip)        # 212050 <s+0x10>
    3b8f:	c6 05 c6 e4 20 00 35 	movb   $0x35,0x20e4c6(%rip)        # 21205c <s+0x1c>
    3b96:	c6 05 c2 e4 20 00 67 	movb   $0x67,0x20e4c2(%rip)        # 21205f <s+0x1f>
    3b9d:	c6 05 bc e4 20 00 65 	movb   $0x65,0x20e4bc(%rip)        # 212060 <s+0x20>
    3ba4:	c6 05 ae e4 20 00 49 	movb   $0x49,0x20e4ae(%rip)        # 212059 <s+0x19>
    3bab:	c6 05 97 e4 20 00 2c 	movb   $0x2c,0x20e497(%rip)        # 212049 <s+0x9>
    3bb2:	c6 05 95 e4 20 00 4b 	movb   $0x4b,0x20e495(%rip)        # 21204e <s+0xe>
    3bb9:	c6 05 a6 e4 20 00 38 	movb   $0x38,0x20e4a6(%rip)        # 212066 <s+0x26>
    3bc0:	c6 05 89 e4 20 00 3d 	movb   $0x3d,0x20e489(%rip)        # 212050 <s+0x10>
    3bc7:	c6 05 8a e4 20 00 55 	movb   $0x55,0x20e48a(%rip)        # 212058 <s+0x18>
    3bce:	c6 05 8f e4 20 00 28 	movb   $0x28,0x20e48f(%rip)        # 212064 <s+0x24>
    3bd5:	c6 05 8a e4 20 00 60 	movb   $0x60,0x20e48a(%rip)        # 212066 <s+0x26>
    3bdc:	c6 05 78 e4 20 00 60 	movb   $0x60,0x20e478(%rip)        # 21205b <s+0x1b>
    3be3:	c6 05 66 e4 20 00 7d 	movb   $0x7d,0x20e466(%rip)        # 212050 <s+0x10>
    3bea:	c6 05 65 e4 20 00 79 	movb   $0x79,0x20e465(%rip)        # 212056 <s+0x16>
    3bf1:	c6 05 64 e4 20 00 59 	movb   $0x59,0x20e464(%rip)        # 21205c <s+0x1c>
    3bf8:	c6 05 41 e4 20 00 63 	movb   $0x63,0x20e441(%rip)        # 212040 <s>
    3bff:	c6 05 54 e4 20 00 3e 	movb   $0x3e,0x20e454(%rip)        # 21205a <s+0x1a>
    3c06:	c6 05 3d e4 20 00 29 	movb   $0x29,0x20e43d(%rip)        # 21204a <s+0xa>
    3c0d:	c6 05 49 e4 20 00 69 	movb   $0x69,0x20e449(%rip)        # 21205d <s+0x1d>
    3c14:	c6 05 3c e4 20 00 32 	movb   $0x32,0x20e43c(%rip)        # 212057 <s+0x17>
    3c1b:	c6 05 21 e4 20 00 24 	movb   $0x24,0x20e421(%rip)        # 212043 <s+0x3>
    3c22:	c6 05 28 e4 20 00 22 	movb   $0x22,0x20e428(%rip)        # 212051 <s+0x11>
    3c29:	c6 05 16 e4 20 00 23 	movb   $0x23,0x20e416(%rip)        # 212046 <s+0x6>
    3c30:	c6 05 13 e4 20 00 65 	movb   $0x65,0x20e413(%rip)        # 21204a <s+0xa>
    3c37:	c6 05 1e e4 20 00 5a 	movb   $0x5a,0x20e41e(%rip)        # 21205c <s+0x1c>
    3c3e:	c6 05 16 e4 20 00 3a 	movb   $0x3a,0x20e416(%rip)        # 21205b <s+0x1b>
    3c45:	c6 05 0f e4 20 00 59 	movb   $0x59,0x20e40f(%rip)        # 21205b <s+0x1b>
    3c4c:	c6 05 f3 e3 20 00 2c 	movb   $0x2c,0x20e3f3(%rip)        # 212046 <s+0x6>
    3c53:	c6 05 0a e4 20 00 3e 	movb   $0x3e,0x20e40a(%rip)        # 212064 <s+0x24>
    3c5a:	c6 05 ec e3 20 00 78 	movb   $0x78,0x20e3ec(%rip)        # 21204d <s+0xd>
    3c61:	c6 05 fb e3 20 00 47 	movb   $0x47,0x20e3fb(%rip)        # 212063 <s+0x23>
    3c68:	c6 05 f1 e3 20 00 5a 	movb   $0x5a,0x20e3f1(%rip)        # 212060 <s+0x20>
    3c6f:	c6 05 ea e3 20 00 7c 	movb   $0x7c,0x20e3ea(%rip)        # 212060 <s+0x20>
    3c76:	c6 05 d5 e3 20 00 72 	movb   $0x72,0x20e3d5(%rip)        # 212052 <s+0x12>
    3c7d:	c6 05 d9 e3 20 00 24 	movb   $0x24,0x20e3d9(%rip)        # 21205d <s+0x1d>
    3c84:	c6 05 d8 e3 20 00 68 	movb   $0x68,0x20e3d8(%rip)        # 212063 <s+0x23>
    3c8b:	c6 05 c0 e3 20 00 43 	movb   $0x43,0x20e3c0(%rip)        # 212052 <s+0x12>
    3c92:	c6 05 c7 e3 20 00 60 	movb   $0x60,0x20e3c7(%rip)        # 212060 <s+0x20>
    3c99:	c6 05 a9 e3 20 00 20 	movb   $0x20,0x20e3a9(%rip)        # 212049 <s+0x9>
    3ca0:	c6 05 b4 e3 20 00 26 	movb   $0x26,0x20e3b4(%rip)        # 21205b <s+0x1b>
    3ca7:	c6 05 97 e3 20 00 5d 	movb   $0x5d,0x20e397(%rip)        # 212045 <s+0x5>
    3cae:	c6 05 a3 e3 20 00 40 	movb   $0x40,0x20e3a3(%rip)        # 212058 <s+0x18>
    3cb5:	c6 05 91 e3 20 00 2b 	movb   $0x2b,0x20e391(%rip)        # 21204d <s+0xd>
    3cbc:	c6 05 91 e3 20 00 20 	movb   $0x20,0x20e391(%rip)        # 212054 <s+0x14>
    3cc3:	c6 05 90 e3 20 00 7e 	movb   $0x7e,0x20e390(%rip)        # 21205a <s+0x1a>
    3cca:	c6 05 88 e3 20 00 40 	movb   $0x40,0x20e388(%rip)        # 212059 <s+0x19>
    3cd1:	c6 05 7d e3 20 00 62 	movb   $0x62,0x20e37d(%rip)        # 212055 <s+0x15>
    3cd8:	c6 05 6e e3 20 00 67 	movb   $0x67,0x20e36e(%rip)        # 21204d <s+0xd>
    3cdf:	c6 05 72 e3 20 00 5e 	movb   $0x5e,0x20e372(%rip)        # 212058 <s+0x18>
    3ce6:	c6 05 62 e3 20 00 72 	movb   $0x72,0x20e362(%rip)        # 21204f <s+0xf>
    3ced:	c6 05 5b e3 20 00 4f 	movb   $0x4f,0x20e35b(%rip)        # 21204f <s+0xf>
    3cf4:	c6 05 69 e3 20 00 67 	movb   $0x67,0x20e369(%rip)        # 212064 <s+0x24>
    3cfb:	c6 05 40 e3 20 00 6d 	movb   $0x6d,0x20e340(%rip)        # 212042 <s+0x2>
    3d02:	c6 05 52 e3 20 00 37 	movb   $0x37,0x20e352(%rip)        # 21205b <s+0x1b>
    3d09:	c6 05 34 e3 20 00 76 	movb   $0x76,0x20e334(%rip)        # 212044 <s+0x4>
    3d10:	c6 05 49 e3 20 00 70 	movb   $0x70,0x20e349(%rip)        # 212060 <s+0x20>
    3d17:	c6 05 42 e3 20 00 55 	movb   $0x55,0x20e342(%rip)        # 212060 <s+0x20>
    3d1e:	c6 05 2f e3 20 00 21 	movb   $0x21,0x20e32f(%rip)        # 212054 <s+0x14>
    3d25:	c6 05 2f e3 20 00 70 	movb   $0x70,0x20e32f(%rip)        # 21205b <s+0x1b>
    3d2c:	c6 05 28 e3 20 00 41 	movb   $0x41,0x20e328(%rip)        # 21205b <s+0x1b>
    3d33:	c6 05 27 e3 20 00 37 	movb   $0x37,0x20e327(%rip)        # 212061 <s+0x21>
    3d3a:	c6 05 0f e3 20 00 2b 	movb   $0x2b,0x20e30f(%rip)        # 212050 <s+0x10>
    3d41:	c6 05 0e e3 20 00 3e 	movb   $0x3e,0x20e30e(%rip)        # 212056 <s+0x16>
    3d48:	c6 05 14 e3 20 00 57 	movb   $0x57,0x20e314(%rip)        # 212063 <s+0x23>
    3d4f:	c6 05 0f e3 20 00 48 	movb   $0x48,0x20e30f(%rip)        # 212065 <s+0x25>
    3d56:	c6 05 e4 e2 20 00 57 	movb   $0x57,0x20e2e4(%rip)        # 212041 <s+0x1>
    3d5d:	c6 05 dc e2 20 00 2e 	movb   $0x2e,0x20e2dc(%rip)        # 212040 <s>
    3d64:	c6 05 f3 e2 20 00 5f 	movb   $0x5f,0x20e2f3(%rip)        # 21205e <s+0x1e>
    3d6b:	c6 05 db e2 20 00 66 	movb   $0x66,0x20e2db(%rip)        # 21204d <s+0xd>
    3d72:	c6 05 da e2 20 00 2a 	movb   $0x2a,0x20e2da(%rip)        # 212053 <s+0x13>
    3d79:	c6 05 db e2 20 00 36 	movb   $0x36,0x20e2db(%rip)        # 21205b <s+0x1b>
    3d80:	c6 05 cd e2 20 00 5a 	movb   $0x5a,0x20e2cd(%rip)        # 212054 <s+0x14>
    3d87:	c6 05 c4 e2 20 00 45 	movb   $0x45,0x20e2c4(%rip)        # 212052 <s+0x12>
    3d8e:	c6 05 c0 e2 20 00 50 	movb   $0x50,0x20e2c0(%rip)        # 212055 <s+0x15>
    3d95:	c6 05 bf e2 20 00 77 	movb   $0x77,0x20e2bf(%rip)        # 21205b <s+0x1b>
    3d9c:	c6 05 a7 e2 20 00 6a 	movb   $0x6a,0x20e2a7(%rip)        # 21204a <s+0xa>
    3da3:	c6 05 a4 e2 20 00 30 	movb   $0x30,0x20e2a4(%rip)        # 21204e <s+0xe>
    3daa:	c6 05 98 e2 20 00 7d 	movb   $0x7d,0x20e298(%rip)        # 212049 <s+0x9>
    3db1:	c6 05 8c e2 20 00 77 	movb   $0x77,0x20e28c(%rip)        # 212044 <s+0x4>
    3db8:	c6 05 8d e2 20 00 2c 	movb   $0x2c,0x20e28d(%rip)        # 21204c <s+0xc>
    3dbf:	c6 05 89 e2 20 00 2d 	movb   $0x2d,0x20e289(%rip)        # 21204f <s+0xf>
    3dc6:	c6 05 91 e2 20 00 39 	movb   $0x39,0x20e291(%rip)        # 21205e <s+0x1e>
    3dcd:	c6 05 8e e2 20 00 5f 	movb   $0x5f,0x20e28e(%rip)        # 212062 <s+0x22>
    3dd4:	c6 05 7e e2 20 00 49 	movb   $0x49,0x20e27e(%rip)        # 212059 <s+0x19>
    3ddb:	c6 05 78 e2 20 00 56 	movb   $0x56,0x20e278(%rip)        # 21205a <s+0x1a>
    3de2:	c6 05 60 e2 20 00 30 	movb   $0x30,0x20e260(%rip)        # 212049 <s+0x9>
    3de9:	c6 05 54 e2 20 00 7a 	movb   $0x7a,0x20e254(%rip)        # 212044 <s+0x4>
    3df0:	c6 05 4e e2 20 00 6e 	movb   $0x6e,0x20e24e(%rip)        # 212045 <s+0x5>
    3df7:	c6 05 52 e2 20 00 4c 	movb   $0x4c,0x20e252(%rip)        # 212050 <s+0x10>
    3dfe:	c6 05 4e e2 20 00 7a 	movb   $0x7a,0x20e24e(%rip)        # 212053 <s+0x13>
    3e05:	c6 05 55 e2 20 00 73 	movb   $0x73,0x20e255(%rip)        # 212061 <s+0x21>
    3e0c:	c6 05 35 e2 20 00 33 	movb   $0x33,0x20e235(%rip)        # 212048 <s+0x8>
    3e13:	c6 05 2d e2 20 00 23 	movb   $0x23,0x20e22d(%rip)        # 212047 <s+0x7>
    3e1a:	c6 05 45 e2 20 00 4e 	movb   $0x4e,0x20e245(%rip)        # 212066 <s+0x26>
    3e21:	c6 05 3f e2 20 00 3d 	movb   $0x3d,0x20e23f(%rip)        # 212067 <s+0x27>
    3e28:	c6 05 24 e2 20 00 23 	movb   $0x23,0x20e224(%rip)        # 212053 <s+0x13>
    3e2f:	c6 05 1d e2 20 00 48 	movb   $0x48,0x20e21d(%rip)        # 212053 <s+0x13>
    3e36:	c6 05 17 e2 20 00 3f 	movb   $0x3f,0x20e217(%rip)        # 212054 <s+0x14>
    3e3d:	c6 05 0a e2 20 00 34 	movb   $0x34,0x20e20a(%rip)        # 21204e <s+0xe>
    3e44:	c6 05 17 e2 20 00 3f 	movb   $0x3f,0x20e217(%rip)        # 212062 <s+0x22>
    3e4b:	c6 05 14 e2 20 00 63 	movb   $0x63,0x20e214(%rip)        # 212066 <s+0x26>
    3e52:	c6 05 0e e2 20 00 49 	movb   $0x49,0x20e20e(%rip)        # 212067 <s+0x27>
    3e59:	c6 05 05 e2 20 00 4b 	movb   $0x4b,0x20e205(%rip)        # 212065 <s+0x25>
    3e60:	c6 05 da e1 20 00 2a 	movb   $0x2a,0x20e1da(%rip)        # 212041 <s+0x1>
    3e67:	c6 05 e4 e1 20 00 37 	movb   $0x37,0x20e1e4(%rip)        # 212052 <s+0x12>
    3e6e:	c6 05 d6 e1 20 00 45 	movb   $0x45,0x20e1d6(%rip)        # 21204b <s+0xb>
    3e75:	c6 05 ca e1 20 00 65 	movb   $0x65,0x20e1ca(%rip)        # 212046 <s+0x6>
    3e7c:	c6 05 d3 e1 20 00 3c 	movb   $0x3c,0x20e1d3(%rip)        # 212056 <s+0x16>
    3e83:	c6 05 c8 e1 20 00 6f 	movb   $0x6f,0x20e1c8(%rip)        # 212052 <s+0x12>
    3e8a:	c6 05 c0 e1 20 00 63 	movb   $0x63,0x20e1c0(%rip)        # 212051 <s+0x11>
    3e91:	c6 05 c9 e1 20 00 6d 	movb   $0x6d,0x20e1c9(%rip)        # 212061 <s+0x21>
    3e98:	c6 05 c1 e1 20 00 2d 	movb   $0x2d,0x20e1c1(%rip)        # 212060 <s+0x20>
    3e9f:	c6 05 ae e1 20 00 3c 	movb   $0x3c,0x20e1ae(%rip)        # 212054 <s+0x14>
    3ea6:	c6 05 93 e1 20 00 37 	movb   $0x37,0x20e193(%rip)        # 212040 <s>
    3ead:	c6 05 9d e1 20 00 6b 	movb   $0x6b,0x20e19d(%rip)        # 212051 <s+0x11>
    3eb4:	c6 05 94 e1 20 00 39 	movb   $0x39,0x20e194(%rip)        # 21204f <s+0xf>
    3ebb:	c6 05 88 e1 20 00 23 	movb   $0x23,0x20e188(%rip)        # 21204a <s+0xa>
    3ec2:	c6 05 7b e1 20 00 57 	movb   $0x57,0x20e17b(%rip)        # 212044 <s+0x4>
    3ec9:	c6 05 73 e1 20 00 39 	movb   $0x39,0x20e173(%rip)        # 212043 <s+0x3>
    3ed0:	c6 05 78 e1 20 00 2d 	movb   $0x2d,0x20e178(%rip)        # 21204f <s+0xf>
    3ed7:	c6 05 63 e1 20 00 25 	movb   $0x25,0x20e163(%rip)        # 212041 <s+0x1>
    3ede:	c6 05 6b e1 20 00 49 	movb   $0x49,0x20e16b(%rip)        # 212050 <s+0x10>
    3ee5:	c6 05 68 e1 20 00 7c 	movb   $0x7c,0x20e168(%rip)        # 212054 <s+0x14>
    3eec:	c6 05 56 e1 20 00 33 	movb   $0x33,0x20e156(%rip)        # 212049 <s+0x9>
    3ef3:	c6 05 61 e1 20 00 72 	movb   $0x72,0x20e161(%rip)        # 21205b <s+0x1b>
    3efa:	c6 05 58 e1 20 00 6f 	movb   $0x6f,0x20e158(%rip)        # 212059 <s+0x19>
    3f01:	c6 05 3a e1 20 00 5a 	movb   $0x5a,0x20e13a(%rip)        # 212042 <s+0x2>
    3f08:	c6 05 41 e1 20 00 24 	movb   $0x24,0x20e141(%rip)        # 212050 <s+0x10>
    3f0f:	c6 05 4d e1 20 00 26 	movb   $0x26,0x20e14d(%rip)        # 212063 <s+0x23>
    3f16:	c6 05 37 e1 20 00 64 	movb   $0x64,0x20e137(%rip)        # 212054 <s+0x14>
    3f1d:	c6 05 36 e1 20 00 6c 	movb   $0x6c,0x20e136(%rip)        # 21205a <s+0x1a>
    3f24:	c6 05 27 e1 20 00 4f 	movb   $0x4f,0x20e127(%rip)        # 212052 <s+0x12>
    3f2b:	c6 05 29 e1 20 00 4b 	movb   $0x4b,0x20e129(%rip)        # 21205b <s+0x1b>
    3f32:	c6 05 20 e1 20 00 60 	movb   $0x60,0x20e120(%rip)        # 212059 <s+0x19>
    3f39:	c6 05 17 e1 20 00 75 	movb   $0x75,0x20e117(%rip)        # 212057 <s+0x17>
    3f40:	c6 05 1a e1 20 00 49 	movb   $0x49,0x20e11a(%rip)        # 212061 <s+0x21>
    3f47:	c6 05 10 e1 20 00 48 	movb   $0x48,0x20e110(%rip)        # 21205e <s+0x1e>
    3f4e:	c6 05 06 e1 20 00 35 	movb   $0x35,0x20e106(%rip)        # 21205b <s+0x1b>
    3f55:	c6 05 02 e1 20 00 62 	movb   $0x62,0x20e102(%rip)        # 21205e <s+0x1e>
    3f5c:	c6 05 fe e0 20 00 4e 	movb   $0x4e,0x20e0fe(%rip)        # 212061 <s+0x21>
    3f63:	c6 05 f3 e0 20 00 65 	movb   $0x65,0x20e0f3(%rip)        # 21205d <s+0x1d>
    3f6a:	c6 05 da e0 20 00 33 	movb   $0x33,0x20e0da(%rip)        # 21204b <s+0xb>
    3f71:	c6 05 dc e0 20 00 5a 	movb   $0x5a,0x20e0dc(%rip)        # 212054 <s+0x14>
    3f78:	c6 05 de e0 20 00 55 	movb   $0x55,0x20e0de(%rip)        # 21205d <s+0x1d>
    3f7f:	c6 05 d1 e0 20 00 5f 	movb   $0x5f,0x20e0d1(%rip)        # 212057 <s+0x17>
    3f86:	c6 05 b4 e0 20 00 41 	movb   $0x41,0x20e0b4(%rip)        # 212041 <s+0x1>
    3f8d:	c6 05 bd e0 20 00 4e 	movb   $0x4e,0x20e0bd(%rip)        # 212051 <s+0x11>
    3f94:	c6 05 b4 e0 20 00 3b 	movb   $0x3b,0x20e0b4(%rip)        # 21204f <s+0xf>
    3f9b:	c6 05 b8 e0 20 00 47 	movb   $0x47,0x20e0b8(%rip)        # 21205a <s+0x1a>
    3fa2:	c6 05 ae e0 20 00 30 	movb   $0x30,0x20e0ae(%rip)        # 212057 <s+0x17>
    3fa9:	c6 05 b7 e0 20 00 7d 	movb   $0x7d,0x20e0b7(%rip)        # 212067 <s+0x27>
    3fb0:	c6 05 94 e0 20 00 57 	movb   $0x57,0x20e094(%rip)        # 21204b <s+0xb>
    3fb7:	c6 05 a7 e0 20 00 7a 	movb   $0x7a,0x20e0a7(%rip)        # 212065 <s+0x25>
    3fbe:	c6 05 80 e0 20 00 42 	movb   $0x42,0x20e080(%rip)        # 212045 <s+0x5>
    3fc5:	c6 05 91 e0 20 00 69 	movb   $0x69,0x20e091(%rip)        # 21205d <s+0x1d>
    3fcc:	c6 05 8e e0 20 00 73 	movb   $0x73,0x20e08e(%rip)        # 212061 <s+0x21>
    3fd3:	c6 05 79 e0 20 00 23 	movb   $0x23,0x20e079(%rip)        # 212053 <s+0x13>
    3fda:	c6 05 85 e0 20 00 42 	movb   $0x42,0x20e085(%rip)        # 212066 <s+0x26>
    3fe1:	c6 05 7c e0 20 00 41 	movb   $0x41,0x20e07c(%rip)        # 212064 <s+0x24>
    3fe8:	c6 05 6a e0 20 00 38 	movb   $0x38,0x20e06a(%rip)        # 212059 <s+0x19>
    3fef:	c6 05 71 e0 20 00 7e 	movb   $0x7e,0x20e071(%rip)        # 212067 <s+0x27>
    3ff6:	c6 05 4b e0 20 00 30 	movb   $0x30,0x20e04b(%rip)        # 212048 <s+0x8>
    3ffd:	c6 05 46 e0 20 00 32 	movb   $0x32,0x20e046(%rip)        # 21204a <s+0xa>
    4004:	c6 05 4e e0 20 00 63 	movb   $0x63,0x20e04e(%rip)        # 212059 <s+0x19>
    400b:	c6 05 46 e0 20 00 25 	movb   $0x25,0x20e046(%rip)        # 212058 <s+0x18>
    4012:	c6 05 2f e0 20 00 71 	movb   $0x71,0x20e02f(%rip)        # 212048 <s+0x8>
    4019:	c6 05 38 e0 20 00 41 	movb   $0x41,0x20e038(%rip)        # 212058 <s+0x18>
    4020:	c6 05 3f e0 20 00 40 	movb   $0x40,0x20e03f(%rip)        # 212066 <s+0x26>
    4027:	c6 05 2e e0 20 00 60 	movb   $0x60,0x20e02e(%rip)        # 21205c <s+0x1c>
    402e:	c6 05 1d e0 20 00 21 	movb   $0x21,0x20e01d(%rip)        # 212052 <s+0x12>
    4035:	c6 05 10 e0 20 00 4d 	movb   $0x4d,0x20e010(%rip)        # 21204c <s+0xc>
    403c:	c6 05 20 e0 20 00 64 	movb   $0x64,0x20e020(%rip)        # 212063 <s+0x23>
    4043:	c6 05 14 e0 20 00 26 	movb   $0x26,0x20e014(%rip)        # 21205e <s+0x1e>
    404a:	c6 05 0e e0 20 00 4b 	movb   $0x4b,0x20e00e(%rip)        # 21205f <s+0x1f>
    4051:	c6 05 0f e0 20 00 59 	movb   $0x59,0x20e00f(%rip)        # 212067 <s+0x27>
    4058:	c6 05 ef df 20 00 6b 	movb   $0x6b,0x20dfef(%rip)        # 21204e <s+0xe>
    405f:	c6 05 dd df 20 00 7e 	movb   $0x7e,0x20dfdd(%rip)        # 212043 <s+0x3>
    4066:	c6 05 db df 20 00 5e 	movb   $0x5e,0x20dfdb(%rip)        # 212048 <s+0x8>
    406d:	c6 05 f1 df 20 00 7d 	movb   $0x7d,0x20dff1(%rip)        # 212065 <s+0x25>
    4074:	c6 05 c8 df 20 00 5e 	movb   $0x5e,0x20dfc8(%rip)        # 212043 <s+0x3>
    407b:	c6 05 cb df 20 00 29 	movb   $0x29,0x20dfcb(%rip)        # 21204d <s+0xd>
    4082:	c6 05 d9 df 20 00 4a 	movb   $0x4a,0x20dfd9(%rip)        # 212062 <s+0x22>
    4089:	c6 05 c9 df 20 00 39 	movb   $0x39,0x20dfc9(%rip)        # 212059 <s+0x19>
    4090:	c6 05 c8 df 20 00 63 	movb   $0x63,0x20dfc8(%rip)        # 21205f <s+0x1f>
    4097:	c6 05 bf df 20 00 20 	movb   $0x20,0x20dfbf(%rip)        # 21205d <s+0x1d>
    409e:	c6 05 ae df 20 00 21 	movb   $0x21,0x20dfae(%rip)        # 212053 <s+0x13>
    40a5:	c6 05 a2 df 20 00 21 	movb   $0x21,0x20dfa2(%rip)        # 21204e <s+0xe>
    40ac:	c6 05 93 df 20 00 7e 	movb   $0x7e,0x20df93(%rip)        # 212046 <s+0x6>
    40b3:	c6 05 9f df 20 00 56 	movb   $0x56,0x20df9f(%rip)        # 212059 <s+0x19>
    40ba:	c6 05 88 df 20 00 2c 	movb   $0x2c,0x20df88(%rip)        # 212049 <s+0x9>
    40c1:	c6 05 9f df 20 00 39 	movb   $0x39,0x20df9f(%rip)        # 212067 <s+0x27>
    40c8:	c6 05 8d df 20 00 41 	movb   $0x41,0x20df8d(%rip)        # 21205c <s+0x1c>
    40cf:	c6 05 86 df 20 00 42 	movb   $0x42,0x20df86(%rip)        # 21205c <s+0x1c>
    40d6:	c6 05 80 df 20 00 26 	movb   $0x26,0x20df80(%rip)        # 21205d <s+0x1d>
    40dd:	c6 05 6c df 20 00 71 	movb   $0x71,0x20df6c(%rip)        # 212050 <s+0x10>
    40e4:	c6 05 5b df 20 00 37 	movb   $0x37,0x20df5b(%rip)        # 212046 <s+0x6>
    40eb:	c6 05 64 df 20 00 33 	movb   $0x33,0x20df64(%rip)        # 212056 <s+0x16>
    40f2:	c6 05 5c df 20 00 41 	movb   $0x41,0x20df5c(%rip)        # 212055 <s+0x15>
    40f9:	c6 05 52 df 20 00 78 	movb   $0x78,0x20df52(%rip)        # 212052 <s+0x12>
    4100:	c6 05 47 df 20 00 77 	movb   $0x77,0x20df47(%rip)        # 21204e <s+0xe>
    4107:	c6 05 59 df 20 00 43 	movb   $0x43,0x20df59(%rip)        # 212067 <s+0x27>
    410e:	c6 05 34 df 20 00 5a 	movb   $0x5a,0x20df34(%rip)        # 212049 <s+0x9>
    4115:	c6 05 40 df 20 00 4b 	movb   $0x4b,0x20df40(%rip)        # 21205c <s+0x1c>
    411c:	c6 05 1e df 20 00 3d 	movb   $0x3d,0x20df1e(%rip)        # 212041 <s+0x1>
    4123:	c6 05 3b df 20 00 41 	movb   $0x41,0x20df3b(%rip)        # 212065 <s+0x25>
    412a:	c6 05 2f df 20 00 3c 	movb   $0x3c,0x20df2f(%rip)        # 212060 <s+0x20>
    4131:	c6 05 2f df 20 00 4d 	movb   $0x4d,0x20df2f(%rip)        # 212067 <s+0x27>
    4138:	c6 05 1e df 20 00 2e 	movb   $0x2e,0x20df1e(%rip)        # 21205d <s+0x1d>
    413f:	c6 05 1f df 20 00 75 	movb   $0x75,0x20df1f(%rip)        # 212065 <s+0x25>
    4146:	c6 05 07 df 20 00 2d 	movb   $0x2d,0x20df07(%rip)        # 212054 <s+0x14>
    414d:	c6 05 ff de 20 00 25 	movb   $0x25,0x20deff(%rip)        # 212053 <s+0x13>
    4154:	c6 05 f1 de 20 00 51 	movb   $0x51,0x20def1(%rip)        # 21204c <s+0xc>
    415b:	c6 05 fc de 20 00 4c 	movb   $0x4c,0x20defc(%rip)        # 21205e <s+0x1e>
    4162:	c6 05 e7 de 20 00 42 	movb   $0x42,0x20dee7(%rip)        # 212050 <s+0x10>
    4169:	c6 05 ea de 20 00 72 	movb   $0x72,0x20deea(%rip)        # 21205a <s+0x1a>
    4170:	c6 05 cb de 20 00 45 	movb   $0x45,0x20decb(%rip)        # 212042 <s+0x2>
    4177:	c6 05 c5 de 20 00 7b 	movb   $0x7b,0x20dec5(%rip)        # 212043 <s+0x3>
    417e:	c6 05 ca de 20 00 37 	movb   $0x37,0x20deca(%rip)        # 21204f <s+0xf>
    4185:	c6 05 be de 20 00 36 	movb   $0x36,0x20debe(%rip)        # 21204a <s+0xa>
    418c:	c6 05 c6 de 20 00 4d 	movb   $0x4d,0x20dec6(%rip)        # 212059 <s+0x19>
    4193:	c6 05 a9 de 20 00 70 	movb   $0x70,0x20dea9(%rip)        # 212043 <s+0x3>
    419a:	c6 05 a3 de 20 00 3f 	movb   $0x3f,0x20dea3(%rip)        # 212044 <s+0x4>
    41a1:	c6 05 ac de 20 00 6f 	movb   $0x6f,0x20deac(%rip)        # 212054 <s+0x14>
    41a8:	c6 05 ab de 20 00 2b 	movb   $0x2b,0x20deab(%rip)        # 21205a <s+0x1a>
    41af:	c6 05 a4 de 20 00 6a 	movb   $0x6a,0x20dea4(%rip)        # 21205a <s+0x1a>
    41b6:	c6 05 94 de 20 00 70 	movb   $0x70,0x20de94(%rip)        # 212051 <s+0x11>
    41bd:	c6 05 8c de 20 00 7b 	movb   $0x7b,0x20de8c(%rip)        # 212050 <s+0x10>
    41c4:	c6 05 7d de 20 00 26 	movb   $0x26,0x20de7d(%rip)        # 212048 <s+0x8>
    41cb:	c6 05 82 de 20 00 3e 	movb   $0x3e,0x20de82(%rip)        # 212054 <s+0x14>
    41d2:	c6 05 70 de 20 00 62 	movb   $0x62,0x20de70(%rip)        # 212049 <s+0x9>
    41d9:	c6 05 86 de 20 00 7e 	movb   $0x7e,0x20de86(%rip)        # 212066 <s+0x26>
    41e0:	c6 05 68 de 20 00 21 	movb   $0x21,0x20de68(%rip)        # 21204f <s+0xf>
    41e7:	c6 05 73 de 20 00 43 	movb   $0x43,0x20de73(%rip)        # 212061 <s+0x21>
    41ee:	c6 05 5f de 20 00 55 	movb   $0x55,0x20de5f(%rip)        # 212054 <s+0x14>
    41f5:	c6 05 4c de 20 00 3c 	movb   $0x3c,0x20de4c(%rip)        # 212048 <s+0x8>
    41fc:	c6 05 47 de 20 00 4d 	movb   $0x4d,0x20de47(%rip)        # 21204a <s+0xa>
    4203:	c6 05 51 de 20 00 3e 	movb   $0x3e,0x20de51(%rip)        # 21205b <s+0x1b>
    420a:	c6 05 2f de 20 00 57 	movb   $0x57,0x20de2f(%rip)        # 212040 <s>
    4211:	c6 05 2e de 20 00 24 	movb   $0x24,0x20de2e(%rip)        # 212046 <s+0x6>
    4218:	c6 05 24 de 20 00 4b 	movb   $0x4b,0x20de24(%rip)        # 212043 <s+0x3>
    421f:	c6 05 36 de 20 00 79 	movb   $0x79,0x20de36(%rip)        # 21205c <s+0x1c>
    4226:	c6 05 31 de 20 00 24 	movb   $0x24,0x20de31(%rip)        # 21205e <s+0x1e>
    422d:	c6 05 0f de 20 00 2d 	movb   $0x2d,0x20de0f(%rip)        # 212043 <s+0x3>
    4234:	c6 05 13 de 20 00 41 	movb   $0x41,0x20de13(%rip)        # 21204e <s+0xe>
    423b:	c6 05 0e de 20 00 2f 	movb   $0x2f,0x20de0e(%rip)        # 212050 <s+0x10>
    4242:	c6 05 1a de 20 00 22 	movb   $0x22,0x20de1a(%rip)        # 212063 <s+0x23>
    4249:	c6 05 08 de 20 00 58 	movb   $0x58,0x20de08(%rip)        # 212058 <s+0x18>
    4250:	c6 05 ff dd 20 00 29 	movb   $0x29,0x20ddff(%rip)        # 212056 <s+0x16>
    4257:	c6 05 09 de 20 00 5a 	movb   $0x5a,0x20de09(%rip)        # 212067 <s+0x27>
    425e:	c6 05 f4 dd 20 00 47 	movb   $0x47,0x20ddf4(%rip)        # 212059 <s+0x19>
    4265:	c6 05 da dd 20 00 4b 	movb   $0x4b,0x20ddda(%rip)        # 212046 <s+0x6>
    426c:	c6 05 d1 dd 20 00 54 	movb   $0x54,0x20ddd1(%rip)        # 212044 <s+0x4>
    4273:	c6 05 e6 dd 20 00 5d 	movb   $0x5d,0x20dde6(%rip)        # 212060 <s+0x20>
    427a:	c6 05 ce dd 20 00 3a 	movb   $0x3a,0x20ddce(%rip)        # 21204f <s+0xf>
    4281:	c6 05 cb dd 20 00 51 	movb   $0x51,0x20ddcb(%rip)        # 212053 <s+0x13>
    4288:	c6 05 c2 dd 20 00 57 	movb   $0x57,0x20ddc2(%rip)        # 212051 <s+0x11>
    428f:	c6 05 bc dd 20 00 7e 	movb   $0x7e,0x20ddbc(%rip)        # 212052 <s+0x12>
    4296:	c6 05 c6 dd 20 00 6b 	movb   $0x6b,0x20ddc6(%rip)        # 212063 <s+0x23>
    429d:	c6 05 be dd 20 00 48 	movb   $0x48,0x20ddbe(%rip)        # 212062 <s+0x22>
    42a4:	c6 05 ba dd 20 00 68 	movb   $0x68,0x20ddba(%rip)        # 212065 <s+0x25>
    42ab:	c6 05 9d dd 20 00 3b 	movb   $0x3b,0x20dd9d(%rip)        # 21204f <s+0xf>
    42b2:	c6 05 88 dd 20 00 35 	movb   $0x35,0x20dd88(%rip)        # 212041 <s+0x1>
    42b9:	c6 05 9a dd 20 00 46 	movb   $0x46,0x20dd9a(%rip)        # 21205a <s+0x1a>
    42c0:	c6 05 9a dd 20 00 28 	movb   $0x28,0x20dd9a(%rip)        # 212061 <s+0x21>
    42c7:	c6 05 8b dd 20 00 42 	movb   $0x42,0x20dd8b(%rip)        # 212059 <s+0x19>
    42ce:	c6 05 87 dd 20 00 22 	movb   $0x22,0x20dd87(%rip)        # 21205c <s+0x1c>
    42d5:	c6 05 73 dd 20 00 40 	movb   $0x40,0x20dd73(%rip)        # 21204f <s+0xf>
    42dc:	c6 05 68 dd 20 00 67 	movb   $0x67,0x20dd68(%rip)        # 21204b <s+0xb>
    42e3:	c6 05 5e dd 20 00 55 	movb   $0x55,0x20dd5e(%rip)        # 212048 <s+0x8>
    42ea:	c6 05 62 dd 20 00 4d 	movb   $0x4d,0x20dd62(%rip)        # 212053 <s+0x13>
    42f1:	c6 05 57 dd 20 00 79 	movb   $0x79,0x20dd57(%rip)        # 21204f <s+0xf>
    42f8:	c6 05 5d dd 20 00 21 	movb   $0x21,0x20dd5d(%rip)        # 21205c <s+0x1c>
    42ff:	c6 05 52 dd 20 00 3c 	movb   $0x3c,0x20dd52(%rip)        # 212058 <s+0x18>
    4306:	c6 05 48 dd 20 00 46 	movb   $0x46,0x20dd48(%rip)        # 212055 <s+0x15>
    430d:	c6 05 4a dd 20 00 5e 	movb   $0x5e,0x20dd4a(%rip)        # 21205e <s+0x1e>
    4314:	c6 05 46 dd 20 00 35 	movb   $0x35,0x20dd46(%rip)        # 212061 <s+0x21>
    431b:	c6 05 2d dd 20 00 49 	movb   $0x49,0x20dd2d(%rip)        # 21204f <s+0xf>
    4322:	c6 05 1b dd 20 00 4d 	movb   $0x4d,0x20dd1b(%rip)        # 212044 <s+0x4>
    4329:	c6 05 1b dd 20 00 49 	movb   $0x49,0x20dd1b(%rip)        # 21204b <s+0xb>
    4330:	c6 05 20 dd 20 00 7e 	movb   $0x7e,0x20dd20(%rip)        # 212057 <s+0x17>
    4337:	c6 05 0d dd 20 00 3a 	movb   $0x3a,0x20dd0d(%rip)        # 21204b <s+0xb>
    433e:	c6 05 0f dd 20 00 24 	movb   $0x24,0x20dd0f(%rip)        # 212054 <s+0x14>
    4345:	c6 05 f5 dc 20 00 66 	movb   $0x66,0x20dcf5(%rip)        # 212041 <s+0x1>
    434c:	c6 05 fd dc 20 00 65 	movb   $0x65,0x20dcfd(%rip)        # 212050 <s+0x10>
    4353:	c6 05 fb dc 20 00 71 	movb   $0x71,0x20dcfb(%rip)        # 212055 <s+0x15>
    435a:	c6 05 01 dd 20 00 63 	movb   $0x63,0x20dd01(%rip)        # 212062 <s+0x22>
    4361:	c6 05 eb dc 20 00 28 	movb   $0x28,0x20dceb(%rip)        # 212053 <s+0x13>
    4368:	c6 05 ed dc 20 00 73 	movb   $0x73,0x20dced(%rip)        # 21205c <s+0x1c>
    436f:	c6 05 d2 dc 20 00 45 	movb   $0x45,0x20dcd2(%rip)        # 212048 <s+0x8>
    4376:	c6 05 cd dc 20 00 2a 	movb   $0x2a,0x20dccd(%rip)        # 21204a <s+0xa>
    437d:	c6 05 cc dc 20 00 38 	movb   $0x38,0x20dccc(%rip)        # 212050 <s+0x10>
    4384:	c6 05 d8 dc 20 00 20 	movb   $0x20,0x20dcd8(%rip)        # 212063 <s+0x23>
    438b:	c6 05 c8 dc 20 00 2f 	movb   $0x2f,0x20dcc8(%rip)        # 21205a <s+0x1a>
    4392:	c6 05 b7 dc 20 00 76 	movb   $0x76,0x20dcb7(%rip)        # 212050 <s+0x10>
    4399:	c6 05 c0 dc 20 00 6e 	movb   $0x6e,0x20dcc0(%rip)        # 212060 <s+0x20>
    43a0:	c6 05 b5 dc 20 00 29 	movb   $0x29,0x20dcb5(%rip)        # 21205c <s+0x1c>
    43a7:	c6 05 9f dc 20 00 40 	movb   $0x40,0x20dc9f(%rip)        # 21204d <s+0xd>
    43ae:	c6 05 93 dc 20 00 2c 	movb   $0x2c,0x20dc93(%rip)        # 212048 <s+0x8>
    43b5:	c6 05 8d dc 20 00 76 	movb   $0x76,0x20dc8d(%rip)        # 212049 <s+0x9>
    43bc:	c6 05 8d dc 20 00 7c 	movb   $0x7c,0x20dc8d(%rip)        # 212050 <s+0x10>
    43c3:	c6 05 8f dc 20 00 4b 	movb   $0x4b,0x20dc8f(%rip)        # 212059 <s+0x19>
    43ca:	c6 05 70 dc 20 00 23 	movb   $0x23,0x20dc70(%rip)        # 212041 <s+0x1>
    43d1:	c6 05 88 dc 20 00 48 	movb   $0x48,0x20dc88(%rip)        # 212060 <s+0x20>
    43d8:	c6 05 72 dc 20 00 5e 	movb   $0x5e,0x20dc72(%rip)        # 212051 <s+0x11>
    43df:	c6 05 5c dc 20 00 3b 	movb   $0x3b,0x20dc5c(%rip)        # 212042 <s+0x2>
    43e6:	c6 05 63 dc 20 00 4f 	movb   $0x4f,0x20dc63(%rip)        # 212050 <s+0x10>
    43ed:	c6 05 65 dc 20 00 4e 	movb   $0x4e,0x20dc65(%rip)        # 212059 <s+0x19>
    43f4:	c6 05 6b dc 20 00 3d 	movb   $0x3d,0x20dc6b(%rip)        # 212066 <s+0x26>
    43fb:	c6 05 48 dc 20 00 3e 	movb   $0x3e,0x20dc48(%rip)        # 21204a <s+0xa>
    4402:	c6 05 55 dc 20 00 60 	movb   $0x60,0x20dc55(%rip)        # 21205e <s+0x1e>
    4409:	c6 05 3e dc 20 00 26 	movb   $0x26,0x20dc3e(%rip)        # 21204e <s+0xe>
    4410:	c6 05 47 dc 20 00 20 	movb   $0x20,0x20dc47(%rip)        # 21205e <s+0x1e>
    4417:	c6 05 29 dc 20 00 45 	movb   $0x45,0x20dc29(%rip)        # 212047 <s+0x7>
    441e:	c6 05 41 dc 20 00 43 	movb   $0x43,0x20dc41(%rip)        # 212066 <s+0x26>
    4425:	c6 05 2a dc 20 00 66 	movb   $0x66,0x20dc2a(%rip)        # 212056 <s+0x16>
    442c:	c6 05 21 dc 20 00 68 	movb   $0x68,0x20dc21(%rip)        # 212054 <s+0x14>
    4433:	c6 05 20 dc 20 00 72 	movb   $0x72,0x20dc20(%rip)        # 21205a <s+0x1a>
    443a:	c6 05 0c dc 20 00 26 	movb   $0x26,0x20dc0c(%rip)        # 21204d <s+0xd>
    4441:	c6 05 f9 db 20 00 2c 	movb   $0x2c,0x20dbf9(%rip)        # 212041 <s+0x1>
    4448:	c6 05 fe db 20 00 59 	movb   $0x59,0x20dbfe(%rip)        # 21204d <s+0xd>
    444f:	c6 05 f5 db 20 00 34 	movb   $0x34,0x20dbf5(%rip)        # 21204b <s+0xb>
    4456:	c6 05 e4 db 20 00 3c 	movb   $0x3c,0x20dbe4(%rip)        # 212041 <s+0x1>
    445d:	c6 05 f4 db 20 00 34 	movb   $0x34,0x20dbf4(%rip)        # 212058 <s+0x18>
    4464:	c6 05 e4 db 20 00 30 	movb   $0x30,0x20dbe4(%rip)        # 21204f <s+0xf>
    446b:	c6 05 e9 db 20 00 67 	movb   $0x67,0x20dbe9(%rip)        # 21205b <s+0x1b>
    4472:	c6 05 cb db 20 00 23 	movb   $0x23,0x20dbcb(%rip)        # 212044 <s+0x4>
    4479:	c6 05 df db 20 00 78 	movb   $0x78,0x20dbdf(%rip)        # 21205f <s+0x1f>
    4480:	c6 05 cb db 20 00 79 	movb   $0x79,0x20dbcb(%rip)        # 212052 <s+0x12>
    4487:	c6 05 c9 db 20 00 30 	movb   $0x30,0x20dbc9(%rip)        # 212057 <s+0x17>
    448e:	c6 05 c7 db 20 00 61 	movb   $0x61,0x20dbc7(%rip)        # 21205c <s+0x1c>
    4495:	c6 05 b8 db 20 00 54 	movb   $0x54,0x20dbb8(%rip)        # 212054 <s+0x14>
    449c:	c6 05 ba db 20 00 7b 	movb   $0x7b,0x20dbba(%rip)        # 21205d <s+0x1d>
    44a3:	c6 05 9e db 20 00 3e 	movb   $0x3e,0x20db9e(%rip)        # 212048 <s+0x8>
    44aa:	c6 05 9b db 20 00 51 	movb   $0x51,0x20db9b(%rip)        # 21204c <s+0xc>
    44b1:	c6 05 a2 db 20 00 36 	movb   $0x36,0x20dba2(%rip)        # 21205a <s+0x1a>
    44b8:	c6 05 8e db 20 00 4b 	movb   $0x4b,0x20db8e(%rip)        # 21204d <s+0xd>
    44bf:	c6 05 97 db 20 00 5b 	movb   $0x5b,0x20db97(%rip)        # 21205d <s+0x1d>
    44c6:	c6 05 8e db 20 00 4c 	movb   $0x4c,0x20db8e(%rip)        # 21205b <s+0x1b>
    44cd:	c6 05 71 db 20 00 46 	movb   $0x46,0x20db71(%rip)        # 212045 <s+0x5>
    44d4:	c6 05 85 db 20 00 3b 	movb   $0x3b,0x20db85(%rip)        # 212060 <s+0x20>
    44db:	c6 05 7d db 20 00 2f 	movb   $0x2f,0x20db7d(%rip)        # 21205f <s+0x1f>
    44e2:	c6 05 6f db 20 00 5f 	movb   $0x5f,0x20db6f(%rip)        # 212058 <s+0x18>
    44e9:	c6 05 56 db 20 00 5d 	movb   $0x5d,0x20db56(%rip)        # 212046 <s+0x6>
    44f0:	c6 05 4c db 20 00 52 	movb   $0x52,0x20db4c(%rip)        # 212043 <s+0x3>
    44f7:	c6 05 44 db 20 00 7a 	movb   $0x7a,0x20db44(%rip)        # 212042 <s+0x2>
    44fe:	c6 05 3b db 20 00 3d 	movb   $0x3d,0x20db3b(%rip)        # 212040 <s>
    4505:	c6 05 3e db 20 00 70 	movb   $0x70,0x20db3e(%rip)        # 21204a <s+0xa>
    450c:	c6 05 37 db 20 00 4c 	movb   $0x4c,0x20db37(%rip)        # 21204a <s+0xa>
    4513:	c6 05 34 db 20 00 70 	movb   $0x70,0x20db34(%rip)        # 21204e <s+0xe>
    451a:	c6 05 23 db 20 00 7d 	movb   $0x7d,0x20db23(%rip)        # 212044 <s+0x4>
    4521:	c6 05 33 db 20 00 5a 	movb   $0x5a,0x20db33(%rip)        # 21205b <s+0x1b>
    4528:	c6 05 19 db 20 00 71 	movb   $0x71,0x20db19(%rip)        # 212048 <s+0x8>
    452f:	c6 05 2a db 20 00 6c 	movb   $0x6c,0x20db2a(%rip)        # 212060 <s+0x20>
    4536:	c6 05 22 db 20 00 55 	movb   $0x55,0x20db22(%rip)        # 21205f <s+0x1f>
    453d:	c6 05 00 db 20 00 79 	movb   $0x79,0x20db00(%rip)        # 212044 <s+0x4>
    4544:	c6 05 18 db 20 00 52 	movb   $0x52,0x20db18(%rip)        # 212063 <s+0x23>
    454b:	c6 05 02 db 20 00 31 	movb   $0x31,0x20db02(%rip)        # 212054 <s+0x14>
    4552:	c6 05 e8 da 20 00 68 	movb   $0x68,0x20dae8(%rip)        # 212041 <s+0x1>
    4559:	c6 05 e1 da 20 00 77 	movb   $0x77,0x20dae1(%rip)        # 212041 <s+0x1>
    4560:	c6 05 e4 da 20 00 65 	movb   $0x65,0x20dae4(%rip)        # 21204b <s+0xb>
    4567:	c6 05 d7 da 20 00 48 	movb   $0x48,0x20dad7(%rip)        # 212045 <s+0x5>
    456e:	c6 05 ee da 20 00 44 	movb   $0x44,0x20daee(%rip)        # 212063 <s+0x23>
    4575:	c6 05 c6 da 20 00 4d 	movb   $0x4d,0x20dac6(%rip)        # 212042 <s+0x2>
    457c:	c6 05 da da 20 00 4c 	movb   $0x4c,0x20dada(%rip)        # 21205d <s+0x1d>
    4583:	c6 05 ca da 20 00 23 	movb   $0x23,0x20daca(%rip)        # 212054 <s+0x14>
    458a:	c6 05 b2 da 20 00 7a 	movb   $0x7a,0x20dab2(%rip)        # 212043 <s+0x3>
    4591:	c6 05 ad da 20 00 68 	movb   $0x68,0x20daad(%rip)        # 212045 <s+0x5>
    4598:	c6 05 bb da 20 00 3d 	movb   $0x3d,0x20dabb(%rip)        # 21205a <s+0x1a>
    459f:	c6 05 a1 da 20 00 36 	movb   $0x36,0x20daa1(%rip)        # 212047 <s+0x7>
    45a6:	c6 05 96 da 20 00 67 	movb   $0x67,0x20da96(%rip)        # 212043 <s+0x3>
    45ad:	c6 05 ad da 20 00 5b 	movb   $0x5b,0x20daad(%rip)        # 212061 <s+0x21>
    45b4:	c6 05 a9 da 20 00 25 	movb   $0x25,0x20daa9(%rip)        # 212064 <s+0x24>
    45bb:	c6 05 a1 da 20 00 67 	movb   $0x67,0x20daa1(%rip)        # 212063 <s+0x23>
    45c2:	c6 05 96 da 20 00 23 	movb   $0x23,0x20da96(%rip)        # 21205f <s+0x1f>
    45c9:	c6 05 73 da 20 00 31 	movb   $0x31,0x20da73(%rip)        # 212043 <s+0x3>
    45d0:	c6 05 7d da 20 00 68 	movb   $0x68,0x20da7d(%rip)        # 212054 <s+0x14>
    45d7:	c6 05 6b da 20 00 70 	movb   $0x70,0x20da6b(%rip)        # 212049 <s+0x9>
    45de:	c6 05 6c da 20 00 67 	movb   $0x67,0x20da6c(%rip)        # 212051 <s+0x11>
    45e5:	c6 05 54 da 20 00 40 	movb   $0x40,0x20da54(%rip)        # 212040 <s>
    45ec:	c6 05 4e da 20 00 5a 	movb   $0x5a,0x20da4e(%rip)        # 212041 <s+0x1>
    45f3:	c6 05 50 da 20 00 24 	movb   $0x24,0x20da50(%rip)        # 21204a <s+0xa>
    45fa:	c6 05 45 da 20 00 70 	movb   $0x70,0x20da45(%rip)        # 212046 <s+0x6>
    4601:	c6 05 4d da 20 00 2c 	movb   $0x2c,0x20da4d(%rip)        # 212055 <s+0x15>
    4608:	c6 05 54 da 20 00 32 	movb   $0x32,0x20da54(%rip)        # 212063 <s+0x23>
    460f:	c6 05 51 da 20 00 68 	movb   $0x68,0x20da51(%rip)        # 212067 <s+0x27>
    4616:	c6 05 31 da 20 00 32 	movb   $0x32,0x20da31(%rip)        # 21204e <s+0xe>
    461d:	c6 05 21 da 20 00 36 	movb   $0x36,0x20da21(%rip)        # 212045 <s+0x5>
    4624:	c6 05 1b da 20 00 3c 	movb   $0x3c,0x20da1b(%rip)        # 212046 <s+0x6>
    462b:	c6 05 2a da 20 00 30 	movb   $0x30,0x20da2a(%rip)        # 21205c <s+0x1c>
    4632:	c6 05 2c da 20 00 38 	movb   $0x38,0x20da2c(%rip)        # 212065 <s+0x25>
    4639:	c6 05 0a da 20 00 77 	movb   $0x77,0x20da0a(%rip)        # 21204a <s+0xa>
    4640:	c6 05 1d da 20 00 7e 	movb   $0x7e,0x20da1d(%rip)        # 212064 <s+0x24>
    4647:	c6 05 11 da 20 00 2f 	movb   $0x2f,0x20da11(%rip)        # 21205f <s+0x1f>
    464e:	c6 05 f6 d9 20 00 7d 	movb   $0x7d,0x20d9f6(%rip)        # 21204b <s+0xb>
    4655:	c6 05 07 da 20 00 38 	movb   $0x38,0x20da07(%rip)        # 212063 <s+0x23>
    465c:	c6 05 ee d9 20 00 4f 	movb   $0x4f,0x20d9ee(%rip)        # 212051 <s+0x11>
    4663:	c6 05 e1 d9 20 00 6d 	movb   $0x6d,0x20d9e1(%rip)        # 21204b <s+0xb>
    466a:	c6 05 ec d9 20 00 3b 	movb   $0x3b,0x20d9ec(%rip)        # 21205d <s+0x1d>
    4671:	c6 05 e9 d9 20 00 73 	movb   $0x73,0x20d9e9(%rip)        # 212061 <s+0x21>
    4678:	c6 05 d3 d9 20 00 36 	movb   $0x36,0x20d9d3(%rip)        # 212052 <s+0x12>
    467f:	c6 05 e0 d9 20 00 21 	movb   $0x21,0x20d9e0(%rip)        # 212066 <s+0x26>
    4686:	c6 05 d9 d9 20 00 6c 	movb   $0x6c,0x20d9d9(%rip)        # 212066 <s+0x26>
    468d:	c6 05 c8 d9 20 00 7e 	movb   $0x7e,0x20d9c8(%rip)        # 21205c <s+0x1c>
    4694:	c6 05 c9 d9 20 00 7b 	movb   $0x7b,0x20d9c9(%rip)        # 212064 <s+0x24>
    469b:	c6 05 a9 d9 20 00 59 	movb   $0x59,0x20d9a9(%rip)        # 21204b <s+0xb>
    46a2:	c6 05 be d9 20 00 4a 	movb   $0x4a,0x20d9be(%rip)        # 212067 <s+0x27>
    46a9:	c6 05 a3 d9 20 00 41 	movb   $0x41,0x20d9a3(%rip)        # 212053 <s+0x13>
    46b0:	c6 05 98 d9 20 00 53 	movb   $0x53,0x20d998(%rip)        # 21204f <s+0xf>
    46b7:	c6 05 89 d9 20 00 5f 	movb   $0x5f,0x20d989(%rip)        # 212047 <s+0x7>
    46be:	c6 05 83 d9 20 00 68 	movb   $0x68,0x20d983(%rip)        # 212048 <s+0x8>
    46c5:	c6 05 8f d9 20 00 31 	movb   $0x31,0x20d98f(%rip)        # 21205b <s+0x1b>
    46cc:	c6 05 79 d9 20 00 2e 	movb   $0x2e,0x20d979(%rip)        # 21204c <s+0xc>
    46d3:	c6 05 75 d9 20 00 2d 	movb   $0x2d,0x20d975(%rip)        # 21204f <s+0xf>
    46da:	c6 05 74 d9 20 00 6b 	movb   $0x6b,0x20d974(%rip)        # 212055 <s+0x15>
    46e1:	c6 05 6b d9 20 00 43 	movb   $0x43,0x20d96b(%rip)        # 212053 <s+0x13>
    46e8:	c6 05 6e d9 20 00 71 	movb   $0x71,0x20d96e(%rip)        # 21205d <s+0x1d>
    46ef:	c6 05 5e d9 20 00 53 	movb   $0x53,0x20d95e(%rip)        # 212054 <s+0x14>
    46f6:	c6 05 4d d9 20 00 23 	movb   $0x23,0x20d94d(%rip)        # 21204a <s+0xa>
    46fd:	c6 05 45 d9 20 00 50 	movb   $0x50,0x20d945(%rip)        # 212049 <s+0x9>
    4704:	c6 05 38 d9 20 00 4e 	movb   $0x4e,0x20d938(%rip)        # 212043 <s+0x3>
    470b:	c6 05 30 d9 20 00 7a 	movb   $0x7a,0x20d930(%rip)        # 212042 <s+0x2>
    4712:	c6 05 4e d9 20 00 7d 	movb   $0x7d,0x20d94e(%rip)        # 212067 <s+0x27>
    4719:	c6 05 23 d9 20 00 25 	movb   $0x25,0x20d923(%rip)        # 212043 <s+0x3>
    4720:	c6 05 36 d9 20 00 63 	movb   $0x63,0x20d936(%rip)        # 21205d <s+0x1d>
    4727:	c6 05 2c d9 20 00 79 	movb   $0x79,0x20d92c(%rip)        # 21205a <s+0x1a>
    472e:	c6 05 0c d9 20 00 70 	movb   $0x70,0x20d90c(%rip)        # 212041 <s+0x1>
    4735:	c6 05 25 d9 20 00 5d 	movb   $0x5d,0x20d925(%rip)        # 212061 <s+0x21>
    473c:	c6 05 02 d9 20 00 73 	movb   $0x73,0x20d902(%rip)        # 212045 <s+0x5>
    4743:	c6 05 03 d9 20 00 35 	movb   $0x35,0x20d903(%rip)        # 21204d <s+0xd>
    474a:	c6 05 fd d8 20 00 66 	movb   $0x66,0x20d8fd(%rip)        # 21204e <s+0xe>
    4751:	c6 05 0e d9 20 00 21 	movb   $0x21,0x20d90e(%rip)        # 212066 <s+0x26>
    4758:	c6 05 f6 d8 20 00 23 	movb   $0x23,0x20d8f6(%rip)        # 212055 <s+0x15>
    475f:	c6 05 e9 d8 20 00 4d 	movb   $0x4d,0x20d8e9(%rip)        # 21204f <s+0xf>
    4766:	c6 05 e0 d8 20 00 48 	movb   $0x48,0x20d8e0(%rip)        # 21204d <s+0xd>
    476d:	c6 05 f0 d8 20 00 36 	movb   $0x36,0x20d8f0(%rip)        # 212064 <s+0x24>
    4774:	c6 05 e4 d8 20 00 69 	movb   $0x69,0x20d8e4(%rip)        # 21205f <s+0x1f>
    477b:	c6 05 d0 d8 20 00 2d 	movb   $0x2d,0x20d8d0(%rip)        # 212052 <s+0x12>
    4782:	c6 05 d7 d8 20 00 2b 	movb   $0x2b,0x20d8d7(%rip)        # 212060 <s+0x20>
    4789:	c6 05 d5 d8 20 00 58 	movb   $0x58,0x20d8d5(%rip)        # 212065 <s+0x25>
    4790:	c6 05 be d8 20 00 48 	movb   $0x48,0x20d8be(%rip)        # 212055 <s+0x15>
    4797:	c6 05 c3 d8 20 00 7c 	movb   $0x7c,0x20d8c3(%rip)        # 212061 <s+0x21>
    479e:	c6 05 aa d8 20 00 30 	movb   $0x30,0x20d8aa(%rip)        # 21204f <s+0xf>
    47a5:	c6 05 9d d8 20 00 25 	movb   $0x25,0x20d89d(%rip)        # 212049 <s+0x9>
    47ac:	c6 05 8e d8 20 00 21 	movb   $0x21,0x20d88e(%rip)        # 212041 <s+0x1>
    47b3:	c6 05 87 d8 20 00 75 	movb   $0x75,0x20d887(%rip)        # 212041 <s+0x1>
    47ba:	c6 05 81 d8 20 00 58 	movb   $0x58,0x20d881(%rip)        # 212042 <s+0x2>
    47c1:	c6 05 78 d8 20 00 2c 	movb   $0x2c,0x20d878(%rip)        # 212040 <s>
    47c8:	c6 05 89 d8 20 00 7e 	movb   $0x7e,0x20d889(%rip)        # 212058 <s+0x18>
    47cf:	c6 05 82 d8 20 00 71 	movb   $0x71,0x20d882(%rip)        # 212058 <s+0x18>
    47d6:	c6 05 7e d8 20 00 2c 	movb   $0x2c,0x20d87e(%rip)        # 21205b <s+0x1b>
    47dd:	c6 05 7a d8 20 00 75 	movb   $0x75,0x20d87a(%rip)        # 21205e <s+0x1e>
    47e4:	c6 05 5d d8 20 00 3f 	movb   $0x3f,0x20d85d(%rip)        # 212048 <s+0x8>
    47eb:	c6 05 5a d8 20 00 40 	movb   $0x40,0x20d85a(%rip)        # 21204c <s+0xc>
    47f2:	c6 05 5f d8 20 00 24 	movb   $0x24,0x20d85f(%rip)        # 212058 <s+0x18>
    47f9:	c6 05 47 d8 20 00 56 	movb   $0x56,0x20d847(%rip)        # 212047 <s+0x7>
    4800:	c6 05 48 d8 20 00 79 	movb   $0x79,0x20d848(%rip)        # 21204f <s+0xf>
    4807:	c6 05 37 d8 20 00 2a 	movb   $0x2a,0x20d837(%rip)        # 212045 <s+0x5>
    480e:	c6 05 40 d8 20 00 7e 	movb   $0x7e,0x20d840(%rip)        # 212055 <s+0x15>
    4815:	c6 05 47 d8 20 00 7e 	movb   $0x7e,0x20d847(%rip)        # 212063 <s+0x23>
    481c:	c6 05 3e d8 20 00 25 	movb   $0x25,0x20d83e(%rip)        # 212061 <s+0x21>
    4823:	c6 05 1c d8 20 00 4b 	movb   $0x4b,0x20d81c(%rip)        # 212046 <s+0x6>
    482a:	c6 05 15 d8 20 00 37 	movb   $0x37,0x20d815(%rip)        # 212046 <s+0x6>
    4831:	c6 05 0f d8 20 00 3c 	movb   $0x3c,0x20d80f(%rip)        # 212047 <s+0x7>
    4838:	c6 05 12 d8 20 00 34 	movb   $0x34,0x20d812(%rip)        # 212051 <s+0x11>
    483f:	c6 05 03 d8 20 00 71 	movb   $0x71,0x20d803(%rip)        # 212049 <s+0x9>
    4846:	c6 05 08 d8 20 00 2d 	movb   $0x2d,0x20d808(%rip)        # 212055 <s+0x15>
    484d:	c6 05 f7 d7 20 00 5a 	movb   $0x5a,0x20d7f7(%rip)        # 21204b <s+0xb>
    4854:	c6 05 e7 d7 20 00 62 	movb   $0x62,0x20d7e7(%rip)        # 212042 <s+0x2>
    485b:	c6 05 f7 d7 20 00 56 	movb   $0x56,0x20d7f7(%rip)        # 212059 <s+0x19>
    4862:	c6 05 df d7 20 00 71 	movb   $0x71,0x20d7df(%rip)        # 212048 <s+0x8>
    4869:	c6 05 ea d7 20 00 43 	movb   $0x43,0x20d7ea(%rip)        # 21205a <s+0x1a>
    4870:	c6 05 eb d7 20 00 4b 	movb   $0x4b,0x20d7eb(%rip)        # 212062 <s+0x22>
    4877:	c6 05 e6 d7 20 00 4c 	movb   $0x4c,0x20d7e6(%rip)        # 212064 <s+0x24>
    487e:	c6 05 c5 d7 20 00 2f 	movb   $0x2f,0x20d7c5(%rip)        # 21204a <s+0xa>
    4885:	c6 05 bc d7 20 00 79 	movb   $0x79,0x20d7bc(%rip)        # 212048 <s+0x8>
    488c:	c6 05 d3 d7 20 00 38 	movb   $0x38,0x20d7d3(%rip)        # 212066 <s+0x26>
    4893:	c6 05 cd d7 20 00 70 	movb   $0x70,0x20d7cd(%rip)        # 212067 <s+0x27>
    489a:	c6 05 bf d7 20 00 30 	movb   $0x30,0x20d7bf(%rip)        # 212060 <s+0x20>
    48a1:	c6 05 b0 d7 20 00 7b 	movb   $0x7b,0x20d7b0(%rip)        # 212058 <s+0x18>
    48a8:	c6 05 b7 d7 20 00 40 	movb   $0x40,0x20d7b7(%rip)        # 212066 <s+0x26>
    48af:	c6 05 ad d7 20 00 54 	movb   $0x54,0x20d7ad(%rip)        # 212063 <s+0x23>
    48b6:	c6 05 88 d7 20 00 4a 	movb   $0x4a,0x20d788(%rip)        # 212045 <s+0x5>
    48bd:	c6 05 8b d7 20 00 75 	movb   $0x75,0x20d78b(%rip)        # 21204f <s+0xf>
    48c4:	c6 05 8c d7 20 00 3b 	movb   $0x3b,0x20d78c(%rip)        # 212057 <s+0x17>
    48cb:	c6 05 73 d7 20 00 66 	movb   $0x66,0x20d773(%rip)        # 212045 <s+0x5>
    48d2:	c6 05 79 d7 20 00 55 	movb   $0x55,0x20d779(%rip)        # 212052 <s+0x12>
    48d9:	c6 05 7b d7 20 00 6e 	movb   $0x6e,0x20d77b(%rip)        # 21205b <s+0x1b>
    48e0:	c6 05 60 d7 20 00 57 	movb   $0x57,0x20d760(%rip)        # 212047 <s+0x7>
    48e7:	c6 05 73 d7 20 00 4e 	movb   $0x4e,0x20d773(%rip)        # 212061 <s+0x21>
    48ee:	c6 05 5c d7 20 00 4d 	movb   $0x4d,0x20d75c(%rip)        # 212051 <s+0x11>
    48f5:	c6 05 4d d7 20 00 62 	movb   $0x62,0x20d74d(%rip)        # 212049 <s+0x9>
    48fc:	c6 05 4d d7 20 00 24 	movb   $0x24,0x20d74d(%rip)        # 212050 <s+0x10>
    4903:	c6 05 46 d7 20 00 73 	movb   $0x73,0x20d746(%rip)        # 212050 <s+0x10>
    490a:	c6 05 3a d7 20 00 32 	movb   $0x32,0x20d73a(%rip)        # 21204b <s+0xb>
    4911:	c6 05 4b d7 20 00 6e 	movb   $0x6e,0x20d74b(%rip)        # 212063 <s+0x23>
    4918:	c6 05 40 d7 20 00 78 	movb   $0x78,0x20d740(%rip)        # 21205f <s+0x1f>
    491f:	c6 05 3d d7 20 00 4c 	movb   $0x4c,0x20d73d(%rip)        # 212063 <s+0x23>
    4926:	c6 05 29 d7 20 00 72 	movb   $0x72,0x20d729(%rip)        # 212056 <s+0x16>
    492d:	c6 05 19 d7 20 00 4a 	movb   $0x4a,0x20d719(%rip)        # 21204d <s+0xd>
    4934:	c6 05 19 d7 20 00 62 	movb   $0x62,0x20d719(%rip)        # 212054 <s+0x14>
    493b:	c6 05 0a d7 20 00 71 	movb   $0x71,0x20d70a(%rip)        # 21204c <s+0xc>
    4942:	c6 05 0f d7 20 00 62 	movb   $0x62,0x20d70f(%rip)        # 212058 <s+0x18>
    4949:	c6 05 12 d7 20 00 48 	movb   $0x48,0x20d712(%rip)        # 212062 <s+0x22>
    4950:	c6 05 0e d7 20 00 39 	movb   $0x39,0x20d70e(%rip)        # 212065 <s+0x25>
    4957:	c6 05 e8 d6 20 00 25 	movb   $0x25,0x20d6e8(%rip)        # 212046 <s+0x6>
    495e:	c6 05 f8 d6 20 00 54 	movb   $0x54,0x20d6f8(%rip)        # 21205d <s+0x1d>
    4965:	c6 05 fb d6 20 00 59 	movb   $0x59,0x20d6fb(%rip)        # 212067 <s+0x27>
    496c:	c6 05 cd d6 20 00 7e 	movb   $0x7e,0x20d6cd(%rip)        # 212040 <s>
    4973:	c6 05 e6 d6 20 00 42 	movb   $0x42,0x20d6e6(%rip)        # 212060 <s+0x20>
    497a:	c6 05 e4 d6 20 00 72 	movb   $0x72,0x20d6e4(%rip)        # 212065 <s+0x25>
    4981:	c6 05 da d6 20 00 69 	movb   $0x69,0x20d6da(%rip)        # 212062 <s+0x22>
    4988:	c6 05 d3 d6 20 00 20 	movb   $0x20,0x20d6d3(%rip)        # 212062 <s+0x22>
    498f:	c6 05 b5 d6 20 00 23 	movb   $0x23,0x20d6b5(%rip)        # 21204b <s+0xb>
    4996:	c6 05 c3 d6 20 00 79 	movb   $0x79,0x20d6c3(%rip)        # 212060 <s+0x20>
    499d:	c6 05 a8 d6 20 00 30 	movb   $0x30,0x20d6a8(%rip)        # 21204c <s+0xc>
    49a4:	c6 05 a7 d6 20 00 22 	movb   $0x22,0x20d6a7(%rip)        # 212052 <s+0x12>
    49ab:	c6 05 ad d6 20 00 7e 	movb   $0x7e,0x20d6ad(%rip)        # 21205f <s+0x1f>
    49b2:	c6 05 8b d6 20 00 37 	movb   $0x37,0x20d68b(%rip)        # 212044 <s+0x4>
    49b9:	c6 05 a3 d6 20 00 42 	movb   $0x42,0x20d6a3(%rip)        # 212063 <s+0x23>
    49c0:	c6 05 9b d6 20 00 4a 	movb   $0x4a,0x20d69b(%rip)        # 212062 <s+0x22>
    49c7:	c6 05 82 d6 20 00 47 	movb   $0x47,0x20d682(%rip)        # 212050 <s+0x10>
    49ce:	c6 05 7a d6 20 00 68 	movb   $0x68,0x20d67a(%rip)        # 21204f <s+0xf>
    49d5:	c6 05 7d d6 20 00 75 	movb   $0x75,0x20d67d(%rip)        # 212059 <s+0x19>
    49dc:	c6 05 68 d6 20 00 37 	movb   $0x37,0x20d668(%rip)        # 21204b <s+0xb>
    49e3:	c6 05 78 d6 20 00 4f 	movb   $0x4f,0x20d678(%rip)        # 212062 <s+0x22>
    49ea:	c6 05 6d d6 20 00 45 	movb   $0x45,0x20d66d(%rip)        # 21205e <s+0x1e>
    49f1:	c6 05 53 d6 20 00 60 	movb   $0x60,0x20d653(%rip)        # 21204b <s+0xb>
    49f8:	c6 05 5a d6 20 00 75 	movb   $0x75,0x20d65a(%rip)        # 212059 <s+0x19>
    49ff:	c6 05 4b d6 20 00 62 	movb   $0x62,0x20d64b(%rip)        # 212051 <s+0x11>
    4a06:	c6 05 44 d6 20 00 7e 	movb   $0x7e,0x20d644(%rip)        # 212051 <s+0x11>
    4a0d:	c6 05 52 d6 20 00 66 	movb   $0x66,0x20d652(%rip)        # 212066 <s+0x26>
    4a14:	c6 05 32 d6 20 00 2c 	movb   $0x2c,0x20d632(%rip)        # 21204d <s+0xd>
    4a1b:	c6 05 2c d6 20 00 42 	movb   $0x42,0x20d62c(%rip)        # 21204e <s+0xe>
    4a22:	c6 05 28 d6 20 00 50 	movb   $0x50,0x20d628(%rip)        # 212051 <s+0x11>
    4a29:	c6 05 26 d6 20 00 72 	movb   $0x72,0x20d626(%rip)        # 212056 <s+0x16>
    4a30:	c6 05 1f d6 20 00 2e 	movb   $0x2e,0x20d61f(%rip)        # 212056 <s+0x16>
    4a37:	c6 05 16 d6 20 00 31 	movb   $0x31,0x20d616(%rip)        # 212054 <s+0x14>
    4a3e:	c6 05 11 d6 20 00 2e 	movb   $0x2e,0x20d611(%rip)        # 212056 <s+0x16>
    4a45:	c6 05 0a d6 20 00 2f 	movb   $0x2f,0x20d60a(%rip)        # 212056 <s+0x16>
    4a4c:	c6 05 f2 d5 20 00 62 	movb   $0x62,0x20d5f2(%rip)        # 212045 <s+0x5>
    4a53:	c6 05 ff d5 20 00 47 	movb   $0x47,0x20d5ff(%rip)        # 212059 <s+0x19>
    4a5a:	c6 05 02 d6 20 00 5b 	movb   $0x5b,0x20d602(%rip)        # 212063 <s+0x23>
    4a61:	c6 05 f8 d5 20 00 3d 	movb   $0x3d,0x20d5f8(%rip)        # 212060 <s+0x20>
    4a68:	c6 05 f6 d5 20 00 45 	movb   $0x45,0x20d5f6(%rip)        # 212065 <s+0x25>
    4a6f:	c6 05 ca d5 20 00 74 	movb   $0x74,0x20d5ca(%rip)        # 212040 <s>
    4a76:	c6 05 c7 d5 20 00 7b 	movb   $0x7b,0x20d5c7(%rip)        # 212044 <s+0x4>
    4a7d:	c6 05 ce d5 20 00 51 	movb   $0x51,0x20d5ce(%rip)        # 212052 <s+0x12>
    4a84:	c6 05 bc d5 20 00 65 	movb   $0x65,0x20d5bc(%rip)        # 212047 <s+0x7>
    4a8b:	c6 05 ca d5 20 00 4d 	movb   $0x4d,0x20d5ca(%rip)        # 21205c <s+0x1c>
    4a92:	c6 05 c7 d5 20 00 64 	movb   $0x64,0x20d5c7(%rip)        # 212060 <s+0x20>
    4a99:	c6 05 bf d5 20 00 73 	movb   $0x73,0x20d5bf(%rip)        # 21205f <s+0x1f>
    4aa0:	c6 05 9a d5 20 00 65 	movb   $0x65,0x20d59a(%rip)        # 212041 <s+0x1>
    4aa7:	c6 05 b0 d5 20 00 43 	movb   $0x43,0x20d5b0(%rip)        # 21205e <s+0x1e>
    4aae:	c6 05 9e d5 20 00 36 	movb   $0x36,0x20d59e(%rip)        # 212053 <s+0x13>
    4ab5:	c6 05 93 d5 20 00 2d 	movb   $0x2d,0x20d593(%rip)        # 21204f <s+0xf>
    4abc:	c6 05 88 d5 20 00 7e 	movb   $0x7e,0x20d588(%rip)        # 21204b <s+0xb>
    4ac3:	c6 05 94 d5 20 00 65 	movb   $0x65,0x20d594(%rip)        # 21205e <s+0x1e>
    4aca:	c6 05 6f d5 20 00 69 	movb   $0x69,0x20d56f(%rip)        # 212040 <s>
    4ad1:	c6 05 8d d5 20 00 67 	movb   $0x67,0x20d58d(%rip)        # 212065 <s+0x25>
    4ad8:	c6 05 81 d5 20 00 31 	movb   $0x31,0x20d581(%rip)        # 212060 <s+0x20>
    4adf:	c6 05 75 d5 20 00 29 	movb   $0x29,0x20d575(%rip)        # 21205b <s+0x1b>
    4ae6:	c6 05 55 d5 20 00 39 	movb   $0x39,0x20d555(%rip)        # 212042 <s+0x2>
    4aed:	c6 05 69 d5 20 00 4b 	movb   $0x4b,0x20d569(%rip)        # 21205d <s+0x1d>
    4af4:	c6 05 5a d5 20 00 69 	movb   $0x69,0x20d55a(%rip)        # 212055 <s+0x15>
    4afb:	c6 05 43 d5 20 00 34 	movb   $0x34,0x20d543(%rip)        # 212045 <s+0x5>
    4b02:	c6 05 5e d5 20 00 67 	movb   $0x67,0x20d55e(%rip)        # 212067 <s+0x27>
    4b09:	c6 05 52 d5 20 00 26 	movb   $0x26,0x20d552(%rip)        # 212062 <s+0x22>
    4b10:	c6 05 3a d5 20 00 4c 	movb   $0x4c,0x20d53a(%rip)        # 212051 <s+0x11>
    4b17:	c6 05 49 d5 20 00 53 	movb   $0x53,0x20d549(%rip)        # 212067 <s+0x27>
    4b1e:	c6 05 1b d5 20 00 25 	movb   $0x25,0x20d51b(%rip)        # 212040 <s>
    4b25:	c6 05 32 d5 20 00 41 	movb   $0x41,0x20d532(%rip)        # 21205e <s+0x1e>
    4b2c:	c6 05 22 d5 20 00 5f 	movb   $0x5f,0x20d522(%rip)        # 212055 <s+0x15>
    4b33:	c6 05 0f d5 20 00 37 	movb   $0x37,0x20d50f(%rip)        # 212049 <s+0x9>
    4b3a:	c6 05 16 d5 20 00 2c 	movb   $0x2c,0x20d516(%rip)        # 212057 <s+0x17>
    4b41:	c6 05 15 d5 20 00 76 	movb   $0x76,0x20d515(%rip)        # 21205d <s+0x1d>
    4b48:	c6 05 12 d5 20 00 53 	movb   $0x53,0x20d512(%rip)        # 212061 <s+0x21>
    4b4f:	c6 05 fb d4 20 00 33 	movb   $0x33,0x20d4fb(%rip)        # 212051 <s+0x11>
    4b56:	c6 05 f4 d4 20 00 56 	movb   $0x56,0x20d4f4(%rip)        # 212051 <s+0x11>
    4b5d:	c6 05 e2 d4 20 00 78 	movb   $0x78,0x20d4e2(%rip)        # 212046 <s+0x6>
    4b64:	c6 05 f4 d4 20 00 38 	movb   $0x38,0x20d4f4(%rip)        # 21205f <s+0x1f>
    4b6b:	c6 05 d5 d4 20 00 74 	movb   $0x74,0x20d4d5(%rip)        # 212047 <s+0x7>
    4b72:	c6 05 da d4 20 00 56 	movb   $0x56,0x20d4da(%rip)        # 212053 <s+0x13>
    4b79:	c6 05 da d4 20 00 62 	movb   $0x62,0x20d4da(%rip)        # 21205a <s+0x1a>
    4b80:	c6 05 dc d4 20 00 2e 	movb   $0x2e,0x20d4dc(%rip)        # 212063 <s+0x23>
    4b87:	c6 05 b6 d4 20 00 21 	movb   $0x21,0x20d4b6(%rip)        # 212044 <s+0x4>
    4b8e:	c6 05 d2 d4 20 00 64 	movb   $0x64,0x20d4d2(%rip)        # 212067 <s+0x27>
    4b95:	c6 05 ae d4 20 00 71 	movb   $0x71,0x20d4ae(%rip)        # 21204a <s+0xa>
    4b9c:	c6 05 bc d4 20 00 3c 	movb   $0x3c,0x20d4bc(%rip)        # 21205f <s+0x1f>
    4ba3:	c6 05 ab d4 20 00 7b 	movb   $0x7b,0x20d4ab(%rip)        # 212055 <s+0x15>
    4baa:	c6 05 b2 d4 20 00 52 	movb   $0x52,0x20d4b2(%rip)        # 212063 <s+0x23>
    4bb1:	c6 05 89 d4 20 00 4a 	movb   $0x4a,0x20d489(%rip)        # 212041 <s+0x1>
    4bb8:	c6 05 83 d4 20 00 56 	movb   $0x56,0x20d483(%rip)        # 212042 <s+0x2>
    4bbf:	c6 05 9d d4 20 00 6b 	movb   $0x6b,0x20d49d(%rip)        # 212063 <s+0x23>
    4bc6:	c6 05 8f d4 20 00 2a 	movb   $0x2a,0x20d48f(%rip)        # 21205c <s+0x1c>
    4bcd:	c6 05 72 d4 20 00 75 	movb   $0x75,0x20d472(%rip)        # 212046 <s+0x6>
    4bd4:	c6 05 88 d4 20 00 64 	movb   $0x64,0x20d488(%rip)        # 212063 <s+0x23>
    4bdb:	c6 05 78 d4 20 00 22 	movb   $0x22,0x20d478(%rip)        # 21205a <s+0x1a>
    4be2:	c6 05 7c d4 20 00 6e 	movb   $0x6e,0x20d47c(%rip)        # 212065 <s+0x25>
    4be9:	c6 05 70 d4 20 00 41 	movb   $0x41,0x20d470(%rip)        # 212060 <s+0x20>
    4bf0:	c6 05 5e d4 20 00 7d 	movb   $0x7d,0x20d45e(%rip)        # 212055 <s+0x15>
    4bf7:	c6 05 42 d4 20 00 34 	movb   $0x34,0x20d442(%rip)        # 212040 <s>
    4bfe:	c6 05 52 d4 20 00 4d 	movb   $0x4d,0x20d452(%rip)        # 212057 <s+0x17>
    4c05:	c6 05 4f d4 20 00 23 	movb   $0x23,0x20d44f(%rip)        # 21205b <s+0x1b>
    4c0c:	c6 05 4b d4 20 00 55 	movb   $0x55,0x20d44b(%rip)        # 21205e <s+0x1e>
    4c13:	c6 05 48 d4 20 00 4f 	movb   $0x4f,0x20d448(%rip)        # 212062 <s+0x22>
    4c1a:	c6 05 2f d4 20 00 51 	movb   $0x51,0x20d42f(%rip)        # 212050 <s+0x10>
    4c21:	c6 05 22 d4 20 00 5f 	movb   $0x5f,0x20d422(%rip)        # 21204a <s+0xa>
    4c28:	c6 05 12 d4 20 00 6c 	movb   $0x6c,0x20d412(%rip)        # 212041 <s+0x1>
    4c2f:	c6 05 0b d4 20 00 48 	movb   $0x48,0x20d40b(%rip)        # 212041 <s+0x1>
    4c36:	c6 05 20 d4 20 00 41 	movb   $0x41,0x20d420(%rip)        # 21205d <s+0x1d>
    4c3d:	c6 05 21 d4 20 00 2f 	movb   $0x2f,0x20d421(%rip)        # 212065 <s+0x25>
    4c44:	c6 05 12 d4 20 00 4c 	movb   $0x4c,0x20d412(%rip)        # 21205d <s+0x1d>
    4c4b:	c6 05 08 d4 20 00 51 	movb   $0x51,0x20d408(%rip)        # 21205a <s+0x1a>
    4c52:	c6 05 f3 d3 20 00 2b 	movb   $0x2b,0x20d3f3(%rip)        # 21204c <s+0xc>
    4c59:	c6 05 e1 d3 20 00 20 	movb   $0x20,0x20d3e1(%rip)        # 212041 <s+0x1>
    4c60:	c6 05 ff d3 20 00 51 	movb   $0x51,0x20d3ff(%rip)        # 212066 <s+0x26>
    4c67:	c6 05 db d3 20 00 32 	movb   $0x32,0x20d3db(%rip)        # 212049 <s+0x9>
    4c6e:	c6 05 ee d3 20 00 21 	movb   $0x21,0x20d3ee(%rip)        # 212063 <s+0x23>
    4c75:	c6 05 cd d3 20 00 47 	movb   $0x47,0x20d3cd(%rip)        # 212049 <s+0x9>
    4c7c:	c6 05 c1 d3 20 00 68 	movb   $0x68,0x20d3c1(%rip)        # 212044 <s+0x4>
    4c83:	c6 05 c1 d3 20 00 7c 	movb   $0x7c,0x20d3c1(%rip)        # 21204b <s+0xb>
    4c8a:	c6 05 b2 d3 20 00 3a 	movb   $0x3a,0x20d3b2(%rip)        # 212043 <s+0x3>
    4c91:	c6 05 ad d3 20 00 22 	movb   $0x22,0x20d3ad(%rip)        # 212045 <s+0x5>
    4c98:	c6 05 b9 d3 20 00 42 	movb   $0x42,0x20d3b9(%rip)        # 212058 <s+0x18>
    4c9f:	c6 05 a3 d3 20 00 7e 	movb   $0x7e,0x20d3a3(%rip)        # 212049 <s+0x9>
    4ca6:	c6 05 ba d3 20 00 60 	movb   $0x60,0x20d3ba(%rip)        # 212067 <s+0x27>
    4cad:	c6 05 95 d3 20 00 7b 	movb   $0x7b,0x20d395(%rip)        # 212049 <s+0x9>
    4cb4:	c6 05 8a d3 20 00 68 	movb   $0x68,0x20d38a(%rip)        # 212045 <s+0x5>
    4cbb:	c6 05 9c d3 20 00 2d 	movb   $0x2d,0x20d39c(%rip)        # 21205e <s+0x1e>
    4cc2:	c6 05 77 d3 20 00 3e 	movb   $0x3e,0x20d377(%rip)        # 212040 <s>
    4cc9:	c6 05 76 d3 20 00 4c 	movb   $0x4c,0x20d376(%rip)        # 212046 <s+0x6>
    4cd0:	c6 05 81 d3 20 00 3b 	movb   $0x3b,0x20d381(%rip)        # 212058 <s+0x18>
    4cd7:	c6 05 7e d3 20 00 2d 	movb   $0x2d,0x20d37e(%rip)        # 21205c <s+0x1c>
    4cde:	c6 05 7c d3 20 00 6e 	movb   $0x6e,0x20d37c(%rip)        # 212061 <s+0x21>
    4ce5:	c6 05 6c d3 20 00 45 	movb   $0x45,0x20d36c(%rip)        # 212058 <s+0x18>
    4cec:	c6 05 58 d3 20 00 7e 	movb   $0x7e,0x20d358(%rip)        # 21204b <s+0xb>
    4cf3:	c6 05 4c d3 20 00 6d 	movb   $0x6d,0x20d34c(%rip)        # 212046 <s+0x6>
    4cfa:	c6 05 60 d3 20 00 4f 	movb   $0x4f,0x20d360(%rip)        # 212061 <s+0x21>
    4d01:	c6 05 5e d3 20 00 43 	movb   $0x43,0x20d35e(%rip)        # 212066 <s+0x26>
    4d08:	c6 05 38 d3 20 00 48 	movb   $0x48,0x20d338(%rip)        # 212047 <s+0x7>
    4d0f:	c6 05 49 d3 20 00 3c 	movb   $0x3c,0x20d349(%rip)        # 21205f <s+0x1f>
    4d16:	c6 05 37 d3 20 00 22 	movb   $0x22,0x20d337(%rip)        # 212054 <s+0x14>
    4d1d:	c6 05 22 d3 20 00 60 	movb   $0x60,0x20d322(%rip)        # 212046 <s+0x6>
    4d24:	c6 05 31 d3 20 00 45 	movb   $0x45,0x20d331(%rip)        # 21205c <s+0x1c>
    4d2b:	c6 05 1a d3 20 00 40 	movb   $0x40,0x20d31a(%rip)        # 21204c <s+0xc>
    4d32:	c6 05 11 d3 20 00 74 	movb   $0x74,0x20d311(%rip)        # 21204a <s+0xa>
    4d39:	c6 05 21 d3 20 00 5b 	movb   $0x5b,0x20d321(%rip)        # 212061 <s+0x21>
    4d40:	c6 05 01 d3 20 00 78 	movb   $0x78,0x20d301(%rip)        # 212048 <s+0x8>
    4d47:	c6 05 0c d3 20 00 60 	movb   $0x60,0x20d30c(%rip)        # 21205a <s+0x1a>
    4d4e:	c6 05 01 d3 20 00 69 	movb   $0x69,0x20d301(%rip)        # 212056 <s+0x16>
    4d55:	c6 05 07 d3 20 00 60 	movb   $0x60,0x20d307(%rip)        # 212063 <s+0x23>
    4d5c:	c6 05 f9 d2 20 00 47 	movb   $0x47,0x20d2f9(%rip)        # 21205c <s+0x1c>
    4d63:	c6 05 e8 d2 20 00 44 	movb   $0x44,0x20d2e8(%rip)        # 212052 <s+0x12>
    4d6a:	c6 05 f6 d2 20 00 24 	movb   $0x24,0x20d2f6(%rip)        # 212067 <s+0x27>
    4d71:	c6 05 cf d2 20 00 2a 	movb   $0x2a,0x20d2cf(%rip)        # 212047 <s+0x7>
    4d78:	c6 05 db d2 20 00 24 	movb   $0x24,0x20d2db(%rip)        # 21205a <s+0x1a>
    4d7f:	c6 05 bc d2 20 00 73 	movb   $0x73,0x20d2bc(%rip)        # 212042 <s+0x2>
    4d86:	c6 05 bb d2 20 00 78 	movb   $0x78,0x20d2bb(%rip)        # 212048 <s+0x8>
    4d8d:	c6 05 bf d2 20 00 56 	movb   $0x56,0x20d2bf(%rip)        # 212053 <s+0x13>
    4d94:	c6 05 be d2 20 00 33 	movb   $0x33,0x20d2be(%rip)        # 212059 <s+0x19>
    4d9b:	c6 05 be d2 20 00 72 	movb   $0x72,0x20d2be(%rip)        # 212060 <s+0x20>
    4da2:	c6 05 b0 d2 20 00 7e 	movb   $0x7e,0x20d2b0(%rip)        # 212059 <s+0x19>
    4da9:	c6 05 ae d2 20 00 38 	movb   $0x38,0x20d2ae(%rip)        # 21205e <s+0x1e>
    4db0:	c6 05 9a d2 20 00 43 	movb   $0x43,0x20d29a(%rip)        # 212051 <s+0x11>
    4db7:	c6 05 a9 d2 20 00 45 	movb   $0x45,0x20d2a9(%rip)        # 212067 <s+0x27>
    4dbe:	c6 05 8c d2 20 00 30 	movb   $0x30,0x20d28c(%rip)        # 212051 <s+0x11>
    4dc5:	c6 05 89 d2 20 00 61 	movb   $0x61,0x20d289(%rip)        # 212055 <s+0x15>
    4dcc:	c6 05 6e d2 20 00 79 	movb   $0x79,0x20d26e(%rip)        # 212041 <s+0x1>
    4dd3:	c6 05 66 d2 20 00 66 	movb   $0x66,0x20d266(%rip)        # 212040 <s>
    4dda:	c6 05 82 d2 20 00 2a 	movb   $0x2a,0x20d282(%rip)        # 212063 <s+0x23>
    4de1:	c6 05 69 d2 20 00 51 	movb   $0x51,0x20d269(%rip)        # 212051 <s+0x11>
    4de8:	c6 05 5e d2 20 00 64 	movb   $0x64,0x20d25e(%rip)        # 21204d <s+0xd>
    4def:	c6 05 6b d2 20 00 5b 	movb   $0x5b,0x20d26b(%rip)        # 212061 <s+0x21>
    4df6:	c6 05 53 d2 20 00 79 	movb   $0x79,0x20d253(%rip)        # 212050 <s+0x10>
    4dfd:	c6 05 59 d2 20 00 58 	movb   $0x58,0x20d259(%rip)        # 21205d <s+0x1d>
    4e04:	c6 05 57 d2 20 00 5b 	movb   $0x5b,0x20d257(%rip)        # 212062 <s+0x22>
    4e0b:	c6 05 31 d2 20 00 33 	movb   $0x33,0x20d231(%rip)        # 212043 <s+0x3>
    4e12:	c6 05 4e d2 20 00 21 	movb   $0x21,0x20d24e(%rip)        # 212067 <s+0x27>
    4e19:	c6 05 47 d2 20 00 3a 	movb   $0x3a,0x20d247(%rip)        # 212067 <s+0x27>
    4e20:	c6 05 25 d2 20 00 33 	movb   $0x33,0x20d225(%rip)        # 21204c <s+0xc>
    4e27:	c6 05 2e d2 20 00 34 	movb   $0x34,0x20d22e(%rip)        # 21205c <s+0x1c>
    4e2e:	c6 05 17 d2 20 00 4a 	movb   $0x4a,0x20d217(%rip)        # 21204c <s+0xc>
    4e35:	c6 05 1e d2 20 00 56 	movb   $0x56,0x20d21e(%rip)        # 21205a <s+0x1a>
    4e3c:	c6 05 fd d1 20 00 78 	movb   $0x78,0x20d1fd(%rip)        # 212040 <s>
    4e43:	c6 05 fa d1 20 00 36 	movb   $0x36,0x20d1fa(%rip)        # 212044 <s+0x4>
    4e4a:	c6 05 04 d2 20 00 57 	movb   $0x57,0x20d204(%rip)        # 212055 <s+0x15>
    4e51:	c6 05 f6 d1 20 00 50 	movb   $0x50,0x20d1f6(%rip)        # 21204e <s+0xe>
    4e58:	c6 05 e4 d1 20 00 38 	movb   $0x38,0x20d1e4(%rip)        # 212043 <s+0x3>
    4e5f:	c6 05 fc d1 20 00 21 	movb   $0x21,0x20d1fc(%rip)        # 212062 <s+0x22>
    4e66:	c6 05 e3 d1 20 00 2a 	movb   $0x2a,0x20d1e3(%rip)        # 212050 <s+0x10>
    4e6d:	c6 05 d2 d1 20 00 5d 	movb   $0x5d,0x20d1d2(%rip)        # 212046 <s+0x6>
    4e74:	c6 05 d4 d1 20 00 73 	movb   $0x73,0x20d1d4(%rip)        # 21204f <s+0xf>
    4e7b:	c6 05 c6 d1 20 00 20 	movb   $0x20,0x20d1c6(%rip)        # 212048 <s+0x8>
    4e82:	c6 05 b7 d1 20 00 4b 	movb   $0x4b,0x20d1b7(%rip)        # 212040 <s>
    4e89:	c6 05 c5 d1 20 00 23 	movb   $0x23,0x20d1c5(%rip)        # 212055 <s+0x15>
    4e90:	c6 05 b0 d1 20 00 58 	movb   $0x58,0x20d1b0(%rip)        # 212047 <s+0x7>
    4e97:	c6 05 c6 d1 20 00 61 	movb   $0x61,0x20d1c6(%rip)        # 212064 <s+0x24>
    4e9e:	c6 05 a2 d1 20 00 3c 	movb   $0x3c,0x20d1a2(%rip)        # 212047 <s+0x7>
    4ea5:	c6 05 94 d1 20 00 34 	movb   $0x34,0x20d194(%rip)        # 212040 <s>
    4eac:	c6 05 9e d1 20 00 5a 	movb   $0x5a,0x20d19e(%rip)        # 212051 <s+0x11>
    4eb3:	c6 05 89 d1 20 00 64 	movb   $0x64,0x20d189(%rip)        # 212043 <s+0x3>
    4eba:	c6 05 94 d1 20 00 39 	movb   $0x39,0x20d194(%rip)        # 212055 <s+0x15>
    4ec1:	c6 05 8e d1 20 00 21 	movb   $0x21,0x20d18e(%rip)        # 212056 <s+0x16>
    4ec8:	c6 05 88 d1 20 00 45 	movb   $0x45,0x20d188(%rip)        # 212057 <s+0x17>
    4ecf:	c6 05 78 d1 20 00 69 	movb   $0x69,0x20d178(%rip)        # 21204e <s+0xe>
    4ed6:	c6 05 84 d1 20 00 44 	movb   $0x44,0x20d184(%rip)        # 212061 <s+0x21>
    4edd:	c6 05 72 d1 20 00 44 	movb   $0x44,0x20d172(%rip)        # 212056 <s+0x16>
    4ee4:	c6 05 72 d1 20 00 70 	movb   $0x70,0x20d172(%rip)        # 21205d <s+0x1d>
    4eeb:	c6 05 69 d1 20 00 4d 	movb   $0x4d,0x20d169(%rip)        # 21205b <s+0x1b>
    4ef2:	c6 05 4e d1 20 00 36 	movb   $0x36,0x20d14e(%rip)        # 212047 <s+0x7>
    4ef9:	c6 05 5d d1 20 00 50 	movb   $0x50,0x20d15d(%rip)        # 21205d <s+0x1d>
    4f00:	c6 05 43 d1 20 00 20 	movb   $0x20,0x20d143(%rip)        # 21204a <s+0xa>
    4f07:	c6 05 57 d1 20 00 4f 	movb   $0x4f,0x20d157(%rip)        # 212065 <s+0x25>
    4f0e:	c6 05 47 d1 20 00 52 	movb   $0x52,0x20d147(%rip)        # 21205c <s+0x1c>
    4f15:	c6 05 2b d1 20 00 77 	movb   $0x77,0x20d12b(%rip)        # 212047 <s+0x7>
    4f1c:	c6 05 39 d1 20 00 71 	movb   $0x71,0x20d139(%rip)        # 21205c <s+0x1c>
    4f23:	c6 05 34 d1 20 00 61 	movb   $0x61,0x20d134(%rip)        # 21205e <s+0x1e>
    4f2a:	c6 05 33 d1 20 00 44 	movb   $0x44,0x20d133(%rip)        # 212064 <s+0x24>
    4f31:	c6 05 2d d1 20 00 4d 	movb   $0x4d,0x20d12d(%rip)        # 212065 <s+0x25>
    4f38:	c6 05 13 d1 20 00 67 	movb   $0x67,0x20d113(%rip)        # 212052 <s+0x12>
    4f3f:	c6 05 fa d0 20 00 61 	movb   $0x61,0x20d0fa(%rip)        # 212040 <s>
    4f46:	c6 05 04 d1 20 00 70 	movb   $0x70,0x20d104(%rip)        # 212051 <s+0x11>
    4f4d:	c6 05 f3 d0 20 00 74 	movb   $0x74,0x20d0f3(%rip)        # 212047 <s+0x7>
    4f54:	c6 05 eb d0 20 00 22 	movb   $0x22,0x20d0eb(%rip)        # 212046 <s+0x6>
    4f5b:	c6 05 e3 d0 20 00 6e 	movb   $0x6e,0x20d0e3(%rip)        # 212045 <s+0x5>
    4f62:	c6 05 fc d0 20 00 5e 	movb   $0x5e,0x20d0fc(%rip)        # 212065 <s+0x25>
    4f69:	c6 05 f5 d0 20 00 34 	movb   $0x34,0x20d0f5(%rip)        # 212065 <s+0x25>
    4f70:	c6 05 dc d0 20 00 2d 	movb   $0x2d,0x20d0dc(%rip)        # 212053 <s+0x13>
    4f77:	c6 05 c9 d0 20 00 7e 	movb   $0x7e,0x20d0c9(%rip)        # 212047 <s+0x7>
    4f7e:	c6 05 d5 d0 20 00 43 	movb   $0x43,0x20d0d5(%rip)        # 21205a <s+0x1a>
    4f85:	c6 05 c4 d0 20 00 57 	movb   $0x57,0x20d0c4(%rip)        # 212050 <s+0x10>
    4f8c:	c6 05 d2 d0 20 00 48 	movb   $0x48,0x20d0d2(%rip)        # 212065 <s+0x25>
    4f93:	c6 05 af d0 20 00 20 	movb   $0x20,0x20d0af(%rip)        # 212049 <s+0x9>
    4f9a:	c6 05 9f d0 20 00 45 	movb   $0x45,0x20d09f(%rip)        # 212040 <s>
    4fa1:	c6 05 b5 d0 20 00 6b 	movb   $0x6b,0x20d0b5(%rip)        # 21205d <s+0x1d>
    4fa8:	c6 05 a7 d0 20 00 7d 	movb   $0x7d,0x20d0a7(%rip)        # 212056 <s+0x16>
    4faf:	c6 05 a9 d0 20 00 61 	movb   $0x61,0x20d0a9(%rip)        # 21205f <s+0x1f>
    4fb6:	c6 05 90 d0 20 00 6e 	movb   $0x6e,0x20d090(%rip)        # 21204d <s+0xd>
    4fbd:	c6 05 99 d0 20 00 54 	movb   $0x54,0x20d099(%rip)        # 21205d <s+0x1d>
    4fc4:	c6 05 95 d0 20 00 6f 	movb   $0x6f,0x20d095(%rip)        # 212060 <s+0x20>
    4fcb:	c6 05 94 d0 20 00 38 	movb   $0x38,0x20d094(%rip)        # 212066 <s+0x26>
    4fd2:	c6 05 85 d0 20 00 67 	movb   $0x67,0x20d085(%rip)        # 21205e <s+0x1e>
    4fd9:	c6 05 62 d0 20 00 44 	movb   $0x44,0x20d062(%rip)        # 212042 <s+0x2>
    4fe0:	c6 05 61 d0 20 00 73 	movb   $0x73,0x20d061(%rip)        # 212048 <s+0x8>
    4fe7:	c6 05 67 d0 20 00 73 	movb   $0x73,0x20d067(%rip)        # 212055 <s+0x15>
    4fee:	c6 05 4d d0 20 00 2f 	movb   $0x2f,0x20d04d(%rip)        # 212042 <s+0x2>
    4ff5:	c6 05 5b d0 20 00 35 	movb   $0x35,0x20d05b(%rip)        # 212057 <s+0x17>
    4ffc:	c6 05 5e d0 20 00 47 	movb   $0x47,0x20d05e(%rip)        # 212061 <s+0x21>
    5003:	c6 05 49 d0 20 00 4e 	movb   $0x4e,0x20d049(%rip)        # 212053 <s+0x13>
    500a:	c6 05 4f d0 20 00 74 	movb   $0x74,0x20d04f(%rip)        # 212060 <s+0x20>
    5011:	c6 05 32 d0 20 00 36 	movb   $0x36,0x20d032(%rip)        # 21204a <s+0xa>
    5018:	c6 05 46 d0 20 00 20 	movb   $0x20,0x20d046(%rip)        # 212065 <s+0x25>
    501f:	c6 05 1b d0 20 00 50 	movb   $0x50,0x20d01b(%rip)        # 212041 <s+0x1>
    5026:	c6 05 22 d0 20 00 47 	movb   $0x47,0x20d022(%rip)        # 21204f <s+0xf>
    502d:	c6 05 1e d0 20 00 7b 	movb   $0x7b,0x20d01e(%rip)        # 212052 <s+0x12>
    5034:	c6 05 06 d0 20 00 67 	movb   $0x67,0x20d006(%rip)        # 212041 <s+0x1>
    503b:	c6 05 05 d0 20 00 53 	movb   $0x53,0x20d005(%rip)        # 212047 <s+0x7>
    5042:	c6 05 1a d0 20 00 29 	movb   $0x29,0x20d01a(%rip)        # 212063 <s+0x23>
    5049:	c6 05 0c d0 20 00 5e 	movb   $0x5e,0x20d00c(%rip)        # 21205c <s+0x1c>
    5050:	c6 05 02 d0 20 00 35 	movb   $0x35,0x20d002(%rip)        # 212059 <s+0x19>
    5057:	c6 05 f7 cf 20 00 50 	movb   $0x50,0x20cff7(%rip)        # 212055 <s+0x15>
    505e:	c6 05 e8 cf 20 00 2f 	movb   $0x2f,0x20cfe8(%rip)        # 21204d <s+0xd>
    5065:	c6 05 d5 cf 20 00 2c 	movb   $0x2c,0x20cfd5(%rip)        # 212041 <s+0x1>
    506c:	c6 05 e4 cf 20 00 7d 	movb   $0x7d,0x20cfe4(%rip)        # 212057 <s+0x17>
    5073:	c6 05 dd cf 20 00 7c 	movb   $0x7c,0x20cfdd(%rip)        # 212057 <s+0x17>
    507a:	c6 05 e1 cf 20 00 38 	movb   $0x38,0x20cfe1(%rip)        # 212062 <s+0x22>
    5081:	c6 05 d4 cf 20 00 2e 	movb   $0x2e,0x20cfd4(%rip)        # 21205c <s+0x1c>
    5088:	c6 05 c9 cf 20 00 6b 	movb   $0x6b,0x20cfc9(%rip)        # 212058 <s+0x18>
    508f:	c6 05 b4 cf 20 00 37 	movb   $0x37,0x20cfb4(%rip)        # 21204a <s+0xa>
    5096:	c6 05 b6 cf 20 00 5b 	movb   $0x5b,0x20cfb6(%rip)        # 212053 <s+0x13>
    509d:	c6 05 b6 cf 20 00 4b 	movb   $0x4b,0x20cfb6(%rip)        # 21205a <s+0x1a>
    50a4:	c6 05 a0 cf 20 00 74 	movb   $0x74,0x20cfa0(%rip)        # 21204b <s+0xb>
    50ab:	c6 05 af cf 20 00 4e 	movb   $0x4e,0x20cfaf(%rip)        # 212061 <s+0x21>
    50b2:	c6 05 a2 cf 20 00 60 	movb   $0x60,0x20cfa2(%rip)        # 21205b <s+0x1b>
    50b9:	c6 05 a5 cf 20 00 5f 	movb   $0x5f,0x20cfa5(%rip)        # 212065 <s+0x25>
    50c0:	c6 05 7b cf 20 00 2a 	movb   $0x2a,0x20cf7b(%rip)        # 212042 <s+0x2>
    50c7:	c6 05 75 cf 20 00 58 	movb   $0x58,0x20cf75(%rip)        # 212043 <s+0x3>
    50ce:	c6 05 8e cf 20 00 52 	movb   $0x52,0x20cf8e(%rip)        # 212063 <s+0x23>
    50d5:	c6 05 68 cf 20 00 33 	movb   $0x33,0x20cf68(%rip)        # 212044 <s+0x4>
    50dc:	c6 05 81 cf 20 00 35 	movb   $0x35,0x20cf81(%rip)        # 212064 <s+0x24>
    50e3:	c6 05 61 cf 20 00 24 	movb   $0x24,0x20cf61(%rip)        # 21204b <s+0xb>
    50ea:	c6 05 57 cf 20 00 3b 	movb   $0x3b,0x20cf57(%rip)        # 212048 <s+0x8>
    50f1:	c6 05 6d cf 20 00 79 	movb   $0x79,0x20cf6d(%rip)        # 212065 <s+0x25>
    50f8:	c6 05 4a cf 20 00 49 	movb   $0x49,0x20cf4a(%rip)        # 212049 <s+0x9>
    50ff:	c6 05 41 cf 20 00 5f 	movb   $0x5f,0x20cf41(%rip)        # 212047 <s+0x7>
    5106:	c6 05 53 cf 20 00 56 	movb   $0x56,0x20cf53(%rip)        # 212060 <s+0x20>
    510d:	c6 05 53 cf 20 00 7e 	movb   $0x7e,0x20cf53(%rip)        # 212067 <s+0x27>
    5114:	c6 05 2b cf 20 00 4a 	movb   $0x4a,0x20cf2b(%rip)        # 212046 <s+0x6>
    511b:	c6 05 33 cf 20 00 2e 	movb   $0x2e,0x20cf33(%rip)        # 212055 <s+0x15>
    5122:	c6 05 31 cf 20 00 45 	movb   $0x45,0x20cf31(%rip)        # 21205a <s+0x1a>
    5129:	c6 05 15 cf 20 00 2f 	movb   $0x2f,0x20cf15(%rip)        # 212045 <s+0x5>
    5130:	c6 05 10 cf 20 00 2d 	movb   $0x2d,0x20cf10(%rip)        # 212047 <s+0x7>
    5137:	c6 05 0c cf 20 00 56 	movb   $0x56,0x20cf0c(%rip)        # 21204a <s+0xa>
    513e:	c6 05 14 cf 20 00 4c 	movb   $0x4c,0x20cf14(%rip)        # 212059 <s+0x19>
    5145:	c6 05 12 cf 20 00 56 	movb   $0x56,0x20cf12(%rip)        # 21205e <s+0x1e>
    514c:	c6 05 14 cf 20 00 64 	movb   $0x64,0x20cf14(%rip)        # 212067 <s+0x27>
    5153:	c6 05 01 cf 20 00 42 	movb   $0x42,0x20cf01(%rip)        # 21205b <s+0x1b>
    515a:	c6 05 f1 ce 20 00 5b 	movb   $0x5b,0x20cef1(%rip)        # 212052 <s+0x12>
    5161:	c6 05 eb ce 20 00 3e 	movb   $0x3e,0x20ceeb(%rip)        # 212053 <s+0x13>
    5168:	c6 05 f7 ce 20 00 49 	movb   $0x49,0x20cef7(%rip)        # 212066 <s+0x26>
    516f:	c6 05 d9 ce 20 00 76 	movb   $0x76,0x20ced9(%rip)        # 21204f <s+0xf>
    5176:	c6 05 db ce 20 00 75 	movb   $0x75,0x20cedb(%rip)        # 212058 <s+0x18>
    517d:	c6 05 c0 ce 20 00 24 	movb   $0x24,0x20cec0(%rip)        # 212044 <s+0x4>
    5184:	c6 05 c1 ce 20 00 68 	movb   $0x68,0x20cec1(%rip)        # 21204c <s+0xc>
    518b:	c6 05 b4 ce 20 00 3a 	movb   $0x3a,0x20ceb4(%rip)        # 212046 <s+0x6>
    5192:	c6 05 ae ce 20 00 29 	movb   $0x29,0x20ceae(%rip)        # 212047 <s+0x7>
    5199:	c6 05 c7 ce 20 00 42 	movb   $0x42,0x20cec7(%rip)        # 212067 <s+0x27>
    51a0:	c6 05 a8 ce 20 00 33 	movb   $0x33,0x20cea8(%rip)        # 21204f <s+0xf>
    51a7:	c6 05 ae ce 20 00 43 	movb   $0x43,0x20ceae(%rip)        # 21205c <s+0x1c>
    51ae:	c6 05 92 ce 20 00 72 	movb   $0x72,0x20ce92(%rip)        # 212047 <s+0x7>
    51b5:	c6 05 95 ce 20 00 31 	movb   $0x31,0x20ce95(%rip)        # 212051 <s+0x11>
    51bc:	c6 05 a3 ce 20 00 53 	movb   $0x53,0x20cea3(%rip)        # 212066 <s+0x26>
    51c3:	c6 05 80 ce 20 00 4a 	movb   $0x4a,0x20ce80(%rip)        # 21204a <s+0xa>
    51ca:	c6 05 77 ce 20 00 73 	movb   $0x73,0x20ce77(%rip)        # 212048 <s+0x8>
    51d1:	c6 05 72 ce 20 00 2a 	movb   $0x2a,0x20ce72(%rip)        # 21204a <s+0xa>
    51d8:	c6 05 68 ce 20 00 2e 	movb   $0x2e,0x20ce68(%rip)        # 212047 <s+0x7>
    51df:	c6 05 75 ce 20 00 3a 	movb   $0x3a,0x20ce75(%rip)        # 21205b <s+0x1b>
    51e6:	c6 05 67 ce 20 00 42 	movb   $0x42,0x20ce67(%rip)        # 212054 <s+0x14>
    51ed:	c6 05 5f ce 20 00 7b 	movb   $0x7b,0x20ce5f(%rip)        # 212053 <s+0x13>
    51f4:	c6 05 50 ce 20 00 7e 	movb   $0x7e,0x20ce50(%rip)        # 21204b <s+0xb>
    51fb:	c6 05 4d ce 20 00 4c 	movb   $0x4c,0x20ce4d(%rip)        # 21204f <s+0xf>
    5202:	c6 05 49 ce 20 00 57 	movb   $0x57,0x20ce49(%rip)        # 212052 <s+0x12>
    5209:	c6 05 3e ce 20 00 2e 	movb   $0x2e,0x20ce3e(%rip)        # 21204e <s+0xe>
    5210:	c6 05 2d ce 20 00 46 	movb   $0x46,0x20ce2d(%rip)        # 212044 <s+0x4>
    5217:	c6 05 28 ce 20 00 7e 	movb   $0x7e,0x20ce28(%rip)        # 212046 <s+0x6>
    521e:	c6 05 3a ce 20 00 51 	movb   $0x51,0x20ce3a(%rip)        # 21205f <s+0x1f>
    5225:	c6 05 34 ce 20 00 49 	movb   $0x49,0x20ce34(%rip)        # 212060 <s+0x20>
    522c:	c6 05 1f ce 20 00 2e 	movb   $0x2e,0x20ce1f(%rip)        # 212052 <s+0x12>
    5233:	c6 05 23 ce 20 00 4b 	movb   $0x4b,0x20ce23(%rip)        # 21205d <s+0x1d>
    523a:	c6 05 16 ce 20 00 65 	movb   $0x65,0x20ce16(%rip)        # 212057 <s+0x17>
    5241:	c6 05 00 ce 20 00 42 	movb   $0x42,0x20ce00(%rip)        # 212048 <s+0x8>
    5248:	c6 05 f5 cd 20 00 6b 	movb   $0x6b,0x20cdf5(%rip)        # 212044 <s+0x4>
    524f:	c6 05 01 ce 20 00 7d 	movb   $0x7d,0x20ce01(%rip)        # 212057 <s+0x17>
    5256:	c6 05 f7 cd 20 00 49 	movb   $0x49,0x20cdf7(%rip)        # 212054 <s+0x14>
    525d:	c6 05 e0 cd 20 00 25 	movb   $0x25,0x20cde0(%rip)        # 212044 <s+0x4>
    5264:	c6 05 e0 cd 20 00 68 	movb   $0x68,0x20cde0(%rip)        # 21204b <s+0xb>
    526b:	c6 05 d3 cd 20 00 77 	movb   $0x77,0x20cdd3(%rip)        # 212045 <s+0x5>
    5272:	c6 05 ec cd 20 00 2a 	movb   $0x2a,0x20cdec(%rip)        # 212065 <s+0x25>
    5279:	c6 05 d4 cd 20 00 4e 	movb   $0x4e,0x20cdd4(%rip)        # 212054 <s+0x14>
    5280:	c6 05 c0 cd 20 00 31 	movb   $0x31,0x20cdc0(%rip)        # 212047 <s+0x7>
    5287:	c6 05 cf cd 20 00 7e 	movb   $0x7e,0x20cdcf(%rip)        # 21205d <s+0x1d>
    528e:	c6 05 bc cd 20 00 7c 	movb   $0x7c,0x20cdbc(%rip)        # 212051 <s+0x11>
    5295:	c6 05 bc cd 20 00 6d 	movb   $0x6d,0x20cdbc(%rip)        # 212058 <s+0x18>
    529c:	c6 05 b1 cd 20 00 2f 	movb   $0x2f,0x20cdb1(%rip)        # 212054 <s+0x14>
    52a3:	c6 05 a7 cd 20 00 4e 	movb   $0x4e,0x20cda7(%rip)        # 212051 <s+0x11>
    52aa:	c6 05 b4 cd 20 00 6e 	movb   $0x6e,0x20cdb4(%rip)        # 212065 <s+0x25>
    52b1:	c6 05 af cd 20 00 22 	movb   $0x22,0x20cdaf(%rip)        # 212067 <s+0x27>
    52b8:	c6 05 8d cd 20 00 48 	movb   $0x48,0x20cd8d(%rip)        # 21204c <s+0xc>
    52bf:	c6 05 89 cd 20 00 6f 	movb   $0x6f,0x20cd89(%rip)        # 21204f <s+0xf>
    52c6:	c6 05 86 cd 20 00 7e 	movb   $0x7e,0x20cd86(%rip)        # 212053 <s+0x13>
    52cd:	c6 05 81 cd 20 00 43 	movb   $0x43,0x20cd81(%rip)        # 212055 <s+0x15>
    52d4:	c6 05 78 cd 20 00 36 	movb   $0x36,0x20cd78(%rip)        # 212053 <s+0x13>
    52db:	c6 05 61 cd 20 00 3a 	movb   $0x3a,0x20cd61(%rip)        # 212043 <s+0x3>
    52e2:	c6 05 75 cd 20 00 39 	movb   $0x39,0x20cd75(%rip)        # 21205e <s+0x1e>
    52e9:	c6 05 54 cd 20 00 6f 	movb   $0x6f,0x20cd54(%rip)        # 212044 <s+0x4>
    52f0:	c6 05 5b cd 20 00 32 	movb   $0x32,0x20cd5b(%rip)        # 212052 <s+0x12>
    52f7:	c6 05 4b cd 20 00 34 	movb   $0x34,0x20cd4b(%rip)        # 212049 <s+0x9>
    52fe:	c6 05 3e cd 20 00 60 	movb   $0x60,0x20cd3e(%rip)        # 212043 <s+0x3>
    5305:	c6 05 55 cd 20 00 66 	movb   $0x66,0x20cd55(%rip)        # 212061 <s+0x21>
    530c:	c6 05 3b cd 20 00 20 	movb   $0x20,0x20cd3b(%rip)        # 21204e <s+0xe>
    5313:	c6 05 39 cd 20 00 50 	movb   $0x50,0x20cd39(%rip)        # 212053 <s+0x13>
    531a:	c6 05 3c cd 20 00 45 	movb   $0x45,0x20cd3c(%rip)        # 21205d <s+0x1d>
    5321:	c6 05 21 cd 20 00 53 	movb   $0x53,0x20cd21(%rip)        # 212049 <s+0x9>
    5328:	c6 05 1b cd 20 00 3c 	movb   $0x3c,0x20cd1b(%rip)        # 21204a <s+0xa>
    532f:	c6 05 26 cd 20 00 4b 	movb   $0x4b,0x20cd26(%rip)        # 21205c <s+0x1c>
    5336:	c6 05 26 cd 20 00 43 	movb   $0x43,0x20cd26(%rip)        # 212063 <s+0x23>
    533d:	c6 05 19 cd 20 00 35 	movb   $0x35,0x20cd19(%rip)        # 21205d <s+0x1d>
    5344:	c6 05 14 cd 20 00 4b 	movb   $0x4b,0x20cd14(%rip)        # 21205f <s+0x1f>
    534b:	c6 05 0c cd 20 00 4f 	movb   $0x4f,0x20cd0c(%rip)        # 21205e <s+0x1e>
    5352:	c6 05 ea cc 20 00 79 	movb   $0x79,0x20ccea(%rip)        # 212043 <s+0x3>
    5359:	c6 05 eb cc 20 00 33 	movb   $0x33,0x20cceb(%rip)        # 21204b <s+0xb>
    5360:	c6 05 eb cc 20 00 33 	movb   $0x33,0x20cceb(%rip)        # 212052 <s+0x12>
    5367:	c6 05 eb cc 20 00 69 	movb   $0x69,0x20cceb(%rip)        # 212059 <s+0x19>
    536e:	c6 05 d5 cc 20 00 23 	movb   $0x23,0x20ccd5(%rip)        # 21204a <s+0xa>
    5375:	c6 05 d3 cc 20 00 50 	movb   $0x50,0x20ccd3(%rip)        # 21204f <s+0xf>
    537c:	c6 05 bd cc 20 00 67 	movb   $0x67,0x20ccbd(%rip)        # 212040 <s>
    5383:	c6 05 d6 cc 20 00 78 	movb   $0x78,0x20ccd6(%rip)        # 212060 <s+0x20>
    538a:	c6 05 be cc 20 00 45 	movb   $0x45,0x20ccbe(%rip)        # 21204f <s+0xf>
    5391:	c6 05 c0 cc 20 00 48 	movb   $0x48,0x20ccc0(%rip)        # 212058 <s+0x18>
    5398:	c6 05 c6 cc 20 00 3e 	movb   $0x3e,0x20ccc6(%rip)        # 212065 <s+0x25>
    539f:	c6 05 a5 cc 20 00 4a 	movb   $0x4a,0x20cca5(%rip)        # 21204b <s+0xb>
    53a6:	c6 05 ba cc 20 00 30 	movb   $0x30,0x20ccba(%rip)        # 212067 <s+0x27>
    53ad:	c6 05 aa cc 20 00 45 	movb   $0x45,0x20ccaa(%rip)        # 21205e <s+0x1e>
    53b4:	c6 05 aa cc 20 00 4b 	movb   $0x4b,0x20ccaa(%rip)        # 212065 <s+0x25>
    53bb:	c6 05 8b cc 20 00 3f 	movb   $0x3f,0x20cc8b(%rip)        # 21204d <s+0xd>
    53c2:	c6 05 79 cc 20 00 3e 	movb   $0x3e,0x20cc79(%rip)        # 212042 <s+0x2>
    53c9:	c6 05 96 cc 20 00 4a 	movb   $0x4a,0x20cc96(%rip)        # 212066 <s+0x26>
    53d0:	c6 05 75 cc 20 00 20 	movb   $0x20,0x20cc75(%rip)        # 21204c <s+0xc>
    53d7:	c6 05 66 cc 20 00 52 	movb   $0x52,0x20cc66(%rip)        # 212044 <s+0x4>
    53de:	c6 05 79 cc 20 00 21 	movb   $0x21,0x20cc79(%rip)        # 21205e <s+0x1e>
    53e5:	c6 05 5f cc 20 00 49 	movb   $0x49,0x20cc5f(%rip)        # 21204b <s+0xb>
    53ec:	c6 05 73 cc 20 00 48 	movb   $0x48,0x20cc73(%rip)        # 212066 <s+0x26>
    53f3:	c6 05 48 cc 20 00 42 	movb   $0x42,0x20cc48(%rip)        # 212042 <s+0x2>
    53fa:	c6 05 50 cc 20 00 3d 	movb   $0x3d,0x20cc50(%rip)        # 212051 <s+0x11>
    5401:	c6 05 40 cc 20 00 4e 	movb   $0x4e,0x20cc40(%rip)        # 212048 <s+0x8>
    5408:	c6 05 33 cc 20 00 70 	movb   $0x70,0x20cc33(%rip)        # 212042 <s+0x2>
    540f:	c6 05 37 cc 20 00 50 	movb   $0x50,0x20cc37(%rip)        # 21204d <s+0xd>
    5416:	c6 05 3c cc 20 00 65 	movb   $0x65,0x20cc3c(%rip)        # 212059 <s+0x19>
    541d:	c6 05 36 cc 20 00 51 	movb   $0x51,0x20cc36(%rip)        # 21205a <s+0x1a>
    5424:	c6 05 39 cc 20 00 31 	movb   $0x31,0x20cc39(%rip)        # 212064 <s+0x24>
    542b:	c6 05 1d cc 20 00 2d 	movb   $0x2d,0x20cc1d(%rip)        # 21204f <s+0xf>
    5432:	c6 05 0a cc 20 00 29 	movb   $0x29,0x20cc0a(%rip)        # 212043 <s+0x3>
    5439:	c6 05 0b cc 20 00 6f 	movb   $0x6f,0x20cc0b(%rip)        # 21204b <s+0xb>
    5440:	c6 05 1c cc 20 00 20 	movb   $0x20,0x20cc1c(%rip)        # 212063 <s+0x23>
    5447:	c6 05 02 cc 20 00 52 	movb   $0x52,0x20cc02(%rip)        # 212050 <s+0x10>
    544e:	c6 05 0e cc 20 00 3e 	movb   $0x3e,0x20cc0e(%rip)        # 212063 <s+0x23>
    5455:	c6 05 06 cc 20 00 24 	movb   $0x24,0x20cc06(%rip)        # 212062 <s+0x22>
    545c:	c6 05 e9 cb 20 00 37 	movb   $0x37,0x20cbe9(%rip)        # 21204c <s+0xc>
    5463:	c6 05 f3 cb 20 00 23 	movb   $0x23,0x20cbf3(%rip)        # 21205d <s+0x1d>
    546a:	c6 05 d5 cb 20 00 2f 	movb   $0x2f,0x20cbd5(%rip)        # 212046 <s+0x6>
    5471:	c6 05 c9 cb 20 00 73 	movb   $0x73,0x20cbc9(%rip)        # 212041 <s+0x1>
    5478:	c6 05 e8 cb 20 00 7b 	movb   $0x7b,0x20cbe8(%rip)        # 212067 <s+0x27>
    547f:	c6 05 db cb 20 00 5f 	movb   $0x5f,0x20cbdb(%rip)        # 212061 <s+0x21>
    5486:	c6 05 d9 cb 20 00 3d 	movb   $0x3d,0x20cbd9(%rip)        # 212066 <s+0x26>
    548d:	c6 05 b0 cb 20 00 78 	movb   $0x78,0x20cbb0(%rip)        # 212044 <s+0x4>
    5494:	c6 05 c7 cb 20 00 41 	movb   $0x41,0x20cbc7(%rip)        # 212062 <s+0x22>
    549b:	c6 05 b0 cb 20 00 73 	movb   $0x73,0x20cbb0(%rip)        # 212052 <s+0x12>
    54a2:	c6 05 a0 cb 20 00 6e 	movb   $0x6e,0x20cba0(%rip)        # 212049 <s+0x9>
    54a9:	c6 05 a1 cb 20 00 2f 	movb   $0x2f,0x20cba1(%rip)        # 212051 <s+0x11>
    54b0:	c6 05 ad cb 20 00 21 	movb   $0x21,0x20cbad(%rip)        # 212064 <s+0x24>
    54b7:	c6 05 a7 cb 20 00 7e 	movb   $0x7e,0x20cba7(%rip)        # 212065 <s+0x25>
    54be:	c6 05 a1 cb 20 00 7a 	movb   $0x7a,0x20cba1(%rip)        # 212066 <s+0x26>
    54c5:	c6 05 93 cb 20 00 3c 	movb   $0x3c,0x20cb93(%rip)        # 21205f <s+0x1f>
    54cc:	c6 05 82 cb 20 00 65 	movb   $0x65,0x20cb82(%rip)        # 212055 <s+0x15>
    54d3:	c6 05 80 cb 20 00 55 	movb   $0x55,0x20cb80(%rip)        # 21205a <s+0x1a>
    54da:	c6 05 70 cb 20 00 69 	movb   $0x69,0x20cb70(%rip)        # 212051 <s+0x11>
    54e1:	c6 05 74 cb 20 00 63 	movb   $0x63,0x20cb74(%rip)        # 21205c <s+0x1c>
    54e8:	c6 05 70 cb 20 00 53 	movb   $0x53,0x20cb70(%rip)        # 21205f <s+0x1f>
    54ef:	c6 05 5a cb 20 00 72 	movb   $0x72,0x20cb5a(%rip)        # 212050 <s+0x10>
    54f6:	c6 05 65 cb 20 00 69 	movb   $0x69,0x20cb65(%rip)        # 212062 <s+0x22>
    54fd:	c6 05 5b cb 20 00 51 	movb   $0x51,0x20cb5b(%rip)        # 21205f <s+0x1f>
    5504:	c6 05 35 cb 20 00 3f 	movb   $0x3f,0x20cb35(%rip)        # 212040 <s>
    550b:	c6 05 34 cb 20 00 7c 	movb   $0x7c,0x20cb34(%rip)        # 212046 <s+0x6>
    5512:	c6 05 46 cb 20 00 5d 	movb   $0x5d,0x20cb46(%rip)        # 21205f <s+0x1f>
    5519:	c6 05 37 cb 20 00 74 	movb   $0x74,0x20cb37(%rip)        # 212057 <s+0x17>
    5520:	c6 05 3c cb 20 00 50 	movb   $0x50,0x20cb3c(%rip)        # 212063 <s+0x23>
    5527:	c6 05 2d cb 20 00 70 	movb   $0x70,0x20cb2d(%rip)        # 21205b <s+0x1b>
    552e:	c6 05 13 cb 20 00 51 	movb   $0x51,0x20cb13(%rip)        # 212048 <s+0x8>
    5535:	c6 05 0b cb 20 00 2b 	movb   $0x2b,0x20cb0b(%rip)        # 212047 <s+0x7>
    553c:	c6 05 23 cb 20 00 67 	movb   $0x67,0x20cb23(%rip)        # 212066 <s+0x26>
    5543:	c6 05 03 cb 20 00 64 	movb   $0x64,0x20cb03(%rip)        # 21204d <s+0xd>
    554a:	c6 05 09 cb 20 00 54 	movb   $0x54,0x20cb09(%rip)        # 21205a <s+0x1a>
    5551:	c6 05 eb ca 20 00 43 	movb   $0x43,0x20caeb(%rip)        # 212043 <s+0x3>
    5558:	c6 05 e6 ca 20 00 50 	movb   $0x50,0x20cae6(%rip)        # 212045 <s+0x5>
    555f:	c6 05 dd ca 20 00 7e 	movb   $0x7e,0x20cadd(%rip)        # 212043 <s+0x3>
    5566:	c6 05 f0 ca 20 00 49 	movb   $0x49,0x20caf0(%rip)        # 21205d <s+0x1d>
    556d:	c6 05 e9 ca 20 00 4f 	movb   $0x4f,0x20cae9(%rip)        # 21205d <s+0x1d>
    5574:	c6 05 eb ca 20 00 59 	movb   $0x59,0x20caeb(%rip)        # 212066 <s+0x26>
    557b:	c6 05 de ca 20 00 26 	movb   $0x26,0x20cade(%rip)        # 212060 <s+0x20>
    5582:	c6 05 c2 ca 20 00 49 	movb   $0x49,0x20cac2(%rip)        # 21204b <s+0xb>
    5589:	c6 05 c2 ca 20 00 3c 	movb   $0x3c,0x20cac2(%rip)        # 212052 <s+0x12>
    5590:	c6 05 c0 ca 20 00 70 	movb   $0x70,0x20cac0(%rip)        # 212057 <s+0x17>
    5597:	c6 05 a9 ca 20 00 5f 	movb   $0x5f,0x20caa9(%rip)        # 212047 <s+0x7>
    559e:	c6 05 af ca 20 00 7d 	movb   $0x7d,0x20caaf(%rip)        # 212054 <s+0x14>
    55a5:	c6 05 a8 ca 20 00 31 	movb   $0x31,0x20caa8(%rip)        # 212054 <s+0x14>
    55ac:	c6 05 8e ca 20 00 41 	movb   $0x41,0x20ca8e(%rip)        # 212041 <s+0x1>
    55b3:	c6 05 86 ca 20 00 64 	movb   $0x64,0x20ca86(%rip)        # 212040 <s>
    55ba:	c6 05 90 ca 20 00 7b 	movb   $0x7b,0x20ca90(%rip)        # 212051 <s+0x11>
    55c1:	c6 05 93 ca 20 00 2a 	movb   $0x2a,0x20ca93(%rip)        # 21205b <s+0x1b>
    55c8:	c6 05 83 ca 20 00 30 	movb   $0x30,0x20ca83(%rip)        # 212052 <s+0x12>
    55cf:	c6 05 7e ca 20 00 21 	movb   $0x21,0x20ca7e(%rip)        # 212054 <s+0x14>
    55d6:	c6 05 67 ca 20 00 7b 	movb   $0x7b,0x20ca67(%rip)        # 212044 <s+0x4>
    55dd:	c6 05 76 ca 20 00 37 	movb   $0x37,0x20ca76(%rip)        # 21205a <s+0x1a>
    55e4:	c6 05 5f ca 20 00 6e 	movb   $0x6e,0x20ca5f(%rip)        # 21204a <s+0xa>
    55eb:	c6 05 68 ca 20 00 4e 	movb   $0x4e,0x20ca68(%rip)        # 21205a <s+0x1a>
    55f2:	c6 05 68 ca 20 00 5e 	movb   $0x5e,0x20ca68(%rip)        # 212061 <s+0x21>
    55f9:	c6 05 67 ca 20 00 70 	movb   $0x70,0x20ca67(%rip)        # 212067 <s+0x27>
    5600:	c6 05 3b ca 20 00 5f 	movb   $0x5f,0x20ca3b(%rip)        # 212042 <s+0x2>
    5607:	c6 05 54 ca 20 00 71 	movb   $0x71,0x20ca54(%rip)        # 212062 <s+0x22>
    560e:	c6 05 50 ca 20 00 54 	movb   $0x54,0x20ca50(%rip)        # 212065 <s+0x25>
    5615:	c6 05 33 ca 20 00 43 	movb   $0x43,0x20ca33(%rip)        # 21204f <s+0xf>
    561c:	c6 05 3a ca 20 00 22 	movb   $0x22,0x20ca3a(%rip)        # 21205d <s+0x1d>
    5623:	c6 05 39 ca 20 00 54 	movb   $0x54,0x20ca39(%rip)        # 212063 <s+0x23>
    562a:	c6 05 0f ca 20 00 31 	movb   $0x31,0x20ca0f(%rip)        # 212040 <s>
    5631:	c6 05 1b ca 20 00 2e 	movb   $0x2e,0x20ca1b(%rip)        # 212053 <s+0x13>
    5638:	c6 05 18 ca 20 00 6a 	movb   $0x6a,0x20ca18(%rip)        # 212057 <s+0x17>
    563f:	c6 05 fe c9 20 00 55 	movb   $0x55,0x20c9fe(%rip)        # 212044 <s+0x4>
    5646:	c6 05 17 ca 20 00 4e 	movb   $0x4e,0x20ca17(%rip)        # 212064 <s+0x24>
    564d:	c6 05 f0 c9 20 00 51 	movb   $0x51,0x20c9f0(%rip)        # 212044 <s+0x4>
    5654:	c6 05 0a ca 20 00 3b 	movb   $0x3b,0x20ca0a(%rip)        # 212065 <s+0x25>
    565b:	c6 05 ec c9 20 00 30 	movb   $0x30,0x20c9ec(%rip)        # 21204e <s+0xe>
    5662:	c6 05 f7 c9 20 00 78 	movb   $0x78,0x20c9f7(%rip)        # 212060 <s+0x20>
    5669:	c6 05 e2 c9 20 00 64 	movb   $0x64,0x20c9e2(%rip)        # 212052 <s+0x12>
    5670:	c6 05 d6 c9 20 00 21 	movb   $0x21,0x20c9d6(%rip)        # 21204d <s+0xd>
    5677:	c6 05 d9 c9 20 00 36 	movb   $0x36,0x20c9d9(%rip)        # 212057 <s+0x17>
    567e:	c6 05 db c9 20 00 2f 	movb   $0x2f,0x20c9db(%rip)        # 212060 <s+0x20>
    5685:	c6 05 d5 c9 20 00 48 	movb   $0x48,0x20c9d5(%rip)        # 212061 <s+0x21>
    568c:	c6 05 b0 c9 20 00 42 	movb   $0x42,0x20c9b0(%rip)        # 212043 <s+0x3>
    5693:	c6 05 c7 c9 20 00 3d 	movb   $0x3d,0x20c9c7(%rip)        # 212061 <s+0x21>
    569a:	c6 05 b2 c9 20 00 30 	movb   $0x30,0x20c9b2(%rip)        # 212053 <s+0x13>
    56a1:	c6 05 b6 c9 20 00 5e 	movb   $0x5e,0x20c9b6(%rip)        # 21205e <s+0x1e>
    56a8:	c6 05 b1 c9 20 00 70 	movb   $0x70,0x20c9b1(%rip)        # 212060 <s+0x20>
    56af:	c6 05 a4 c9 20 00 7e 	movb   $0x7e,0x20c9a4(%rip)        # 21205a <s+0x1a>
    56b6:	c6 05 8b c9 20 00 40 	movb   $0x40,0x20c98b(%rip)        # 212048 <s+0x8>
    56bd:	c6 05 94 c9 20 00 61 	movb   $0x61,0x20c994(%rip)        # 212058 <s+0x18>
    56c4:	c6 05 7f c9 20 00 54 	movb   $0x54,0x20c97f(%rip)        # 21204a <s+0xa>
    56cb:	c6 05 8b c9 20 00 2e 	movb   $0x2e,0x20c98b(%rip)        # 21205d <s+0x1d>
    56d2:	c6 05 7c c9 20 00 26 	movb   $0x26,0x20c97c(%rip)        # 212055 <s+0x15>
    56d9:	c6 05 6d c9 20 00 52 	movb   $0x52,0x20c96d(%rip)        # 21204d <s+0xd>
    56e0:	c6 05 74 c9 20 00 2b 	movb   $0x2b,0x20c974(%rip)        # 21205b <s+0x1b>
    56e7:	c6 05 65 c9 20 00 72 	movb   $0x72,0x20c965(%rip)        # 212053 <s+0x13>
    56ee:	c6 05 5f c9 20 00 45 	movb   $0x45,0x20c95f(%rip)        # 212054 <s+0x14>
    56f5:	c6 05 4f c9 20 00 6d 	movb   $0x6d,0x20c94f(%rip)        # 21204b <s+0xb>
    56fc:	c6 05 48 c9 20 00 2b 	movb   $0x2b,0x20c948(%rip)        # 21204b <s+0xb>
    5703:	c6 05 5c c9 20 00 49 	movb   $0x49,0x20c95c(%rip)        # 212066 <s+0x26>
    570a:	c6 05 33 c9 20 00 48 	movb   $0x48,0x20c933(%rip)        # 212044 <s+0x4>
    5711:	c6 05 43 c9 20 00 56 	movb   $0x56,0x20c943(%rip)        # 21205b <s+0x1b>
    5718:	c6 05 2c c9 20 00 42 	movb   $0x42,0x20c92c(%rip)        # 21204b <s+0xb>
    571f:	c6 05 35 c9 20 00 38 	movb   $0x38,0x20c935(%rip)        # 21205b <s+0x1b>
    5726:	c6 05 38 c9 20 00 2d 	movb   $0x2d,0x20c938(%rip)        # 212065 <s+0x25>
    572d:	c6 05 16 c9 20 00 37 	movb   $0x37,0x20c916(%rip)        # 21204a <s+0xa>
    5734:	c6 05 1e c9 20 00 2e 	movb   $0x2e,0x20c91e(%rip)        # 212059 <s+0x19>
    573b:	c6 05 06 c9 20 00 46 	movb   $0x46,0x20c906(%rip)        # 212048 <s+0x8>
    5742:	c6 05 f8 c8 20 00 78 	movb   $0x78,0x20c8f8(%rip)        # 212041 <s+0x1>
    5749:	c6 05 0d c9 20 00 73 	movb   $0x73,0x20c90d(%rip)        # 21205d <s+0x1d>
    5750:	c6 05 f0 c8 20 00 2a 	movb   $0x2a,0x20c8f0(%rip)        # 212047 <s+0x7>
    5757:	c6 05 f8 c8 20 00 58 	movb   $0x58,0x20c8f8(%rip)        # 212056 <s+0x16>
    575e:	c6 05 df c8 20 00 53 	movb   $0x53,0x20c8df(%rip)        # 212044 <s+0x4>
    5765:	c6 05 e8 c8 20 00 7c 	movb   $0x7c,0x20c8e8(%rip)        # 212054 <s+0x14>
    576c:	c6 05 dd c8 20 00 4e 	movb   $0x4e,0x20c8dd(%rip)        # 212050 <s+0x10>
    5773:	c6 05 d7 c8 20 00 2e 	movb   $0x2e,0x20c8d7(%rip)        # 212051 <s+0x11>
    577a:	c6 05 c7 c8 20 00 4e 	movb   $0x4e,0x20c8c7(%rip)        # 212048 <s+0x8>
    5781:	c6 05 d2 c8 20 00 7c 	movb   $0x7c,0x20c8d2(%rip)        # 21205a <s+0x1a>
    5788:	c6 05 d6 c8 20 00 76 	movb   $0x76,0x20c8d6(%rip)        # 212065 <s+0x25>
    578f:	c6 05 c0 c8 20 00 26 	movb   $0x26,0x20c8c0(%rip)        # 212056 <s+0x16>
    5796:	c6 05 c5 c8 20 00 40 	movb   $0x40,0x20c8c5(%rip)        # 212062 <s+0x22>
    579d:	c6 05 bb c8 20 00 6c 	movb   $0x6c,0x20c8bb(%rip)        # 21205f <s+0x1f>
    57a4:	c6 05 95 c8 20 00 24 	movb   $0x24,0x20c895(%rip)        # 212040 <s>
    57ab:	c6 05 a0 c8 20 00 79 	movb   $0x79,0x20c8a0(%rip)        # 212052 <s+0x12>
    57b2:	c6 05 a3 c8 20 00 41 	movb   $0x41,0x20c8a3(%rip)        # 21205c <s+0x1c>
    57b9:	c6 05 86 c8 20 00 25 	movb   $0x25,0x20c886(%rip)        # 212046 <s+0x6>
    57c0:	c6 05 7d c8 20 00 54 	movb   $0x54,0x20c87d(%rip)        # 212044 <s+0x4>
    57c7:	c6 05 79 c8 20 00 55 	movb   $0x55,0x20c879(%rip)        # 212047 <s+0x7>
    57ce:	c6 05 7d c8 20 00 4e 	movb   $0x4e,0x20c87d(%rip)        # 212052 <s+0x12>
    57d5:	c6 05 84 c8 20 00 4b 	movb   $0x4b,0x20c884(%rip)        # 212060 <s+0x20>
    57dc:	c6 05 63 c8 20 00 6f 	movb   $0x6f,0x20c863(%rip)        # 212046 <s+0x6>
    57e3:	c6 05 59 c8 20 00 4b 	movb   $0x4b,0x20c859(%rip)        # 212043 <s+0x3>
    57ea:	c6 05 76 c8 20 00 77 	movb   $0x77,0x20c876(%rip)        # 212067 <s+0x27>
    57f1:	c6 05 4e c8 20 00 34 	movb   $0x34,0x20c84e(%rip)        # 212046 <s+0x6>
    57f8:	c6 05 43 c8 20 00 57 	movb   $0x57,0x20c843(%rip)        # 212042 <s+0x2>
    57ff:	c6 05 56 c8 20 00 3a 	movb   $0x3a,0x20c856(%rip)        # 21205c <s+0x1c>
    5806:	c6 05 54 c8 20 00 29 	movb   $0x29,0x20c854(%rip)        # 212061 <s+0x21>
    580d:	c6 05 3d c8 20 00 78 	movb   $0x78,0x20c83d(%rip)        # 212051 <s+0x11>
    5814:	c6 05 40 c8 20 00 49 	movb   $0x49,0x20c840(%rip)        # 21205b <s+0x1b>
    581b:	c6 05 23 c8 20 00 4e 	movb   $0x4e,0x20c823(%rip)        # 212045 <s+0x5>
    5822:	c6 05 28 c8 20 00 48 	movb   $0x48,0x20c828(%rip)        # 212051 <s+0x11>
    5829:	c6 05 22 c8 20 00 45 	movb   $0x45,0x20c822(%rip)        # 212052 <s+0x12>
    5830:	c6 05 23 c8 20 00 46 	movb   $0x46,0x20c823(%rip)        # 21205a <s+0x1a>
    5837:	c6 05 1c c8 20 00 3f 	movb   $0x3f,0x20c81c(%rip)        # 21205a <s+0x1a>
    583e:	c6 05 01 c8 20 00 7b 	movb   $0x7b,0x20c801(%rip)        # 212046 <s+0x6>
    5845:	c6 05 04 c8 20 00 44 	movb   $0x44,0x20c804(%rip)        # 212050 <s+0x10>
    584c:	c6 05 ee c7 20 00 42 	movb   $0x42,0x20c7ee(%rip)        # 212041 <s+0x1>
    5853:	c6 05 01 c8 20 00 6d 	movb   $0x6d,0x20c801(%rip)        # 21205b <s+0x1b>
    585a:	c6 05 f8 c7 20 00 5f 	movb   $0x5f,0x20c7f8(%rip)        # 212059 <s+0x19>
    5861:	c6 05 e9 c7 20 00 30 	movb   $0x30,0x20c7e9(%rip)        # 212051 <s+0x11>
    5868:	c6 05 f1 c7 20 00 21 	movb   $0x21,0x20c7f1(%rip)        # 212060 <s+0x20>
    586f:	c6 05 e2 c7 20 00 61 	movb   $0x61,0x20c7e2(%rip)        # 212058 <s+0x18>
    5876:	c6 05 dc c7 20 00 74 	movb   $0x74,0x20c7dc(%rip)        # 212059 <s+0x19>
    587d:	c6 05 d9 c7 20 00 6b 	movb   $0x6b,0x20c7d9(%rip)        # 21205d <s+0x1d>
    5884:	c6 05 bb c7 20 00 62 	movb   $0x62,0x20c7bb(%rip)        # 212046 <s+0x6>
    588b:	c6 05 b9 c7 20 00 6e 	movb   $0x6e,0x20c7b9(%rip)        # 21204b <s+0xb>
    5892:	c6 05 b2 c7 20 00 45 	movb   $0x45,0x20c7b2(%rip)        # 21204b <s+0xb>
    5899:	c6 05 a4 c7 20 00 32 	movb   $0x32,0x20c7a4(%rip)        # 212044 <s+0x4>
    58a0:	c6 05 a5 c7 20 00 5e 	movb   $0x5e,0x20c7a5(%rip)        # 21204c <s+0xc>
    58a7:	c6 05 ab c7 20 00 46 	movb   $0x46,0x20c7ab(%rip)        # 212059 <s+0x19>
    58ae:	c6 05 a7 c7 20 00 6b 	movb   $0x6b,0x20c7a7(%rip)        # 21205c <s+0x1c>
    58b5:	c6 05 a1 c7 20 00 40 	movb   $0x40,0x20c7a1(%rip)        # 21205d <s+0x1d>
    58bc:	c6 05 88 c7 20 00 35 	movb   $0x35,0x20c788(%rip)        # 21204b <s+0xb>
    58c3:	c6 05 77 c7 20 00 72 	movb   $0x72,0x20c777(%rip)        # 212041 <s+0x1>
    58ca:	c6 05 80 c7 20 00 7c 	movb   $0x7c,0x20c780(%rip)        # 212051 <s+0x11>
    58d1:	c6 05 73 c7 20 00 72 	movb   $0x72,0x20c773(%rip)        # 21204b <s+0xb>
    58d8:	c6 05 83 c7 20 00 6f 	movb   $0x6f,0x20c783(%rip)        # 212062 <s+0x22>
    58df:	c6 05 71 c7 20 00 78 	movb   $0x78,0x20c771(%rip)        # 212057 <s+0x17>
    58e6:	c6 05 5f c7 20 00 4e 	movb   $0x4e,0x20c75f(%rip)        # 21204c <s+0xc>
    58ed:	c6 05 4c c7 20 00 3d 	movb   $0x3d,0x20c74c(%rip)        # 212040 <s>
    58f4:	c6 05 53 c7 20 00 25 	movb   $0x25,0x20c753(%rip)        # 21204e <s+0xe>
    58fb:	c6 05 4c c7 20 00 38 	movb   $0x38,0x20c74c(%rip)        # 21204e <s+0xe>
    5902:	c6 05 53 c7 20 00 2b 	movb   $0x2b,0x20c753(%rip)        # 21205c <s+0x1c>
    5909:	c6 05 48 c7 20 00 59 	movb   $0x59,0x20c748(%rip)        # 212058 <s+0x18>
    5910:	c6 05 2b c7 20 00 6d 	movb   $0x6d,0x20c72b(%rip)        # 212042 <s+0x2>
    5917:	c6 05 42 c7 20 00 51 	movb   $0x51,0x20c742(%rip)        # 212060 <s+0x20>
    591e:	c6 05 3f c7 20 00 50 	movb   $0x50,0x20c73f(%rip)        # 212064 <s+0x24>
    5925:	c6 05 18 c7 20 00 2a 	movb   $0x2a,0x20c718(%rip)        # 212044 <s+0x4>
    592c:	c6 05 2e c7 20 00 4c 	movb   $0x4c,0x20c72e(%rip)        # 212061 <s+0x21>
    5933:	c6 05 1b c7 20 00 47 	movb   $0x47,0x20c71b(%rip)        # 212055 <s+0x15>
    593a:	c6 05 09 c7 20 00 63 	movb   $0x63,0x20c709(%rip)        # 21204a <s+0xa>
    5941:	c6 05 11 c7 20 00 58 	movb   $0x58,0x20c711(%rip)        # 212059 <s+0x19>
    5948:	c6 05 ff c6 20 00 57 	movb   $0x57,0x20c6ff(%rip)        # 21204e <s+0xe>
    594f:	c6 05 fc c6 20 00 25 	movb   $0x25,0x20c6fc(%rip)        # 212052 <s+0x12>
    5956:	c6 05 ec c6 20 00 42 	movb   $0x42,0x20c6ec(%rip)        # 212049 <s+0x9>
    595d:	c6 05 e1 c6 20 00 32 	movb   $0x32,0x20c6e1(%rip)        # 212045 <s+0x5>
    5964:	c6 05 f4 c6 20 00 65 	movb   $0x65,0x20c6f4(%rip)        # 21205f <s+0x1f>
    596b:	c6 05 f5 c6 20 00 3f 	movb   $0x3f,0x20c6f5(%rip)        # 212067 <s+0x27>
    5972:	c6 05 e3 c6 20 00 62 	movb   $0x62,0x20c6e3(%rip)        # 21205c <s+0x1c>
    5979:	c6 05 dd c6 20 00 26 	movb   $0x26,0x20c6dd(%rip)        # 21205d <s+0x1d>
    5980:	c6 05 cf c6 20 00 3e 	movb   $0x3e,0x20c6cf(%rip)        # 212056 <s+0x16>
    5987:	c6 05 ca c6 20 00 5e 	movb   $0x5e,0x20c6ca(%rip)        # 212058 <s+0x18>
    598e:	c6 05 bc c6 20 00 4f 	movb   $0x4f,0x20c6bc(%rip)        # 212051 <s+0x11>
    5995:	c6 05 ca c6 20 00 5a 	movb   $0x5a,0x20c6ca(%rip)        # 212066 <s+0x26>
    599c:	c6 05 bb c6 20 00 41 	movb   $0x41,0x20c6bb(%rip)        # 21205e <s+0x1e>
    59a3:	c6 05 98 c6 20 00 60 	movb   $0x60,0x20c698(%rip)        # 212042 <s+0x2>
    59aa:	c6 05 a4 c6 20 00 37 	movb   $0x37,0x20c6a4(%rip)        # 212055 <s+0x15>
    59b1:	c6 05 a0 c6 20 00 32 	movb   $0x32,0x20c6a0(%rip)        # 212058 <s+0x18>
    59b8:	c6 05 8a c6 20 00 54 	movb   $0x54,0x20c68a(%rip)        # 212049 <s+0x9>
    59bf:	c6 05 98 c6 20 00 33 	movb   $0x33,0x20c698(%rip)        # 21205e <s+0x1e>
    59c6:	c6 05 97 c6 20 00 52 	movb   $0x52,0x20c697(%rip)        # 212064 <s+0x24>
    59cd:	c6 05 73 c6 20 00 5a 	movb   $0x5a,0x20c673(%rip)        # 212047 <s+0x7>
    59d4:	c6 05 67 c6 20 00 40 	movb   $0x40,0x20c667(%rip)        # 212042 <s+0x2>
    59db:	c6 05 60 c6 20 00 52 	movb   $0x52,0x20c660(%rip)        # 212042 <s+0x2>
    59e2:	c6 05 69 c6 20 00 73 	movb   $0x73,0x20c669(%rip)        # 212052 <s+0x12>
    59e9:	c6 05 6c c6 20 00 6d 	movb   $0x6d,0x20c66c(%rip)        # 21205c <s+0x1c>
    59f0:	c6 05 59 c6 20 00 41 	movb   $0x41,0x20c659(%rip)        # 212050 <s+0x10>
    59f7:	c6 05 69 c6 20 00 7e 	movb   $0x7e,0x20c669(%rip)        # 212067 <s+0x27>
    59fe:	c6 05 56 c6 20 00 4a 	movb   $0x4a,0x20c656(%rip)        # 21205b <s+0x1b>
    5a05:	c6 05 58 c6 20 00 5f 	movb   $0x5f,0x20c658(%rip)        # 212064 <s+0x24>
    5a0c:	c6 05 46 c6 20 00 43 	movb   $0x43,0x20c646(%rip)        # 212059 <s+0x19>
    5a13:	c6 05 27 c6 20 00 3b 	movb   $0x3b,0x20c627(%rip)        # 212041 <s+0x1>
    5a1a:	c6 05 35 c6 20 00 58 	movb   $0x58,0x20c635(%rip)        # 212056 <s+0x16>
    5a21:	c6 05 1c c6 20 00 2c 	movb   $0x2c,0x20c61c(%rip)        # 212044 <s+0x4>
    5a28:	c6 05 31 c6 20 00 44 	movb   $0x44,0x20c631(%rip)        # 212060 <s+0x20>
    5a2f:	c6 05 21 c6 20 00 25 	movb   $0x25,0x20c621(%rip)        # 212057 <s+0x17>
    5a36:	c6 05 2a c6 20 00 78 	movb   $0x78,0x20c62a(%rip)        # 212067 <s+0x27>
    5a3d:	c6 05 fc c5 20 00 3a 	movb   $0x3a,0x20c5fc(%rip)        # 212040 <s>
    5a44:	c6 05 0f c6 20 00 6c 	movb   $0x6c,0x20c60f(%rip)        # 21205a <s+0x1a>
    5a4b:	c6 05 f7 c5 20 00 72 	movb   $0x72,0x20c5f7(%rip)        # 212049 <s+0x9>
    5a52:	c6 05 eb c5 20 00 77 	movb   $0x77,0x20c5eb(%rip)        # 212044 <s+0x4>
    5a59:	c6 05 fd c5 20 00 41 	movb   $0x41,0x20c5fd(%rip)        # 21205d <s+0x1d>
    5a60:	c6 05 e6 c5 20 00 65 	movb   $0x65,0x20c5e6(%rip)        # 21204d <s+0xd>
    5a67:	c6 05 e0 c5 20 00 6b 	movb   $0x6b,0x20c5e0(%rip)        # 21204e <s+0xe>
    5a6e:	c6 05 f0 c5 20 00 6e 	movb   $0x6e,0x20c5f0(%rip)        # 212065 <s+0x25>
    5a75:	c6 05 eb c5 20 00 6c 	movb   $0x6c,0x20c5eb(%rip)        # 212067 <s+0x27>
    5a7c:	c6 05 e2 c5 20 00 3c 	movb   $0x3c,0x20c5e2(%rip)        # 212065 <s+0x25>
    5a83:	c6 05 d5 c5 20 00 5b 	movb   $0x5b,0x20c5d5(%rip)        # 21205f <s+0x1f>
    5a8a:	c6 05 cb c5 20 00 46 	movb   $0x46,0x20c5cb(%rip)        # 21205c <s+0x1c>
    5a91:	c6 05 b4 c5 20 00 3c 	movb   $0x3c,0x20c5b4(%rip)        # 21204c <s+0xc>
    5a98:	c6 05 b2 c5 20 00 3f 	movb   $0x3f,0x20c5b2(%rip)        # 212051 <s+0x11>
    5a9f:	c6 05 9f c5 20 00 63 	movb   $0x63,0x20c59f(%rip)        # 212045 <s+0x5>
    5aa6:	c6 05 a6 c5 20 00 58 	movb   $0x58,0x20c5a6(%rip)        # 212053 <s+0x13>
    5aad:	c6 05 9e c5 20 00 72 	movb   $0x72,0x20c59e(%rip)        # 212052 <s+0x12>
    5ab4:	c6 05 9a c5 20 00 2b 	movb   $0x2b,0x20c59a(%rip)        # 212055 <s+0x15>
    5abb:	c6 05 8b c5 20 00 30 	movb   $0x30,0x20c58b(%rip)        # 21204d <s+0xd>
    5ac2:	c6 05 99 c5 20 00 29 	movb   $0x29,0x20c599(%rip)        # 212062 <s+0x22>
    5ac9:	c6 05 84 c5 20 00 32 	movb   $0x32,0x20c584(%rip)        # 212054 <s+0x14>
    5ad0:	c6 05 85 c5 20 00 4f 	movb   $0x4f,0x20c585(%rip)        # 21205c <s+0x1c>
    5ad7:	c6 05 6a c5 20 00 51 	movb   $0x51,0x20c56a(%rip)        # 212048 <s+0x8>
    5ade:	c6 05 62 c5 20 00 75 	movb   $0x75,0x20c562(%rip)        # 212047 <s+0x7>
    5ae5:	c6 05 5f c5 20 00 2d 	movb   $0x2d,0x20c55f(%rip)        # 21204b <s+0xb>
    5aec:	c6 05 57 c5 20 00 28 	movb   $0x28,0x20c557(%rip)        # 21204a <s+0xa>
    5af3:	c6 05 65 c5 20 00 66 	movb   $0x66,0x20c565(%rip)        # 21205f <s+0x1f>
    5afa:	c6 05 50 c5 20 00 21 	movb   $0x21,0x20c550(%rip)        # 212051 <s+0x11>
    5b01:	c6 05 4f c5 20 00 4e 	movb   $0x4e,0x20c54f(%rip)        # 212057 <s+0x17>
    5b08:	c6 05 4b c5 20 00 4f 	movb   $0x4f,0x20c54b(%rip)        # 21205a <s+0x1a>
    5b0f:	c6 05 2f c5 20 00 4b 	movb   $0x4b,0x20c52f(%rip)        # 212045 <s+0x5>
    5b16:	c6 05 39 c5 20 00 2b 	movb   $0x2b,0x20c539(%rip)        # 212056 <s+0x16>
    5b1d:	c6 05 2d c5 20 00 57 	movb   $0x57,0x20c52d(%rip)        # 212051 <s+0x11>
    5b24:	c6 05 30 c5 20 00 34 	movb   $0x34,0x20c530(%rip)        # 21205b <s+0x1b>
    5b2b:	c6 05 0e c5 20 00 7e 	movb   $0x7e,0x20c50e(%rip)        # 212040 <s>
    5b32:	c6 05 1b c5 20 00 6a 	movb   $0x6a,0x20c51b(%rip)        # 212054 <s+0x14>
    5b39:	c6 05 16 c5 20 00 68 	movb   $0x68,0x20c516(%rip)        # 212056 <s+0x16>
    5b40:	c6 05 00 c5 20 00 22 	movb   $0x22,0x20c500(%rip)        # 212047 <s+0x7>
    5b47:	c6 05 fe c4 20 00 7a 	movb   $0x7a,0x20c4fe(%rip)        # 21204c <s+0xc>
    5b4e:	c6 05 f6 c4 20 00 25 	movb   $0x25,0x20c4f6(%rip)        # 21204b <s+0xb>
    5b55:	c6 05 f8 c4 20 00 4d 	movb   $0x4d,0x20c4f8(%rip)        # 212054 <s+0x14>
    5b5c:	c6 05 eb c4 20 00 7e 	movb   $0x7e,0x20c4eb(%rip)        # 21204e <s+0xe>
    5b63:	c6 05 e4 c4 20 00 6a 	movb   $0x6a,0x20c4e4(%rip)        # 21204e <s+0xe>
    5b6a:	c6 05 db c4 20 00 52 	movb   $0x52,0x20c4db(%rip)        # 21204c <s+0xc>
    5b71:	c6 05 d9 c4 20 00 21 	movb   $0x21,0x20c4d9(%rip)        # 212051 <s+0x11>
    5b78:	c6 05 cf c4 20 00 56 	movb   $0x56,0x20c4cf(%rip)        # 21204e <s+0xe>
    5b7f:	c6 05 e0 c4 20 00 32 	movb   $0x32,0x20c4e0(%rip)        # 212066 <s+0x26>
    5b86:	c6 05 c3 c4 20 00 31 	movb   $0x31,0x20c4c3(%rip)        # 212050 <s+0x10>
    5b8d:	c6 05 bd c4 20 00 37 	movb   $0x37,0x20c4bd(%rip)        # 212051 <s+0x11>
    5b94:	c6 05 b6 c4 20 00 7d 	movb   $0x7d,0x20c4b6(%rip)        # 212051 <s+0x11>
    5b9b:	c6 05 a8 c4 20 00 6b 	movb   $0x6b,0x20c4a8(%rip)        # 21204a <s+0xa>
    5ba2:	c6 05 9e c4 20 00 60 	movb   $0x60,0x20c49e(%rip)        # 212047 <s+0x7>
    5ba9:	c6 05 98 c4 20 00 2e 	movb   $0x2e,0x20c498(%rip)        # 212048 <s+0x8>
    5bb0:	c6 05 8f c4 20 00 78 	movb   $0x78,0x20c48f(%rip)        # 212046 <s+0x6>
    5bb7:	c6 05 90 c4 20 00 32 	movb   $0x32,0x20c490(%rip)        # 21204e <s+0xe>
    5bbe:	c6 05 9f c4 20 00 53 	movb   $0x53,0x20c49f(%rip)        # 212064 <s+0x24>
    5bc5:	c6 05 81 c4 20 00 4f 	movb   $0x4f,0x20c481(%rip)        # 21204d <s+0xd>
    5bcc:	c6 05 73 c4 20 00 7e 	movb   $0x7e,0x20c473(%rip)        # 212046 <s+0x6>
    5bd3:	c6 05 6c c4 20 00 65 	movb   $0x65,0x20c46c(%rip)        # 212046 <s+0x6>
    5bda:	c6 05 6c c4 20 00 56 	movb   $0x56,0x20c46c(%rip)        # 21204d <s+0xd>
    5be1:	c6 05 61 c4 20 00 59 	movb   $0x59,0x20c461(%rip)        # 212049 <s+0x9>
    5be8:	c6 05 6a c4 20 00 69 	movb   $0x69,0x20c46a(%rip)        # 212059 <s+0x19>
    5bef:	c6 05 50 c4 20 00 7e 	movb   $0x7e,0x20c450(%rip)        # 212046 <s+0x6>
    5bf6:	c6 05 46 c4 20 00 5b 	movb   $0x5b,0x20c446(%rip)        # 212043 <s+0x3>
    5bfd:	c6 05 63 c4 20 00 79 	movb   $0x79,0x20c463(%rip)        # 212067 <s+0x27>
    5c04:	c6 05 48 c4 20 00 35 	movb   $0x35,0x20c448(%rip)        # 212053 <s+0x13>
    5c0b:	c6 05 36 c4 20 00 4a 	movb   $0x4a,0x20c436(%rip)        # 212048 <s+0x8>
    5c12:	c6 05 30 c4 20 00 6d 	movb   $0x6d,0x20c430(%rip)        # 212049 <s+0x9>
    5c19:	c6 05 3f c4 20 00 3c 	movb   $0x3c,0x20c43f(%rip)        # 21205f <s+0x1f>
    5c20:	c6 05 3e c4 20 00 41 	movb   $0x41,0x20c43e(%rip)        # 212065 <s+0x25>
    5c27:	c6 05 38 c4 20 00 5d 	movb   $0x5d,0x20c438(%rip)        # 212066 <s+0x26>
    5c2e:	c6 05 31 c4 20 00 61 	movb   $0x61,0x20c431(%rip)        # 212066 <s+0x26>
    5c35:	c6 05 1a c4 20 00 2a 	movb   $0x2a,0x20c41a(%rip)        # 212056 <s+0x16>
    5c3c:	c6 05 20 c4 20 00 36 	movb   $0x36,0x20c420(%rip)        # 212063 <s+0x23>
    5c43:	c6 05 08 c4 20 00 4b 	movb   $0x4b,0x20c408(%rip)        # 212052 <s+0x12>
    5c4a:	c6 05 ff c3 20 00 73 	movb   $0x73,0x20c3ff(%rip)        # 212050 <s+0x10>
    5c51:	c6 05 f7 c3 20 00 62 	movb   $0x62,0x20c3f7(%rip)        # 21204f <s+0xf>
    5c58:	c6 05 e4 c3 20 00 7a 	movb   $0x7a,0x20c3e4(%rip)        # 212043 <s+0x3>
    5c5f:	c6 05 f0 c3 20 00 43 	movb   $0x43,0x20c3f0(%rip)        # 212056 <s+0x16>
    5c66:	c6 05 e3 c3 20 00 4b 	movb   $0x4b,0x20c3e3(%rip)        # 212050 <s+0x10>
    5c6d:	c6 05 ce c3 20 00 57 	movb   $0x57,0x20c3ce(%rip)        # 212042 <s+0x2>
    5c74:	c6 05 c8 c3 20 00 4c 	movb   $0x4c,0x20c3c8(%rip)        # 212043 <s+0x3>
    5c7b:	c6 05 ce c3 20 00 44 	movb   $0x44,0x20c3ce(%rip)        # 212050 <s+0x10>
    5c82:	c6 05 d5 c3 20 00 65 	movb   $0x65,0x20c3d5(%rip)        # 21205e <s+0x1e>
    5c89:	c6 05 c4 c3 20 00 3f 	movb   $0x3f,0x20c3c4(%rip)        # 212054 <s+0x14>
    5c90:	c6 05 b3 c3 20 00 73 	movb   $0x73,0x20c3b3(%rip)        # 21204a <s+0xa>
    5c97:	c6 05 c5 c3 20 00 6e 	movb   $0x6e,0x20c3c5(%rip)        # 212063 <s+0x23>
    5c9e:	c6 05 a3 c3 20 00 7e 	movb   $0x7e,0x20c3a3(%rip)        # 212048 <s+0x8>
    5ca5:	c6 05 95 c3 20 00 47 	movb   $0x47,0x20c395(%rip)        # 212041 <s+0x1>
    5cac:	c6 05 93 c3 20 00 57 	movb   $0x57,0x20c393(%rip)        # 212046 <s+0x6>
    5cb3:	c6 05 8b c3 20 00 32 	movb   $0x32,0x20c38b(%rip)        # 212045 <s+0x5>
    5cba:	c6 05 a4 c3 20 00 59 	movb   $0x59,0x20c3a4(%rip)        # 212065 <s+0x25>
    5cc1:	c6 05 8c c3 20 00 63 	movb   $0x63,0x20c38c(%rip)        # 212054 <s+0x14>
    5cc8:	c6 05 77 c3 20 00 25 	movb   $0x25,0x20c377(%rip)        # 212046 <s+0x6>
    5ccf:	c6 05 91 c3 20 00 7c 	movb   $0x7c,0x20c391(%rip)        # 212067 <s+0x27>
    5cd6:	c6 05 6f c3 20 00 79 	movb   $0x79,0x20c36f(%rip)        # 21204c <s+0xc>
    5cdd:	c6 05 6c c3 20 00 7b 	movb   $0x7b,0x20c36c(%rip)        # 212050 <s+0x10>
    5ce4:	c6 05 66 c3 20 00 55 	movb   $0x55,0x20c366(%rip)        # 212051 <s+0x11>
    5ceb:	c6 05 68 c3 20 00 6d 	movb   $0x6d,0x20c368(%rip)        # 21205a <s+0x1a>
    5cf2:	c6 05 54 c3 20 00 45 	movb   $0x45,0x20c354(%rip)        # 21204d <s+0xd>
    5cf9:	c6 05 45 c3 20 00 3b 	movb   $0x3b,0x20c345(%rip)        # 212045 <s+0x5>
    5d00:	c6 05 56 c3 20 00 2b 	movb   $0x2b,0x20c356(%rip)        # 21205d <s+0x1d>
    5d07:	c6 05 56 c3 20 00 22 	movb   $0x22,0x20c356(%rip)        # 212064 <s+0x24>
    5d0e:	c6 05 4b c3 20 00 45 	movb   $0x45,0x20c34b(%rip)        # 212060 <s+0x20>
    5d15:	c6 05 2e c3 20 00 51 	movb   $0x51,0x20c32e(%rip)        # 21204a <s+0xa>
    5d1c:	c6 05 3e c3 20 00 53 	movb   $0x53,0x20c33e(%rip)        # 212061 <s+0x21>
    5d23:	c6 05 25 c3 20 00 51 	movb   $0x51,0x20c325(%rip)        # 21204f <s+0xf>
    5d2a:	c6 05 27 c3 20 00 6c 	movb   $0x6c,0x20c327(%rip)        # 212058 <s+0x18>
    5d31:	c6 05 1f c3 20 00 57 	movb   $0x57,0x20c31f(%rip)        # 212057 <s+0x17>
    5d38:	c6 05 01 c3 20 00 35 	movb   $0x35,0x20c301(%rip)        # 212040 <s>
    5d3f:	c6 05 18 c3 20 00 2c 	movb   $0x2c,0x20c318(%rip)        # 21205e <s+0x1e>
    5d46:	c6 05 fb c2 20 00 45 	movb   $0x45,0x20c2fb(%rip)        # 212048 <s+0x8>
    5d4d:	c6 05 f5 c2 20 00 43 	movb   $0x43,0x20c2f5(%rip)        # 212049 <s+0x9>
    5d54:	c6 05 0c c3 20 00 4d 	movb   $0x4d,0x20c30c(%rip)        # 212067 <s+0x27>
    5d5b:	c6 05 eb c2 20 00 2d 	movb   $0x2d,0x20c2eb(%rip)        # 21204d <s+0xd>
    5d62:	c6 05 ec c2 20 00 35 	movb   $0x35,0x20c2ec(%rip)        # 212055 <s+0x15>
    5d69:	c6 05 e1 c2 20 00 5f 	movb   $0x5f,0x20c2e1(%rip)        # 212051 <s+0x11>
    5d70:	c6 05 ca c2 20 00 68 	movb   $0x68,0x20c2ca(%rip)        # 212041 <s+0x1>
    5d77:	c6 05 d1 c2 20 00 42 	movb   $0x42,0x20c2d1(%rip)        # 21204f <s+0xf>
    5d7e:	c6 05 d6 c2 20 00 59 	movb   $0x59,0x20c2d6(%rip)        # 21205b <s+0x1b>
    5d85:	c6 05 c8 c2 20 00 5e 	movb   $0x5e,0x20c2c8(%rip)        # 212054 <s+0x14>
    5d8c:	c6 05 b5 c2 20 00 50 	movb   $0x50,0x20c2b5(%rip)        # 212048 <s+0x8>
    5d93:	c6 05 a7 c2 20 00 38 	movb   $0x38,0x20c2a7(%rip)        # 212041 <s+0x1>
    5d9a:	c6 05 c2 c2 20 00 35 	movb   $0x35,0x20c2c2(%rip)        # 212063 <s+0x23>
    5da1:	c6 05 be c2 20 00 64 	movb   $0x64,0x20c2be(%rip)        # 212066 <s+0x26>
    5da8:	c6 05 ab c2 20 00 54 	movb   $0x54,0x20c2ab(%rip)        # 21205a <s+0x1a>
    5daf:	c6 05 ae c2 20 00 20 	movb   $0x20,0x20c2ae(%rip)        # 212064 <s+0x24>
    5db6:	c6 05 a3 c2 20 00 6d 	movb   $0x6d,0x20c2a3(%rip)        # 212060 <s+0x20>
    5dbd:	c6 05 8c c2 20 00 67 	movb   $0x67,0x20c28c(%rip)        # 212050 <s+0x10>
    5dc4:	c6 05 9a c2 20 00 4a 	movb   $0x4a,0x20c29a(%rip)        # 212065 <s+0x25>
    5dcb:	c6 05 79 c2 20 00 43 	movb   $0x43,0x20c279(%rip)        # 21204b <s+0xb>
    5dd2:	c6 05 70 c2 20 00 6b 	movb   $0x6b,0x20c270(%rip)        # 212049 <s+0x9>
    5dd9:	c6 05 65 c2 20 00 23 	movb   $0x23,0x20c265(%rip)        # 212045 <s+0x5>
    5de0:	c6 05 6e c2 20 00 20 	movb   $0x20,0x20c26e(%rip)        # 212055 <s+0x15>
    5de7:	c6 05 5b c2 20 00 71 	movb   $0x71,0x20c25b(%rip)        # 212049 <s+0x9>
    5dee:	c6 05 56 c2 20 00 2c 	movb   $0x2c,0x20c256(%rip)        # 21204b <s+0xb>
    5df5:	c6 05 6a c2 20 00 36 	movb   $0x36,0x20c26a(%rip)        # 212066 <s+0x26>
    5dfc:	c6 05 57 c2 20 00 53 	movb   $0x53,0x20c257(%rip)        # 21205a <s+0x1a>
    5e03:	c6 05 54 c2 20 00 30 	movb   $0x30,0x20c254(%rip)        # 21205e <s+0x1e>
    5e0a:	c6 05 30 c2 20 00 31 	movb   $0x31,0x20c230(%rip)        # 212041 <s+0x1>
    5e11:	c6 05 3c c2 20 00 26 	movb   $0x26,0x20c23c(%rip)        # 212054 <s+0x14>
    5e18:	c6 05 25 c2 20 00 3c 	movb   $0x3c,0x20c225(%rip)        # 212044 <s+0x4>
    5e1f:	c6 05 21 c2 20 00 41 	movb   $0x41,0x20c221(%rip)        # 212047 <s+0x7>
    5e26:	c6 05 24 c2 20 00 22 	movb   $0x22,0x20c224(%rip)        # 212051 <s+0x11>
    5e2d:	c6 05 23 c2 20 00 38 	movb   $0x38,0x20c223(%rip)        # 212057 <s+0x17>
    5e34:	c6 05 2b c2 20 00 42 	movb   $0x42,0x20c22b(%rip)        # 212066 <s+0x26>
    5e3b:	c6 05 0a c2 20 00 5e 	movb   $0x5e,0x20c20a(%rip)        # 21204c <s+0xc>
    5e42:	c6 05 06 c2 20 00 6a 	movb   $0x6a,0x20c206(%rip)        # 21204f <s+0xf>
    5e49:	c6 05 02 c2 20 00 58 	movb   $0x58,0x20c202(%rip)        # 212052 <s+0x12>
    5e50:	c6 05 02 c2 20 00 73 	movb   $0x73,0x20c202(%rip)        # 212059 <s+0x19>
    5e57:	c6 05 e7 c1 20 00 26 	movb   $0x26,0x20c1e7(%rip)        # 212045 <s+0x5>
    5e5e:	c6 05 fe c1 20 00 48 	movb   $0x48,0x20c1fe(%rip)        # 212063 <s+0x23>
    5e65:	c6 05 f8 c1 20 00 66 	movb   $0x66,0x20c1f8(%rip)        # 212064 <s+0x24>
    5e6c:	c6 05 e6 c1 20 00 24 	movb   $0x24,0x20c1e6(%rip)        # 212059 <s+0x19>
    5e73:	c6 05 db c1 20 00 5f 	movb   $0x5f,0x20c1db(%rip)        # 212055 <s+0x15>
    5e7a:	c6 05 e2 c1 20 00 56 	movb   $0x56,0x20c1e2(%rip)        # 212063 <s+0x23>
    5e81:	c6 05 d4 c1 20 00 51 	movb   $0x51,0x20c1d4(%rip)        # 21205c <s+0x1c>
    5e88:	c6 05 b4 c1 20 00 53 	movb   $0x53,0x20c1b4(%rip)        # 212043 <s+0x3>
    5e8f:	c6 05 cb c1 20 00 3e 	movb   $0x3e,0x20c1cb(%rip)        # 212061 <s+0x21>
    5e96:	c6 05 a7 c1 20 00 2c 	movb   $0x2c,0x20c1a7(%rip)        # 212044 <s+0x4>
    5e9d:	c6 05 b1 c1 20 00 40 	movb   $0x40,0x20c1b1(%rip)        # 212055 <s+0x15>
    5ea4:	c6 05 9f c1 20 00 60 	movb   $0x60,0x20c19f(%rip)        # 21204a <s+0xa>
    5eab:	c6 05 9d c1 20 00 32 	movb   $0x32,0x20c19d(%rip)        # 21204f <s+0xf>
    5eb2:	c6 05 8e c1 20 00 76 	movb   $0x76,0x20c18e(%rip)        # 212047 <s+0x7>
    5eb9:	c6 05 90 c1 20 00 36 	movb   $0x36,0x20c190(%rip)        # 212050 <s+0x10>
    5ec0:	c6 05 91 c1 20 00 7c 	movb   $0x7c,0x20c191(%rip)        # 212058 <s+0x18>
    5ec7:	c6 05 93 c1 20 00 39 	movb   $0x39,0x20c193(%rip)        # 212061 <s+0x21>
    5ece:	c6 05 6c c1 20 00 40 	movb   $0x40,0x20c16c(%rip)        # 212041 <s+0x1>
    5ed5:	c6 05 82 c1 20 00 6c 	movb   $0x6c,0x20c182(%rip)        # 21205e <s+0x1e>
    5edc:	c6 05 70 c1 20 00 46 	movb   $0x46,0x20c170(%rip)        # 212053 <s+0x13>
    5ee3:	c6 05 76 c1 20 00 52 	movb   $0x52,0x20c176(%rip)        # 212060 <s+0x20>
    5eea:	c6 05 73 c1 20 00 2e 	movb   $0x2e,0x20c173(%rip)        # 212064 <s+0x24>
    5ef1:	c6 05 5d c1 20 00 39 	movb   $0x39,0x20c15d(%rip)        # 212055 <s+0x15>
    5ef8:	c6 05 4f c1 20 00 2f 	movb   $0x2f,0x20c14f(%rip)        # 21204e <s+0xe>
    5eff:	c6 05 48 c1 20 00 3f 	movb   $0x3f,0x20c148(%rip)        # 21204e <s+0xe>
    5f06:	c6 05 4e c1 20 00 65 	movb   $0x65,0x20c14e(%rip)        # 21205b <s+0x1b>
    5f0d:	c6 05 31 c1 20 00 21 	movb   $0x21,0x20c131(%rip)        # 212045 <s+0x5>
    5f14:	c6 05 4c c1 20 00 3c 	movb   $0x3c,0x20c14c(%rip)        # 212067 <s+0x27>
    5f1b:	c6 05 3d c1 20 00 6d 	movb   $0x6d,0x20c13d(%rip)        # 21205f <s+0x1f>
    5f22:	c6 05 1f c1 20 00 51 	movb   $0x51,0x20c11f(%rip)        # 212048 <s+0x8>
    5f29:	c6 05 2e c1 20 00 6f 	movb   $0x6f,0x20c12e(%rip)        # 21205e <s+0x1e>
    5f30:	c6 05 18 c1 20 00 2f 	movb   $0x2f,0x20c118(%rip)        # 21204f <s+0xf>
    5f37:	c6 05 1a c1 20 00 50 	movb   $0x50,0x20c11a(%rip)        # 212058 <s+0x18>
    5f3e:	c6 05 1f c1 20 00 48 	movb   $0x48,0x20c11f(%rip)        # 212064 <s+0x24>
    5f45:	c6 05 fc c0 20 00 6f 	movb   $0x6f,0x20c0fc(%rip)        # 212048 <s+0x8>
    5f4c:	c6 05 0c c1 20 00 4b 	movb   $0x4b,0x20c10c(%rip)        # 21205f <s+0x1f>
    5f53:	c6 05 e7 c0 20 00 6f 	movb   $0x6f,0x20c0e7(%rip)        # 212041 <s+0x1>
    5f5a:	c6 05 04 c1 20 00 6f 	movb   $0x6f,0x20c104(%rip)        # 212065 <s+0x25>
    5f61:	c6 05 e8 c0 20 00 29 	movb   $0x29,0x20c0e8(%rip)        # 212050 <s+0x10>
    5f68:	c6 05 df c0 20 00 42 	movb   $0x42,0x20c0df(%rip)        # 21204e <s+0xe>
    5f6f:	c6 05 d8 c0 20 00 7a 	movb   $0x7a,0x20c0d8(%rip)        # 21204e <s+0xe>
    5f76:	c6 05 ea c0 20 00 4d 	movb   $0x4d,0x20c0ea(%rip)        # 212067 <s+0x27>
    5f7d:	c6 05 da c0 20 00 30 	movb   $0x30,0x20c0da(%rip)        # 21205e <s+0x1e>
    5f84:	c6 05 da c0 20 00 73 	movb   $0x73,0x20c0da(%rip)        # 212065 <s+0x25>
    5f8b:	c6 05 b0 c0 20 00 62 	movb   $0x62,0x20c0b0(%rip)        # 212042 <s+0x2>
    5f92:	c6 05 c8 c0 20 00 68 	movb   $0x68,0x20c0c8(%rip)        # 212061 <s+0x21>
    5f99:	c6 05 b3 c0 20 00 6c 	movb   $0x6c,0x20c0b3(%rip)        # 212053 <s+0x13>
    5fa0:	c6 05 a6 c0 20 00 72 	movb   $0x72,0x20c0a6(%rip)        # 21204d <s+0xd>
    5fa7:	c6 05 b5 c0 20 00 78 	movb   $0x78,0x20c0b5(%rip)        # 212063 <s+0x23>
    5fae:	c6 05 a9 c0 20 00 20 	movb   $0x20,0x20c0a9(%rip)        # 21205e <s+0x1e>
    5fb5:	c6 05 85 c0 20 00 7c 	movb   $0x7c,0x20c085(%rip)        # 212041 <s+0x1>
    5fbc:	c6 05 92 c0 20 00 56 	movb   $0x56,0x20c092(%rip)        # 212055 <s+0x15>
    5fc3:	c6 05 92 c0 20 00 7d 	movb   $0x7d,0x20c092(%rip)        # 21205c <s+0x1c>
    5fca:	c6 05 8b c0 20 00 35 	movb   $0x35,0x20c08b(%rip)        # 21205c <s+0x1c>
    5fd1:	c6 05 8b c0 20 00 7d 	movb   $0x7d,0x20c08b(%rip)        # 212063 <s+0x23>
    5fd8:	c6 05 71 c0 20 00 5e 	movb   $0x5e,0x20c071(%rip)        # 212050 <s+0x10>
    5fdf:	c6 05 7d c0 20 00 3e 	movb   $0x3e,0x20c07d(%rip)        # 212063 <s+0x23>
    5fe6:	c6 05 5d c0 20 00 3e 	movb   $0x3e,0x20c05d(%rip)        # 21204a <s+0xa>
    5fed:	c6 05 5a c0 20 00 25 	movb   $0x25,0x20c05a(%rip)        # 21204e <s+0xe>
    5ff4:	c6 05 61 c0 20 00 6b 	movb   $0x6b,0x20c061(%rip)        # 21205c <s+0x1c>
    5ffb:	c6 05 4b c0 20 00 74 	movb   $0x74,0x20c04b(%rip)        # 21204d <s+0xd>
    6002:	c6 05 51 c0 20 00 7e 	movb   $0x7e,0x20c051(%rip)        # 21205a <s+0x1a>
    6009:	c6 05 3c c0 20 00 6f 	movb   $0x6f,0x20c03c(%rip)        # 21204c <s+0xc>
    6010:	c6 05 43 c0 20 00 59 	movb   $0x59,0x20c043(%rip)        # 21205a <s+0x1a>
    6017:	c6 05 48 c0 20 00 2a 	movb   $0x2a,0x20c048(%rip)        # 212066 <s+0x26>
    601e:	c6 05 35 c0 20 00 32 	movb   $0x32,0x20c035(%rip)        # 21205a <s+0x1a>
    6025:	c6 05 1b c0 20 00 5f 	movb   $0x5f,0x20c01b(%rip)        # 212047 <s+0x7>
    602c:	c6 05 0f c0 20 00 31 	movb   $0x31,0x20c00f(%rip)        # 212042 <s+0x2>
    6033:	c6 05 1c c0 20 00 6e 	movb   $0x6e,0x20c01c(%rip)        # 212056 <s+0x16>
    603a:	c6 05 11 c0 20 00 7e 	movb   $0x7e,0x20c011(%rip)        # 212052 <s+0x12>
    6041:	c6 05 1f c0 20 00 7d 	movb   $0x7d,0x20c01f(%rip)        # 212067 <s+0x27>
    6048:	c6 05 f5 bf 20 00 7e 	movb   $0x7e,0x20bff5(%rip)        # 212044 <s+0x4>
    604f:	c6 05 fd bf 20 00 4c 	movb   $0x4c,0x20bffd(%rip)        # 212053 <s+0x13>
    6056:	c6 05 0a c0 20 00 5b 	movb   $0x5b,0x20c00a(%rip)        # 212067 <s+0x27>
    605d:	c6 05 e1 bf 20 00 3b 	movb   $0x3b,0x20bfe1(%rip)        # 212045 <s+0x5>
    6064:	c6 05 fb bf 20 00 72 	movb   $0x72,0x20bffb(%rip)        # 212066 <s+0x26>
    606b:	c6 05 f1 bf 20 00 7e 	movb   $0x7e,0x20bff1(%rip)        # 212063 <s+0x23>
    6072:	c6 05 d2 bf 20 00 25 	movb   $0x25,0x20bfd2(%rip)        # 21204b <s+0xb>
    6079:	c6 05 d9 bf 20 00 79 	movb   $0x79,0x20bfd9(%rip)        # 212059 <s+0x19>
    6080:	c6 05 d6 bf 20 00 33 	movb   $0x33,0x20bfd6(%rip)        # 21205d <s+0x1d>
    6087:	c6 05 b7 bf 20 00 38 	movb   $0x38,0x20bfb7(%rip)        # 212045 <s+0x5>
    608e:	c6 05 cd bf 20 00 42 	movb   $0x42,0x20bfcd(%rip)        # 212062 <s+0x22>
    6095:	c6 05 c4 bf 20 00 76 	movb   $0x76,0x20bfc4(%rip)        # 212060 <s+0x20>
    609c:	c6 05 b1 bf 20 00 28 	movb   $0x28,0x20bfb1(%rip)        # 212054 <s+0x14>
    60a3:	c6 05 9f bf 20 00 5a 	movb   $0x5a,0x20bf9f(%rip)        # 212049 <s+0x9>
    60aa:	c6 05 9f bf 20 00 68 	movb   $0x68,0x20bf9f(%rip)        # 212050 <s+0x10>
    60b1:	c6 05 97 bf 20 00 4b 	movb   $0x4b,0x20bf97(%rip)        # 21204f <s+0xf>
    60b8:	c6 05 94 bf 20 00 21 	movb   $0x21,0x20bf94(%rip)        # 212053 <s+0x13>
    60bf:	c6 05 8c bf 20 00 25 	movb   $0x25,0x20bf8c(%rip)        # 212052 <s+0x12>
    60c6:	c6 05 93 bf 20 00 60 	movb   $0x60,0x20bf93(%rip)        # 212060 <s+0x20>
    60cd:	c6 05 8e bf 20 00 58 	movb   $0x58,0x20bf8e(%rip)        # 212062 <s+0x22>
    60d4:	c6 05 71 bf 20 00 48 	movb   $0x48,0x20bf71(%rip)        # 21204c <s+0xc>
    60db:	c6 05 6e bf 20 00 2b 	movb   $0x2b,0x20bf6e(%rip)        # 212050 <s+0x10>
    60e2:	c6 05 70 bf 20 00 34 	movb   $0x34,0x20bf70(%rip)        # 212059 <s+0x19>
    60e9:	c6 05 64 bf 20 00 35 	movb   $0x35,0x20bf64(%rip)        # 212054 <s+0x14>
    60f0:	c6 05 5e bf 20 00 6b 	movb   $0x6b,0x20bf5e(%rip)        # 212055 <s+0x15>
    60f7:	c6 05 62 bf 20 00 75 	movb   $0x75,0x20bf62(%rip)        # 212060 <s+0x20>
    60fe:	c6 05 58 bf 20 00 2c 	movb   $0x2c,0x20bf58(%rip)        # 21205d <s+0x1d>
    6105:	c6 05 44 bf 20 00 3b 	movb   $0x3b,0x20bf44(%rip)        # 212050 <s+0x10>
    610c:	c6 05 39 bf 20 00 20 	movb   $0x20,0x20bf39(%rip)        # 21204c <s+0xc>
    6113:	c6 05 2a bf 20 00 60 	movb   $0x60,0x20bf2a(%rip)        # 212044 <s+0x4>
    611a:	c6 05 30 bf 20 00 22 	movb   $0x22,0x20bf30(%rip)        # 212051 <s+0x11>
    6121:	c6 05 1a bf 20 00 41 	movb   $0x41,0x20bf1a(%rip)        # 212042 <s+0x2>
    6128:	c6 05 12 bf 20 00 3a 	movb   $0x3a,0x20bf12(%rip)        # 212041 <s+0x1>
    612f:	c6 05 31 bf 20 00 4f 	movb   $0x4f,0x20bf31(%rip)        # 212067 <s+0x27>
    6136:	c6 05 21 bf 20 00 5a 	movb   $0x5a,0x20bf21(%rip)        # 21205e <s+0x1e>
    613d:	c6 05 1f bf 20 00 49 	movb   $0x49,0x20bf1f(%rip)        # 212063 <s+0x23>
    6144:	c6 05 0b bf 20 00 7d 	movb   $0x7d,0x20bf0b(%rip)        # 212056 <s+0x16>
    614b:	c6 05 ee be 20 00 53 	movb   $0x53,0x20beee(%rip)        # 212040 <s>
    6152:	c6 05 08 bf 20 00 6e 	movb   $0x6e,0x20bf08(%rip)        # 212061 <s+0x21>
    6159:	c6 05 f8 be 20 00 77 	movb   $0x77,0x20bef8(%rip)        # 212058 <s+0x18>
    6160:	c6 05 e3 be 20 00 2e 	movb   $0x2e,0x20bee3(%rip)        # 21204a <s+0xa>
    6167:	c6 05 f7 be 20 00 21 	movb   $0x21,0x20bef7(%rip)        # 212065 <s+0x25>
    616e:	c6 05 e0 be 20 00 36 	movb   $0x36,0x20bee0(%rip)        # 212055 <s+0x15>
    6175:	c6 05 e1 be 20 00 70 	movb   $0x70,0x20bee1(%rip)        # 21205d <s+0x1d>
    617c:	c6 05 e0 be 20 00 43 	movb   $0x43,0x20bee0(%rip)        # 212063 <s+0x23>
    6183:	c6 05 d0 be 20 00 22 	movb   $0x22,0x20bed0(%rip)        # 21205a <s+0x1a>
    618a:	c6 05 ce be 20 00 36 	movb   $0x36,0x20bece(%rip)        # 21205f <s+0x1f>
    6191:	c6 05 b5 be 20 00 20 	movb   $0x20,0x20beb5(%rip)        # 21204d <s+0xd>
    6198:	c6 05 c5 be 20 00 61 	movb   $0x61,0x20bec5(%rip)        # 212064 <s+0x24>
    619f:	c6 05 a3 be 20 00 24 	movb   $0x24,0x20bea3(%rip)        # 212049 <s+0x9>
    61a6:	c6 05 ae be 20 00 6d 	movb   $0x6d,0x20beae(%rip)        # 21205b <s+0x1b>
    61ad:	c6 05 95 be 20 00 41 	movb   $0x41,0x20be95(%rip)        # 212049 <s+0x9>
    61b4:	c6 05 88 be 20 00 4c 	movb   $0x4c,0x20be88(%rip)        # 212043 <s+0x3>
    61bb:	c6 05 9d be 20 00 36 	movb   $0x36,0x20be9d(%rip)        # 21205f <s+0x1f>
    61c2:	c6 05 98 be 20 00 74 	movb   $0x74,0x20be98(%rip)        # 212061 <s+0x21>
    61c9:	c6 05 72 be 20 00 3e 	movb   $0x3e,0x20be72(%rip)        # 212042 <s+0x2>
    61d0:	c6 05 7c be 20 00 62 	movb   $0x62,0x20be7c(%rip)        # 212053 <s+0x13>
    61d7:	c6 05 6f be 20 00 68 	movb   $0x68,0x20be6f(%rip)        # 21204d <s+0xd>
    61de:	c6 05 75 be 20 00 74 	movb   $0x74,0x20be75(%rip)        # 21205a <s+0x1a>
    61e5:	c6 05 68 be 20 00 4d 	movb   $0x4d,0x20be68(%rip)        # 212054 <s+0x14>
    61ec:	c6 05 6d be 20 00 4e 	movb   $0x4e,0x20be6d(%rip)        # 212060 <s+0x20>
    61f3:	c6 05 4c be 20 00 21 	movb   $0x21,0x20be4c(%rip)        # 212046 <s+0x6>
    61fa:	c6 05 47 be 20 00 60 	movb   $0x60,0x20be47(%rip)        # 212048 <s+0x8>
    6201:	c6 05 3e be 20 00 5f 	movb   $0x5f,0x20be3e(%rip)        # 212046 <s+0x6>
    6208:	c6 05 51 be 20 00 28 	movb   $0x28,0x20be51(%rip)        # 212060 <s+0x20>
    620f:	c6 05 4e be 20 00 7d 	movb   $0x7d,0x20be4e(%rip)        # 212064 <s+0x24>
    6216:	c6 05 42 be 20 00 2b 	movb   $0x2b,0x20be42(%rip)        # 21205f <s+0x1f>
    621d:	c6 05 39 be 20 00 7b 	movb   $0x7b,0x20be39(%rip)        # 21205d <s+0x1d>
    6224:	c6 05 2f be 20 00 45 	movb   $0x45,0x20be2f(%rip)        # 21205a <s+0x1a>
    622b:	c6 05 12 be 20 00 76 	movb   $0x76,0x20be12(%rip)        # 212044 <s+0x4>
    6232:	c6 05 09 be 20 00 4b 	movb   $0x4b,0x20be09(%rip)        # 212042 <s+0x2>
    6239:	c6 05 26 be 20 00 48 	movb   $0x48,0x20be26(%rip)        # 212066 <s+0x26>
    6240:	c6 05 1b be 20 00 31 	movb   $0x31,0x20be1b(%rip)        # 212062 <s+0x22>
    6247:	c6 05 fa bd 20 00 33 	movb   $0x33,0x20bdfa(%rip)        # 212048 <s+0x8>
    624e:	c6 05 ff bd 20 00 7e 	movb   $0x7e,0x20bdff(%rip)        # 212054 <s+0x14>
    6255:	c6 05 07 be 20 00 28 	movb   $0x28,0x20be07(%rip)        # 212063 <s+0x23>
    625c:	c6 05 ed bd 20 00 44 	movb   $0x44,0x20bded(%rip)        # 212050 <s+0x10>
    6263:	c6 05 e8 bd 20 00 3f 	movb   $0x3f,0x20bde8(%rip)        # 212052 <s+0x12>
    626a:	c6 05 e2 bd 20 00 50 	movb   $0x50,0x20bde2(%rip)        # 212053 <s+0x13>
    6271:	c6 05 d7 bd 20 00 6b 	movb   $0x6b,0x20bdd7(%rip)        # 21204f <s+0xf>
    6278:	c6 05 e5 bd 20 00 7a 	movb   $0x7a,0x20bde5(%rip)        # 212064 <s+0x24>
    627f:	c6 05 c7 bd 20 00 45 	movb   $0x45,0x20bdc7(%rip)        # 21204d <s+0xd>
    6286:	c6 05 b4 bd 20 00 29 	movb   $0x29,0x20bdb4(%rip)        # 212041 <s+0x1>
    628d:	c6 05 c8 bd 20 00 7e 	movb   $0x7e,0x20bdc8(%rip)        # 21205c <s+0x1c>
    6294:	c6 05 ae bd 20 00 40 	movb   $0x40,0x20bdae(%rip)        # 212049 <s+0x9>
    629b:	c6 05 b9 bd 20 00 7d 	movb   $0x7d,0x20bdb9(%rip)        # 21205b <s+0x1b>
    62a2:	c6 05 ad bd 20 00 2e 	movb   $0x2e,0x20bdad(%rip)        # 212056 <s+0x16>
    62a9:	c6 05 92 bd 20 00 2f 	movb   $0x2f,0x20bd92(%rip)        # 212042 <s+0x2>
    62b0:	c6 05 8d bd 20 00 2f 	movb   $0x2f,0x20bd8d(%rip)        # 212044 <s+0x4>
    62b7:	c6 05 86 bd 20 00 47 	movb   $0x47,0x20bd86(%rip)        # 212044 <s+0x4>
    62be:	c6 05 91 bd 20 00 2e 	movb   $0x2e,0x20bd91(%rip)        # 212056 <s+0x16>
    62c5:	c6 05 95 bd 20 00 4e 	movb   $0x4e,0x20bd95(%rip)        # 212061 <s+0x21>
    62cc:	c6 05 90 bd 20 00 53 	movb   $0x53,0x20bd90(%rip)        # 212063 <s+0x23>
    62d3:	c6 05 6c bd 20 00 61 	movb   $0x61,0x20bd6c(%rip)        # 212046 <s+0x6>
    62da:	c6 05 81 bd 20 00 6b 	movb   $0x6b,0x20bd81(%rip)        # 212062 <s+0x22>
    62e1:	c6 05 75 bd 20 00 7d 	movb   $0x7d,0x20bd75(%rip)        # 21205d <s+0x1d>
    62e8:	c6 05 54 bd 20 00 39 	movb   $0x39,0x20bd54(%rip)        # 212043 <s+0x3>
    62ef:	c6 05 5d bd 20 00 7c 	movb   $0x7c,0x20bd5d(%rip)        # 212053 <s+0x13>
    62f6:	c6 05 47 bd 20 00 3a 	movb   $0x3a,0x20bd47(%rip)        # 212044 <s+0x4>
    62fd:	c6 05 46 bd 20 00 22 	movb   $0x22,0x20bd46(%rip)        # 21204a <s+0xa>
    6304:	c6 05 5b bd 20 00 4a 	movb   $0x4a,0x20bd5b(%rip)        # 212066 <s+0x26>
    630b:	c6 05 35 bd 20 00 25 	movb   $0x25,0x20bd35(%rip)        # 212047 <s+0x7>
    6312:	c6 05 44 bd 20 00 7e 	movb   $0x7e,0x20bd44(%rip)        # 21205d <s+0x1d>
    6319:	c6 05 44 bd 20 00 22 	movb   $0x22,0x20bd44(%rip)        # 212064 <s+0x24>
    6320:	c6 05 3f bd 20 00 7e 	movb   $0x7e,0x20bd3f(%rip)        # 212066 <s+0x26>
    6327:	c6 05 13 bd 20 00 49 	movb   $0x49,0x20bd13(%rip)        # 212041 <s+0x1>
    632e:	c6 05 31 bd 20 00 61 	movb   $0x61,0x20bd31(%rip)        # 212066 <s+0x26>
    6335:	c6 05 14 bd 20 00 5e 	movb   $0x5e,0x20bd14(%rip)        # 212050 <s+0x10>
    633c:	c6 05 18 bd 20 00 54 	movb   $0x54,0x20bd18(%rip)        # 21205b <s+0x1b>
    6343:	c6 05 00 bd 20 00 61 	movb   $0x61,0x20bd00(%rip)        # 21204a <s+0xa>
    634a:	c6 05 10 bd 20 00 3c 	movb   $0x3c,0x20bd10(%rip)        # 212061 <s+0x21>
    6351:	c6 05 0f bd 20 00 6d 	movb   $0x6d,0x20bd0f(%rip)        # 212067 <s+0x27>
    6358:	c6 05 fb bc 20 00 76 	movb   $0x76,0x20bcfb(%rip)        # 21205a <s+0x1a>
    635f:	c6 05 ea bc 20 00 39 	movb   $0x39,0x20bcea(%rip)        # 212050 <s+0x10>
    6366:	c6 05 e2 bc 20 00 2b 	movb   $0x2b,0x20bce2(%rip)        # 21204f <s+0xf>
    636d:	c6 05 df bc 20 00 52 	movb   $0x52,0x20bcdf(%rip)        # 212053 <s+0x13>
    6374:	c6 05 d7 bc 20 00 3e 	movb   $0x3e,0x20bcd7(%rip)        # 212052 <s+0x12>
    637b:	c6 05 c6 bc 20 00 7e 	movb   $0x7e,0x20bcc6(%rip)        # 212048 <s+0x8>
    6382:	c6 05 c3 bc 20 00 7e 	movb   $0x7e,0x20bcc3(%rip)        # 21204c <s+0xc>
    6389:	c6 05 b5 bc 20 00 62 	movb   $0x62,0x20bcb5(%rip)        # 212045 <s+0x5>
    6390:	c6 05 c9 bc 20 00 5b 	movb   $0x5b,0x20bcc9(%rip)        # 212060 <s+0x20>
    6397:	c6 05 aa bc 20 00 2a 	movb   $0x2a,0x20bcaa(%rip)        # 212048 <s+0x8>
    639e:	c6 05 ab bc 20 00 23 	movb   $0x23,0x20bcab(%rip)        # 212050 <s+0x10>
    63a5:	c6 05 9e bc 20 00 33 	movb   $0x33,0x20bc9e(%rip)        # 21204a <s+0xa>
    63ac:	c6 05 94 bc 20 00 66 	movb   $0x66,0x20bc94(%rip)        # 212047 <s+0x7>
    63b3:	c6 05 8d bc 20 00 39 	movb   $0x39,0x20bc8d(%rip)        # 212047 <s+0x7>
    63ba:	c6 05 93 bc 20 00 7d 	movb   $0x7d,0x20bc93(%rip)        # 212054 <s+0x14>
    63c1:	c6 05 94 bc 20 00 5f 	movb   $0x5f,0x20bc94(%rip)        # 21205c <s+0x1c>
    63c8:	c6 05 73 bc 20 00 57 	movb   $0x57,0x20bc73(%rip)        # 212042 <s+0x2>
    63cf:	c6 05 81 bc 20 00 70 	movb   $0x70,0x20bc81(%rip)        # 212057 <s+0x17>
    63d6:	c6 05 88 bc 20 00 3e 	movb   $0x3e,0x20bc88(%rip)        # 212065 <s+0x25>
    63dd:	c6 05 5e bc 20 00 25 	movb   $0x25,0x20bc5e(%rip)        # 212042 <s+0x2>
    63e4:	c6 05 58 bc 20 00 6e 	movb   $0x6e,0x20bc58(%rip)        # 212043 <s+0x3>
    63eb:	c6 05 6c bc 20 00 74 	movb   $0x74,0x20bc6c(%rip)        # 21205e <s+0x1e>
    63f2:	c6 05 65 bc 20 00 60 	movb   $0x60,0x20bc65(%rip)        # 21205e <s+0x1e>
    63f9:	c6 05 5e bc 20 00 23 	movb   $0x23,0x20bc5e(%rip)        # 21205e <s+0x1e>
    6400:	c6 05 5b bc 20 00 2e 	movb   $0x2e,0x20bc5b(%rip)        # 212062 <s+0x22>
    6407:	c6 05 39 bc 20 00 21 	movb   $0x21,0x20bc39(%rip)        # 212047 <s+0x7>
    640e:	c6 05 34 bc 20 00 4b 	movb   $0x4b,0x20bc34(%rip)        # 212049 <s+0x9>
    6415:	c6 05 26 bc 20 00 5d 	movb   $0x5d,0x20bc26(%rip)        # 212042 <s+0x2>
    641c:	c6 05 41 bc 20 00 38 	movb   $0x38,0x20bc41(%rip)        # 212064 <s+0x24>
    6423:	c6 05 3c bc 20 00 3e 	movb   $0x3e,0x20bc3c(%rip)        # 212066 <s+0x26>
    642a:	c6 05 2f bc 20 00 46 	movb   $0x46,0x20bc2f(%rip)        # 212060 <s+0x20>
    6431:	c6 05 10 bc 20 00 44 	movb   $0x44,0x20bc10(%rip)        # 212048 <s+0x8>
    6438:	c6 05 0e bc 20 00 22 	movb   $0x22,0x20bc0e(%rip)        # 21204d <s+0xd>
    643f:	c6 05 ff bb 20 00 29 	movb   $0x29,0x20bbff(%rip)        # 212045 <s+0x5>
    6446:	c6 05 10 bc 20 00 6c 	movb   $0x6c,0x20bc10(%rip)        # 21205d <s+0x1d>
    644d:	c6 05 0d bc 20 00 31 	movb   $0x31,0x20bc0d(%rip)        # 212061 <s+0x21>
    6454:	c6 05 00 bc 20 00 6d 	movb   $0x6d,0x20bc00(%rip)        # 21205b <s+0x1b>
    645b:	c6 05 fd bb 20 00 6f 	movb   $0x6f,0x20bbfd(%rip)        # 21205f <s+0x1f>
    6462:	c6 05 dc bb 20 00 6a 	movb   $0x6a,0x20bbdc(%rip)        # 212045 <s+0x5>
    6469:	c6 05 eb bb 20 00 6e 	movb   $0x6e,0x20bbeb(%rip)        # 21205b <s+0x1b>
    6470:	c6 05 d3 bb 20 00 66 	movb   $0x66,0x20bbd3(%rip)        # 21204a <s+0xa>
    6477:	c6 05 c6 bb 20 00 22 	movb   $0x22,0x20bbc6(%rip)        # 212044 <s+0x4>
    647e:	c6 05 bc bb 20 00 77 	movb   $0x77,0x20bbbc(%rip)        # 212041 <s+0x1>
    6485:	c6 05 b5 bb 20 00 72 	movb   $0x72,0x20bbb5(%rip)        # 212041 <s+0x1>
    648c:	c6 05 c5 bb 20 00 2e 	movb   $0x2e,0x20bbc5(%rip)        # 212058 <s+0x18>
    6493:	c6 05 a9 bb 20 00 56 	movb   $0x56,0x20bba9(%rip)        # 212043 <s+0x3>
    649a:	c6 05 c1 bb 20 00 5a 	movb   $0x5a,0x20bbc1(%rip)        # 212062 <s+0x22>
    64a1:	c6 05 b0 bb 20 00 6b 	movb   $0x6b,0x20bbb0(%rip)        # 212058 <s+0x18>
    64a8:	c6 05 b3 bb 20 00 28 	movb   $0x28,0x20bbb3(%rip)        # 212062 <s+0x22>
    64af:	c6 05 a0 bb 20 00 45 	movb   $0x45,0x20bba0(%rip)        # 212056 <s+0x16>
    64b6:	c6 05 a7 bb 20 00 3d 	movb   $0x3d,0x20bba7(%rip)        # 212064 <s+0x24>
    64bd:	c6 05 8d bb 20 00 34 	movb   $0x34,0x20bb8d(%rip)        # 212051 <s+0x11>
    64c4:	c6 05 9a bb 20 00 62 	movb   $0x62,0x20bb9a(%rip)        # 212065 <s+0x25>
    64cb:	c6 05 7b bb 20 00 31 	movb   $0x31,0x20bb7b(%rip)        # 21204d <s+0xd>
    64d2:	c6 05 70 bb 20 00 3c 	movb   $0x3c,0x20bb70(%rip)        # 212049 <s+0x9>
    64d9:	c6 05 71 bb 20 00 4a 	movb   $0x4a,0x20bb71(%rip)        # 212051 <s+0x11>
    64e0:	c6 05 77 bb 20 00 7d 	movb   $0x7d,0x20bb77(%rip)        # 21205e <s+0x1e>
    64e7:	c6 05 65 bb 20 00 7c 	movb   $0x7c,0x20bb65(%rip)        # 212053 <s+0x13>
    64ee:	c6 05 71 bb 20 00 2f 	movb   $0x2f,0x20bb71(%rip)        # 212066 <s+0x26>
    64f5:	c6 05 65 bb 20 00 30 	movb   $0x30,0x20bb65(%rip)        # 212061 <s+0x21>
    64fc:	c6 05 46 bb 20 00 30 	movb   $0x30,0x20bb46(%rip)        # 212049 <s+0x9>
    6503:	c6 05 3a bb 20 00 38 	movb   $0x38,0x20bb3a(%rip)        # 212044 <s+0x4>
    650a:	c6 05 51 bb 20 00 7a 	movb   $0x7a,0x20bb51(%rip)        # 212062 <s+0x22>
    6511:	c6 05 48 bb 20 00 6b 	movb   $0x6b,0x20bb48(%rip)        # 212060 <s+0x20>
    6518:	c6 05 43 bb 20 00 37 	movb   $0x37,0x20bb43(%rip)        # 212062 <s+0x22>
    651f:	c6 05 2a bb 20 00 22 	movb   $0x22,0x20bb2a(%rip)        # 212050 <s+0x10>
    6526:	c6 05 29 bb 20 00 65 	movb   $0x65,0x20bb29(%rip)        # 212056 <s+0x16>
    652d:	c6 05 0c bb 20 00 44 	movb   $0x44,0x20bb0c(%rip)        # 212040 <s>
    6534:	c6 05 28 bb 20 00 65 	movb   $0x65,0x20bb28(%rip)        # 212063 <s+0x23>
    653b:	c6 05 25 bb 20 00 37 	movb   $0x37,0x20bb25(%rip)        # 212067 <s+0x27>
    6542:	c6 05 16 bb 20 00 44 	movb   $0x44,0x20bb16(%rip)        # 21205f <s+0x1f>
    6549:	c6 05 0d bb 20 00 43 	movb   $0x43,0x20bb0d(%rip)        # 21205d <s+0x1d>
    6550:	c6 05 09 bb 20 00 29 	movb   $0x29,0x20bb09(%rip)        # 212060 <s+0x20>
    6557:	c6 05 03 bb 20 00 32 	movb   $0x32,0x20bb03(%rip)        # 212061 <s+0x21>
    655e:	c6 05 fa ba 20 00 4f 	movb   $0x4f,0x20bafa(%rip)        # 21205f <s+0x1f>
    6565:	c6 05 f2 ba 20 00 65 	movb   $0x65,0x20baf2(%rip)        # 21205e <s+0x1e>
    656c:	c6 05 df ba 20 00 48 	movb   $0x48,0x20badf(%rip)        # 212052 <s+0x12>
    6573:	c6 05 e3 ba 20 00 22 	movb   $0x22,0x20bae3(%rip)        # 21205d <s+0x1d>
    657a:	c6 05 e3 ba 20 00 67 	movb   $0x67,0x20bae3(%rip)        # 212064 <s+0x24>
    6581:	c6 05 c9 ba 20 00 2e 	movb   $0x2e,0x20bac9(%rip)        # 212051 <s+0x11>
    6588:	c6 05 d5 ba 20 00 46 	movb   $0x46,0x20bad5(%rip)        # 212064 <s+0x24>
    658f:	c6 05 cf ba 20 00 42 	movb   $0x42,0x20bacf(%rip)        # 212065 <s+0x25>
    6596:	c6 05 a4 ba 20 00 4b 	movb   $0x4b,0x20baa4(%rip)        # 212041 <s+0x1>
    659d:	c6 05 ba ba 20 00 67 	movb   $0x67,0x20baba(%rip)        # 21205e <s+0x1e>
    65a4:	c6 05 99 ba 20 00 2a 	movb   $0x2a,0x20ba99(%rip)        # 212044 <s+0x4>
    65ab:	c6 05 a3 ba 20 00 58 	movb   $0x58,0x20baa3(%rip)        # 212055 <s+0x15>
    65b2:	c6 05 90 ba 20 00 42 	movb   $0x42,0x20ba90(%rip)        # 212049 <s+0x9>
    65b9:	c6 05 8c ba 20 00 37 	movb   $0x37,0x20ba8c(%rip)        # 21204c <s+0xc>
    65c0:	c6 05 9e ba 20 00 76 	movb   $0x76,0x20ba9e(%rip)        # 212065 <s+0x25>
    65c7:	c6 05 76 ba 20 00 23 	movb   $0x23,0x20ba76(%rip)        # 212044 <s+0x4>
    65ce:	c6 05 82 ba 20 00 6e 	movb   $0x6e,0x20ba82(%rip)        # 212057 <s+0x17>
    65d5:	c6 05 6c ba 20 00 48 	movb   $0x48,0x20ba6c(%rip)        # 212048 <s+0x8>
    65dc:	c6 05 7f ba 20 00 21 	movb   $0x21,0x20ba7f(%rip)        # 212062 <s+0x22>
    65e3:	c6 05 6c ba 20 00 63 	movb   $0x63,0x20ba6c(%rip)        # 212056 <s+0x16>
    65ea:	c6 05 6b ba 20 00 7d 	movb   $0x7d,0x20ba6b(%rip)        # 21205c <s+0x1c>
    65f1:	c6 05 69 ba 20 00 5d 	movb   $0x5d,0x20ba69(%rip)        # 212061 <s+0x21>
    65f8:	c6 05 4d ba 20 00 78 	movb   $0x78,0x20ba4d(%rip)        # 21204c <s+0xc>
    65ff:	c6 05 42 ba 20 00 7c 	movb   $0x7c,0x20ba42(%rip)        # 212048 <s+0x8>
    6606:	c6 05 59 ba 20 00 37 	movb   $0x37,0x20ba59(%rip)        # 212066 <s+0x26>
    660d:	c6 05 51 ba 20 00 2f 	movb   $0x2f,0x20ba51(%rip)        # 212065 <s+0x25>
    6614:	c6 05 40 ba 20 00 36 	movb   $0x36,0x20ba40(%rip)        # 21205b <s+0x1b>
    661b:	c6 05 45 ba 20 00 29 	movb   $0x29,0x20ba45(%rip)        # 212067 <s+0x27>
    6622:	c6 05 2d ba 20 00 49 	movb   $0x49,0x20ba2d(%rip)        # 212056 <s+0x16>
    6629:	c6 05 32 ba 20 00 7d 	movb   $0x7d,0x20ba32(%rip)        # 212062 <s+0x22>
    6630:	c6 05 12 ba 20 00 2d 	movb   $0x2d,0x20ba12(%rip)        # 212049 <s+0x9>
    6637:	c6 05 09 ba 20 00 42 	movb   $0x42,0x20ba09(%rip)        # 212047 <s+0x7>
    663e:	c6 05 17 ba 20 00 33 	movb   $0x33,0x20ba17(%rip)        # 21205c <s+0x1c>
    6645:	c6 05 06 ba 20 00 2e 	movb   $0x2e,0x20ba06(%rip)        # 212052 <s+0x12>
    664c:	c6 05 f4 b9 20 00 70 	movb   $0x70,0x20b9f4(%rip)        # 212047 <s+0x7>
    6653:	c6 05 0b ba 20 00 59 	movb   $0x59,0x20ba0b(%rip)        # 212065 <s+0x25>
    665a:	c6 05 ec b9 20 00 7a 	movb   $0x7a,0x20b9ec(%rip)        # 21204d <s+0xd>
    6661:	c6 05 e9 b9 20 00 36 	movb   $0x36,0x20b9e9(%rip)        # 212051 <s+0x11>
    6668:	c6 05 e2 b9 20 00 53 	movb   $0x53,0x20b9e2(%rip)        # 212051 <s+0x11>
    666f:	c6 05 d1 b9 20 00 69 	movb   $0x69,0x20b9d1(%rip)        # 212047 <s+0x7>
    6676:	c6 05 c5 b9 20 00 26 	movb   $0x26,0x20b9c5(%rip)        # 212042 <s+0x2>
    667d:	c6 05 d2 b9 20 00 3f 	movb   $0x3f,0x20b9d2(%rip)        # 212056 <s+0x16>
    6684:	c6 05 cb b9 20 00 68 	movb   $0x68,0x20b9cb(%rip)        # 212056 <s+0x16>
    668b:	c6 05 b4 b9 20 00 46 	movb   $0x46,0x20b9b4(%rip)        # 212046 <s+0x6>
    6692:	c6 05 cc b9 20 00 25 	movb   $0x25,0x20b9cc(%rip)        # 212065 <s+0x25>
    6699:	c6 05 ae b9 20 00 77 	movb   $0x77,0x20b9ae(%rip)        # 21204e <s+0xe>
    66a0:	c6 05 a5 b9 20 00 63 	movb   $0x63,0x20b9a5(%rip)        # 21204c <s+0xc>
    66a7:	c6 05 a1 b9 20 00 49 	movb   $0x49,0x20b9a1(%rip)        # 21204f <s+0xf>
    66ae:	c6 05 ae b9 20 00 22 	movb   $0x22,0x20b9ae(%rip)        # 212063 <s+0x23>
    66b5:	c6 05 aa b9 20 00 34 	movb   $0x34,0x20b9aa(%rip)        # 212066 <s+0x26>
    66bc:	c6 05 8f b9 20 00 39 	movb   $0x39,0x20b98f(%rip)        # 212052 <s+0x12>
    66c3:	c6 05 77 b9 20 00 73 	movb   $0x73,0x20b977(%rip)        # 212041 <s+0x1>
    66ca:	c6 05 80 b9 20 00 3c 	movb   $0x3c,0x20b980(%rip)        # 212051 <s+0x11>
    66d1:	c6 05 83 b9 20 00 54 	movb   $0x54,0x20b983(%rip)        # 21205b <s+0x1b>
    66d8:	c6 05 67 b9 20 00 33 	movb   $0x33,0x20b967(%rip)        # 212046 <s+0x6>
    66df:	c6 05 76 b9 20 00 30 	movb   $0x30,0x20b976(%rip)        # 21205c <s+0x1c>
    66e6:	c6 05 55 b9 20 00 2c 	movb   $0x2c,0x20b955(%rip)        # 212042 <s+0x2>
    66ed:	c6 05 6b b9 20 00 51 	movb   $0x51,0x20b96b(%rip)        # 21205f <s+0x1f>
    66f4:	c6 05 6a b9 20 00 55 	movb   $0x55,0x20b96a(%rip)        # 212065 <s+0x25>
    66fb:	c6 05 62 b9 20 00 26 	movb   $0x26,0x20b962(%rip)        # 212064 <s+0x24>
    6702:	c6 05 54 b9 20 00 4f 	movb   $0x4f,0x20b954(%rip)        # 21205d <s+0x1d>
    6709:	c6 05 38 b9 20 00 7d 	movb   $0x7d,0x20b938(%rip)        # 212048 <s+0x8>
    6710:	c6 05 47 b9 20 00 79 	movb   $0x79,0x20b947(%rip)        # 21205e <s+0x1e>
    6717:	c6 05 26 b9 20 00 4e 	movb   $0x4e,0x20b926(%rip)        # 212044 <s+0x4>
    671e:	c6 05 2b b9 20 00 45 	movb   $0x45,0x20b92b(%rip)        # 212050 <s+0x10>
    6725:	c6 05 1d b9 20 00 24 	movb   $0x24,0x20b91d(%rip)        # 212049 <s+0x9>
    672c:	c6 05 2f b9 20 00 25 	movb   $0x25,0x20b92f(%rip)        # 212062 <s+0x22>
    6733:	c6 05 11 b9 20 00 55 	movb   $0x55,0x20b911(%rip)        # 21204b <s+0xb>
    673a:	c6 05 05 b9 20 00 55 	movb   $0x55,0x20b905(%rip)        # 212046 <s+0x6>
    6741:	c6 05 06 b9 20 00 2a 	movb   $0x2a,0x20b906(%rip)        # 21204e <s+0xe>
    6748:	c6 05 15 b9 20 00 40 	movb   $0x40,0x20b915(%rip)        # 212064 <s+0x24>
    674f:	c6 05 f0 b8 20 00 32 	movb   $0x32,0x20b8f0(%rip)        # 212046 <s+0x6>
    6756:	c6 05 fc b8 20 00 20 	movb   $0x20,0x20b8fc(%rip)        # 212059 <s+0x19>
    675d:	c6 05 ed b8 20 00 6a 	movb   $0x6a,0x20b8ed(%rip)        # 212051 <s+0x11>
    6764:	c6 05 e9 b8 20 00 34 	movb   $0x34,0x20b8e9(%rip)        # 212054 <s+0x14>
    676b:	c6 05 e3 b8 20 00 24 	movb   $0x24,0x20b8e3(%rip)        # 212055 <s+0x15>
    6772:	c6 05 d9 b8 20 00 74 	movb   $0x74,0x20b8d9(%rip)        # 212052 <s+0x12>
    6779:	c6 05 d7 b8 20 00 4b 	movb   $0x4b,0x20b8d7(%rip)        # 212057 <s+0x17>
    6780:	c6 05 c9 b8 20 00 6f 	movb   $0x6f,0x20b8c9(%rip)        # 212050 <s+0x10>
    6787:	c6 05 d5 b8 20 00 7d 	movb   $0x7d,0x20b8d5(%rip)        # 212063 <s+0x23>
    678e:	c6 05 b3 b8 20 00 6c 	movb   $0x6c,0x20b8b3(%rip)        # 212048 <s+0x8>
    6795:	c6 05 aa b8 20 00 75 	movb   $0x75,0x20b8aa(%rip)        # 212046 <s+0x6>
    679c:	c6 05 c2 b8 20 00 41 	movb   $0x41,0x20b8c2(%rip)        # 212065 <s+0x25>
    67a3:	c6 05 bd b8 20 00 7e 	movb   $0x7e,0x20b8bd(%rip)        # 212067 <s+0x27>
    67aa:	c6 05 ac b8 20 00 7e 	movb   $0x7e,0x20b8ac(%rip)        # 21205d <s+0x1d>
    67b1:	c6 05 ab b8 20 00 3f 	movb   $0x3f,0x20b8ab(%rip)        # 212063 <s+0x23>
    67b8:	c6 05 9a b8 20 00 37 	movb   $0x37,0x20b89a(%rip)        # 212059 <s+0x19>
    67bf:	c6 05 7b b8 20 00 5f 	movb   $0x5f,0x20b87b(%rip)        # 212041 <s+0x1>
    67c6:	c6 05 93 b8 20 00 29 	movb   $0x29,0x20b893(%rip)        # 212060 <s+0x20>
    67cd:	c6 05 79 b8 20 00 5f 	movb   $0x5f,0x20b879(%rip)        # 21204d <s+0xd>
    67d4:	c6 05 87 b8 20 00 40 	movb   $0x40,0x20b887(%rip)        # 212062 <s+0x22>
    67db:	c6 05 80 b8 20 00 5a 	movb   $0x5a,0x20b880(%rip)        # 212062 <s+0x22>
    67e2:	c6 05 74 b8 20 00 58 	movb   $0x58,0x20b874(%rip)        # 21205d <s+0x1d>
    67e9:	c6 05 73 b8 20 00 37 	movb   $0x37,0x20b873(%rip)        # 212063 <s+0x23>
    67f0:	c6 05 55 b8 20 00 7e 	movb   $0x7e,0x20b855(%rip)        # 21204c <s+0xc>
    67f7:	c6 05 54 b8 20 00 67 	movb   $0x67,0x20b854(%rip)        # 212052 <s+0x12>
    67fe:	c6 05 5a b8 20 00 31 	movb   $0x31,0x20b85a(%rip)        # 21205f <s+0x1f>
    6805:	c6 05 34 b8 20 00 70 	movb   $0x70,0x20b834(%rip)        # 212040 <s>
    680c:	c6 05 3b b8 20 00 6b 	movb   $0x6b,0x20b83b(%rip)        # 21204e <s+0xe>
    6813:	c6 05 30 b8 20 00 33 	movb   $0x33,0x20b830(%rip)        # 21204a <s+0xa>
    681a:	c6 05 2b b8 20 00 76 	movb   $0x76,0x20b82b(%rip)        # 21204c <s+0xc>
    6821:	c6 05 2b b8 20 00 41 	movb   $0x41,0x20b82b(%rip)        # 212053 <s+0x13>
    6828:	c6 05 12 b8 20 00 49 	movb   $0x49,0x20b812(%rip)        # 212041 <s+0x1>
    682f:	c6 05 27 b8 20 00 4a 	movb   $0x4a,0x20b827(%rip)        # 21205d <s+0x1d>
    6836:	c6 05 12 b8 20 00 28 	movb   $0x28,0x20b812(%rip)        # 21204f <s+0xf>
    683d:	c6 05 fe b7 20 00 62 	movb   $0x62,0x20b7fe(%rip)        # 212042 <s+0x2>
    6844:	c6 05 05 b8 20 00 22 	movb   $0x22,0x20b805(%rip)        # 212050 <s+0x10>
    684b:	c6 05 12 b8 20 00 38 	movb   $0x38,0x20b812(%rip)        # 212064 <s+0x24>
    6852:	c6 05 f1 b7 20 00 6f 	movb   $0x6f,0x20b7f1(%rip)        # 21204a <s+0xa>
    6859:	c6 05 f7 b7 20 00 69 	movb   $0x69,0x20b7f7(%rip)        # 212057 <s+0x17>
    6860:	c6 05 de b7 20 00 51 	movb   $0x51,0x20b7de(%rip)        # 212045 <s+0x5>
    6867:	c6 05 ea b7 20 00 31 	movb   $0x31,0x20b7ea(%rip)        # 212058 <s+0x18>
    686e:	c6 05 ef b7 20 00 4a 	movb   $0x4a,0x20b7ef(%rip)        # 212064 <s+0x24>
    6875:	c6 05 ce b7 20 00 45 	movb   $0x45,0x20b7ce(%rip)        # 21204a <s+0xa>
    687c:	c6 05 e4 b7 20 00 38 	movb   $0x38,0x20b7e4(%rip)        # 212067 <s+0x27>
    6883:	c6 05 d6 b7 20 00 65 	movb   $0x65,0x20b7d6(%rip)        # 212060 <s+0x20>
    688a:	c6 05 af b7 20 00 25 	movb   $0x25,0x20b7af(%rip)        # 212040 <s>
    6891:	c6 05 a9 b7 20 00 70 	movb   $0x70,0x20b7a9(%rip)        # 212041 <s+0x1>
    6898:	c6 05 b5 b7 20 00 7d 	movb   $0x7d,0x20b7b5(%rip)        # 212054 <s+0x14>
    689f:	c6 05 aa b7 20 00 32 	movb   $0x32,0x20b7aa(%rip)        # 212050 <s+0x10>
    68a6:	c6 05 b3 b7 20 00 4a 	movb   $0x4a,0x20b7b3(%rip)        # 212060 <s+0x20>
    68ad:	c6 05 a1 b7 20 00 7e 	movb   $0x7e,0x20b7a1(%rip)        # 212055 <s+0x15>
    68b4:	c6 05 9b b7 20 00 20 	movb   $0x20,0x20b79b(%rip)        # 212056 <s+0x16>
    68bb:	c6 05 a1 b7 20 00 5b 	movb   $0x5b,0x20b7a1(%rip)        # 212063 <s+0x23>
    68c2:	c6 05 97 b7 20 00 3d 	movb   $0x3d,0x20b797(%rip)        # 212060 <s+0x20>
    68c9:	c6 05 8f b7 20 00 31 	movb   $0x31,0x20b78f(%rip)        # 21205f <s+0x1f>
    68d0:	c6 05 8f b7 20 00 6a 	movb   $0x6a,0x20b78f(%rip)        # 212066 <s+0x26>
    68d7:	c6 05 7c b7 20 00 47 	movb   $0x47,0x20b77c(%rip)        # 21205a <s+0x1a>
    68de:	c6 05 65 b7 20 00 6b 	movb   $0x6b,0x20b765(%rip)        # 21204a <s+0xa>
    68e5:	c6 05 77 b7 20 00 2b 	movb   $0x2b,0x20b777(%rip)        # 212063 <s+0x23>
    68ec:	c6 05 55 b7 20 00 43 	movb   $0x43,0x20b755(%rip)        # 212048 <s+0x8>
    68f3:	c6 05 69 b7 20 00 2e 	movb   $0x2e,0x20b769(%rip)        # 212063 <s+0x23>
    68fa:	c6 05 4d b7 20 00 28 	movb   $0x28,0x20b74d(%rip)        # 21204e <s+0xe>
    6901:	c6 05 3c b7 20 00 45 	movb   $0x45,0x20b73c(%rip)        # 212044 <s+0x4>
    6908:	c6 05 55 b7 20 00 4a 	movb   $0x4a,0x20b755(%rip)        # 212064 <s+0x24>
    690f:	c6 05 2a b7 20 00 71 	movb   $0x71,0x20b72a(%rip)        # 212040 <s>
    6916:	c6 05 26 b7 20 00 65 	movb   $0x65,0x20b726(%rip)        # 212043 <s+0x3>
    691d:	c6 05 20 b7 20 00 61 	movb   $0x61,0x20b720(%rip)        # 212044 <s+0x4>
    6924:	c6 05 2f b7 20 00 32 	movb   $0x32,0x20b72f(%rip)        # 21205a <s+0x1a>
    692b:	c6 05 10 b7 20 00 29 	movb   $0x29,0x20b710(%rip)        # 212042 <s+0x2>
    6932:	c6 05 26 b7 20 00 2a 	movb   $0x2a,0x20b726(%rip)        # 21205f <s+0x1f>
    6939:	c6 05 04 b7 20 00 29 	movb   $0x29,0x20b704(%rip)        # 212044 <s+0x4>
    6940:	c6 05 11 b7 20 00 3f 	movb   $0x3f,0x20b711(%rip)        # 212058 <s+0x18>
    6947:	c6 05 01 b7 20 00 24 	movb   $0x24,0x20b701(%rip)        # 21204f <s+0xf>
    694e:	c6 05 02 b7 20 00 54 	movb   $0x54,0x20b702(%rip)        # 212057 <s+0x17>
    6955:	c6 05 fa b6 20 00 58 	movb   $0x58,0x20b6fa(%rip)        # 212056 <s+0x16>
    695c:	c6 05 e7 b6 20 00 2f 	movb   $0x2f,0x20b6e7(%rip)        # 21204a <s+0xa>
    6963:	c6 05 ea b6 20 00 20 	movb   $0x20,0x20b6ea(%rip)        # 212054 <s+0x14>
    696a:	c6 05 e1 b6 20 00 50 	movb   $0x50,0x20b6e1(%rip)        # 212052 <s+0x12>
    6971:	c6 05 ee b6 20 00 7a 	movb   $0x7a,0x20b6ee(%rip)        # 212066 <s+0x26>
    6978:	c6 05 cf b6 20 00 32 	movb   $0x32,0x20b6cf(%rip)        # 21204e <s+0xe>
    697f:	c6 05 de b6 20 00 57 	movb   $0x57,0x20b6de(%rip)        # 212064 <s+0x24>
    6986:	c6 05 d5 b6 20 00 3e 	movb   $0x3e,0x20b6d5(%rip)        # 212062 <s+0x22>
    698d:	c6 05 c9 b6 20 00 75 	movb   $0x75,0x20b6c9(%rip)        # 21205d <s+0x1d>
    6994:	c6 05 cc b6 20 00 71 	movb   $0x71,0x20b6cc(%rip)        # 212067 <s+0x27>
    699b:	c6 05 c3 b6 20 00 63 	movb   $0x63,0x20b6c3(%rip)        # 212065 <s+0x25>
    69a2:	c6 05 9c b6 20 00 23 	movb   $0x23,0x20b69c(%rip)        # 212045 <s+0x5>
    69a9:	c6 05 94 b6 20 00 68 	movb   $0x68,0x20b694(%rip)        # 212044 <s+0x4>
    69b0:	c6 05 ab b6 20 00 2d 	movb   $0x2d,0x20b6ab(%rip)        # 212062 <s+0x22>
    69b7:	c6 05 a6 b6 20 00 69 	movb   $0x69,0x20b6a6(%rip)        # 212064 <s+0x24>
    69be:	c6 05 8f b6 20 00 77 	movb   $0x77,0x20b68f(%rip)        # 212054 <s+0x14>
    69c5:	c6 05 90 b6 20 00 68 	movb   $0x68,0x20b690(%rip)        # 21205c <s+0x1c>
    69cc:	c6 05 86 b6 20 00 52 	movb   $0x52,0x20b686(%rip)        # 212059 <s+0x19>
    69d3:	c6 05 7a b6 20 00 34 	movb   $0x34,0x20b67a(%rip)        # 212054 <s+0x14>
    69da:	c6 05 85 b6 20 00 51 	movb   $0x51,0x20b685(%rip)        # 212066 <s+0x26>
    69e1:	c6 05 7a b6 20 00 2c 	movb   $0x2c,0x20b67a(%rip)        # 212062 <s+0x22>
    69e8:	c6 05 61 b6 20 00 24 	movb   $0x24,0x20b661(%rip)        # 212050 <s+0x10>
    69ef:	c6 05 55 b6 20 00 2e 	movb   $0x2e,0x20b655(%rip)        # 21204b <s+0xb>
    69f6:	c6 05 60 b6 20 00 51 	movb   $0x51,0x20b660(%rip)        # 21205d <s+0x1d>
    69fd:	c6 05 52 b6 20 00 61 	movb   $0x61,0x20b652(%rip)        # 212056 <s+0x16>
    6a04:	c6 05 40 b6 20 00 3a 	movb   $0x3a,0x20b640(%rip)        # 21204b <s+0xb>
    6a0b:	c6 05 30 b6 20 00 4b 	movb   $0x4b,0x20b630(%rip)        # 212042 <s+0x2>
    6a12:	c6 05 39 b6 20 00 77 	movb   $0x77,0x20b639(%rip)        # 212052 <s+0x12>
    6a19:	c6 05 3c b6 20 00 39 	movb   $0x39,0x20b63c(%rip)        # 21205c <s+0x1c>
    6a20:	c6 05 28 b6 20 00 41 	movb   $0x41,0x20b628(%rip)        # 21204f <s+0xf>
    6a27:	c6 05 34 b6 20 00 7c 	movb   $0x7c,0x20b634(%rip)        # 212062 <s+0x22>
    6a2e:	c6 05 0d b6 20 00 50 	movb   $0x50,0x20b60d(%rip)        # 212042 <s+0x2>
    6a35:	c6 05 29 b6 20 00 45 	movb   $0x45,0x20b629(%rip)        # 212065 <s+0x25>
    6a3c:	c6 05 1a b6 20 00 49 	movb   $0x49,0x20b61a(%rip)        # 21205d <s+0x1d>
    6a43:	c6 05 0f b6 20 00 5a 	movb   $0x5a,0x20b60f(%rip)        # 212059 <s+0x19>
    6a4a:	c6 05 f2 b5 20 00 31 	movb   $0x31,0x20b5f2(%rip)        # 212043 <s+0x3>
    6a51:	c6 05 f6 b5 20 00 39 	movb   $0x39,0x20b5f6(%rip)        # 21204e <s+0xe>
    6a58:	c6 05 03 b6 20 00 3c 	movb   $0x3c,0x20b603(%rip)        # 212062 <s+0x22>
    6a5f:	c6 05 df b5 20 00 6a 	movb   $0x6a,0x20b5df(%rip)        # 212045 <s+0x5>
    6a66:	c6 05 f7 b5 20 00 53 	movb   $0x53,0x20b5f7(%rip)        # 212064 <s+0x24>
    6a6d:	c6 05 df b5 20 00 2b 	movb   $0x2b,0x20b5df(%rip)        # 212053 <s+0x13>
    6a74:	c6 05 de b5 20 00 39 	movb   $0x39,0x20b5de(%rip)        # 212059 <s+0x19>
    6a7b:	c6 05 e3 b5 20 00 4e 	movb   $0x4e,0x20b5e3(%rip)        # 212065 <s+0x25>
    6a82:	c6 05 c2 b5 20 00 7e 	movb   $0x7e,0x20b5c2(%rip)        # 21204b <s+0xb>
    6a89:	c6 05 c3 b5 20 00 66 	movb   $0x66,0x20b5c3(%rip)        # 212053 <s+0x13>
    6a90:	c6 05 cc b5 20 00 4f 	movb   $0x4f,0x20b5cc(%rip)        # 212063 <s+0x23>
    6a97:	c6 05 c3 b5 20 00 58 	movb   $0x58,0x20b5c3(%rip)        # 212061 <s+0x21>
    6a9e:	c6 05 be b5 20 00 6b 	movb   $0x6b,0x20b5be(%rip)        # 212063 <s+0x23>
    6aa5:	c6 05 ac b5 20 00 6e 	movb   $0x6e,0x20b5ac(%rip)        # 212058 <s+0x18>
    6aac:	c6 05 97 b5 20 00 23 	movb   $0x23,0x20b597(%rip)        # 21204a <s+0xa>
    6ab3:	c6 05 94 b5 20 00 64 	movb   $0x64,0x20b594(%rip)        # 21204e <s+0xe>
    6aba:	c6 05 a1 b5 20 00 6c 	movb   $0x6c,0x20b5a1(%rip)        # 212062 <s+0x22>
    6ac1:	c6 05 82 b5 20 00 31 	movb   $0x31,0x20b582(%rip)        # 21204a <s+0xa>
    6ac8:	c6 05 91 b5 20 00 3a 	movb   $0x3a,0x20b591(%rip)        # 212060 <s+0x20>
    6acf:	c6 05 6b b5 20 00 60 	movb   $0x60,0x20b56b(%rip)        # 212041 <s+0x1>
    6ad6:	c6 05 78 b5 20 00 45 	movb   $0x45,0x20b578(%rip)        # 212055 <s+0x15>
    6add:	c6 05 81 b5 20 00 50 	movb   $0x50,0x20b581(%rip)        # 212065 <s+0x25>
    6ae4:	c6 05 72 b5 20 00 59 	movb   $0x59,0x20b572(%rip)        # 21205d <s+0x1d>
    6aeb:	c6 05 56 b5 20 00 4c 	movb   $0x4c,0x20b556(%rip)        # 212048 <s+0x8>
    6af2:	c6 05 5f b5 20 00 31 	movb   $0x31,0x20b55f(%rip)        # 212058 <s+0x18>
    6af9:	c6 05 4d b5 20 00 70 	movb   $0x70,0x20b54d(%rip)        # 21204d <s+0xd>
    6b00:	c6 05 44 b5 20 00 30 	movb   $0x30,0x20b544(%rip)        # 21204b <s+0xb>
    6b07:	c6 05 4a b5 20 00 4f 	movb   $0x4f,0x20b54a(%rip)        # 212058 <s+0x18>
    6b0e:	c6 05 4c b5 20 00 46 	movb   $0x46,0x20b54c(%rip)        # 212061 <s+0x21>
    6b15:	c6 05 4b b5 20 00 6e 	movb   $0x6e,0x20b54b(%rip)        # 212067 <s+0x27>
    6b1c:	c6 05 36 b5 20 00 52 	movb   $0x52,0x20b536(%rip)        # 212059 <s+0x19>
    6b23:	c6 05 22 b5 20 00 7e 	movb   $0x7e,0x20b522(%rip)        # 21204c <s+0xc>
    6b2a:	c6 05 13 b5 20 00 6b 	movb   $0x6b,0x20b513(%rip)        # 212044 <s+0x4>
    6b31:	c6 05 19 b5 20 00 26 	movb   $0x26,0x20b519(%rip)        # 212051 <s+0x11>
    6b38:	c6 05 1a b5 20 00 6f 	movb   $0x6f,0x20b51a(%rip)        # 212059 <s+0x19>
    6b3f:	c6 05 10 b5 20 00 6f 	movb   $0x6f,0x20b510(%rip)        # 212056 <s+0x16>
    6b46:	c6 05 f9 b4 20 00 43 	movb   $0x43,0x20b4f9(%rip)        # 212046 <s+0x6>
    6b4d:	c6 05 10 b5 20 00 6b 	movb   $0x6b,0x20b510(%rip)        # 212064 <s+0x24>
    6b54:	c6 05 eb b4 20 00 5a 	movb   $0x5a,0x20b4eb(%rip)        # 212046 <s+0x6>
    6b5b:	c6 05 f0 b4 20 00 32 	movb   $0x32,0x20b4f0(%rip)        # 212052 <s+0x12>
    6b62:	c6 05 f7 b4 20 00 5a 	movb   $0x5a,0x20b4f7(%rip)        # 212060 <s+0x20>
    6b69:	c6 05 e5 b4 20 00 7e 	movb   $0x7e,0x20b4e5(%rip)        # 212055 <s+0x15>
    6b70:	c6 05 d5 b4 20 00 77 	movb   $0x77,0x20b4d5(%rip)        # 21204c <s+0xc>
    6b77:	c6 05 c9 b4 20 00 63 	movb   $0x63,0x20b4c9(%rip)        # 212047 <s+0x7>
    6b7e:	c6 05 bc b4 20 00 78 	movb   $0x78,0x20b4bc(%rip)        # 212041 <s+0x1>
    6b85:	c6 05 cb b4 20 00 76 	movb   $0x76,0x20b4cb(%rip)        # 212057 <s+0x17>
    6b8c:	c6 05 bc b4 20 00 34 	movb   $0x34,0x20b4bc(%rip)        # 21204f <s+0xf>
    6b93:	c6 05 c0 b4 20 00 77 	movb   $0x77,0x20b4c0(%rip)        # 21205a <s+0x1a>
    6b9a:	c6 05 c4 b4 20 00 54 	movb   $0x54,0x20b4c4(%rip)        # 212065 <s+0x25>
    6ba1:	c6 05 99 b4 20 00 7c 	movb   $0x7c,0x20b499(%rip)        # 212041 <s+0x1>
    6ba8:	c6 05 b8 b4 20 00 52 	movb   $0x52,0x20b4b8(%rip)        # 212067 <s+0x27>
    6baf:	c6 05 8a b4 20 00 61 	movb   $0x61,0x20b48a(%rip)        # 212040 <s>
    6bb6:	c6 05 a8 b4 20 00 52 	movb   $0x52,0x20b4a8(%rip)        # 212065 <s+0x25>
    6bbd:	c6 05 87 b4 20 00 3a 	movb   $0x3a,0x20b487(%rip)        # 21204b <s+0xb>
    6bc4:	c6 05 79 b4 20 00 34 	movb   $0x34,0x20b479(%rip)        # 212044 <s+0x4>
    6bcb:	c6 05 7f b4 20 00 4d 	movb   $0x4d,0x20b47f(%rip)        # 212051 <s+0x11>
    6bd2:	c6 05 7c b4 20 00 4e 	movb   $0x4e,0x20b47c(%rip)        # 212055 <s+0x15>
    6bd9:	c6 05 7d b4 20 00 63 	movb   $0x63,0x20b47d(%rip)        # 21205d <s+0x1d>
    6be0:	c6 05 76 b4 20 00 6f 	movb   $0x6f,0x20b476(%rip)        # 21205d <s+0x1d>
    6be7:	c6 05 6d b4 20 00 41 	movb   $0x41,0x20b46d(%rip)        # 21205b <s+0x1b>
    6bee:	c6 05 51 b4 20 00 7e 	movb   $0x7e,0x20b451(%rip)        # 212046 <s+0x6>
    6bf5:	c6 05 5f b4 20 00 32 	movb   $0x32,0x20b45f(%rip)        # 21205b <s+0x1b>
    6bfc:	c6 05 50 b4 20 00 3d 	movb   $0x3d,0x20b450(%rip)        # 212053 <s+0x13>
    6c03:	c6 05 4f b4 20 00 46 	movb   $0x46,0x20b44f(%rip)        # 212059 <s+0x19>
    6c0a:	c6 05 42 b4 20 00 4b 	movb   $0x4b,0x20b442(%rip)        # 212053 <s+0x13>
    6c11:	c6 05 2d b4 20 00 33 	movb   $0x33,0x20b42d(%rip)        # 212045 <s+0x5>
    6c18:	c6 05 26 b4 20 00 61 	movb   $0x61,0x20b426(%rip)        # 212045 <s+0x5>
    6c1f:	c6 05 31 b4 20 00 2b 	movb   $0x2b,0x20b431(%rip)        # 212057 <s+0x17>
    6c26:	c6 05 28 b4 20 00 54 	movb   $0x54,0x20b428(%rip)        # 212055 <s+0x15>
    6c2d:	c6 05 1f b4 20 00 2e 	movb   $0x2e,0x20b41f(%rip)        # 212053 <s+0x13>
    6c34:	c6 05 07 b4 20 00 47 	movb   $0x47,0x20b407(%rip)        # 212042 <s+0x2>
    6c3b:	c6 05 17 b4 20 00 7e 	movb   $0x7e,0x20b417(%rip)        # 212059 <s+0x19>
    6c42:	c6 05 01 b4 20 00 7e 	movb   $0x7e,0x20b401(%rip)        # 21204a <s+0xa>
    6c49:	c6 05 11 b4 20 00 58 	movb   $0x58,0x20b411(%rip)        # 212061 <s+0x21>
    6c50:	c6 05 fa b3 20 00 7e 	movb   $0x7e,0x20b3fa(%rip)        # 212051 <s+0x11>
    6c57:	c6 05 e3 b3 20 00 68 	movb   $0x68,0x20b3e3(%rip)        # 212041 <s+0x1>
    6c5e:	c6 05 ec b3 20 00 30 	movb   $0x30,0x20b3ec(%rip)        # 212051 <s+0x11>
    6c65:	c6 05 d8 b3 20 00 40 	movb   $0x40,0x20b3d8(%rip)        # 212044 <s+0x4>
    6c6c:	c6 05 f1 b3 20 00 7c 	movb   $0x7c,0x20b3f1(%rip)        # 212064 <s+0x24>
    6c73:	c6 05 d0 b3 20 00 7c 	movb   $0x7c,0x20b3d0(%rip)        # 21204a <s+0xa>
    6c7a:	c6 05 c2 b3 20 00 30 	movb   $0x30,0x20b3c2(%rip)        # 212043 <s+0x3>
    6c81:	c6 05 c5 b3 20 00 5e 	movb   $0x5e,0x20b3c5(%rip)        # 21204d <s+0xd>
    6c88:	c6 05 d4 b3 20 00 79 	movb   $0x79,0x20b3d4(%rip)        # 212063 <s+0x23>
    6c8f:	c6 05 c4 b3 20 00 6e 	movb   $0x6e,0x20b3c4(%rip)        # 21205a <s+0x1a>
    6c96:	c6 05 bb b3 20 00 60 	movb   $0x60,0x20b3bb(%rip)        # 212058 <s+0x18>
    6c9d:	c6 05 a2 b3 20 00 21 	movb   $0x21,0x20b3a2(%rip)        # 212046 <s+0x6>
    6ca4:	c6 05 a8 b3 20 00 25 	movb   $0x25,0x20b3a8(%rip)        # 212053 <s+0x13>
    6cab:	c6 05 94 b3 20 00 74 	movb   $0x74,0x20b394(%rip)        # 212046 <s+0x6>
    6cb2:	c6 05 9f b3 20 00 6e 	movb   $0x6e,0x20b39f(%rip)        # 212058 <s+0x18>
    6cb9:	c6 05 a4 b3 20 00 3f 	movb   $0x3f,0x20b3a4(%rip)        # 212064 <s+0x24>
    6cc0:	c6 05 95 b3 20 00 3b 	movb   $0x3b,0x20b395(%rip)        # 21205c <s+0x1c>
    6cc7:	c6 05 75 b3 20 00 55 	movb   $0x55,0x20b375(%rip)        # 212043 <s+0x3>
    6cce:	c6 05 88 b3 20 00 2d 	movb   $0x2d,0x20b388(%rip)        # 21205d <s+0x1d>
    6cd5:	c6 05 71 b3 20 00 39 	movb   $0x39,0x20b371(%rip)        # 21204d <s+0xd>
    6cdc:	c6 05 78 b3 20 00 20 	movb   $0x20,0x20b378(%rip)        # 21205b <s+0x1b>
    6ce3:	c6 05 72 b3 20 00 59 	movb   $0x59,0x20b372(%rip)        # 21205c <s+0x1c>
    6cea:	c6 05 5b b3 20 00 6c 	movb   $0x6c,0x20b35b(%rip)        # 21204c <s+0xc>
    6cf1:	c6 05 5b b3 20 00 2b 	movb   $0x2b,0x20b35b(%rip)        # 212053 <s+0x13>
    6cf8:	c6 05 4a b3 20 00 46 	movb   $0x46,0x20b34a(%rip)        # 212049 <s+0x9>
    6cff:	c6 05 5e b3 20 00 66 	movb   $0x66,0x20b35e(%rip)        # 212064 <s+0x24>
    6d06:	c6 05 54 b3 20 00 46 	movb   $0x46,0x20b354(%rip)        # 212061 <s+0x21>
    6d0d:	c6 05 4a b3 20 00 31 	movb   $0x31,0x20b34a(%rip)        # 21205e <s+0x1e>
    6d14:	c6 05 4b b3 20 00 7b 	movb   $0x7b,0x20b34b(%rip)        # 212066 <s+0x26>
    6d1b:	c6 05 30 b3 20 00 6e 	movb   $0x6e,0x20b330(%rip)        # 212052 <s+0x12>
    6d22:	c6 05 1d b3 20 00 7e 	movb   $0x7e,0x20b31d(%rip)        # 212046 <s+0x6>
    6d29:	c6 05 33 b3 20 00 41 	movb   $0x41,0x20b333(%rip)        # 212063 <s+0x23>
    6d30:	c6 05 19 b3 20 00 31 	movb   $0x31,0x20b319(%rip)        # 212050 <s+0x10>
    6d37:	c6 05 28 b3 20 00 6f 	movb   $0x6f,0x20b328(%rip)        # 212066 <s+0x26>
    6d3e:	c6 05 1d b3 20 00 21 	movb   $0x21,0x20b31d(%rip)        # 212062 <s+0x22>
    6d45:	c6 05 0a b3 20 00 71 	movb   $0x71,0x20b30a(%rip)        # 212056 <s+0x16>
    6d4c:	c6 05 04 b3 20 00 72 	movb   $0x72,0x20b304(%rip)        # 212057 <s+0x17>
    6d53:	c6 05 f2 b2 20 00 4d 	movb   $0x4d,0x20b2f2(%rip)        # 21204c <s+0xc>
    6d5a:	c6 05 eb b2 20 00 3b 	movb   $0x3b,0x20b2eb(%rip)        # 21204c <s+0xc>
    6d61:	c6 05 f6 b2 20 00 62 	movb   $0x62,0x20b2f6(%rip)        # 21205e <s+0x1e>
    6d68:	c6 05 e8 b2 20 00 6f 	movb   $0x6f,0x20b2e8(%rip)        # 212057 <s+0x17>
    6d6f:	c6 05 e8 b2 20 00 38 	movb   $0x38,0x20b2e8(%rip)        # 21205e <s+0x1e>
    6d76:	c6 05 d7 b2 20 00 2e 	movb   $0x2e,0x20b2d7(%rip)        # 212054 <s+0x14>
    6d7d:	c6 05 c1 b2 20 00 5d 	movb   $0x5d,0x20b2c1(%rip)        # 212045 <s+0x5>
    6d84:	c6 05 d3 b2 20 00 59 	movb   $0x59,0x20b2d3(%rip)        # 21205e <s+0x1e>
    6d8b:	c6 05 bc b2 20 00 54 	movb   $0x54,0x20b2bc(%rip)        # 21204e <s+0xe>
    6d92:	c6 05 c0 b2 20 00 79 	movb   $0x79,0x20b2c0(%rip)        # 212059 <s+0x19>
    6d99:	c6 05 a9 b2 20 00 37 	movb   $0x37,0x20b2a9(%rip)        # 212049 <s+0x9>
    6da0:	c6 05 a9 b2 20 00 44 	movb   $0x44,0x20b2a9(%rip)        # 212050 <s+0x10>
    6da7:	c6 05 ab b2 20 00 20 	movb   $0x20,0x20b2ab(%rip)        # 212059 <s+0x19>
    6dae:	c6 05 ae b2 20 00 20 	movb   $0x20,0x20b2ae(%rip)        # 212063 <s+0x23>
    6db5:	c6 05 89 b2 20 00 50 	movb   $0x50,0x20b289(%rip)        # 212045 <s+0x5>
    6dbc:	c6 05 98 b2 20 00 64 	movb   $0x64,0x20b298(%rip)        # 21205b <s+0x1b>
    6dc3:	c6 05 83 b2 20 00 22 	movb   $0x22,0x20b283(%rip)        # 21204d <s+0xd>
    6dca:	c6 05 73 b2 20 00 54 	movb   $0x54,0x20b273(%rip)        # 212044 <s+0x4>
    6dd1:	c6 05 74 b2 20 00 4a 	movb   $0x4a,0x20b274(%rip)        # 21204c <s+0xc>
    6dd8:	c6 05 64 b2 20 00 4a 	movb   $0x4a,0x20b264(%rip)        # 212043 <s+0x3>
    6ddf:	c6 05 5e b2 20 00 75 	movb   $0x75,0x20b25e(%rip)        # 212044 <s+0x4>
    6de6:	c6 05 60 b2 20 00 49 	movb   $0x49,0x20b260(%rip)        # 21204d <s+0xd>
    6ded:	c6 05 6d b2 20 00 36 	movb   $0x36,0x20b26d(%rip)        # 212061 <s+0x21>
    6df4:	c6 05 5d b2 20 00 34 	movb   $0x34,0x20b25d(%rip)        # 212058 <s+0x18>
    6dfb:	c6 05 4f b2 20 00 45 	movb   $0x45,0x20b24f(%rip)        # 212051 <s+0x11>
    6e02:	c6 05 46 b2 20 00 48 	movb   $0x48,0x20b246(%rip)        # 21204f <s+0xf>
    6e09:	c6 05 50 b2 20 00 72 	movb   $0x72,0x20b250(%rip)        # 212060 <s+0x20>
    6e10:	c6 05 3f b2 20 00 4b 	movb   $0x4b,0x20b23f(%rip)        # 212056 <s+0x16>
    6e17:	c6 05 2e b2 20 00 63 	movb   $0x63,0x20b22e(%rip)        # 21204c <s+0xc>
    6e1e:	c6 05 37 b2 20 00 35 	movb   $0x35,0x20b237(%rip)        # 21205c <s+0x1c>
    6e25:	c6 05 2f b2 20 00 2e 	movb   $0x2e,0x20b22f(%rip)        # 21205b <s+0x1b>
    6e2c:	c6 05 25 b2 20 00 32 	movb   $0x32,0x20b225(%rip)        # 212058 <s+0x18>
    6e33:	c6 05 24 b2 20 00 36 	movb   $0x36,0x20b224(%rip)        # 21205e <s+0x1e>
    6e3a:	c6 05 18 b2 20 00 49 	movb   $0x49,0x20b218(%rip)        # 212059 <s+0x19>
    6e41:	c6 05 1f b2 20 00 41 	movb   $0x41,0x20b21f(%rip)        # 212067 <s+0x27>
    6e48:	c6 05 08 b2 20 00 4f 	movb   $0x4f,0x20b208(%rip)        # 212057 <s+0x17>
    6e4f:	c6 05 ec b1 20 00 31 	movb   $0x31,0x20b1ec(%rip)        # 212042 <s+0x2>
    6e56:	c6 05 e3 b1 20 00 25 	movb   $0x25,0x20b1e3(%rip)        # 212040 <s>
    6e5d:	c6 05 ea b1 20 00 2c 	movb   $0x2c,0x20b1ea(%rip)        # 21204e <s+0xe>
    6e64:	c6 05 e8 b1 20 00 6f 	movb   $0x6f,0x20b1e8(%rip)        # 212053 <s+0x13>
    6e6b:	c6 05 f5 b1 20 00 79 	movb   $0x79,0x20b1f5(%rip)        # 212067 <s+0x27>
    6e72:	c6 05 ee b1 20 00 30 	movb   $0x30,0x20b1ee(%rip)        # 212067 <s+0x27>
    6e79:	c6 05 e5 b1 20 00 2b 	movb   $0x2b,0x20b1e5(%rip)        # 212065 <s+0x25>
    6e80:	c6 05 c0 b1 20 00 46 	movb   $0x46,0x20b1c0(%rip)        # 212047 <s+0x7>
    6e87:	c6 05 c4 b1 20 00 64 	movb   $0x64,0x20b1c4(%rip)        # 212052 <s+0x12>
    6e8e:	c6 05 af b1 20 00 52 	movb   $0x52,0x20b1af(%rip)        # 212044 <s+0x4>
    6e95:	c6 05 bd b1 20 00 7e 	movb   $0x7e,0x20b1bd(%rip)        # 212059 <s+0x19>
    6e9c:	c6 05 c0 b1 20 00 32 	movb   $0x32,0x20b1c0(%rip)        # 212063 <s+0x23>
    6ea3:	c6 05 99 b1 20 00 5b 	movb   $0x5b,0x20b199(%rip)        # 212043 <s+0x3>
    6eaa:	c6 05 94 b1 20 00 77 	movb   $0x77,0x20b194(%rip)        # 212045 <s+0x5>
    6eb1:	c6 05 96 b1 20 00 44 	movb   $0x44,0x20b196(%rip)        # 21204e <s+0xe>
    6eb8:	c6 05 a4 b1 20 00 61 	movb   $0x61,0x20b1a4(%rip)        # 212063 <s+0x23>
    6ebf:	c6 05 7c b1 20 00 67 	movb   $0x67,0x20b17c(%rip)        # 212042 <s+0x2>
    6ec6:	c6 05 80 b1 20 00 7e 	movb   $0x7e,0x20b180(%rip)        # 21204d <s+0xd>
    6ecd:	c6 05 73 b1 20 00 2b 	movb   $0x2b,0x20b173(%rip)        # 212047 <s+0x7>
    6ed4:	c6 05 6e b1 20 00 64 	movb   $0x64,0x20b16e(%rip)        # 212049 <s+0x9>
    6edb:	c6 05 83 b1 20 00 67 	movb   $0x67,0x20b183(%rip)        # 212065 <s+0x25>
    6ee2:	c6 05 75 b1 20 00 40 	movb   $0x40,0x20b175(%rip)        # 21205e <s+0x1e>
    6ee9:	c6 05 70 b1 20 00 45 	movb   $0x45,0x20b170(%rip)        # 212060 <s+0x20>
    6ef0:	c6 05 5f b1 20 00 37 	movb   $0x37,0x20b15f(%rip)        # 212056 <s+0x16>
    6ef7:	c6 05 63 b1 20 00 44 	movb   $0x44,0x20b163(%rip)        # 212061 <s+0x21>
    6efe:	c6 05 4e b1 20 00 4b 	movb   $0x4b,0x20b14e(%rip)        # 212053 <s+0x13>
    6f05:	c6 05 36 b1 20 00 6e 	movb   $0x6e,0x20b136(%rip)        # 212042 <s+0x2>
    6f0c:	c6 05 31 b1 20 00 53 	movb   $0x53,0x20b131(%rip)        # 212044 <s+0x4>
    6f13:	c6 05 49 b1 20 00 7a 	movb   $0x7a,0x20b149(%rip)        # 212063 <s+0x23>
    6f1a:	c6 05 23 b1 20 00 5f 	movb   $0x5f,0x20b123(%rip)        # 212044 <s+0x4>
    6f21:	c6 05 24 b1 20 00 36 	movb   $0x36,0x20b124(%rip)        # 21204c <s+0xc>
    6f28:	c6 05 1e b1 20 00 25 	movb   $0x25,0x20b11e(%rip)        # 21204d <s+0xd>
    6f2f:	c6 05 22 b1 20 00 72 	movb   $0x72,0x20b122(%rip)        # 212058 <s+0x18>
    6f36:	c6 05 1b b1 20 00 6d 	movb   $0x6d,0x20b11b(%rip)        # 212058 <s+0x18>
    6f3d:	c6 05 18 b1 20 00 62 	movb   $0x62,0x20b118(%rip)        # 21205c <s+0x1c>
    6f44:	c6 05 17 b1 20 00 3d 	movb   $0x3d,0x20b117(%rip)        # 212062 <s+0x22>
    6f4b:	c6 05 ee b0 20 00 50 	movb   $0x50,0x20b0ee(%rip)        # 212040 <s>
    6f52:	c6 05 0a b1 20 00 73 	movb   $0x73,0x20b10a(%rip)        # 212063 <s+0x23>
    6f59:	c6 05 05 b1 20 00 6c 	movb   $0x6c,0x20b105(%rip)        # 212065 <s+0x25>
    6f60:	c6 05 ff b0 20 00 7e 	movb   $0x7e,0x20b0ff(%rip)        # 212066 <s+0x26>
    6f67:	c6 05 dd b0 20 00 78 	movb   $0x78,0x20b0dd(%rip)        # 21204b <s+0xb>
    6f6e:	c6 05 e3 b0 20 00 77 	movb   $0x77,0x20b0e3(%rip)        # 212058 <s+0x18>
    6f75:	c6 05 e0 b0 20 00 4f 	movb   $0x4f,0x20b0e0(%rip)        # 21205c <s+0x1c>
    6f7c:	c6 05 c8 b0 20 00 7e 	movb   $0x7e,0x20b0c8(%rip)        # 21204b <s+0xb>
    6f83:	c6 05 bb b0 20 00 25 	movb   $0x25,0x20b0bb(%rip)        # 212045 <s+0x5>
    6f8a:	c6 05 be b0 20 00 7e 	movb   $0x7e,0x20b0be(%rip)        # 21204f <s+0xf>
    6f91:	c6 05 ad b0 20 00 44 	movb   $0x44,0x20b0ad(%rip)        # 212045 <s+0x5>
    6f98:	c6 05 b6 b0 20 00 30 	movb   $0x30,0x20b0b6(%rip)        # 212055 <s+0x15>
    6f9f:	c6 05 b3 b0 20 00 20 	movb   $0x20,0x20b0b3(%rip)        # 212059 <s+0x19>
    6fa6:	c6 05 b0 b0 20 00 4d 	movb   $0x4d,0x20b0b0(%rip)        # 21205d <s+0x1d>
    6fad:	c6 05 a5 b0 20 00 3d 	movb   $0x3d,0x20b0a5(%rip)        # 212059 <s+0x19>
    6fb4:	c6 05 97 b0 20 00 3e 	movb   $0x3e,0x20b097(%rip)        # 212052 <s+0x12>
    6fbb:	c6 05 87 b0 20 00 7c 	movb   $0x7c,0x20b087(%rip)        # 212049 <s+0x9>
    6fc2:	c6 05 86 b0 20 00 20 	movb   $0x20,0x20b086(%rip)        # 21204f <s+0xf>
    6fc9:	c6 05 84 b0 20 00 76 	movb   $0x76,0x20b084(%rip)        # 212054 <s+0x14>
    6fd0:	c6 05 8a b0 20 00 6f 	movb   $0x6f,0x20b08a(%rip)        # 212061 <s+0x21>
    6fd7:	c6 05 88 b0 20 00 33 	movb   $0x33,0x20b088(%rip)        # 212066 <s+0x26>
    6fde:	c6 05 73 b0 20 00 56 	movb   $0x56,0x20b073(%rip)        # 212058 <s+0x18>
    6fe5:	c6 05 5d b0 20 00 66 	movb   $0x66,0x20b05d(%rip)        # 212049 <s+0x9>
    6fec:	c6 05 65 b0 20 00 24 	movb   $0x24,0x20b065(%rip)        # 212058 <s+0x18>
    6ff3:	c6 05 4c b0 20 00 21 	movb   $0x21,0x20b04c(%rip)        # 212046 <s+0x6>
    6ffa:	c6 05 5e b0 20 00 33 	movb   $0x33,0x20b05e(%rip)        # 21205f <s+0x1f>
    7001:	c6 05 3f b0 20 00 4a 	movb   $0x4a,0x20b03f(%rip)        # 212047 <s+0x7>
    7008:	c6 05 45 b0 20 00 2b 	movb   $0x2b,0x20b045(%rip)        # 212054 <s+0x14>
    700f:	c6 05 37 b0 20 00 33 	movb   $0x33,0x20b037(%rip)        # 21204d <s+0xd>
    7016:	c6 05 44 b0 20 00 56 	movb   $0x56,0x20b044(%rip)        # 212061 <s+0x21>
    701d:	c6 05 25 b0 20 00 5b 	movb   $0x5b,0x20b025(%rip)        # 212049 <s+0x9>
    7024:	c6 05 25 b0 20 00 62 	movb   $0x62,0x20b025(%rip)        # 212050 <s+0x10>
    702b:	c6 05 13 b0 20 00 47 	movb   $0x47,0x20b013(%rip)        # 212045 <s+0x5>
    7032:	c6 05 2d b0 20 00 5d 	movb   $0x5d,0x20b02d(%rip)        # 212066 <s+0x26>
    7039:	c6 05 1a b0 20 00 56 	movb   $0x56,0x20b01a(%rip)        # 21205a <s+0x1a>
    7040:	c6 05 01 b0 20 00 38 	movb   $0x38,0x20b001(%rip)        # 212048 <s+0x8>
    7047:	c6 05 17 b0 20 00 71 	movb   $0x71,0x20b017(%rip)        # 212065 <s+0x25>
    704e:	c6 05 f9 af 20 00 40 	movb   $0x40,0x20aff9(%rip)        # 21204e <s+0xe>
    7055:	c6 05 fb af 20 00 74 	movb   $0x74,0x20affb(%rip)        # 212057 <s+0x17>
    705c:	c6 05 fe af 20 00 6b 	movb   $0x6b,0x20affe(%rip)        # 212061 <s+0x21>
    7063:	c6 05 f3 af 20 00 43 	movb   $0x43,0x20aff3(%rip)        # 21205d <s+0x1d>
    706a:	c6 05 d9 af 20 00 53 	movb   $0x53,0x20afd9(%rip)        # 21204a <s+0xa>
    7071:	c6 05 ea af 20 00 7e 	movb   $0x7e,0x20afea(%rip)        # 212062 <s+0x22>
    7078:	c6 05 c4 af 20 00 21 	movb   $0x21,0x20afc4(%rip)        # 212043 <s+0x3>
    707f:	c6 05 ce af 20 00 58 	movb   $0x58,0x20afce(%rip)        # 212054 <s+0x14>
    7086:	c6 05 cc af 20 00 2d 	movb   $0x2d,0x20afcc(%rip)        # 212059 <s+0x19>
    708d:	c6 05 b2 af 20 00 26 	movb   $0x26,0x20afb2(%rip)        # 212046 <s+0x6>
    7094:	c6 05 a9 af 20 00 6a 	movb   $0x6a,0x20afa9(%rip)        # 212044 <s+0x4>
    709b:	c6 05 be af 20 00 64 	movb   $0x64,0x20afbe(%rip)        # 212060 <s+0x20>
    70a2:	c6 05 b0 af 20 00 60 	movb   $0x60,0x20afb0(%rip)        # 212059 <s+0x19>
    70a9:	c6 05 a7 af 20 00 35 	movb   $0x35,0x20afa7(%rip)        # 212057 <s+0x17>
    70b0:	c6 05 97 af 20 00 3b 	movb   $0x3b,0x20af97(%rip)        # 21204e <s+0xe>
    70b7:	c6 05 a1 af 20 00 57 	movb   $0x57,0x20afa1(%rip)        # 21205f <s+0x1f>
    70be:	c6 05 94 af 20 00 7e 	movb   $0x7e,0x20af94(%rip)        # 212059 <s+0x19>
    70c5:	c6 05 9b af 20 00 61 	movb   $0x61,0x20af9b(%rip)        # 212067 <s+0x27>
    70cc:	c6 05 8c af 20 00 58 	movb   $0x58,0x20af8c(%rip)        # 21205f <s+0x1f>
    70d3:	c6 05 83 af 20 00 6b 	movb   $0x6b,0x20af83(%rip)        # 21205d <s+0x1d>
    70da:	c6 05 64 af 20 00 75 	movb   $0x75,0x20af64(%rip)        # 212045 <s+0x5>
    70e1:	c6 05 6e af 20 00 51 	movb   $0x51,0x20af6e(%rip)        # 212056 <s+0x16>
    70e8:	c6 05 5a af 20 00 69 	movb   $0x69,0x20af5a(%rip)        # 212049 <s+0x9>
    70ef:	c6 05 67 af 20 00 5b 	movb   $0x5b,0x20af67(%rip)        # 21205d <s+0x1d>
    70f6:	c6 05 5b af 20 00 21 	movb   $0x21,0x20af5b(%rip)        # 212058 <s+0x18>
    70fd:	c6 05 61 af 20 00 34 	movb   $0x34,0x20af61(%rip)        # 212065 <s+0x25>
    7104:	c6 05 58 af 20 00 76 	movb   $0x76,0x20af58(%rip)        # 212063 <s+0x23>
    710b:	c6 05 52 af 20 00 7e 	movb   $0x7e,0x20af52(%rip)        # 212064 <s+0x24>
    7112:	c6 05 46 af 20 00 70 	movb   $0x70,0x20af46(%rip)        # 21205f <s+0x1f>
    7119:	c6 05 3c af 20 00 2c 	movb   $0x2c,0x20af3c(%rip)        # 21205c <s+0x1c>
    7120:	c6 05 24 af 20 00 3f 	movb   $0x3f,0x20af24(%rip)        # 21204b <s+0xb>
    7127:	c6 05 1a af 20 00 42 	movb   $0x42,0x20af1a(%rip)        # 212048 <s+0x8>
    712e:	c6 05 21 af 20 00 26 	movb   $0x26,0x20af21(%rip)        # 212056 <s+0x16>
    7135:	c6 05 1f af 20 00 67 	movb   $0x67,0x20af1f(%rip)        # 21205b <s+0x1b>
    713c:	c6 05 1c af 20 00 6a 	movb   $0x6a,0x20af1c(%rip)        # 21205f <s+0x1f>
    7143:	c6 05 05 af 20 00 42 	movb   $0x42,0x20af05(%rip)        # 21204f <s+0xf>
    714a:	c6 05 0e af 20 00 58 	movb   $0x58,0x20af0e(%rip)        # 21205f <s+0x1f>
    7151:	c6 05 ed ae 20 00 33 	movb   $0x33,0x20aeed(%rip)        # 212045 <s+0x5>
    7158:	c6 05 f2 ae 20 00 62 	movb   $0x62,0x20aef2(%rip)        # 212051 <s+0x11>
    715f:	c6 05 f3 ae 20 00 49 	movb   $0x49,0x20aef3(%rip)        # 212059 <s+0x19>
    7166:	c6 05 e7 ae 20 00 60 	movb   $0x60,0x20aee7(%rip)        # 212054 <s+0x14>
    716d:	c6 05 e1 ae 20 00 71 	movb   $0x71,0x20aee1(%rip)        # 212055 <s+0x15>
    7174:	c6 05 d4 ae 20 00 2f 	movb   $0x2f,0x20aed4(%rip)        # 21204f <s+0xf>
    717b:	c6 05 c8 ae 20 00 71 	movb   $0x71,0x20aec8(%rip)        # 21204a <s+0xa>
    7182:	c6 05 bc ae 20 00 43 	movb   $0x43,0x20aebc(%rip)        # 212045 <s+0x5>
    7189:	c6 05 c7 ae 20 00 5a 	movb   $0x5a,0x20aec7(%rip)        # 212057 <s+0x17>
    7190:	c6 05 cd ae 20 00 71 	movb   $0x71,0x20aecd(%rip)        # 212064 <s+0x24>
    7197:	c6 05 be ae 20 00 65 	movb   $0x65,0x20aebe(%rip)        # 21205c <s+0x1c>
    719e:	c6 05 9c ae 20 00 7e 	movb   $0x7e,0x20ae9c(%rip)        # 212041 <s+0x1>
    71a5:	c6 05 ba ae 20 00 7e 	movb   $0x7e,0x20aeba(%rip)        # 212066 <s+0x26>
    71ac:	c6 05 9f ae 20 00 76 	movb   $0x76,0x20ae9f(%rip)        # 212052 <s+0x12>
    71b3:	c6 05 a0 ae 20 00 5f 	movb   $0x5f,0x20aea0(%rip)        # 21205a <s+0x1a>
    71ba:	c6 05 8d ae 20 00 66 	movb   $0x66,0x20ae8d(%rip)        # 21204e <s+0xe>
    71c1:	c6 05 8b ae 20 00 4c 	movb   $0x4c,0x20ae8b(%rip)        # 212053 <s+0x13>
    71c8:	c6 05 91 ae 20 00 43 	movb   $0x43,0x20ae91(%rip)        # 212060 <s+0x20>
    71cf:	c6 05 86 ae 20 00 26 	movb   $0x26,0x20ae86(%rip)        # 21205c <s+0x1c>
    71d6:	c6 05 68 ae 20 00 30 	movb   $0x30,0x20ae68(%rip)        # 212045 <s+0x5>
    71dd:	c6 05 71 ae 20 00 5f 	movb   $0x5f,0x20ae71(%rip)        # 212055 <s+0x15>
    71e4:	c6 05 7a ae 20 00 2a 	movb   $0x2a,0x20ae7a(%rip)        # 212065 <s+0x25>
    71eb:	c6 05 6d ae 20 00 44 	movb   $0x44,0x20ae6d(%rip)        # 21205f <s+0x1f>
    71f2:	c6 05 57 ae 20 00 7d 	movb   $0x7d,0x20ae57(%rip)        # 212050 <s+0x10>
    71f9:	c6 05 59 ae 20 00 7b 	movb   $0x7b,0x20ae59(%rip)        # 212059 <s+0x19>
    7200:	c6 05 43 ae 20 00 63 	movb   $0x63,0x20ae43(%rip)        # 21204a <s+0xa>
    7207:	c6 05 3a ae 20 00 6f 	movb   $0x6f,0x20ae3a(%rip)        # 212048 <s+0x8>
    720e:	c6 05 46 ae 20 00 2c 	movb   $0x2c,0x20ae46(%rip)        # 21205b <s+0x1b>
    7215:	c6 05 4a ae 20 00 49 	movb   $0x49,0x20ae4a(%rip)        # 212066 <s+0x26>
    721c:	c6 05 1e ae 20 00 31 	movb   $0x31,0x20ae1e(%rip)        # 212041 <s+0x1>
    7223:	c6 05 37 ae 20 00 7e 	movb   $0x7e,0x20ae37(%rip)        # 212061 <s+0x21>
    722a:	c6 05 10 ae 20 00 3e 	movb   $0x3e,0x20ae10(%rip)        # 212041 <s+0x1>
    7231:	c6 05 1c ae 20 00 76 	movb   $0x76,0x20ae1c(%rip)        # 212054 <s+0x14>
    7238:	c6 05 0c ae 20 00 7e 	movb   $0x7e,0x20ae0c(%rip)        # 21204b <s+0xb>
    723f:	c6 05 1d ae 20 00 35 	movb   $0x35,0x20ae1d(%rip)        # 212063 <s+0x23>
    7246:	c6 05 0d ae 20 00 34 	movb   $0x34,0x20ae0d(%rip)        # 21205a <s+0x1a>
    724d:	c6 05 fa ad 20 00 7e 	movb   $0x7e,0x20adfa(%rip)        # 21204e <s+0xe>
    7254:	c6 05 ed ad 20 00 51 	movb   $0x51,0x20aded(%rip)        # 212048 <s+0x8>
    725b:	c6 05 04 ae 20 00 35 	movb   $0x35,0x20ae04(%rip)        # 212066 <s+0x26>
    7262:	c6 05 f3 ad 20 00 4a 	movb   $0x4a,0x20adf3(%rip)        # 21205c <s+0x1c>
    7269:	c6 05 f2 ad 20 00 2a 	movb   $0x2a,0x20adf2(%rip)        # 212062 <s+0x22>
    7270:	c6 05 e6 ad 20 00 68 	movb   $0x68,0x20ade6(%rip)        # 21205d <s+0x1d>
    7277:	c6 05 d1 ad 20 00 5f 	movb   $0x5f,0x20add1(%rip)        # 21204f <s+0xf>
    727e:	c6 05 bc ad 20 00 7e 	movb   $0x7e,0x20adbc(%rip)        # 212041 <s+0x1>
    7285:	c6 05 d8 ad 20 00 76 	movb   $0x76,0x20add8(%rip)        # 212064 <s+0x24>
    728c:	c6 05 cf ad 20 00 39 	movb   $0x39,0x20adcf(%rip)        # 212062 <s+0x22>
    7293:	c6 05 b4 ad 20 00 31 	movb   $0x31,0x20adb4(%rip)        # 21204e <s+0xe>
    729a:	c6 05 a8 ad 20 00 63 	movb   $0x63,0x20ada8(%rip)        # 212049 <s+0x9>
    72a1:	c6 05 9f ad 20 00 31 	movb   $0x31,0x20ad9f(%rip)        # 212047 <s+0x7>
    72a8:	c6 05 9b ad 20 00 55 	movb   $0x55,0x20ad9b(%rip)        # 21204a <s+0xa>
    72af:	c6 05 8f ad 20 00 47 	movb   $0x47,0x20ad8f(%rip)        # 212045 <s+0x5>
    72b6:	c6 05 99 ad 20 00 24 	movb   $0x24,0x20ad99(%rip)        # 212056 <s+0x16>
    72bd:	c6 05 99 ad 20 00 47 	movb   $0x47,0x20ad99(%rip)        # 21205d <s+0x1d>
    72c4:	c6 05 8e ad 20 00 3d 	movb   $0x3d,0x20ad8e(%rip)        # 212059 <s+0x19>
    72cb:	c6 05 91 ad 20 00 64 	movb   $0x64,0x20ad91(%rip)        # 212063 <s+0x23>
    72d2:	c6 05 87 ad 20 00 64 	movb   $0x64,0x20ad87(%rip)        # 212060 <s+0x20>
    72d9:	c6 05 71 ad 20 00 35 	movb   $0x35,0x20ad71(%rip)        # 212051 <s+0x11>
    72e0:	c6 05 70 ad 20 00 39 	movb   $0x39,0x20ad70(%rip)        # 212057 <s+0x17>
    72e7:	c6 05 68 ad 20 00 67 	movb   $0x67,0x20ad68(%rip)        # 212056 <s+0x16>
    72ee:	c6 05 67 ad 20 00 28 	movb   $0x28,0x20ad67(%rip)        # 21205c <s+0x1c>
    72f5:	c6 05 56 ad 20 00 2b 	movb   $0x2b,0x20ad56(%rip)        # 212052 <s+0x12>
    72fc:	c6 05 54 ad 20 00 76 	movb   $0x76,0x20ad54(%rip)        # 212057 <s+0x17>
    7303:	c6 05 59 ad 20 00 7c 	movb   $0x7c,0x20ad59(%rip)        # 212063 <s+0x23>
    730a:	c6 05 52 ad 20 00 7d 	movb   $0x7d,0x20ad52(%rip)        # 212063 <s+0x23>
    7311:	c6 05 45 ad 20 00 6a 	movb   $0x6a,0x20ad45(%rip)        # 21205d <s+0x1d>
    7318:	c6 05 39 ad 20 00 54 	movb   $0x54,0x20ad39(%rip)        # 212058 <s+0x18>
    731f:	c6 05 3a ad 20 00 20 	movb   $0x20,0x20ad3a(%rip)        # 212060 <s+0x20>
    7326:	c6 05 2e ad 20 00 67 	movb   $0x67,0x20ad2e(%rip)        # 21205b <s+0x1b>
    732d:	c6 05 0f ad 20 00 56 	movb   $0x56,0x20ad0f(%rip)        # 212043 <s+0x3>
    7334:	c6 05 1a ad 20 00 2f 	movb   $0x2f,0x20ad1a(%rip)        # 212055 <s+0x15>
    733b:	c6 05 13 ad 20 00 6c 	movb   $0x6c,0x20ad13(%rip)        # 212055 <s+0x15>
    7342:	c6 05 1e ad 20 00 74 	movb   $0x74,0x20ad1e(%rip)        # 212067 <s+0x27>
    7349:	c6 05 f9 ac 20 00 64 	movb   $0x64,0x20acf9(%rip)        # 212049 <s+0x9>
    7350:	c6 05 ec ac 20 00 5a 	movb   $0x5a,0x20acec(%rip)        # 212043 <s+0x3>
    7357:	c6 05 06 ad 20 00 47 	movb   $0x47,0x20ad06(%rip)        # 212064 <s+0x24>
    735e:	c6 05 e4 ac 20 00 59 	movb   $0x59,0x20ace4(%rip)        # 212049 <s+0x9>
    7365:	c6 05 ee ac 20 00 73 	movb   $0x73,0x20acee(%rip)        # 21205a <s+0x1a>
    736c:	c6 05 dd ac 20 00 40 	movb   $0x40,0x20acdd(%rip)        # 212050 <s+0x10>
    7373:	c6 05 da ac 20 00 3c 	movb   $0x3c,0x20acda(%rip)        # 212054 <s+0x14>
    737a:	c6 05 d9 ac 20 00 55 	movb   $0x55,0x20acd9(%rip)        # 21205a <s+0x1a>
    7381:	c6 05 c4 ac 20 00 3f 	movb   $0x3f,0x20acc4(%rip)        # 21204c <s+0xc>
    7388:	c6 05 c9 ac 20 00 70 	movb   $0x70,0x20acc9(%rip)        # 212058 <s+0x18>
    738f:	c6 05 b5 ac 20 00 46 	movb   $0x46,0x20acb5(%rip)        # 21204b <s+0xb>
    7396:	c6 05 b3 ac 20 00 4f 	movb   $0x4f,0x20acb3(%rip)        # 212050 <s+0x10>
    739d:	c6 05 a6 ac 20 00 49 	movb   $0x49,0x20aca6(%rip)        # 21204a <s+0xa>
    73a4:	c6 05 b1 ac 20 00 7c 	movb   $0x7c,0x20acb1(%rip)        # 21205c <s+0x1c>
    73ab:	c6 05 98 ac 20 00 2b 	movb   $0x2b,0x20ac98(%rip)        # 21204a <s+0xa>
    73b2:	c6 05 90 ac 20 00 32 	movb   $0x32,0x20ac90(%rip)        # 212049 <s+0x9>
    73b9:	c6 05 85 ac 20 00 42 	movb   $0x42,0x20ac85(%rip)        # 212045 <s+0x5>
    73c0:	c6 05 95 ac 20 00 39 	movb   $0x39,0x20ac95(%rip)        # 21205c <s+0x1c>
    73c7:	c6 05 74 ac 20 00 7c 	movb   $0x7c,0x20ac74(%rip)        # 212042 <s+0x2>
    73ce:	c6 05 8e ac 20 00 44 	movb   $0x44,0x20ac8e(%rip)        # 212063 <s+0x23>
    73d5:	c6 05 7c ac 20 00 5a 	movb   $0x5a,0x20ac7c(%rip)        # 212058 <s+0x18>
    73dc:	c6 05 71 ac 20 00 52 	movb   $0x52,0x20ac71(%rip)        # 212054 <s+0x14>
    73e3:	c6 05 7d ac 20 00 4b 	movb   $0x4b,0x20ac7d(%rip)        # 212067 <s+0x27>
    73ea:	c6 05 6f ac 20 00 23 	movb   $0x23,0x20ac6f(%rip)        # 212060 <s+0x20>
    73f1:	c6 05 59 ac 20 00 4d 	movb   $0x4d,0x20ac59(%rip)        # 212051 <s+0x11>
    73f8:	c6 05 51 ac 20 00 59 	movb   $0x59,0x20ac51(%rip)        # 212050 <s+0x10>
    73ff:	c6 05 5f ac 20 00 56 	movb   $0x56,0x20ac5f(%rip)        # 212065 <s+0x25>
    7406:	c6 05 42 ac 20 00 52 	movb   $0x52,0x20ac42(%rip)        # 21204f <s+0xf>
    740d:	c6 05 46 ac 20 00 7a 	movb   $0x7a,0x20ac46(%rip)        # 21205a <s+0x1a>
    7414:	c6 05 4c ac 20 00 6d 	movb   $0x6d,0x20ac4c(%rip)        # 212067 <s+0x27>
    741b:	c6 05 26 ac 20 00 23 	movb   $0x23,0x20ac26(%rip)        # 212048 <s+0x8>
    7422:	c6 05 1a ac 20 00 6b 	movb   $0x6b,0x20ac1a(%rip)        # 212043 <s+0x3>
    7429:	c6 05 35 ac 20 00 49 	movb   $0x49,0x20ac35(%rip)        # 212065 <s+0x25>
    7430:	c6 05 14 ac 20 00 49 	movb   $0x49,0x20ac14(%rip)        # 21204b <s+0xb>
    7437:	c6 05 1e ac 20 00 25 	movb   $0x25,0x20ac1e(%rip)        # 21205c <s+0x1c>
    743e:	c6 05 18 ac 20 00 7e 	movb   $0x7e,0x20ac18(%rip)        # 21205d <s+0x1d>
    7445:	c6 05 f6 ab 20 00 26 	movb   $0x26,0x20abf6(%rip)        # 212042 <s+0x2>
    744c:	c6 05 02 ac 20 00 65 	movb   $0x65,0x20ac02(%rip)        # 212055 <s+0x15>
    7453:	c6 05 f4 ab 20 00 65 	movb   $0x65,0x20abf4(%rip)        # 21204e <s+0xe>
    745a:	c6 05 f4 ab 20 00 61 	movb   $0x61,0x20abf4(%rip)        # 212055 <s+0x15>
    7461:	c6 05 f6 ab 20 00 7c 	movb   $0x7c,0x20abf6(%rip)        # 21205e <s+0x1e>
    7468:	c6 05 d3 ab 20 00 49 	movb   $0x49,0x20abd3(%rip)        # 212042 <s+0x2>
    746f:	c6 05 f0 ab 20 00 3a 	movb   $0x3a,0x20abf0(%rip)        # 212066 <s+0x26>
    7476:	c6 05 e6 ab 20 00 67 	movb   $0x67,0x20abe6(%rip)        # 212063 <s+0x23>
    747d:	c6 05 d9 ab 20 00 3f 	movb   $0x3f,0x20abd9(%rip)        # 21205d <s+0x1d>
    7484:	c6 05 c9 ab 20 00 77 	movb   $0x77,0x20abc9(%rip)        # 212054 <s+0x14>
    748b:	c6 05 bf ab 20 00 2c 	movb   $0x2c,0x20abbf(%rip)        # 212051 <s+0x11>
    7492:	c6 05 a7 ab 20 00 24 	movb   $0x24,0x20aba7(%rip)        # 212040 <s>
    7499:	c6 05 b2 ab 20 00 42 	movb   $0x42,0x20abb2(%rip)        # 212052 <s+0x12>
    74a0:	c6 05 b5 ab 20 00 6a 	movb   $0x6a,0x20abb5(%rip)        # 21205c <s+0x1c>
    74a7:	c6 05 9a ab 20 00 6e 	movb   $0x6e,0x20ab9a(%rip)        # 212048 <s+0x8>
    74ae:	c6 05 a6 ab 20 00 58 	movb   $0x58,0x20aba6(%rip)        # 21205b <s+0x1b>
    74b5:	c6 05 92 ab 20 00 55 	movb   $0x55,0x20ab92(%rip)        # 21204e <s+0xe>
    74bc:	c6 05 85 ab 20 00 75 	movb   $0x75,0x20ab85(%rip)        # 212048 <s+0x8>
    74c3:	c6 05 95 ab 20 00 6f 	movb   $0x6f,0x20ab95(%rip)        # 21205f <s+0x1f>
    74ca:	c6 05 7c ab 20 00 32 	movb   $0x32,0x20ab7c(%rip)        # 21204d <s+0xd>
    74d1:	c6 05 8c ab 20 00 4c 	movb   $0x4c,0x20ab8c(%rip)        # 212064 <s+0x24>
    74d8:	c6 05 80 ab 20 00 75 	movb   $0x75,0x20ab80(%rip)        # 21205f <s+0x1f>
    74df:	c6 05 77 ab 20 00 61 	movb   $0x61,0x20ab77(%rip)        # 21205d <s+0x1d>
    74e6:	c6 05 58 ab 20 00 57 	movb   $0x57,0x20ab58(%rip)        # 212045 <s+0x5>
    74ed:	c6 05 64 ab 20 00 79 	movb   $0x79,0x20ab64(%rip)        # 212058 <s+0x18>
    74f4:	c6 05 4c ab 20 00 56 	movb   $0x56,0x20ab4c(%rip)        # 212047 <s+0x7>
    74fb:	c6 05 53 ab 20 00 4f 	movb   $0x4f,0x20ab53(%rip)        # 212055 <s+0x15>
    7502:	c6 05 52 ab 20 00 40 	movb   $0x40,0x20ab52(%rip)        # 21205b <s+0x1b>
    7509:	c6 05 51 ab 20 00 51 	movb   $0x51,0x20ab51(%rip)        # 212061 <s+0x21>
    7510:	c6 05 3b ab 20 00 4f 	movb   $0x4f,0x20ab3b(%rip)        # 212052 <s+0x12>
    7517:	c6 05 3b ab 20 00 4d 	movb   $0x4d,0x20ab3b(%rip)        # 212059 <s+0x19>
    751e:	c6 05 1b ab 20 00 42 	movb   $0x42,0x20ab1b(%rip)        # 212040 <s>
    7525:	c6 05 1b ab 20 00 35 	movb   $0x35,0x20ab1b(%rip)        # 212047 <s+0x7>
    752c:	c6 05 13 ab 20 00 54 	movb   $0x54,0x20ab13(%rip)        # 212046 <s+0x6>
    7533:	c6 05 25 ab 20 00 45 	movb   $0x45,0x20ab25(%rip)        # 21205f <s+0x1f>
    753a:	c6 05 10 ab 20 00 4e 	movb   $0x4e,0x20ab10(%rip)        # 212051 <s+0x11>
    7541:	c6 05 10 ab 20 00 38 	movb   $0x38,0x20ab10(%rip)        # 212058 <s+0x18>
    7548:	c6 05 00 ab 20 00 54 	movb   $0x54,0x20ab00(%rip)        # 21204f <s+0xf>
    754f:	c6 05 06 ab 20 00 3e 	movb   $0x3e,0x20ab06(%rip)        # 21205c <s+0x1c>
    7556:	c6 05 e3 aa 20 00 2a 	movb   $0x2a,0x20aae3(%rip)        # 212040 <s>
    755d:	c6 05 fc aa 20 00 28 	movb   $0x28,0x20aafc(%rip)        # 212060 <s+0x20>
    7564:	c6 05 e1 aa 20 00 5f 	movb   $0x5f,0x20aae1(%rip)        # 21204c <s+0xc>
    756b:	c6 05 ed aa 20 00 3c 	movb   $0x3c,0x20aaed(%rip)        # 21205f <s+0x1f>
    7572:	c6 05 da aa 20 00 79 	movb   $0x79,0x20aada(%rip)        # 212053 <s+0x13>
    7579:	c6 05 d0 aa 20 00 50 	movb   $0x50,0x20aad0(%rip)        # 212050 <s+0x10>
    7580:	c6 05 cf aa 20 00 7e 	movb   $0x7e,0x20aacf(%rip)        # 212056 <s+0x16>
    7587:	c6 05 ba aa 20 00 3b 	movb   $0x3b,0x20aaba(%rip)        # 212048 <s+0x8>
    758e:	c6 05 c3 aa 20 00 7b 	movb   $0x7b,0x20aac3(%rip)        # 212058 <s+0x18>
    7595:	c6 05 a8 aa 20 00 22 	movb   $0x22,0x20aaa8(%rip)        # 212044 <s+0x4>
    759c:	c6 05 c2 aa 20 00 5a 	movb   $0x5a,0x20aac2(%rip)        # 212065 <s+0x25>
    75a3:	c6 05 ac aa 20 00 7c 	movb   $0x7c,0x20aaac(%rip)        # 212056 <s+0x16>
    75aa:	c6 05 a7 aa 20 00 75 	movb   $0x75,0x20aaa7(%rip)        # 212058 <s+0x18>
    75b1:	c6 05 ae aa 20 00 39 	movb   $0x39,0x20aaae(%rip)        # 212066 <s+0x26>
    75b8:	c6 05 85 aa 20 00 7c 	movb   $0x7c,0x20aa85(%rip)        # 212044 <s+0x4>
    75bf:	c6 05 9e aa 20 00 67 	movb   $0x67,0x20aa9e(%rip)        # 212064 <s+0x24>
    75c6:	c6 05 88 aa 20 00 36 	movb   $0x36,0x20aa88(%rip)        # 212055 <s+0x15>
    75cd:	c6 05 82 aa 20 00 75 	movb   $0x75,0x20aa82(%rip)        # 212056 <s+0x16>
    75d4:	c6 05 65 aa 20 00 7b 	movb   $0x7b,0x20aa65(%rip)        # 212040 <s>
    75db:	c6 05 62 aa 20 00 6e 	movb   $0x6e,0x20aa62(%rip)        # 212044 <s+0x4>
    75e2:	c6 05 70 aa 20 00 75 	movb   $0x75,0x20aa70(%rip)        # 212059 <s+0x19>
    75e9:	c6 05 69 aa 20 00 34 	movb   $0x34,0x20aa69(%rip)        # 212059 <s+0x19>
    75f0:	c6 05 54 aa 20 00 66 	movb   $0x66,0x20aa54(%rip)        # 21204b <s+0xb>
    75f7:	c6 05 4a aa 20 00 6f 	movb   $0x6f,0x20aa4a(%rip)        # 212048 <s+0x8>
    75fe:	c6 05 45 aa 20 00 69 	movb   $0x69,0x20aa45(%rip)        # 21204a <s+0xa>
    7605:	c6 05 55 aa 20 00 3c 	movb   $0x3c,0x20aa55(%rip)        # 212061 <s+0x21>
    760c:	c6 05 43 aa 20 00 26 	movb   $0x26,0x20aa43(%rip)        # 212056 <s+0x16>
    7613:	c6 05 49 aa 20 00 51 	movb   $0x51,0x20aa49(%rip)        # 212063 <s+0x23>
    761a:	c6 05 35 aa 20 00 7e 	movb   $0x7e,0x20aa35(%rip)        # 212056 <s+0x16>
    7621:	c6 05 3e aa 20 00 24 	movb   $0x24,0x20aa3e(%rip)        # 212066 <s+0x26>
    7628:	c6 05 31 aa 20 00 39 	movb   $0x39,0x20aa31(%rip)        # 212060 <s+0x20>
    762f:	c6 05 1d aa 20 00 24 	movb   $0x24,0x20aa1d(%rip)        # 212053 <s+0x13>
    7636:	c6 05 13 aa 20 00 48 	movb   $0x48,0x20aa13(%rip)        # 212050 <s+0x10>
    763d:	c6 05 1b aa 20 00 75 	movb   $0x75,0x20aa1b(%rip)        # 21205f <s+0x1f>
    7644:	c6 05 07 aa 20 00 6b 	movb   $0x6b,0x20aa07(%rip)        # 212052 <s+0x12>
    764b:	c6 05 fa a9 20 00 2b 	movb   $0x2b,0x20a9fa(%rip)        # 21204c <s+0xc>
    7652:	c6 05 ec a9 20 00 4d 	movb   $0x4d,0x20a9ec(%rip)        # 212045 <s+0x5>
    7659:	c6 05 02 aa 20 00 7e 	movb   $0x7e,0x20aa02(%rip)        # 212062 <s+0x22>
    7660:	c6 05 ea a9 20 00 4a 	movb   $0x4a,0x20a9ea(%rip)        # 212051 <s+0x11>
    7667:	c6 05 f2 a9 20 00 4b 	movb   $0x4b,0x20a9f2(%rip)        # 212060 <s+0x20>
    766e:	c6 05 dc a9 20 00 3a 	movb   $0x3a,0x20a9dc(%rip)        # 212051 <s+0x11>
    7675:	c6 05 d7 a9 20 00 6f 	movb   $0x6f,0x20a9d7(%rip)        # 212053 <s+0x13>
    767c:	c6 05 cb a9 20 00 39 	movb   $0x39,0x20a9cb(%rip)        # 21204e <s+0xe>
    7683:	c6 05 d8 a9 20 00 52 	movb   $0x52,0x20a9d8(%rip)        # 212062 <s+0x22>
    768a:	c6 05 b6 a9 20 00 3d 	movb   $0x3d,0x20a9b6(%rip)        # 212047 <s+0x7>
    7691:	c6 05 cb a9 20 00 2d 	movb   $0x2d,0x20a9cb(%rip)        # 212063 <s+0x23>
    7698:	c6 05 a1 a9 20 00 50 	movb   $0x50,0x20a9a1(%rip)        # 212040 <s>
    769f:	c6 05 ba a9 20 00 2e 	movb   $0x2e,0x20a9ba(%rip)        # 212060 <s+0x20>
    76a6:	c6 05 a7 a9 20 00 69 	movb   $0x69,0x20a9a7(%rip)        # 212054 <s+0x14>
    76ad:	c6 05 96 a9 20 00 52 	movb   $0x52,0x20a996(%rip)        # 21204a <s+0xa>
    76b4:	c6 05 97 a9 20 00 32 	movb   $0x32,0x20a997(%rip)        # 212052 <s+0x12>
    76bb:	c6 05 81 a9 20 00 3a 	movb   $0x3a,0x20a981(%rip)        # 212043 <s+0x3>
    76c2:	c6 05 91 a9 20 00 59 	movb   $0x59,0x20a991(%rip)        # 21205a <s+0x1a>
    76c9:	c6 05 89 a9 20 00 23 	movb   $0x23,0x20a989(%rip)        # 212059 <s+0x19>
    76d0:	c6 05 8c a9 20 00 4d 	movb   $0x4d,0x20a98c(%rip)        # 212063 <s+0x23>
    76d7:	c6 05 66 a9 20 00 2a 	movb   $0x2a,0x20a966(%rip)        # 212044 <s+0x4>
    76de:	c6 05 67 a9 20 00 69 	movb   $0x69,0x20a967(%rip)        # 21204c <s+0xc>
    76e5:	c6 05 68 a9 20 00 59 	movb   $0x59,0x20a968(%rip)        # 212054 <s+0x14>
    76ec:	c6 05 59 a9 20 00 36 	movb   $0x36,0x20a959(%rip)        # 21204c <s+0xc>
    76f3:	c6 05 6c a9 20 00 47 	movb   $0x47,0x20a96c(%rip)        # 212066 <s+0x26>
    76fa:	c6 05 4e a9 20 00 2d 	movb   $0x2d,0x20a94e(%rip)        # 21204f <s+0xf>
    7701:	c6 05 5b a9 20 00 41 	movb   $0x41,0x20a95b(%rip)        # 212063 <s+0x23>
    7708:	c6 05 37 a9 20 00 49 	movb   $0x49,0x20a937(%rip)        # 212046 <s+0x6>
    770f:	c6 05 2b a9 20 00 68 	movb   $0x68,0x20a92b(%rip)        # 212041 <s+0x1>
    7716:	c6 05 3b a9 20 00 6d 	movb   $0x6d,0x20a93b(%rip)        # 212058 <s+0x18>
    771d:	c6 05 42 a9 20 00 22 	movb   $0x22,0x20a942(%rip)        # 212066 <s+0x26>
    7724:	c6 05 28 a9 20 00 56 	movb   $0x56,0x20a928(%rip)        # 212053 <s+0x13>
    772b:	c6 05 10 a9 20 00 55 	movb   $0x55,0x20a910(%rip)        # 212042 <s+0x2>
    7732:	c6 05 27 a9 20 00 7a 	movb   $0x7a,0x20a927(%rip)        # 212060 <s+0x20>
    7739:	c6 05 16 a9 20 00 55 	movb   $0x55,0x20a916(%rip)        # 212056 <s+0x16>
    7740:	c6 05 0d a9 20 00 62 	movb   $0x62,0x20a90d(%rip)        # 212054 <s+0x14>
    7747:	c6 05 05 a9 20 00 50 	movb   $0x50,0x20a905(%rip)        # 212053 <s+0x13>
    774e:	c6 05 10 a9 20 00 3a 	movb   $0x3a,0x20a910(%rip)        # 212065 <s+0x25>
    7755:	c6 05 f2 a8 20 00 55 	movb   $0x55,0x20a8f2(%rip)        # 21204e <s+0xe>
    775c:	c6 05 fe a8 20 00 36 	movb   $0x36,0x20a8fe(%rip)        # 212061 <s+0x21>
    7763:	c6 05 f1 a8 20 00 48 	movb   $0x48,0x20a8f1(%rip)        # 21205b <s+0x1b>
    776a:	c6 05 dd a8 20 00 5e 	movb   $0x5e,0x20a8dd(%rip)        # 21204e <s+0xe>
    7771:	c6 05 e7 a8 20 00 46 	movb   $0x46,0x20a8e7(%rip)        # 21205f <s+0x1f>
    7778:	c6 05 c2 a8 20 00 39 	movb   $0x39,0x20a8c2(%rip)        # 212041 <s+0x1>
    777f:	c6 05 c6 a8 20 00 4c 	movb   $0x4c,0x20a8c6(%rip)        # 21204c <s+0xc>
    7786:	c6 05 d3 a8 20 00 64 	movb   $0x64,0x20a8d3(%rip)        # 212060 <s+0x20>
    778d:	c6 05 d3 a8 20 00 61 	movb   $0x61,0x20a8d3(%rip)        # 212067 <s+0x27>
    7794:	c6 05 cc a8 20 00 2a 	movb   $0x2a,0x20a8cc(%rip)        # 212067 <s+0x27>
    779b:	c6 05 c4 a8 20 00 21 	movb   $0x21,0x20a8c4(%rip)        # 212066 <s+0x26>
    77a2:	c6 05 9d a8 20 00 44 	movb   $0x44,0x20a89d(%rip)        # 212046 <s+0x6>
    77a9:	c6 05 ae a8 20 00 4b 	movb   $0x4b,0x20a8ae(%rip)        # 21205e <s+0x1e>
    77b0:	c6 05 9f a8 20 00 76 	movb   $0x76,0x20a89f(%rip)        # 212056 <s+0x16>
    77b7:	c6 05 8a a8 20 00 22 	movb   $0x22,0x20a88a(%rip)        # 212048 <s+0x8>
    77be:	c6 05 8d a8 20 00 46 	movb   $0x46,0x20a88d(%rip)        # 212052 <s+0x12>
    77c5:	c6 05 8c a8 20 00 66 	movb   $0x66,0x20a88c(%rip)        # 212058 <s+0x18>
    77cc:	c6 05 73 a8 20 00 62 	movb   $0x62,0x20a873(%rip)        # 212046 <s+0x6>
    77d3:	c6 05 72 a8 20 00 46 	movb   $0x46,0x20a872(%rip)        # 21204c <s+0xc>
    77da:	c6 05 77 a8 20 00 4e 	movb   $0x4e,0x20a877(%rip)        # 212058 <s+0x18>
    77e1:	c6 05 7a a8 20 00 39 	movb   $0x39,0x20a87a(%rip)        # 212062 <s+0x22>
    77e8:	c6 05 51 a8 20 00 4d 	movb   $0x4d,0x20a851(%rip)        # 212040 <s>
    77ef:	c6 05 67 a8 20 00 52 	movb   $0x52,0x20a867(%rip)        # 21205d <s+0x1d>
    77f6:	c6 05 44 a8 20 00 6d 	movb   $0x6d,0x20a844(%rip)        # 212041 <s+0x1>
    77fd:	c6 05 60 a8 20 00 76 	movb   $0x76,0x20a860(%rip)        # 212064 <s+0x24>
    7804:	c6 05 3a a8 20 00 37 	movb   $0x37,0x20a83a(%rip)        # 212045 <s+0x5>
    780b:	c6 05 42 a8 20 00 6b 	movb   $0x6b,0x20a842(%rip)        # 212054 <s+0x14>
    7812:	c6 05 41 a8 20 00 62 	movb   $0x62,0x20a841(%rip)        # 21205a <s+0x1a>
    7819:	c6 05 30 a8 20 00 4b 	movb   $0x4b,0x20a830(%rip)        # 212050 <s+0x10>
    7820:	c6 05 1c a8 20 00 4a 	movb   $0x4a,0x20a81c(%rip)        # 212043 <s+0x3>
    7827:	c6 05 36 a8 20 00 44 	movb   $0x44,0x20a836(%rip)        # 212064 <s+0x24>
    782e:	c6 05 0e a8 20 00 28 	movb   $0x28,0x20a80e(%rip)        # 212043 <s+0x3>
    7835:	c6 05 27 a8 20 00 29 	movb   $0x29,0x20a827(%rip)        # 212063 <s+0x23>
    783c:	c6 05 23 a8 20 00 3a 	movb   $0x3a,0x20a823(%rip)        # 212066 <s+0x26>
    7843:	c6 05 13 a8 20 00 7d 	movb   $0x7d,0x20a813(%rip)        # 21205d <s+0x1d>
    784a:	c6 05 04 a8 20 00 48 	movb   $0x48,0x20a804(%rip)        # 212055 <s+0x15>
    7851:	c6 05 f2 a7 20 00 58 	movb   $0x58,0x20a7f2(%rip)        # 21204a <s+0xa>
    7858:	c6 05 fe a7 20 00 4e 	movb   $0x4e,0x20a7fe(%rip)        # 21205d <s+0x1d>
    785f:	c6 05 f5 a7 20 00 7c 	movb   $0x7c,0x20a7f5(%rip)        # 21205b <s+0x1b>
    7866:	c6 05 f0 a7 20 00 2e 	movb   $0x2e,0x20a7f0(%rip)        # 21205d <s+0x1d>
    786d:	c6 05 cc a7 20 00 46 	movb   $0x46,0x20a7cc(%rip)        # 212040 <s>
    7874:	c6 05 c9 a7 20 00 45 	movb   $0x45,0x20a7c9(%rip)        # 212044 <s+0x4>
    787b:	c6 05 c8 a7 20 00 58 	movb   $0x58,0x20a7c8(%rip)        # 21204a <s+0xa>
    7882:	c6 05 db a7 20 00 5f 	movb   $0x5f,0x20a7db(%rip)        # 212064 <s+0x24>
    7889:	c6 05 d2 a7 20 00 3b 	movb   $0x3b,0x20a7d2(%rip)        # 212062 <s+0x22>
    7890:	c6 05 c3 a7 20 00 61 	movb   $0x61,0x20a7c3(%rip)        # 21205a <s+0x1a>
    7897:	c6 05 ac a7 20 00 44 	movb   $0x44,0x20a7ac(%rip)        # 21204a <s+0xa>
    789e:	c6 05 9d a7 20 00 42 	movb   $0x42,0x20a79d(%rip)        # 212042 <s+0x2>
    78a5:	c6 05 9a a7 20 00 7d 	movb   $0x7d,0x20a79a(%rip)        # 212046 <s+0x6>
    78ac:	c6 05 98 a7 20 00 76 	movb   $0x76,0x20a798(%rip)        # 21204b <s+0xb>
    78b3:	c6 05 9b a7 20 00 44 	movb   $0x44,0x20a79b(%rip)        # 212055 <s+0x15>
    78ba:	c6 05 8e a7 20 00 66 	movb   $0x66,0x20a78e(%rip)        # 21204f <s+0xf>
    78c1:	c6 05 9f a7 20 00 31 	movb   $0x31,0x20a79f(%rip)        # 212067 <s+0x27>
    78c8:	c6 05 86 a7 20 00 43 	movb   $0x43,0x20a786(%rip)        # 212055 <s+0x15>
    78cf:	c6 05 74 a7 20 00 35 	movb   $0x35,0x20a774(%rip)        # 21204a <s+0xa>
    78d6:	c6 05 68 a7 20 00 6b 	movb   $0x6b,0x20a768(%rip)        # 212045 <s+0x5>
    78dd:	c6 05 76 a7 20 00 72 	movb   $0x72,0x20a776(%rip)        # 21205a <s+0x1a>
    78e4:	c6 05 5c a7 20 00 5e 	movb   $0x5e,0x20a75c(%rip)        # 212047 <s+0x7>
    78eb:	c6 05 6f a7 20 00 46 	movb   $0x46,0x20a76f(%rip)        # 212061 <s+0x21>
    78f2:	c6 05 59 a7 20 00 30 	movb   $0x30,0x20a759(%rip)        # 212052 <s+0x12>
    78f9:	c6 05 5f a7 20 00 29 	movb   $0x29,0x20a75f(%rip)        # 21205f <s+0x1f>
    7900:	c6 05 3d a7 20 00 3a 	movb   $0x3a,0x20a73d(%rip)        # 212044 <s+0x4>
    7907:	c6 05 44 a7 20 00 4e 	movb   $0x4e,0x20a744(%rip)        # 212052 <s+0x12>
    790e:	c6 05 52 a7 20 00 54 	movb   $0x54,0x20a752(%rip)        # 212067 <s+0x27>
    7915:	c6 05 41 a7 20 00 56 	movb   $0x56,0x20a741(%rip)        # 21205d <s+0x1d>
    791c:	c6 05 39 a7 20 00 22 	movb   $0x22,0x20a739(%rip)        # 21205c <s+0x1c>
    7923:	c6 05 1b a7 20 00 2c 	movb   $0x2c,0x20a71b(%rip)        # 212045 <s+0x5>
    792a:	c6 05 19 a7 20 00 38 	movb   $0x38,0x20a719(%rip)        # 21204a <s+0xa>
    7931:	c6 05 23 a7 20 00 54 	movb   $0x54,0x20a723(%rip)        # 21205b <s+0x1b>
    7938:	c6 05 25 a7 20 00 3a 	movb   $0x3a,0x20a725(%rip)        # 212064 <s+0x24>
    793f:	c6 05 08 a7 20 00 3c 	movb   $0x3c,0x20a708(%rip)        # 21204e <s+0xe>
    7946:	c6 05 fb a6 20 00 48 	movb   $0x48,0x20a6fb(%rip)        # 212048 <s+0x8>
    794d:	c6 05 03 a7 20 00 78 	movb   $0x78,0x20a703(%rip)        # 212057 <s+0x17>
    7954:	c6 05 f9 a6 20 00 32 	movb   $0x32,0x20a6f9(%rip)        # 212054 <s+0x14>
    795b:	c6 05 01 a7 20 00 62 	movb   $0x62,0x20a701(%rip)        # 212063 <s+0x23>
    7962:	c6 05 f7 a6 20 00 38 	movb   $0x38,0x20a6f7(%rip)        # 212060 <s+0x20>
    7969:	c6 05 dc a6 20 00 28 	movb   $0x28,0x20a6dc(%rip)        # 21204c <s+0xc>
    7970:	c6 05 c9 a6 20 00 47 	movb   $0x47,0x20a6c9(%rip)        # 212040 <s>
    7977:	c6 05 c3 a6 20 00 70 	movb   $0x70,0x20a6c3(%rip)        # 212041 <s+0x1>
    797e:	c6 05 c6 a6 20 00 38 	movb   $0x38,0x20a6c6(%rip)        # 21204b <s+0xb>
    7985:	c6 05 d4 a6 20 00 6f 	movb   $0x6f,0x20a6d4(%rip)        # 212060 <s+0x20>
    798c:	c6 05 c6 a6 20 00 7d 	movb   $0x7d,0x20a6c6(%rip)        # 212059 <s+0x19>
    7993:	c6 05 b9 a6 20 00 62 	movb   $0x62,0x20a6b9(%rip)        # 212053 <s+0x13>
    799a:	c6 05 af a6 20 00 7c 	movb   $0x7c,0x20a6af(%rip)        # 212050 <s+0x10>
    79a1:	c6 05 b8 a6 20 00 52 	movb   $0x52,0x20a6b8(%rip)        # 212060 <s+0x20>
    79a8:	c6 05 af a6 20 00 66 	movb   $0x66,0x20a6af(%rip)        # 21205e <s+0x1e>
    79af:	c6 05 9e a6 20 00 6c 	movb   $0x6c,0x20a69e(%rip)        # 212054 <s+0x14>
    79b6:	c6 05 83 a6 20 00 3d 	movb   $0x3d,0x20a683(%rip)        # 212040 <s>
    79bd:	c6 05 94 a6 20 00 79 	movb   $0x79,0x20a694(%rip)        # 212058 <s+0x18>
    79c4:	c6 05 95 a6 20 00 36 	movb   $0x36,0x20a695(%rip)        # 212060 <s+0x20>
    79cb:	c6 05 8f a6 20 00 74 	movb   $0x74,0x20a68f(%rip)        # 212061 <s+0x21>
    79d2:	c6 05 6a a6 20 00 4f 	movb   $0x4f,0x20a66a(%rip)        # 212043 <s+0x3>
    79d9:	c6 05 63 a6 20 00 78 	movb   $0x78,0x20a663(%rip)        # 212043 <s+0x3>
    79e0:	c6 05 74 a6 20 00 44 	movb   $0x44,0x20a674(%rip)        # 21205b <s+0x1b>
    79e7:	c6 05 73 a6 20 00 47 	movb   $0x47,0x20a673(%rip)        # 212061 <s+0x21>
    79ee:	c6 05 69 a6 20 00 56 	movb   $0x56,0x20a669(%rip)        # 21205e <s+0x1e>
    79f5:	c6 05 65 a6 20 00 76 	movb   $0x76,0x20a665(%rip)        # 212061 <s+0x21>
    79fc:	c6 05 58 a6 20 00 73 	movb   $0x73,0x20a658(%rip)        # 21205b <s+0x1b>
    7a03:	c6 05 36 a6 20 00 3c 	movb   $0x3c,0x20a636(%rip)        # 212040 <s>
    7a0a:	c6 05 50 a6 20 00 61 	movb   $0x61,0x20a650(%rip)        # 212061 <s+0x21>
    7a11:	c6 05 36 a6 20 00 5f 	movb   $0x5f,0x20a636(%rip)        # 21204e <s+0xe>
    7a18:	c6 05 27 a6 20 00 25 	movb   $0x25,0x20a627(%rip)        # 212046 <s+0x6>
    7a1f:	c6 05 3a a6 20 00 4c 	movb   $0x4c,0x20a63a(%rip)        # 212060 <s+0x20>
    7a26:	c6 05 17 a6 20 00 62 	movb   $0x62,0x20a617(%rip)        # 212044 <s+0x4>
    7a2d:	c6 05 22 a6 20 00 4c 	movb   $0x4c,0x20a622(%rip)        # 212056 <s+0x16>
    7a34:	c6 05 21 a6 20 00 54 	movb   $0x54,0x20a621(%rip)        # 21205c <s+0x1c>
    7a3b:	c6 05 0e a6 20 00 6e 	movb   $0x6e,0x20a60e(%rip)        # 212050 <s+0x10>
    7a42:	c6 05 0e a6 20 00 61 	movb   $0x61,0x20a60e(%rip)        # 212057 <s+0x17>
    7a49:	c6 05 0e a6 20 00 6e 	movb   $0x6e,0x20a60e(%rip)        # 21205e <s+0x1e>
    7a50:	c6 05 08 a6 20 00 6c 	movb   $0x6c,0x20a608(%rip)        # 21205f <s+0x1f>
    7a57:	c6 05 f8 a5 20 00 24 	movb   $0x24,0x20a5f8(%rip)        # 212056 <s+0x16>
    7a5e:	c6 05 e8 a5 20 00 7e 	movb   $0x7e,0x20a5e8(%rip)        # 21204d <s+0xd>
    7a65:	c6 05 e4 a5 20 00 7e 	movb   $0x7e,0x20a5e4(%rip)        # 212050 <s+0x10>
    7a6c:	c6 05 d9 a5 20 00 6f 	movb   $0x6f,0x20a5d9(%rip)        # 21204c <s+0xc>
    7a73:	c6 05 ea a5 20 00 58 	movb   $0x58,0x20a5ea(%rip)        # 212064 <s+0x24>
    7a7a:	c6 05 e2 a5 20 00 25 	movb   $0x25,0x20a5e2(%rip)        # 212063 <s+0x23>
    7a81:	c6 05 d1 a5 20 00 34 	movb   $0x34,0x20a5d1(%rip)        # 212059 <s+0x19>
    7a88:	c6 05 cb a5 20 00 55 	movb   $0x55,0x20a5cb(%rip)        # 21205a <s+0x1a>
    7a8f:	c6 05 b6 a5 20 00 7e 	movb   $0x7e,0x20a5b6(%rip)        # 21204c <s+0xc>
    7a96:	c6 05 c4 a5 20 00 33 	movb   $0x33,0x20a5c4(%rip)        # 212061 <s+0x21>
    7a9d:	c6 05 a9 a5 20 00 5f 	movb   $0x5f,0x20a5a9(%rip)        # 21204d <s+0xd>
    7aa4:	c6 05 ba a5 20 00 47 	movb   $0x47,0x20a5ba(%rip)        # 212065 <s+0x25>
    7aab:	c6 05 a9 a5 20 00 52 	movb   $0x52,0x20a5a9(%rip)        # 21205b <s+0x1b>
    7ab2:	c6 05 a2 a5 20 00 73 	movb   $0x73,0x20a5a2(%rip)        # 21205b <s+0x1b>
    7ab9:	c6 05 a6 a5 20 00 47 	movb   $0x47,0x20a5a6(%rip)        # 212066 <s+0x26>
    7ac0:	c6 05 98 a5 20 00 5d 	movb   $0x5d,0x20a598(%rip)        # 21205f <s+0x1f>
    7ac7:	c6 05 7d a5 20 00 7b 	movb   $0x7b,0x20a57d(%rip)        # 21204b <s+0xb>
    7ace:	c6 05 92 a5 20 00 66 	movb   $0x66,0x20a592(%rip)        # 212067 <s+0x27>
    7ad5:	c6 05 77 a5 20 00 20 	movb   $0x20,0x20a577(%rip)        # 212053 <s+0x13>
    7adc:	c6 05 7e a5 20 00 41 	movb   $0x41,0x20a57e(%rip)        # 212061 <s+0x21>
    7ae3:	c6 05 6d a5 20 00 33 	movb   $0x33,0x20a56d(%rip)        # 212057 <s+0x17>
    7aea:	c6 05 64 a5 20 00 4b 	movb   $0x4b,0x20a564(%rip)        # 212055 <s+0x15>
    7af1:	c6 05 56 a5 20 00 62 	movb   $0x62,0x20a556(%rip)        # 21204e <s+0xe>
    7af8:	c6 05 5a a5 20 00 30 	movb   $0x30,0x20a55a(%rip)        # 212059 <s+0x19>
    7aff:	c6 05 40 a5 20 00 26 	movb   $0x26,0x20a540(%rip)        # 212046 <s+0x6>
    7b06:	c6 05 40 a5 20 00 21 	movb   $0x21,0x20a540(%rip)        # 21204d <s+0xd>
    7b0d:	c6 05 39 a5 20 00 2c 	movb   $0x2c,0x20a539(%rip)        # 21204d <s+0xd>
    7b14:	c6 05 25 a5 20 00 7b 	movb   $0x7b,0x20a525(%rip)        # 212040 <s>
    7b1b:	c6 05 45 a5 20 00 7a 	movb   $0x7a,0x20a545(%rip)        # 212067 <s+0x27>
    7b22:	c6 05 18 a5 20 00 3b 	movb   $0x3b,0x20a518(%rip)        # 212041 <s+0x1>
    7b29:	c6 05 29 a5 20 00 4e 	movb   $0x4e,0x20a529(%rip)        # 212059 <s+0x19>
    7b30:	c6 05 2a a5 20 00 6e 	movb   $0x6e,0x20a52a(%rip)        # 212061 <s+0x21>
    7b37:	c6 05 25 a5 20 00 4f 	movb   $0x4f,0x20a525(%rip)        # 212063 <s+0x23>
    7b3e:	c6 05 17 a5 20 00 61 	movb   $0x61,0x20a517(%rip)        # 21205c <s+0x1c>
    7b45:	c6 05 08 a5 20 00 6d 	movb   $0x6d,0x20a508(%rip)        # 212054 <s+0x14>
    7b4c:	c6 05 f4 a4 20 00 2f 	movb   $0x2f,0x20a4f4(%rip)        # 212047 <s+0x7>
    7b53:	c6 05 05 a5 20 00 5a 	movb   $0x5a,0x20a505(%rip)        # 21205f <s+0x1f>
    7b5a:	c6 05 04 a5 20 00 5a 	movb   $0x5a,0x20a504(%rip)        # 212065 <s+0x25>
    7b61:	c6 05 ed a4 20 00 7e 	movb   $0x7e,0x20a4ed(%rip)        # 212055 <s+0x15>
    7b68:	c6 05 e3 a4 20 00 4a 	movb   $0x4a,0x20a4e3(%rip)        # 212052 <s+0x12>
    7b6f:	c6 05 d5 a4 20 00 54 	movb   $0x54,0x20a4d5(%rip)        # 21204b <s+0xb>
    7b76:	c6 05 d1 a4 20 00 68 	movb   $0x68,0x20a4d1(%rip)        # 21204e <s+0xe>
    7b7d:	c6 05 c4 a4 20 00 7e 	movb   $0x7e,0x20a4c4(%rip)        # 212048 <s+0x8>
    7b84:	c6 05 dc a4 20 00 68 	movb   $0x68,0x20a4dc(%rip)        # 212067 <s+0x27>
    7b8b:	c6 05 b5 a4 20 00 50 	movb   $0x50,0x20a4b5(%rip)        # 212047 <s+0x7>
    7b92:	c6 05 b7 a4 20 00 59 	movb   $0x59,0x20a4b7(%rip)        # 212050 <s+0x10>
    7b99:	c6 05 be a4 20 00 42 	movb   $0x42,0x20a4be(%rip)        # 21205e <s+0x1e>
    7ba0:	c6 05 bd a4 20 00 65 	movb   $0x65,0x20a4bd(%rip)        # 212064 <s+0x24>
    7ba7:	c6 05 a5 a4 20 00 25 	movb   $0x25,0x20a4a5(%rip)        # 212053 <s+0x13>
    7bae:	c6 05 96 a4 20 00 69 	movb   $0x69,0x20a496(%rip)        # 21204b <s+0xb>
    7bb5:	c6 05 aa a4 20 00 69 	movb   $0x69,0x20a4aa(%rip)        # 212066 <s+0x26>
    7bbc:	c6 05 a4 a4 20 00 28 	movb   $0x28,0x20a4a4(%rip)        # 212067 <s+0x27>
    7bc3:	c6 05 82 a4 20 00 5b 	movb   $0x5b,0x20a482(%rip)        # 21204c <s+0xc>
    7bca:	c6 05 81 a4 20 00 53 	movb   $0x53,0x20a481(%rip)        # 212052 <s+0x12>
    7bd1:	c6 05 6e a4 20 00 70 	movb   $0x70,0x20a46e(%rip)        # 212046 <s+0x6>
    7bd8:	c6 05 80 a4 20 00 37 	movb   $0x37,0x20a480(%rip)        # 21205f <s+0x1f>
    7bdf:	c6 05 78 a4 20 00 76 	movb   $0x76,0x20a478(%rip)        # 21205e <s+0x1e>
    7be6:	c6 05 5a a4 20 00 34 	movb   $0x34,0x20a45a(%rip)        # 212047 <s+0x7>
    7bed:	c6 05 4d a4 20 00 6e 	movb   $0x6e,0x20a44d(%rip)        # 212041 <s+0x1>
    7bf4:	c6 05 57 a4 20 00 2c 	movb   $0x2c,0x20a457(%rip)        # 212052 <s+0x12>
    7bfb:	c6 05 4d a4 20 00 71 	movb   $0x71,0x20a44d(%rip)        # 21204f <s+0xf>
    7c02:	c6 05 58 a4 20 00 6f 	movb   $0x6f,0x20a458(%rip)        # 212061 <s+0x21>
    7c09:	c6 05 3b a4 20 00 68 	movb   $0x68,0x20a43b(%rip)        # 21204b <s+0xb>
    7c10:	c6 05 38 a4 20 00 2d 	movb   $0x2d,0x20a438(%rip)        # 21204f <s+0xf>
    7c17:	c6 05 44 a4 20 00 66 	movb   $0x66,0x20a444(%rip)        # 212062 <s+0x22>
    7c1e:	c6 05 28 a4 20 00 53 	movb   $0x53,0x20a428(%rip)        # 21204d <s+0xd>
    7c25:	c6 05 2c a4 20 00 76 	movb   $0x76,0x20a42c(%rip)        # 212058 <s+0x18>
    7c2c:	c6 05 22 a4 20 00 49 	movb   $0x49,0x20a422(%rip)        # 212055 <s+0x15>
    7c33:	c6 05 17 a4 20 00 72 	movb   $0x72,0x20a417(%rip)        # 212051 <s+0x11>
    7c3a:	c6 05 01 a4 20 00 7e 	movb   $0x7e,0x20a401(%rip)        # 212042 <s+0x2>
    7c41:	c6 05 05 a4 20 00 4c 	movb   $0x4c,0x20a405(%rip)        # 21204d <s+0xd>
    7c48:	c6 05 12 a4 20 00 5d 	movb   $0x5d,0x20a412(%rip)        # 212061 <s+0x21>
    7c4f:	c6 05 ee a3 20 00 3a 	movb   $0x3a,0x20a3ee(%rip)        # 212044 <s+0x4>
    7c56:	c6 05 ff a3 20 00 74 	movb   $0x74,0x20a3ff(%rip)        # 21205c <s+0x1c>
    7c5d:	c6 05 f6 a3 20 00 76 	movb   $0x76,0x20a3f6(%rip)        # 21205a <s+0x1a>
    7c64:	c6 05 f6 a3 20 00 4a 	movb   $0x4a,0x20a3f6(%rip)        # 212061 <s+0x21>
    7c6b:	c6 05 e0 a3 20 00 66 	movb   $0x66,0x20a3e0(%rip)        # 212052 <s+0x12>
    7c72:	c6 05 df a3 20 00 40 	movb   $0x40,0x20a3df(%rip)        # 212058 <s+0x18>
    7c79:	c6 05 c0 a3 20 00 42 	movb   $0x42,0x20a3c0(%rip)        # 212040 <s>
    7c80:	c6 05 bd a3 20 00 23 	movb   $0x23,0x20a3bd(%rip)        # 212044 <s+0x4>
    7c87:	c6 05 d1 a3 20 00 35 	movb   $0x35,0x20a3d1(%rip)        # 21205f <s+0x1f>
    7c8e:	c6 05 c7 a3 20 00 75 	movb   $0x75,0x20a3c7(%rip)        # 21205c <s+0x1c>
    7c95:	c6 05 b0 a3 20 00 6f 	movb   $0x6f,0x20a3b0(%rip)        # 21204c <s+0xc>
    7c9c:	c6 05 aa a3 20 00 2e 	movb   $0x2e,0x20a3aa(%rip)        # 21204d <s+0xd>
    7ca3:	c6 05 a8 a3 20 00 53 	movb   $0x53,0x20a3a8(%rip)        # 212052 <s+0x12>
    7caa:	c6 05 a5 a3 20 00 65 	movb   $0x65,0x20a3a5(%rip)        # 212056 <s+0x16>
    7cb1:	c6 05 88 a3 20 00 2c 	movb   $0x2c,0x20a388(%rip)        # 212040 <s>
    7cb8:	c6 05 a0 a3 20 00 75 	movb   $0x75,0x20a3a0(%rip)        # 21205f <s+0x1f>
    7cbf:	c6 05 8e a3 20 00 7c 	movb   $0x7c,0x20a38e(%rip)        # 212054 <s+0x14>
    7cc6:	c6 05 88 a3 20 00 39 	movb   $0x39,0x20a388(%rip)        # 212055 <s+0x15>
    7ccd:	c6 05 87 a3 20 00 54 	movb   $0x54,0x20a387(%rip)        # 21205b <s+0x1b>
    7cd4:	c6 05 78 a3 20 00 70 	movb   $0x70,0x20a378(%rip)        # 212053 <s+0x13>
    7cdb:	c6 05 65 a3 20 00 42 	movb   $0x42,0x20a365(%rip)        # 212047 <s+0x7>
    7ce2:	c6 05 79 a3 20 00 41 	movb   $0x41,0x20a379(%rip)        # 212062 <s+0x22>
    7ce9:	c6 05 51 a3 20 00 69 	movb   $0x69,0x20a351(%rip)        # 212041 <s+0x1>
    7cf0:	c6 05 64 a3 20 00 75 	movb   $0x75,0x20a364(%rip)        # 21205b <s+0x1b>
    7cf7:	c6 05 49 a3 20 00 3c 	movb   $0x3c,0x20a349(%rip)        # 212047 <s+0x7>
    7cfe:	c6 05 54 a3 20 00 65 	movb   $0x65,0x20a354(%rip)        # 212059 <s+0x19>
    7d05:	c6 05 41 a3 20 00 5a 	movb   $0x5a,0x20a341(%rip)        # 21204d <s+0xd>
    7d0c:	c6 05 4f a3 20 00 2d 	movb   $0x2d,0x20a34f(%rip)        # 212062 <s+0x22>
    7d13:	c6 05 3c a3 20 00 77 	movb   $0x77,0x20a33c(%rip)        # 212056 <s+0x16>
    7d1a:	c6 05 35 a3 20 00 63 	movb   $0x63,0x20a335(%rip)        # 212056 <s+0x16>
    7d21:	c6 05 26 a3 20 00 71 	movb   $0x71,0x20a326(%rip)        # 21204e <s+0xe>
    7d28:	c6 05 2b a3 20 00 7d 	movb   $0x7d,0x20a32b(%rip)        # 21205a <s+0x1a>
    7d2f:	c6 05 0a a3 20 00 51 	movb   $0x51,0x20a30a(%rip)        # 212040 <s>
    7d36:	c6 05 0f a3 20 00 37 	movb   $0x37,0x20a30f(%rip)        # 21204c <s+0xc>
    7d3d:	c6 05 18 a3 20 00 73 	movb   $0x73,0x20a318(%rip)        # 21205c <s+0x1c>
    7d44:	c6 05 07 a3 20 00 28 	movb   $0x28,0x20a307(%rip)        # 212052 <s+0x12>
    7d4b:	c6 05 06 a3 20 00 7d 	movb   $0x7d,0x20a306(%rip)        # 212058 <s+0x18>
    7d52:	c6 05 f5 a2 20 00 44 	movb   $0x44,0x20a2f5(%rip)        # 21204e <s+0xe>
    7d59:	c6 05 f1 a2 20 00 4a 	movb   $0x4a,0x20a2f1(%rip)        # 212051 <s+0x11>
    7d60:	c6 05 d9 a2 20 00 75 	movb   $0x75,0x20a2d9(%rip)        # 212040 <s>
    7d67:	c6 05 e7 a2 20 00 78 	movb   $0x78,0x20a2e7(%rip)        # 212055 <s+0x15>
    7d6e:	c6 05 ce a2 20 00 3e 	movb   $0x3e,0x20a2ce(%rip)        # 212043 <s+0x3>
    7d75:	c6 05 c9 a2 20 00 2f 	movb   $0x2f,0x20a2c9(%rip)        # 212045 <s+0x5>
    7d7c:	c6 05 c1 a2 20 00 7e 	movb   $0x7e,0x20a2c1(%rip)        # 212044 <s+0x4>
    7d83:	c6 05 c5 a2 20 00 65 	movb   $0x65,0x20a2c5(%rip)        # 21204f <s+0xf>
    7d8a:	c6 05 bf a2 20 00 7a 	movb   $0x7a,0x20a2bf(%rip)        # 212050 <s+0x10>
    7d91:	c6 05 b5 a2 20 00 6f 	movb   $0x6f,0x20a2b5(%rip)        # 21204d <s+0xd>
    7d98:	c6 05 b1 a2 20 00 49 	movb   $0x49,0x20a2b1(%rip)        # 212050 <s+0x10>
    7d9f:	c6 05 b4 a2 20 00 4e 	movb   $0x4e,0x20a2b4(%rip)        # 21205a <s+0x1a>
    7da6:	c6 05 b8 a2 20 00 31 	movb   $0x31,0x20a2b8(%rip)        # 212065 <s+0x25>
    7dad:	c6 05 91 a2 20 00 76 	movb   $0x76,0x20a291(%rip)        # 212045 <s+0x5>
    7db4:	c6 05 8a a2 20 00 61 	movb   $0x61,0x20a28a(%rip)        # 212045 <s+0x5>
    7dbb:	c6 05 94 a2 20 00 32 	movb   $0x32,0x20a294(%rip)        # 212056 <s+0x16>
    7dc2:	c6 05 92 a2 20 00 64 	movb   $0x64,0x20a292(%rip)        # 21205b <s+0x1b>
    7dc9:	c6 05 94 a2 20 00 24 	movb   $0x24,0x20a294(%rip)        # 212064 <s+0x24>
    7dd0:	c6 05 8c a2 20 00 3c 	movb   $0x3c,0x20a28c(%rip)        # 212063 <s+0x23>
    7dd7:	c6 05 78 a2 20 00 76 	movb   $0x76,0x20a278(%rip)        # 212056 <s+0x16>
    7dde:	c6 05 81 a2 20 00 68 	movb   $0x68,0x20a281(%rip)        # 212066 <s+0x26>
    7de5:	c6 05 71 a2 20 00 56 	movb   $0x56,0x20a271(%rip)        # 21205d <s+0x1d>
    7dec:	c6 05 6b a2 20 00 25 	movb   $0x25,0x20a26b(%rip)        # 21205e <s+0x1e>
    7df3:	c6 05 64 a2 20 00 58 	movb   $0x58,0x20a264(%rip)        # 21205e <s+0x1e>
    7dfa:	c6 05 5b a2 20 00 21 	movb   $0x21,0x20a25b(%rip)        # 21205c <s+0x1c>
    7e01:	c6 05 58 a2 20 00 3b 	movb   $0x3b,0x20a258(%rip)        # 212060 <s+0x20>
    7e08:	c6 05 56 a2 20 00 3e 	movb   $0x3e,0x20a256(%rip)        # 212065 <s+0x25>
    7e0f:	c6 05 42 a2 20 00 58 	movb   $0x58,0x20a242(%rip)        # 212058 <s+0x18>
    7e16:	c6 05 3a a2 20 00 7c 	movb   $0x7c,0x20a23a(%rip)        # 212057 <s+0x17>
    7e1d:	c6 05 3e a2 20 00 55 	movb   $0x55,0x20a23e(%rip)        # 212062 <s+0x22>
    7e24:	c6 05 3a a2 20 00 2d 	movb   $0x2d,0x20a23a(%rip)        # 212065 <s+0x25>
    7e2b:	c6 05 2d a2 20 00 2d 	movb   $0x2d,0x20a22d(%rip)        # 21205f <s+0x1f>
    7e32:	c6 05 0a a2 20 00 45 	movb   $0x45,0x20a20a(%rip)        # 212043 <s+0x3>
    7e39:	c6 05 14 a2 20 00 6d 	movb   $0x6d,0x20a214(%rip)        # 212054 <s+0x14>
    7e40:	c6 05 20 a2 20 00 3e 	movb   $0x3e,0x20a220(%rip)        # 212067 <s+0x27>
    7e47:	c6 05 04 a2 20 00 31 	movb   $0x31,0x20a204(%rip)        # 212052 <s+0x12>
    7e4e:	c6 05 ff a1 20 00 5f 	movb   $0x5f,0x20a1ff(%rip)        # 212054 <s+0x14>
    7e55:	c6 05 fa a1 20 00 7b 	movb   $0x7b,0x20a1fa(%rip)        # 212056 <s+0x16>
    7e5c:	c6 05 ee a1 20 00 32 	movb   $0x32,0x20a1ee(%rip)        # 212051 <s+0x11>
    7e63:	c6 05 e6 a1 20 00 2f 	movb   $0x2f,0x20a1e6(%rip)        # 212050 <s+0x10>
    7e6a:	c6 05 ed a1 20 00 62 	movb   $0x62,0x20a1ed(%rip)        # 21205e <s+0x1e>
    7e71:	c6 05 c9 a1 20 00 4f 	movb   $0x4f,0x20a1c9(%rip)        # 212041 <s+0x1>
    7e78:	c6 05 d3 a1 20 00 28 	movb   $0x28,0x20a1d3(%rip)        # 212052 <s+0x12>
    7e7f:	c6 05 c6 a1 20 00 79 	movb   $0x79,0x20a1c6(%rip)        # 21204c <s+0xc>
    7e86:	c6 05 b7 a1 20 00 40 	movb   $0x40,0x20a1b7(%rip)        # 212044 <s+0x4>
    7e8d:	c6 05 d0 a1 20 00 58 	movb   $0x58,0x20a1d0(%rip)        # 212064 <s+0x24>
    7e94:	c6 05 b7 a1 20 00 52 	movb   $0x52,0x20a1b7(%rip)        # 212052 <s+0x12>
    7e9b:	c6 05 ae a1 20 00 5f 	movb   $0x5f,0x20a1ae(%rip)        # 212050 <s+0x10>
    7ea2:	c6 05 be a1 20 00 53 	movb   $0x53,0x20a1be(%rip)        # 212067 <s+0x27>
    7ea9:	c6 05 a6 a1 20 00 73 	movb   $0x73,0x20a1a6(%rip)        # 212056 <s+0x16>
    7eb0:	c6 05 a1 a1 20 00 25 	movb   $0x25,0x20a1a1(%rip)        # 212058 <s+0x18>
    7eb7:	c6 05 82 a1 20 00 44 	movb   $0x44,0x20a182(%rip)        # 212040 <s>
    7ebe:	c6 05 81 a1 20 00 6d 	movb   $0x6d,0x20a181(%rip)        # 212046 <s+0x6>
    7ec5:	c6 05 79 a1 20 00 50 	movb   $0x50,0x20a179(%rip)        # 212045 <s+0x5>
    7ecc:	c6 05 87 a1 20 00 77 	movb   $0x77,0x20a187(%rip)        # 21205a <s+0x1a>
    7ed3:	c6 05 74 a1 20 00 49 	movb   $0x49,0x20a174(%rip)        # 21204e <s+0xe>
    7eda:	c6 05 65 a1 20 00 37 	movb   $0x37,0x20a165(%rip)        # 212046 <s+0x6>
    7ee1:	c6 05 7b a1 20 00 69 	movb   $0x69,0x20a17b(%rip)        # 212063 <s+0x23>
    7ee8:	c6 05 52 a1 20 00 7e 	movb   $0x7e,0x20a152(%rip)        # 212041 <s+0x1>
    7eef:	c6 05 67 a1 20 00 2a 	movb   $0x2a,0x20a167(%rip)        # 21205d <s+0x1d>
    7ef6:	c6 05 5d a1 20 00 40 	movb   $0x40,0x20a15d(%rip)        # 21205a <s+0x1a>
    7efd:	c6 05 50 a1 20 00 28 	movb   $0x28,0x20a150(%rip)        # 212054 <s+0x14>
    7f04:	c6 05 49 a1 20 00 46 	movb   $0x46,0x20a149(%rip)        # 212054 <s+0x14>
    7f0b:	c6 05 4c a1 20 00 30 	movb   $0x30,0x20a14c(%rip)        # 21205e <s+0x1e>
    7f12:	c6 05 3e a1 20 00 55 	movb   $0x55,0x20a13e(%rip)        # 212057 <s+0x17>
    7f19:	c6 05 28 a1 20 00 57 	movb   $0x57,0x20a128(%rip)        # 212048 <s+0x8>
    7f20:	c6 05 3b a1 20 00 51 	movb   $0x51,0x20a13b(%rip)        # 212062 <s+0x22>
    7f27:	c6 05 2f a1 20 00 40 	movb   $0x40,0x20a12f(%rip)        # 21205d <s+0x1d>
    7f2e:	c6 05 19 a1 20 00 63 	movb   $0x63,0x20a119(%rip)        # 21204e <s+0xe>
    7f35:	c6 05 22 a1 20 00 70 	movb   $0x70,0x20a122(%rip)        # 21205e <s+0x1e>
    7f3c:	c6 05 15 a1 20 00 5a 	movb   $0x5a,0x20a115(%rip)        # 212058 <s+0x18>
    7f43:	c6 05 f7 a0 20 00 26 	movb   $0x26,0x20a0f7(%rip)        # 212041 <s+0x1>
    7f4a:	c6 05 fa a0 20 00 7a 	movb   $0x7a,0x20a0fa(%rip)        # 21204b <s+0xb>
    7f51:	c6 05 06 a1 20 00 57 	movb   $0x57,0x20a106(%rip)        # 21205e <s+0x1e>
    7f58:	c6 05 08 a1 20 00 58 	movb   $0x58,0x20a108(%rip)        # 212067 <s+0x27>
    7f5f:	c6 05 ec a0 20 00 50 	movb   $0x50,0x20a0ec(%rip)        # 212052 <s+0x12>
    7f66:	c6 05 ee a0 20 00 34 	movb   $0x34,0x20a0ee(%rip)        # 21205b <s+0x1b>
    7f6d:	c6 05 d7 a0 20 00 53 	movb   $0x53,0x20a0d7(%rip)        # 21204b <s+0xb>
    7f74:	c6 05 ca a0 20 00 47 	movb   $0x47,0x20a0ca(%rip)        # 212045 <s+0x5>
    7f7b:	c6 05 c4 a0 20 00 47 	movb   $0x47,0x20a0c4(%rip)        # 212046 <s+0x6>
    7f82:	c6 05 d6 a0 20 00 29 	movb   $0x29,0x20a0d6(%rip)        # 21205f <s+0x1f>
    7f89:	c6 05 d0 a0 20 00 4d 	movb   $0x4d,0x20a0d0(%rip)        # 212060 <s+0x20>
    7f90:	c6 05 cf a0 20 00 65 	movb   $0x65,0x20a0cf(%rip)        # 212066 <s+0x26>
    7f97:	c6 05 b5 a0 20 00 65 	movb   $0x65,0x20a0b5(%rip)        # 212053 <s+0x13>
    7f9e:	c6 05 b1 a0 20 00 36 	movb   $0x36,0x20a0b1(%rip)        # 212056 <s+0x16>
    7fa5:	c6 05 95 a0 20 00 56 	movb   $0x56,0x20a095(%rip)        # 212041 <s+0x1>
    7fac:	c6 05 91 a0 20 00 2c 	movb   $0x2c,0x20a091(%rip)        # 212044 <s+0x4>
    7fb3:	c6 05 ad a0 20 00 5f 	movb   $0x5f,0x20a0ad(%rip)        # 212067 <s+0x27>
    7fba:	c6 05 8b a0 20 00 63 	movb   $0x63,0x20a08b(%rip)        # 21204c <s+0xc>
    7fc1:	c6 05 82 a0 20 00 2b 	movb   $0x2b,0x20a082(%rip)        # 21204a <s+0xa>
    7fc8:	c6 05 80 a0 20 00 68 	movb   $0x68,0x20a080(%rip)        # 21204f <s+0xf>
    7fcf:	c6 05 80 a0 20 00 61 	movb   $0x61,0x20a080(%rip)        # 212056 <s+0x16>
    7fd6:	c6 05 67 a0 20 00 61 	movb   $0x61,0x20a067(%rip)        # 212044 <s+0x4>
    7fdd:	c6 05 6f a0 20 00 35 	movb   $0x35,0x20a06f(%rip)        # 212053 <s+0x13>
    7fe4:	c6 05 7c a0 20 00 28 	movb   $0x28,0x20a07c(%rip)        # 212067 <s+0x27>
    7feb:	c6 05 4f a0 20 00 26 	movb   $0x26,0x20a04f(%rip)        # 212041 <s+0x1>
    7ff2:	c6 05 55 a0 20 00 5a 	movb   $0x5a,0x20a055(%rip)        # 21204e <s+0xe>
    7ff9:	c6 05 42 a0 20 00 21 	movb   $0x21,0x20a042(%rip)        # 212042 <s+0x2>
    8000:	c6 05 41 a0 20 00 30 	movb   $0x30,0x20a041(%rip)        # 212048 <s+0x8>
    8007:	c6 05 50 a0 20 00 21 	movb   $0x21,0x20a050(%rip)        # 21205e <s+0x1e>
    800e:	c6 05 49 a0 20 00 7e 	movb   $0x7e,0x20a049(%rip)        # 21205e <s+0x1e>
    8015:	c6 05 34 a0 20 00 54 	movb   $0x54,0x20a034(%rip)        # 212050 <s+0x10>
    801c:	c6 05 28 a0 20 00 60 	movb   $0x60,0x20a028(%rip)        # 21204b <s+0xb>
    8023:	c6 05 2e a0 20 00 22 	movb   $0x22,0x20a02e(%rip)        # 212058 <s+0x18>
    802a:	c6 05 23 a0 20 00 39 	movb   $0x39,0x20a023(%rip)        # 212054 <s+0x14>
    8031:	c6 05 14 a0 20 00 67 	movb   $0x67,0x20a014(%rip)        # 21204c <s+0xc>
    8038:	c6 05 15 a0 20 00 32 	movb   $0x32,0x20a015(%rip)        # 212054 <s+0x14>
    803f:	c6 05 02 a0 20 00 37 	movb   $0x37,0x20a002(%rip)        # 212048 <s+0x8>
    8046:	c6 05 0e a0 20 00 60 	movb   $0x60,0x20a00e(%rip)        # 21205b <s+0x1b>
    804d:	c6 05 0b a0 20 00 77 	movb   $0x77,0x20a00b(%rip)        # 21205f <s+0x1f>
    8054:	c6 05 e6 9f 20 00 51 	movb   $0x51,0x209fe6(%rip)        # 212041 <s+0x1>
    805b:	c6 05 ee 9f 20 00 50 	movb   $0x50,0x209fee(%rip)        # 212050 <s+0x10>
    8062:	c6 05 e4 9f 20 00 5e 	movb   $0x5e,0x209fe4(%rip)        # 21204d <s+0xd>
    8069:	c6 05 ed 9f 20 00 38 	movb   $0x38,0x209fed(%rip)        # 21205d <s+0x1d>
    8070:	c6 05 ed 9f 20 00 7e 	movb   $0x7e,0x209fed(%rip)        # 212064 <s+0x24>
    8077:	c6 05 e5 9f 20 00 63 	movb   $0x63,0x209fe5(%rip)        # 212063 <s+0x23>
    807e:	c6 05 c1 9f 20 00 6c 	movb   $0x6c,0x209fc1(%rip)        # 212046 <s+0x6>
    8085:	c6 05 b7 9f 20 00 5d 	movb   $0x5d,0x209fb7(%rip)        # 212043 <s+0x3>
    808c:	c6 05 bf 9f 20 00 3d 	movb   $0x3d,0x209fbf(%rip)        # 212052 <s+0x12>
    8093:	c6 05 b6 9f 20 00 75 	movb   $0x75,0x209fb6(%rip)        # 212050 <s+0x10>
    809a:	c6 05 a5 9f 20 00 32 	movb   $0x32,0x209fa5(%rip)        # 212046 <s+0x6>
    80a1:	c6 05 bd 9f 20 00 55 	movb   $0x55,0x209fbd(%rip)        # 212065 <s+0x25>
    80a8:	c6 05 95 9f 20 00 48 	movb   $0x48,0x209f95(%rip)        # 212044 <s+0x4>
    80af:	c6 05 8f 9f 20 00 64 	movb   $0x64,0x209f8f(%rip)        # 212045 <s+0x5>
    80b6:	c6 05 86 9f 20 00 6b 	movb   $0x6b,0x209f86(%rip)        # 212043 <s+0x3>
    80bd:	c6 05 91 9f 20 00 2c 	movb   $0x2c,0x209f91(%rip)        # 212055 <s+0x15>
    80c4:	c6 05 76 9f 20 00 7b 	movb   $0x7b,0x209f76(%rip)        # 212041 <s+0x1>
    80cb:	c6 05 91 9f 20 00 4a 	movb   $0x4a,0x209f91(%rip)        # 212063 <s+0x23>
    80d2:	c6 05 89 9f 20 00 35 	movb   $0x35,0x209f89(%rip)        # 212062 <s+0x22>
    80d9:	c6 05 62 9f 20 00 3d 	movb   $0x3d,0x209f62(%rip)        # 212042 <s+0x2>
    80e0:	c6 05 6e 9f 20 00 5d 	movb   $0x5d,0x209f6e(%rip)        # 212055 <s+0x15>
    80e7:	c6 05 77 9f 20 00 70 	movb   $0x70,0x209f77(%rip)        # 212065 <s+0x25>
    80ee:	c6 05 66 9f 20 00 3a 	movb   $0x3a,0x209f66(%rip)        # 21205b <s+0x1b>
    80f5:	c6 05 44 9f 20 00 2f 	movb   $0x2f,0x209f44(%rip)        # 212040 <s>
    80fc:	c6 05 3f 9f 20 00 21 	movb   $0x21,0x209f3f(%rip)        # 212042 <s+0x2>
    8103:	c6 05 48 9f 20 00 7e 	movb   $0x7e,0x209f48(%rip)        # 212052 <s+0x12>
    810a:	c6 05 44 9f 20 00 6d 	movb   $0x6d,0x209f44(%rip)        # 212055 <s+0x15>
    8111:	c6 05 35 9f 20 00 48 	movb   $0x48,0x209f35(%rip)        # 21204d <s+0xd>
    8118:	c6 05 2a 9f 20 00 58 	movb   $0x58,0x209f2a(%rip)        # 212049 <s+0x9>
    811f:	c6 05 40 9f 20 00 7a 	movb   $0x7a,0x209f40(%rip)        # 212066 <s+0x26>
    8126:	c6 05 2e 9f 20 00 2d 	movb   $0x2d,0x209f2e(%rip)        # 21205b <s+0x1b>
    812d:	c6 05 2f 9f 20 00 56 	movb   $0x56,0x209f2f(%rip)        # 212063 <s+0x23>
    8134:	c6 05 09 9f 20 00 3a 	movb   $0x3a,0x209f09(%rip)        # 212044 <s+0x4>
    813b:	c6 05 03 9f 20 00 77 	movb   $0x77,0x209f03(%rip)        # 212045 <s+0x5>
    8142:	c6 05 15 9f 20 00 40 	movb   $0x40,0x209f15(%rip)        # 21205e <s+0x1e>
    8149:	c6 05 f4 9e 20 00 24 	movb   $0x24,0x209ef4(%rip)        # 212044 <s+0x4>
    8150:	c6 05 00 9f 20 00 6c 	movb   $0x6c,0x209f00(%rip)        # 212057 <s+0x17>
    8157:	c6 05 e9 9e 20 00 21 	movb   $0x21,0x209ee9(%rip)        # 212047 <s+0x7>
    815e:	c6 05 f1 9e 20 00 24 	movb   $0x24,0x209ef1(%rip)        # 212056 <s+0x16>
    8165:	c6 05 da 9e 20 00 61 	movb   $0x61,0x209eda(%rip)        # 212046 <s+0x6>
    816c:	c6 05 e8 9e 20 00 24 	movb   $0x24,0x209ee8(%rip)        # 21205b <s+0x1b>
    8173:	c6 05 c9 9e 20 00 56 	movb   $0x56,0x209ec9(%rip)        # 212043 <s+0x3>
    817a:	c6 05 da 9e 20 00 31 	movb   $0x31,0x209eda(%rip)        # 21205b <s+0x1b>
    8181:	c6 05 d8 9e 20 00 45 	movb   $0x45,0x209ed8(%rip)        # 212060 <s+0x20>
    8188:	c6 05 d5 9e 20 00 23 	movb   $0x23,0x209ed5(%rip)        # 212064 <s+0x24>
    818f:	c6 05 b3 9e 20 00 34 	movb   $0x34,0x209eb3(%rip)        # 212049 <s+0x9>
    8196:	c6 05 a4 9e 20 00 33 	movb   $0x33,0x209ea4(%rip)        # 212041 <s+0x1>
    819d:	c6 05 b8 9e 20 00 28 	movb   $0x28,0x209eb8(%rip)        # 21205c <s+0x1c>
    81a4:	c6 05 a7 9e 20 00 79 	movb   $0x79,0x209ea7(%rip)        # 212052 <s+0x12>
    81ab:	c6 05 93 9e 20 00 69 	movb   $0x69,0x209e93(%rip)        # 212045 <s+0x5>
    81b2:	c6 05 a0 9e 20 00 28 	movb   $0x28,0x209ea0(%rip)        # 212059 <s+0x19>
    81b9:	c6 05 96 9e 20 00 59 	movb   $0x59,0x209e96(%rip)        # 212056 <s+0x16>
    81c0:	c6 05 87 9e 20 00 67 	movb   $0x67,0x209e87(%rip)        # 21204e <s+0xe>
    81c7:	c6 05 78 9e 20 00 62 	movb   $0x62,0x209e78(%rip)        # 212046 <s+0x6>
    81ce:	c6 05 78 9e 20 00 43 	movb   $0x43,0x209e78(%rip)        # 21204d <s+0xd>
    81d5:	c6 05 8b 9e 20 00 2e 	movb   $0x2e,0x209e8b(%rip)        # 212067 <s+0x27>
    81dc:	c6 05 84 9e 20 00 2f 	movb   $0x2f,0x209e84(%rip)        # 212067 <s+0x27>
    81e3:	c6 05 65 9e 20 00 47 	movb   $0x47,0x209e65(%rip)        # 21204f <s+0xf>
    81ea:	c6 05 51 9e 20 00 75 	movb   $0x75,0x209e51(%rip)        # 212042 <s+0x2>
    81f1:	c6 05 51 9e 20 00 69 	movb   $0x69,0x209e51(%rip)        # 212049 <s+0x9>
    81f8:	c6 05 46 9e 20 00 44 	movb   $0x44,0x209e46(%rip)        # 212045 <s+0x5>
    81ff:	c6 05 5d 9e 20 00 4e 	movb   $0x4e,0x209e5d(%rip)        # 212063 <s+0x23>
    8206:	c6 05 3b 9e 20 00 5e 	movb   $0x5e,0x209e3b(%rip)        # 212048 <s+0x8>
    820d:	c6 05 3e 9e 20 00 5e 	movb   $0x5e,0x209e3e(%rip)        # 212052 <s+0x12>
    8214:	c6 05 43 9e 20 00 56 	movb   $0x56,0x209e43(%rip)        # 21205e <s+0x1e>
    821b:	c6 05 37 9e 20 00 50 	movb   $0x50,0x209e37(%rip)        # 212059 <s+0x19>
    8222:	c6 05 18 9e 20 00 61 	movb   $0x61,0x209e18(%rip)        # 212041 <s+0x1>
    8229:	c6 05 2b 9e 20 00 35 	movb   $0x35,0x209e2b(%rip)        # 21205b <s+0x1b>
    8230:	c6 05 19 9e 20 00 56 	movb   $0x56,0x209e19(%rip)        # 212050 <s+0x10>
    8237:	c6 05 09 9e 20 00 30 	movb   $0x30,0x209e09(%rip)        # 212047 <s+0x7>
    823e:	c6 05 fc 9d 20 00 43 	movb   $0x43,0x209dfc(%rip)        # 212041 <s+0x1>
    8245:	c6 05 18 9e 20 00 72 	movb   $0x72,0x209e18(%rip)        # 212064 <s+0x24>
    824c:	c6 05 f9 9d 20 00 7b 	movb   $0x7b,0x209df9(%rip)        # 21204c <s+0xc>
    8253:	c6 05 ff 9d 20 00 5f 	movb   $0x5f,0x209dff(%rip)        # 212059 <s+0x19>
    825a:	c6 05 ea 9d 20 00 7a 	movb   $0x7a,0x209dea(%rip)        # 21204b <s+0xb>
    8261:	c6 05 eb 9d 20 00 3d 	movb   $0x3d,0x209deb(%rip)        # 212053 <s+0x13>
    8268:	c6 05 e8 9d 20 00 5e 	movb   $0x5e,0x209de8(%rip)        # 212057 <s+0x17>
    826f:	c6 05 cd 9d 20 00 59 	movb   $0x59,0x209dcd(%rip)        # 212043 <s+0x3>
    8276:	c6 05 ca 9d 20 00 6b 	movb   $0x6b,0x209dca(%rip)        # 212047 <s+0x7>
    827d:	c6 05 db 9d 20 00 2b 	movb   $0x2b,0x209ddb(%rip)        # 21205f <s+0x1f>
    8284:	c6 05 c1 9d 20 00 6a 	movb   $0x6a,0x209dc1(%rip)        # 21204c <s+0xc>
    828b:	c6 05 b8 9d 20 00 2f 	movb   $0x2f,0x209db8(%rip)        # 21204a <s+0xa>
    8292:	c6 05 cc 9d 20 00 54 	movb   $0x54,0x209dcc(%rip)        # 212065 <s+0x25>
    8299:	c6 05 a4 9d 20 00 26 	movb   $0x26,0x209da4(%rip)        # 212044 <s+0x4>
    82a0:	c6 05 a8 9d 20 00 3d 	movb   $0x3d,0x209da8(%rip)        # 21204f <s+0xf>
    82a7:	c6 05 95 9d 20 00 2b 	movb   $0x2b,0x209d95(%rip)        # 212043 <s+0x3>
    82ae:	c6 05 9b 9d 20 00 35 	movb   $0x35,0x209d9b(%rip)        # 212050 <s+0x10>
    82b5:	c6 05 88 9d 20 00 78 	movb   $0x78,0x209d88(%rip)        # 212044 <s+0x4>
    82bc:	c6 05 94 9d 20 00 66 	movb   $0x66,0x209d94(%rip)        # 212057 <s+0x17>
    82c3:	c6 05 8b 9d 20 00 4a 	movb   $0x4a,0x209d8b(%rip)        # 212055 <s+0x15>
    82ca:	c6 05 70 9d 20 00 25 	movb   $0x25,0x209d70(%rip)        # 212041 <s+0x1>
    82d1:	c6 05 68 9d 20 00 5a 	movb   $0x5a,0x209d68(%rip)        # 212040 <s>
    82d8:	c6 05 88 9d 20 00 64 	movb   $0x64,0x209d88(%rip)        # 212067 <s+0x27>
    82df:	c6 05 62 9d 20 00 30 	movb   $0x30,0x209d62(%rip)        # 212048 <s+0x8>
    82e6:	c6 05 73 9d 20 00 2a 	movb   $0x2a,0x209d73(%rip)        # 212060 <s+0x20>
    82ed:	c6 05 6b 9d 20 00 6c 	movb   $0x6c,0x209d6b(%rip)        # 21205f <s+0x1f>
    82f4:	c6 05 4b 9d 20 00 2e 	movb   $0x2e,0x209d4b(%rip)        # 212046 <s+0x6>
    82fb:	c6 05 45 9d 20 00 78 	movb   $0x78,0x209d45(%rip)        # 212047 <s+0x7>
    8302:	c6 05 57 9d 20 00 54 	movb   $0x54,0x209d57(%rip)        # 212060 <s+0x20>
    8309:	c6 05 42 9d 20 00 58 	movb   $0x58,0x209d42(%rip)        # 212052 <s+0x12>
    8310:	c6 05 41 9d 20 00 7b 	movb   $0x7b,0x209d41(%rip)        # 212058 <s+0x18>
    8317:	c6 05 33 9d 20 00 79 	movb   $0x79,0x209d33(%rip)        # 212051 <s+0x11>
    831e:	c6 05 1f 9d 20 00 70 	movb   $0x70,0x209d1f(%rip)        # 212044 <s+0x4>
    8325:	c6 05 22 9d 20 00 7d 	movb   $0x7d,0x209d22(%rip)        # 21204e <s+0xe>
    832c:	c6 05 26 9d 20 00 43 	movb   $0x43,0x209d26(%rip)        # 212059 <s+0x19>
    8333:	c6 05 17 9d 20 00 20 	movb   $0x20,0x209d17(%rip)        # 212051 <s+0x11>
    833a:	c6 05 06 9d 20 00 6f 	movb   $0x6f,0x209d06(%rip)        # 212047 <s+0x7>
    8341:	c6 05 08 9d 20 00 40 	movb   $0x40,0x209d08(%rip)        # 212050 <s+0x10>
    8348:	c6 05 f2 9c 20 00 69 	movb   $0x69,0x209cf2(%rip)        # 212041 <s+0x1>
    834f:	c6 05 0a 9d 20 00 20 	movb   $0x20,0x209d0a(%rip)        # 212060 <s+0x20>
    8356:	c6 05 e8 9c 20 00 6c 	movb   $0x6c,0x209ce8(%rip)        # 212045 <s+0x5>
    835d:	c6 05 f6 9c 20 00 76 	movb   $0x76,0x209cf6(%rip)        # 21205a <s+0x1a>
    8364:	c6 05 e2 9c 20 00 71 	movb   $0x71,0x209ce2(%rip)        # 21204d <s+0xd>
    836b:	c6 05 d1 9c 20 00 35 	movb   $0x35,0x209cd1(%rip)        # 212043 <s+0x3>
    8372:	c6 05 d6 9c 20 00 64 	movb   $0x64,0x209cd6(%rip)        # 21204f <s+0xf>
    8379:	c6 05 d3 9c 20 00 52 	movb   $0x52,0x209cd3(%rip)        # 212053 <s+0x13>
    8380:	c6 05 d6 9c 20 00 2e 	movb   $0x2e,0x209cd6(%rip)        # 21205d <s+0x1d>
    8387:	c6 05 cf 9c 20 00 70 	movb   $0x70,0x209ccf(%rip)        # 21205d <s+0x1d>
    838e:	c6 05 c5 9c 20 00 5e 	movb   $0x5e,0x209cc5(%rip)        # 21205a <s+0x1a>
    8395:	c6 05 cb 9c 20 00 51 	movb   $0x51,0x209ccb(%rip)        # 212067 <s+0x27>
    839c:	c6 05 c3 9c 20 00 34 	movb   $0x34,0x209cc3(%rip)        # 212066 <s+0x26>
    83a3:	c6 05 a2 9c 20 00 49 	movb   $0x49,0x209ca2(%rip)        # 21204c <s+0xc>
    83aa:	c6 05 93 9c 20 00 35 	movb   $0x35,0x209c93(%rip)        # 212044 <s+0x4>
    83b1:	c6 05 a9 9c 20 00 3c 	movb   $0x3c,0x209ca9(%rip)        # 212061 <s+0x21>
    83b8:	c6 05 a8 9c 20 00 68 	movb   $0x68,0x209ca8(%rip)        # 212067 <s+0x27>
    83bf:	c6 05 7d 9c 20 00 37 	movb   $0x37,0x209c7d(%rip)        # 212043 <s+0x3>
    83c6:	c6 05 7b 9c 20 00 70 	movb   $0x70,0x209c7b(%rip)        # 212048 <s+0x8>
    83cd:	c6 05 78 9c 20 00 4a 	movb   $0x4a,0x209c78(%rip)        # 21204c <s+0xc>
    83d4:	c6 05 71 9c 20 00 5f 	movb   $0x5f,0x209c71(%rip)        # 21204c <s+0xc>
    83db:	c6 05 7c 9c 20 00 5d 	movb   $0x5d,0x209c7c(%rip)        # 21205e <s+0x1e>
    83e2:	c6 05 5d 9c 20 00 74 	movb   $0x74,0x209c5d(%rip)        # 212046 <s+0x6>
    83e9:	c6 05 63 9c 20 00 5d 	movb   $0x5d,0x209c63(%rip)        # 212053 <s+0x13>
    83f0:	c6 05 58 9c 20 00 5a 	movb   $0x5a,0x209c58(%rip)        # 21204f <s+0xf>
    83f7:	c6 05 44 9c 20 00 4c 	movb   $0x4c,0x209c44(%rip)        # 212042 <s+0x2>
    83fe:	c6 05 59 9c 20 00 28 	movb   $0x28,0x209c59(%rip)        # 21205e <s+0x1e>
    8405:	c6 05 55 9c 20 00 3c 	movb   $0x3c,0x209c55(%rip)        # 212061 <s+0x21>
    840c:	c6 05 31 9c 20 00 6f 	movb   $0x6f,0x209c31(%rip)        # 212044 <s+0x4>
    8413:	c6 05 43 9c 20 00 30 	movb   $0x30,0x209c43(%rip)        # 21205d <s+0x1d>
    841a:	c6 05 31 9c 20 00 6d 	movb   $0x6d,0x209c31(%rip)        # 212052 <s+0x12>
    8421:	c6 05 2f 9c 20 00 23 	movb   $0x23,0x209c2f(%rip)        # 212057 <s+0x17>
    8428:	c6 05 22 9c 20 00 66 	movb   $0x66,0x209c22(%rip)        # 212051 <s+0x11>
    842f:	c6 05 0e 9c 20 00 5f 	movb   $0x5f,0x209c0e(%rip)        # 212044 <s+0x4>
    8436:	c6 05 04 9c 20 00 3a 	movb   $0x3a,0x209c04(%rip)        # 212041 <s+0x1>
    843d:	c6 05 ff 9b 20 00 7b 	movb   $0x7b,0x209bff(%rip)        # 212043 <s+0x3>
    8444:	c6 05 fb 9b 20 00 7a 	movb   $0x7a,0x209bfb(%rip)        # 212046 <s+0x6>
    844b:	c6 05 f8 9b 20 00 3d 	movb   $0x3d,0x209bf8(%rip)        # 21204a <s+0xa>
    8452:	c6 05 e7 9b 20 00 7a 	movb   $0x7a,0x209be7(%rip)        # 212040 <s>
    8459:	c6 05 e4 9b 20 00 2e 	movb   $0x2e,0x209be4(%rip)        # 212044 <s+0x4>
    8460:	c6 05 e1 9b 20 00 44 	movb   $0x44,0x209be1(%rip)        # 212048 <s+0x8>
    8467:	c6 05 e2 9b 20 00 2b 	movb   $0x2b,0x209be2(%rip)        # 212050 <s+0x10>
    846e:	c6 05 de 9b 20 00 32 	movb   $0x32,0x209bde(%rip)        # 212053 <s+0x13>
    8475:	c6 05 e5 9b 20 00 3a 	movb   $0x3a,0x209be5(%rip)        # 212061 <s+0x21>
    847c:	c6 05 e2 9b 20 00 7e 	movb   $0x7e,0x209be2(%rip)        # 212065 <s+0x25>
    8483:	c6 05 dc 9b 20 00 3c 	movb   $0x3c,0x209bdc(%rip)        # 212066 <s+0x26>
    848a:	c6 05 b9 9b 20 00 41 	movb   $0x41,0x209bb9(%rip)        # 21204a <s+0xa>
    8491:	c6 05 c9 9b 20 00 25 	movb   $0x25,0x209bc9(%rip)        # 212061 <s+0x21>
    8498:	c6 05 bb 9b 20 00 45 	movb   $0x45,0x209bbb(%rip)        # 21205a <s+0x1a>
    849f:	c6 05 9e 9b 20 00 4e 	movb   $0x4e,0x209b9e(%rip)        # 212044 <s+0x4>
    84a6:	c6 05 b6 9b 20 00 2a 	movb   $0x2a,0x209bb6(%rip)        # 212063 <s+0x23>
    84ad:	c6 05 aa 9b 20 00 68 	movb   $0x68,0x209baa(%rip)        # 21205e <s+0x1e>
    84b4:	c6 05 98 9b 20 00 72 	movb   $0x72,0x209b98(%rip)        # 212053 <s+0x13>
    84bb:	c6 05 95 9b 20 00 6a 	movb   $0x6a,0x209b95(%rip)        # 212057 <s+0x17>
    84c2:	c6 05 8f 9b 20 00 70 	movb   $0x70,0x209b8f(%rip)        # 212058 <s+0x18>
    84c9:	c6 05 74 9b 20 00 4e 	movb   $0x4e,0x209b74(%rip)        # 212044 <s+0x4>
    84d0:	c6 05 71 9b 20 00 26 	movb   $0x26,0x209b71(%rip)        # 212048 <s+0x8>
    84d7:	c6 05 6c 9b 20 00 56 	movb   $0x56,0x209b6c(%rip)        # 21204a <s+0xa>
    84de:	c6 05 64 9b 20 00 37 	movb   $0x37,0x209b64(%rip)        # 212049 <s+0x9>
    84e5:	c6 05 6d 9b 20 00 3c 	movb   $0x3c,0x209b6d(%rip)        # 212059 <s+0x19>
    84ec:	c6 05 6b 9b 20 00 73 	movb   $0x73,0x209b6b(%rip)        # 21205e <s+0x1e>
    84f3:	c6 05 66 9b 20 00 3b 	movb   $0x3b,0x209b66(%rip)        # 212060 <s+0x20>
    84fa:	c6 05 4b 9b 20 00 5f 	movb   $0x5f,0x209b4b(%rip)        # 21204c <s+0xc>
    8501:	c6 05 4b 9b 20 00 72 	movb   $0x72,0x209b4b(%rip)        # 212053 <s+0x13>
    8508:	c6 05 34 9b 20 00 60 	movb   $0x60,0x209b34(%rip)        # 212043 <s+0x3>
    850f:	c6 05 2b 9b 20 00 3e 	movb   $0x3e,0x209b2b(%rip)        # 212041 <s+0x1>
    8516:	c6 05 3d 9b 20 00 61 	movb   $0x61,0x209b3d(%rip)        # 21205a <s+0x1a>
    851d:	c6 05 2a 9b 20 00 28 	movb   $0x28,0x209b2a(%rip)        # 21204e <s+0xe>
    8524:	c6 05 39 9b 20 00 67 	movb   $0x67,0x209b39(%rip)        # 212064 <s+0x24>
    852b:	c6 05 0f 9b 20 00 4d 	movb   $0x4d,0x209b0f(%rip)        # 212041 <s+0x1>
    8532:	c6 05 2b 9b 20 00 4d 	movb   $0x4d,0x209b2b(%rip)        # 212064 <s+0x24>
    8539:	c6 05 1d 9b 20 00 22 	movb   $0x22,0x209b1d(%rip)        # 21205d <s+0x1d>
    8540:	c6 05 02 9b 20 00 7d 	movb   $0x7d,0x209b02(%rip)        # 212049 <s+0x9>
    8547:	c6 05 f3 9a 20 00 60 	movb   $0x60,0x209af3(%rip)        # 212041 <s+0x1>
    854e:	c6 05 0c 9b 20 00 46 	movb   $0x46,0x209b0c(%rip)        # 212061 <s+0x21>
    8555:	c6 05 ee 9a 20 00 39 	movb   $0x39,0x209aee(%rip)        # 21204a <s+0xa>
    855c:	c6 05 eb 9a 20 00 43 	movb   $0x43,0x209aeb(%rip)        # 21204e <s+0xe>
    8563:	c6 05 f3 9a 20 00 55 	movb   $0x55,0x209af3(%rip)        # 21205d <s+0x1d>
    856a:	c6 05 ee 9a 20 00 4b 	movb   $0x4b,0x209aee(%rip)        # 21205f <s+0x1f>
    8571:	c6 05 cd 9a 20 00 51 	movb   $0x51,0x209acd(%rip)        # 212045 <s+0x5>
    8578:	c6 05 e7 9a 20 00 31 	movb   $0x31,0x209ae7(%rip)        # 212066 <s+0x26>
    857f:	c6 05 c9 9a 20 00 56 	movb   $0x56,0x209ac9(%rip)        # 21204f <s+0xf>
    8586:	c6 05 c1 9a 20 00 5b 	movb   $0x5b,0x209ac1(%rip)        # 21204e <s+0xe>
    858d:	c6 05 ac 9a 20 00 71 	movb   $0x71,0x209aac(%rip)        # 212040 <s>
    8594:	c6 05 b5 9a 20 00 4d 	movb   $0x4d,0x209ab5(%rip)        # 212050 <s+0x10>
    859b:	c6 05 b9 9a 20 00 38 	movb   $0x38,0x209ab9(%rip)        # 21205b <s+0x1b>
    85a2:	c6 05 9f 9a 20 00 3c 	movb   $0x3c,0x209a9f(%rip)        # 212048 <s+0x8>
    85a9:	c6 05 a4 9a 20 00 33 	movb   $0x33,0x209aa4(%rip)        # 212054 <s+0x14>
    85b0:	c6 05 a2 9a 20 00 71 	movb   $0x71,0x209aa2(%rip)        # 212059 <s+0x19>
    85b7:	c6 05 9a 9a 20 00 41 	movb   $0x41,0x209a9a(%rip)        # 212058 <s+0x18>
    85be:	c6 05 8a 9a 20 00 52 	movb   $0x52,0x209a8a(%rip)        # 21204f <s+0xf>
    85c5:	c6 05 8c 9a 20 00 67 	movb   $0x67,0x209a8c(%rip)        # 212058 <s+0x18>
    85cc:	c6 05 79 9a 20 00 43 	movb   $0x43,0x209a79(%rip)        # 21204c <s+0xc>
    85d3:	c6 05 84 9a 20 00 2e 	movb   $0x2e,0x209a84(%rip)        # 21205e <s+0x1e>
    85da:	c6 05 84 9a 20 00 3d 	movb   $0x3d,0x209a84(%rip)        # 212065 <s+0x25>
    85e1:	c6 05 72 9a 20 00 73 	movb   $0x73,0x209a72(%rip)        # 21205a <s+0x1a>
    85e8:	c6 05 75 9a 20 00 6e 	movb   $0x6e,0x209a75(%rip)        # 212064 <s+0x24>
    85ef:	c6 05 67 9a 20 00 7a 	movb   $0x7a,0x209a67(%rip)        # 21205d <s+0x1d>
    85f6:	c6 05 4a 9a 20 00 65 	movb   $0x65,0x209a4a(%rip)        # 212047 <s+0x7>
    85fd:	c6 05 51 9a 20 00 40 	movb   $0x40,0x209a51(%rip)        # 212055 <s+0x15>
    8604:	c6 05 39 9a 20 00 38 	movb   $0x38,0x209a39(%rip)        # 212044 <s+0x4>
    860b:	c6 05 3a 9a 20 00 6f 	movb   $0x6f,0x209a3a(%rip)        # 21204c <s+0xc>
    8612:	c6 05 4e 9a 20 00 6a 	movb   $0x6a,0x209a4e(%rip)        # 212067 <s+0x27>
    8619:	c6 05 36 9a 20 00 65 	movb   $0x65,0x209a36(%rip)        # 212056 <s+0x16>
    8620:	c6 05 29 9a 20 00 47 	movb   $0x47,0x209a29(%rip)        # 212050 <s+0x10>
    8627:	c6 05 21 9a 20 00 6c 	movb   $0x6c,0x209a21(%rip)        # 21204f <s+0xf>
    862e:	c6 05 2e 9a 20 00 4d 	movb   $0x4d,0x209a2e(%rip)        # 212063 <s+0x23>
    8635:	c6 05 13 9a 20 00 20 	movb   $0x20,0x209a13(%rip)        # 21204f <s+0xf>
    863c:	c6 05 0e 9a 20 00 73 	movb   $0x73,0x209a0e(%rip)        # 212051 <s+0x11>
    8643:	c6 05 03 9a 20 00 4c 	movb   $0x4c,0x209a03(%rip)        # 21204d <s+0xd>
    864a:	c6 05 08 9a 20 00 22 	movb   $0x22,0x209a08(%rip)        # 212059 <s+0x19>
    8651:	c6 05 f3 99 20 00 52 	movb   $0x52,0x2099f3(%rip)        # 21204b <s+0xb>
    8658:	c6 05 f4 99 20 00 2f 	movb   $0x2f,0x2099f4(%rip)        # 212053 <s+0x13>
    865f:	c6 05 e1 99 20 00 3a 	movb   $0x3a,0x2099e1(%rip)        # 212047 <s+0x7>
    8666:	c6 05 f9 99 20 00 76 	movb   $0x76,0x2099f9(%rip)        # 212066 <s+0x26>
    866d:	c6 05 ee 99 20 00 65 	movb   $0x65,0x2099ee(%rip)        # 212062 <s+0x22>
    8674:	c6 05 c6 99 20 00 4a 	movb   $0x4a,0x2099c6(%rip)        # 212041 <s+0x1>
    867b:	c6 05 c2 99 20 00 79 	movb   $0x79,0x2099c2(%rip)        # 212044 <s+0x4>
    8682:	c6 05 d3 99 20 00 64 	movb   $0x64,0x2099d3(%rip)        # 21205c <s+0x1c>
    8689:	c6 05 ca 99 20 00 6e 	movb   $0x6e,0x2099ca(%rip)        # 21205a <s+0x1a>
    8690:	c6 05 c0 99 20 00 3d 	movb   $0x3d,0x2099c0(%rip)        # 212057 <s+0x17>
    8697:	c6 05 c8 99 20 00 43 	movb   $0x43,0x2099c8(%rip)        # 212066 <s+0x26>
    869e:	c6 05 a4 99 20 00 6b 	movb   $0x6b,0x2099a4(%rip)        # 212049 <s+0x9>
    86a5:	c6 05 96 99 20 00 2e 	movb   $0x2e,0x209996(%rip)        # 212042 <s+0x2>
    86ac:	c6 05 a2 99 20 00 52 	movb   $0x52,0x2099a2(%rip)        # 212055 <s+0x15>
    86b3:	c6 05 87 99 20 00 7e 	movb   $0x7e,0x209987(%rip)        # 212041 <s+0x1>
    86ba:	c6 05 82 99 20 00 5e 	movb   $0x5e,0x209982(%rip)        # 212043 <s+0x3>
    86c1:	c6 05 8c 99 20 00 2d 	movb   $0x2d,0x20998c(%rip)        # 212054 <s+0x14>
    86c8:	c6 05 8b 99 20 00 7b 	movb   $0x7b,0x20998b(%rip)        # 21205a <s+0x1a>
    86cf:	c6 05 78 99 20 00 42 	movb   $0x42,0x209978(%rip)        # 21204e <s+0xe>
    86d6:	c6 05 85 99 20 00 64 	movb   $0x64,0x209985(%rip)        # 212062 <s+0x22>
    86dd:	c6 05 7c 99 20 00 4e 	movb   $0x4e,0x20997c(%rip)        # 212060 <s+0x20>
    86e4:	c6 05 56 99 20 00 7e 	movb   $0x7e,0x209956(%rip)        # 212041 <s+0x1>
    86eb:	c6 05 63 99 20 00 4c 	movb   $0x4c,0x209963(%rip)        # 212055 <s+0x15>
    86f2:	c6 05 56 99 20 00 77 	movb   $0x77,0x209956(%rip)        # 21204f <s+0xf>
    86f9:	c6 05 57 99 20 00 63 	movb   $0x63,0x209957(%rip)        # 212057 <s+0x17>
    8700:	c6 05 42 99 20 00 65 	movb   $0x65,0x209942(%rip)        # 212049 <s+0x9>
    8707:	c6 05 47 99 20 00 22 	movb   $0x22,0x209947(%rip)        # 212055 <s+0x15>
    870e:	c6 05 34 99 20 00 67 	movb   $0x67,0x209934(%rip)        # 212049 <s+0x9>
    8715:	c6 05 3f 99 20 00 79 	movb   $0x79,0x20993f(%rip)        # 21205b <s+0x1b>
    871c:	c6 05 3b 99 20 00 3a 	movb   $0x3a,0x20993b(%rip)        # 21205e <s+0x1e>
    8723:	c6 05 30 99 20 00 79 	movb   $0x79,0x209930(%rip)        # 21205a <s+0x1a>
    872a:	c6 05 2a 99 20 00 55 	movb   $0x55,0x20992a(%rip)        # 21205b <s+0x1b>
    8731:	c6 05 14 99 20 00 3a 	movb   $0x3a,0x209914(%rip)        # 21204c <s+0xc>
    8738:	c6 05 17 99 20 00 57 	movb   $0x57,0x209917(%rip)        # 212056 <s+0x16>
    873f:	c6 05 08 99 20 00 2b 	movb   $0x2b,0x209908(%rip)        # 21204e <s+0xe>
    8746:	c6 05 06 99 20 00 43 	movb   $0x43,0x209906(%rip)        # 212053 <s+0x13>
    874d:	c6 05 02 99 20 00 4c 	movb   $0x4c,0x209902(%rip)        # 212056 <s+0x16>
    8754:	c6 05 ee 98 20 00 72 	movb   $0x72,0x2098ee(%rip)        # 212049 <s+0x9>
    875b:	c6 05 de 98 20 00 56 	movb   $0x56,0x2098de(%rip)        # 212040 <s>
    8762:	c6 05 e2 98 20 00 6e 	movb   $0x6e,0x2098e2(%rip)        # 21204b <s+0xb>
    8769:	c6 05 f7 98 20 00 57 	movb   $0x57,0x2098f7(%rip)        # 212067 <s+0x27>
    8770:	c6 05 cd 98 20 00 63 	movb   $0x63,0x2098cd(%rip)        # 212044 <s+0x4>
    8777:	c6 05 e7 98 20 00 37 	movb   $0x37,0x2098e7(%rip)        # 212065 <s+0x25>
    877e:	c6 05 c1 98 20 00 6c 	movb   $0x6c,0x2098c1(%rip)        # 212046 <s+0x6>
    8785:	c6 05 bb 98 20 00 35 	movb   $0x35,0x2098bb(%rip)        # 212047 <s+0x7>
    878c:	c6 05 af 98 20 00 45 	movb   $0x45,0x2098af(%rip)        # 212042 <s+0x2>
    8793:	c6 05 c7 98 20 00 5d 	movb   $0x5d,0x2098c7(%rip)        # 212061 <s+0x21>
    879a:	c6 05 b9 98 20 00 32 	movb   $0x32,0x2098b9(%rip)        # 21205a <s+0x1a>
    87a1:	c6 05 9d 98 20 00 2b 	movb   $0x2b,0x20989d(%rip)        # 212045 <s+0x5>
    87a8:	c6 05 a0 98 20 00 47 	movb   $0x47,0x2098a0(%rip)        # 21204f <s+0xf>
    87af:	c6 05 a4 98 20 00 21 	movb   $0x21,0x2098a4(%rip)        # 21205a <s+0x1a>
    87b6:	c6 05 9d 98 20 00 63 	movb   $0x63,0x20989d(%rip)        # 21205a <s+0x1a>
    87bd:	c6 05 7d 98 20 00 3e 	movb   $0x3e,0x20987d(%rip)        # 212041 <s+0x1>
    87c4:	c6 05 99 98 20 00 4f 	movb   $0x4f,0x209899(%rip)        # 212064 <s+0x24>
    87cb:	c6 05 77 98 20 00 2b 	movb   $0x2b,0x209877(%rip)        # 212049 <s+0x9>
    87d2:	c6 05 70 98 20 00 22 	movb   $0x22,0x209870(%rip)        # 212049 <s+0x9>
    87d9:	c6 05 82 98 20 00 5b 	movb   $0x5b,0x209882(%rip)        # 212062 <s+0x22>
    87e0:	c6 05 75 98 20 00 3a 	movb   $0x3a,0x209875(%rip)        # 21205c <s+0x1c>
    87e7:	c6 05 70 98 20 00 6b 	movb   $0x6b,0x209870(%rip)        # 21205e <s+0x1e>
    87ee:	c6 05 51 98 20 00 45 	movb   $0x45,0x209851(%rip)        # 212046 <s+0x6>
    87f5:	c6 05 67 98 20 00 62 	movb   $0x62,0x209867(%rip)        # 212063 <s+0x23>
    87fc:	c6 05 54 98 20 00 58 	movb   $0x58,0x209854(%rip)        # 212057 <s+0x17>
    8803:	c6 05 3b 98 20 00 57 	movb   $0x57,0x20983b(%rip)        # 212045 <s+0x5>
    880a:	c6 05 45 98 20 00 68 	movb   $0x68,0x209845(%rip)        # 212056 <s+0x16>
    8811:	c6 05 31 98 20 00 7d 	movb   $0x7d,0x209831(%rip)        # 212049 <s+0x9>
    8818:	c6 05 37 98 20 00 43 	movb   $0x43,0x209837(%rip)        # 212056 <s+0x16>
    881f:	c6 05 38 98 20 00 3a 	movb   $0x3a,0x209838(%rip)        # 21205e <s+0x1e>
    8826:	c6 05 1d 98 20 00 29 	movb   $0x29,0x20981d(%rip)        # 21204a <s+0xa>
    882d:	c6 05 10 98 20 00 43 	movb   $0x43,0x209810(%rip)        # 212044 <s+0x4>
    8834:	c6 05 1f 98 20 00 71 	movb   $0x71,0x20981f(%rip)        # 21205a <s+0x1a>
    883b:	c6 05 0d 98 20 00 7e 	movb   $0x7e,0x20980d(%rip)        # 21204f <s+0xf>
    8842:	c6 05 fe 97 20 00 3d 	movb   $0x3d,0x2097fe(%rip)        # 212047 <s+0x7>
    8849:	c6 05 f8 97 20 00 4c 	movb   $0x4c,0x2097f8(%rip)        # 212048 <s+0x8>
    8850:	c6 05 e9 97 20 00 57 	movb   $0x57,0x2097e9(%rip)        # 212040 <s>
    8857:	c6 05 f8 97 20 00 51 	movb   $0x51,0x2097f8(%rip)        # 212056 <s+0x16>
    885e:	c6 05 fe 97 20 00 3c 	movb   $0x3c,0x2097fe(%rip)        # 212063 <s+0x23>
    8865:	c6 05 e1 97 20 00 30 	movb   $0x30,0x2097e1(%rip)        # 21204d <s+0xd>
    886c:	c6 05 ee 97 20 00 67 	movb   $0x67,0x2097ee(%rip)        # 212061 <s+0x21>
    8873:	c6 05 df 97 20 00 71 	movb   $0x71,0x2097df(%rip)        # 212059 <s+0x19>
    887a:	c6 05 e0 97 20 00 2d 	movb   $0x2d,0x2097e0(%rip)        # 212061 <s+0x21>
    8881:	c6 05 dd 97 20 00 7e 	movb   $0x7e,0x2097dd(%rip)        # 212065 <s+0x25>
    8888:	c6 05 b8 97 20 00 6c 	movb   $0x6c,0x2097b8(%rip)        # 212047 <s+0x7>
    888f:	c6 05 ad 97 20 00 3d 	movb   $0x3d,0x2097ad(%rip)        # 212043 <s+0x3>
    8896:	c6 05 c5 97 20 00 36 	movb   $0x36,0x2097c5(%rip)        # 212062 <s+0x22>
    889d:	c6 05 b0 97 20 00 5a 	movb   $0x5a,0x2097b0(%rip)        # 212054 <s+0x14>
    88a4:	c6 05 b9 97 20 00 71 	movb   $0x71,0x2097b9(%rip)        # 212064 <s+0x24>
    88ab:	c6 05 a5 97 20 00 35 	movb   $0x35,0x2097a5(%rip)        # 212057 <s+0x17>
    88b2:	c6 05 9e 97 20 00 4b 	movb   $0x4b,0x20979e(%rip)        # 212057 <s+0x17>
    88b9:	c6 05 96 97 20 00 39 	movb   $0x39,0x209796(%rip)        # 212056 <s+0x16>
    88c0:	c6 05 83 97 20 00 22 	movb   $0x22,0x209783(%rip)        # 21204a <s+0xa>
    88c7:	c6 05 78 97 20 00 78 	movb   $0x78,0x209778(%rip)        # 212046 <s+0x6>
    88ce:	c6 05 6d 97 20 00 54 	movb   $0x54,0x20976d(%rip)        # 212042 <s+0x2>
    88d5:	c6 05 78 97 20 00 4c 	movb   $0x4c,0x209778(%rip)        # 212054 <s+0x14>
    88dc:	c6 05 6c 97 20 00 51 	movb   $0x51,0x20976c(%rip)        # 21204f <s+0xf>
    88e3:	c6 05 59 97 20 00 23 	movb   $0x23,0x209759(%rip)        # 212043 <s+0x3>
    88ea:	c6 05 61 97 20 00 6e 	movb   $0x6e,0x209761(%rip)        # 212052 <s+0x12>
    88f1:	c6 05 5a 97 20 00 75 	movb   $0x75,0x20975a(%rip)        # 212052 <s+0x12>
    88f8:	c6 05 41 97 20 00 2a 	movb   $0x2a,0x209741(%rip)        # 212040 <s>
    88ff:	c6 05 58 97 20 00 51 	movb   $0x51,0x209758(%rip)        # 21205e <s+0x1e>
    8906:	c6 05 3b 97 20 00 2f 	movb   $0x2f,0x20973b(%rip)        # 212048 <s+0x8>
    890d:	c6 05 2c 97 20 00 46 	movb   $0x46,0x20972c(%rip)        # 212040 <s>
    8914:	c6 05 4c 97 20 00 71 	movb   $0x71,0x20974c(%rip)        # 212067 <s+0x27>
    891b:	c6 05 22 97 20 00 73 	movb   $0x73,0x209722(%rip)        # 212044 <s+0x4>
    8922:	c6 05 34 97 20 00 2c 	movb   $0x2c,0x209734(%rip)        # 21205d <s+0x1d>
    8929:	c6 05 32 97 20 00 59 	movb   $0x59,0x209732(%rip)        # 212062 <s+0x22>
    8930:	c6 05 17 97 20 00 4f 	movb   $0x4f,0x209717(%rip)        # 21204e <s+0xe>
    8937:	c6 05 11 97 20 00 42 	movb   $0x42,0x209711(%rip)        # 21204f <s+0xf>
    893e:	c6 05 17 97 20 00 57 	movb   $0x57,0x209717(%rip)        # 21205c <s+0x1c>
    8945:	c6 05 01 97 20 00 2c 	movb   $0x2c,0x209701(%rip)        # 21204d <s+0xd>
    894c:	c6 05 f2 96 20 00 41 	movb   $0x41,0x2096f2(%rip)        # 212045 <s+0x5>
    8953:	c6 05 ee 96 20 00 36 	movb   $0x36,0x2096ee(%rip)        # 212048 <s+0x8>
    895a:	c6 05 ec 96 20 00 7d 	movb   $0x7d,0x2096ec(%rip)        # 21204d <s+0xd>
    8961:	c6 05 de 96 20 00 53 	movb   $0x53,0x2096de(%rip)        # 212046 <s+0x6>
    8968:	c6 05 d4 96 20 00 22 	movb   $0x22,0x2096d4(%rip)        # 212043 <s+0x3>
    896f:	c6 05 ef 96 20 00 56 	movb   $0x56,0x2096ef(%rip)        # 212065 <s+0x25>
    8976:	c6 05 e5 96 20 00 48 	movb   $0x48,0x2096e5(%rip)        # 212062 <s+0x22>
    897d:	c6 05 d2 96 20 00 56 	movb   $0x56,0x2096d2(%rip)        # 212056 <s+0x16>
    8984:	c6 05 dc 96 20 00 2b 	movb   $0x2b,0x2096dc(%rip)        # 212067 <s+0x27>
    898b:	c6 05 d4 96 20 00 6b 	movb   $0x6b,0x2096d4(%rip)        # 212066 <s+0x26>
    8992:	c6 05 b9 96 20 00 21 	movb   $0x21,0x2096b9(%rip)        # 212052 <s+0x12>
    8999:	c6 05 c0 96 20 00 64 	movb   $0x64,0x2096c0(%rip)        # 212060 <s+0x20>
    89a0:	c6 05 9e 96 20 00 54 	movb   $0x54,0x20969e(%rip)        # 212045 <s+0x5>
    89a7:	c6 05 ad 96 20 00 48 	movb   $0x48,0x2096ad(%rip)        # 21205b <s+0x1b>
    89ae:	c6 05 96 96 20 00 50 	movb   $0x50,0x209696(%rip)        # 21204b <s+0xb>
    89b5:	c6 05 8f 96 20 00 66 	movb   $0x66,0x20968f(%rip)        # 21204b <s+0xb>
    89bc:	c6 05 7f 96 20 00 65 	movb   $0x65,0x20967f(%rip)        # 212042 <s+0x2>
    89c3:	c6 05 8a 96 20 00 36 	movb   $0x36,0x20968a(%rip)        # 212054 <s+0x14>
    89ca:	c6 05 76 96 20 00 2c 	movb   $0x2c,0x209676(%rip)        # 212047 <s+0x7>
    89d1:	c6 05 88 96 20 00 3e 	movb   $0x3e,0x209688(%rip)        # 212060 <s+0x20>
    89d8:	c6 05 86 96 20 00 38 	movb   $0x38,0x209686(%rip)        # 212065 <s+0x25>
    89df:	c6 05 5c 96 20 00 22 	movb   $0x22,0x20965c(%rip)        # 212042 <s+0x2>
    89e6:	c6 05 72 96 20 00 48 	movb   $0x48,0x209672(%rip)        # 21205f <s+0x1f>
    89ed:	c6 05 58 96 20 00 5f 	movb   $0x5f,0x209658(%rip)        # 21204c <s+0xc>
    89f4:	c6 05 5b 96 20 00 24 	movb   $0x24,0x20965b(%rip)        # 212056 <s+0x16>
    89fb:	c6 05 4b 96 20 00 54 	movb   $0x54,0x20964b(%rip)        # 21204d <s+0xd>
    8a02:	c6 05 4d 96 20 00 7e 	movb   $0x7e,0x20964d(%rip)        # 212056 <s+0x16>
    8a09:	c6 05 4c 96 20 00 67 	movb   $0x67,0x20964c(%rip)        # 21205c <s+0x1c>
    8a10:	c6 05 48 96 20 00 22 	movb   $0x22,0x209648(%rip)        # 21205f <s+0x1f>
    8a17:	c6 05 3a 96 20 00 32 	movb   $0x32,0x20963a(%rip)        # 212058 <s+0x18>
    8a1e:	c6 05 1f 96 20 00 54 	movb   $0x54,0x20961f(%rip)        # 212044 <s+0x4>
    8a25:	c6 05 17 96 20 00 42 	movb   $0x42,0x209617(%rip)        # 212043 <s+0x3>
    8a2c:	c6 05 13 96 20 00 69 	movb   $0x69,0x209613(%rip)        # 212046 <s+0x6>
    8a33:	c6 05 2a 96 20 00 3e 	movb   $0x3e,0x20962a(%rip)        # 212064 <s+0x24>
    8a3a:	c6 05 21 96 20 00 57 	movb   $0x57,0x209621(%rip)        # 212062 <s+0x22>
    8a41:	c6 05 05 96 20 00 7b 	movb   $0x7b,0x209605(%rip)        # 21204d <s+0xd>
    8a48:	c6 05 f4 95 20 00 65 	movb   $0x65,0x2095f4(%rip)        # 212043 <s+0x3>
    8a4f:	c6 05 f0 95 20 00 6b 	movb   $0x6b,0x2095f0(%rip)        # 212046 <s+0x6>
    8a56:	c6 05 f6 95 20 00 63 	movb   $0x63,0x2095f6(%rip)        # 212053 <s+0x13>
    8a5d:	c6 05 e2 95 20 00 7d 	movb   $0x7d,0x2095e2(%rip)        # 212046 <s+0x6>
    8a64:	c6 05 fa 95 20 00 2f 	movb   $0x2f,0x2095fa(%rip)        # 212065 <s+0x25>
    8a6b:	c6 05 ee 95 20 00 6c 	movb   $0x6c,0x2095ee(%rip)        # 212060 <s+0x20>
    8a72:	c6 05 d9 95 20 00 38 	movb   $0x38,0x2095d9(%rip)        # 212052 <s+0x12>
    8a79:	c6 05 d5 95 20 00 65 	movb   $0x65,0x2095d5(%rip)        # 212055 <s+0x15>
    8a80:	c6 05 cb 95 20 00 22 	movb   $0x22,0x2095cb(%rip)        # 212052 <s+0x12>
    8a87:	c6 05 d0 95 20 00 20 	movb   $0x20,0x2095d0(%rip)        # 21205e <s+0x1e>
    8a8e:	c6 05 c6 95 20 00 72 	movb   $0x72,0x2095c6(%rip)        # 21205b <s+0x1b>
    8a95:	c6 05 bf 95 20 00 53 	movb   $0x53,0x2095bf(%rip)        # 21205b <s+0x1b>
    8a9c:	c6 05 a3 95 20 00 3d 	movb   $0x3d,0x2095a3(%rip)        # 212046 <s+0x6>
    8aa3:	c6 05 b6 95 20 00 24 	movb   $0x24,0x2095b6(%rip)        # 212060 <s+0x20>
    8aaa:	c6 05 8f 95 20 00 65 	movb   $0x65,0x20958f(%rip)        # 212040 <s>
    8ab1:	c6 05 8c 95 20 00 76 	movb   $0x76,0x20958c(%rip)        # 212044 <s+0x4>
    8ab8:	c6 05 a2 95 20 00 7d 	movb   $0x7d,0x2095a2(%rip)        # 212061 <s+0x21>
    8abf:	c6 05 8d 95 20 00 59 	movb   $0x59,0x20958d(%rip)        # 212053 <s+0x13>
    8ac6:	c6 05 8d 95 20 00 7e 	movb   $0x7e,0x20958d(%rip)        # 21205a <s+0x1a>
    8acd:	c6 05 8d 95 20 00 5a 	movb   $0x5a,0x20958d(%rip)        # 212061 <s+0x21>
    8ad4:	c6 05 69 95 20 00 35 	movb   $0x35,0x209569(%rip)        # 212044 <s+0x4>
    8adb:	c6 05 84 95 20 00 66 	movb   $0x66,0x209584(%rip)        # 212066 <s+0x26>
    8ae2:	c6 05 71 95 20 00 44 	movb   $0x44,0x209571(%rip)        # 21205a <s+0x1a>
    8ae9:	c6 05 53 95 20 00 4c 	movb   $0x4c,0x209553(%rip)        # 212043 <s+0x3>
    8af0:	c6 05 4e 95 20 00 7e 	movb   $0x7e,0x20954e(%rip)        # 212045 <s+0x5>
    8af7:	c6 05 61 95 20 00 4e 	movb   $0x4e,0x209561(%rip)        # 21205f <s+0x1f>
    8afe:	c6 05 5c 95 20 00 52 	movb   $0x52,0x20955c(%rip)        # 212061 <s+0x21>
    8b05:	c6 05 50 95 20 00 4c 	movb   $0x4c,0x209550(%rip)        # 21205c <s+0x1c>
    8b0c:	c6 05 37 95 20 00 31 	movb   $0x31,0x209537(%rip)        # 21204a <s+0xa>
    8b13:	c6 05 4a 95 20 00 4f 	movb   $0x4f,0x20954a(%rip)        # 212064 <s+0x24>
    8b1a:	c6 05 44 95 20 00 76 	movb   $0x76,0x209544(%rip)        # 212065 <s+0x25>
    8b21:	c6 05 39 95 20 00 33 	movb   $0x33,0x209539(%rip)        # 212061 <s+0x21>
    8b28:	c6 05 2b 95 20 00 3f 	movb   $0x3f,0x20952b(%rip)        # 21205a <s+0x1a>
    8b2f:	c6 05 1f 95 20 00 6e 	movb   $0x6e,0x20951f(%rip)        # 212055 <s+0x15>
    8b36:	c6 05 04 95 20 00 5d 	movb   $0x5d,0x209504(%rip)        # 212041 <s+0x1>
    8b3d:	c6 05 12 95 20 00 6d 	movb   $0x6d,0x209512(%rip)        # 212056 <s+0x16>
    8b44:	c6 05 14 95 20 00 36 	movb   $0x36,0x209514(%rip)        # 21205f <s+0x1f>
    8b4b:	c6 05 fa 94 20 00 36 	movb   $0x36,0x2094fa(%rip)        # 21204c <s+0xc>
    8b52:	c6 05 0c 95 20 00 6f 	movb   $0x6f,0x20950c(%rip)        # 212065 <s+0x25>
    8b59:	c6 05 04 95 20 00 29 	movb   $0x29,0x209504(%rip)        # 212064 <s+0x24>
    8b60:	c6 05 fd 94 20 00 5b 	movb   $0x5b,0x2094fd(%rip)        # 212064 <s+0x24>
    8b67:	c6 05 f9 94 20 00 30 	movb   $0x30,0x2094f9(%rip)        # 212067 <s+0x27>
    8b6e:	c6 05 cc 94 20 00 48 	movb   $0x48,0x2094cc(%rip)        # 212041 <s+0x1>
    8b75:	c6 05 e2 94 20 00 3b 	movb   $0x3b,0x2094e2(%rip)        # 21205e <s+0x1e>
    8b7c:	c6 05 da 94 20 00 2e 	movb   $0x2e,0x2094da(%rip)        # 21205d <s+0x1d>
    8b83:	c6 05 be 94 20 00 66 	movb   $0x66,0x2094be(%rip)        # 212048 <s+0x8>
    8b8a:	c6 05 b9 94 20 00 3d 	movb   $0x3d,0x2094b9(%rip)        # 21204a <s+0xa>
    8b91:	c6 05 b2 94 20 00 4c 	movb   $0x4c,0x2094b2(%rip)        # 21204a <s+0xa>
    8b98:	c6 05 bf 94 20 00 32 	movb   $0x32,0x2094bf(%rip)        # 21205e <s+0x1e>
    8b9f:	c6 05 9c 94 20 00 60 	movb   $0x60,0x20949c(%rip)        # 212042 <s+0x2>
    8ba6:	c6 05 93 94 20 00 4b 	movb   $0x4b,0x209493(%rip)        # 212040 <s>
    8bad:	c6 05 96 94 20 00 5b 	movb   $0x5b,0x209496(%rip)        # 21204a <s+0xa>
    8bb4:	c6 05 97 94 20 00 22 	movb   $0x22,0x209497(%rip)        # 212052 <s+0x12>
    8bbb:	c6 05 a4 94 20 00 72 	movb   $0x72,0x2094a4(%rip)        # 212066 <s+0x26>
    8bc2:	c6 05 91 94 20 00 5f 	movb   $0x5f,0x209491(%rip)        # 21205a <s+0x1a>
    8bc9:	c6 05 7e 94 20 00 79 	movb   $0x79,0x20947e(%rip)        # 21204e <s+0xe>
    8bd0:	c6 05 90 94 20 00 77 	movb   $0x77,0x209490(%rip)        # 212067 <s+0x27>
    8bd7:	c6 05 72 94 20 00 6b 	movb   $0x6b,0x209472(%rip)        # 212050 <s+0x10>
    8bde:	c6 05 81 94 20 00 37 	movb   $0x37,0x209481(%rip)        # 212066 <s+0x26>
    8be5:	c6 05 76 94 20 00 70 	movb   $0x70,0x209476(%rip)        # 212062 <s+0x22>
    8bec:	c6 05 5d 94 20 00 7c 	movb   $0x7c,0x20945d(%rip)        # 212050 <s+0x10>
    8bf3:	c6 05 48 94 20 00 6c 	movb   $0x6c,0x209448(%rip)        # 212042 <s+0x2>
    8bfa:	c6 05 5d 94 20 00 3f 	movb   $0x3f,0x20945d(%rip)        # 21205e <s+0x1e>
    8c01:	c6 05 52 94 20 00 4e 	movb   $0x4e,0x209452(%rip)        # 21205a <s+0x1a>
    8c08:	c6 05 41 94 20 00 78 	movb   $0x78,0x209441(%rip)        # 212050 <s+0x10>
    8c0f:	c6 05 39 94 20 00 36 	movb   $0x36,0x209439(%rip)        # 21204f <s+0xf>
    8c16:	c6 05 27 94 20 00 28 	movb   $0x28,0x209427(%rip)        # 212044 <s+0x4>
    8c1d:	c6 05 3d 94 20 00 60 	movb   $0x60,0x20943d(%rip)        # 212061 <s+0x21>
    8c24:	c6 05 27 94 20 00 74 	movb   $0x74,0x209427(%rip)        # 212052 <s+0x12>
    8c2b:	c6 05 1d 94 20 00 67 	movb   $0x67,0x20941d(%rip)        # 21204f <s+0xf>
    8c32:	c6 05 28 94 20 00 70 	movb   $0x70,0x209428(%rip)        # 212061 <s+0x21>
    8c39:	c6 05 13 94 20 00 58 	movb   $0x58,0x209413(%rip)        # 212053 <s+0x13>
    8c40:	c6 05 0e 94 20 00 5b 	movb   $0x5b,0x20940e(%rip)        # 212055 <s+0x15>
    8c47:	c6 05 0f 94 20 00 29 	movb   $0x29,0x20940f(%rip)        # 21205d <s+0x1d>
    8c4e:	c6 05 f6 93 20 00 26 	movb   $0x26,0x2093f6(%rip)        # 21204b <s+0xb>
    8c55:	c6 05 f8 93 20 00 55 	movb   $0x55,0x2093f8(%rip)        # 212054 <s+0x14>
    8c5c:	c6 05 e5 93 20 00 51 	movb   $0x51,0x2093e5(%rip)        # 212048 <s+0x8>
    8c63:	c6 05 f8 93 20 00 3d 	movb   $0x3d,0x2093f8(%rip)        # 212062 <s+0x22>
    8c6a:	c6 05 dc 93 20 00 34 	movb   $0x34,0x2093dc(%rip)        # 21204d <s+0xd>
    8c71:	c6 05 e5 93 20 00 21 	movb   $0x21,0x2093e5(%rip)        # 21205d <s+0x1d>
    8c78:	c6 05 c3 93 20 00 6a 	movb   $0x6a,0x2093c3(%rip)        # 212042 <s+0x2>
    8c7f:	c6 05 be 93 20 00 7e 	movb   $0x7e,0x2093be(%rip)        # 212044 <s+0x4>
    8c86:	c6 05 ce 93 20 00 7a 	movb   $0x7a,0x2093ce(%rip)        # 21205b <s+0x1b>
    8c8d:	c6 05 ac 93 20 00 7e 	movb   $0x7e,0x2093ac(%rip)        # 212040 <s>
    8c94:	c6 05 ac 93 20 00 3f 	movb   $0x3f,0x2093ac(%rip)        # 212047 <s+0x7>
    8c9b:	c6 05 ae 93 20 00 7e 	movb   $0x7e,0x2093ae(%rip)        # 212050 <s+0x10>
    8ca2:	c6 05 bc 93 20 00 76 	movb   $0x76,0x2093bc(%rip)        # 212065 <s+0x25>
    8ca9:	c6 05 9b 93 20 00 26 	movb   $0x26,0x20939b(%rip)        # 21204b <s+0xb>
    8cb0:	c6 05 98 93 20 00 61 	movb   $0x61,0x209398(%rip)        # 21204f <s+0xf>
    8cb7:	c6 05 82 93 20 00 2d 	movb   $0x2d,0x209382(%rip)        # 212040 <s>
    8cbe:	c6 05 7d 93 20 00 31 	movb   $0x31,0x20937d(%rip)        # 212042 <s+0x2>
    8cc5:	c6 05 8c 93 20 00 4d 	movb   $0x4d,0x20938c(%rip)        # 212058 <s+0x18>
    8ccc:	c6 05 88 93 20 00 21 	movb   $0x21,0x209388(%rip)        # 21205b <s+0x1b>
    8cd3:	c6 05 85 93 20 00 51 	movb   $0x51,0x209385(%rip)        # 21205f <s+0x1f>
    8cda:	c6 05 72 93 20 00 61 	movb   $0x61,0x209372(%rip)        # 212053 <s+0x13>
    8ce1:	c6 05 58 93 20 00 3a 	movb   $0x3a,0x209358(%rip)        # 212040 <s>
    8ce8:	c6 05 5b 93 20 00 47 	movb   $0x47,0x20935b(%rip)        # 21204a <s+0xa>
    8cef:	c6 05 53 93 20 00 4b 	movb   $0x4b,0x209353(%rip)        # 212049 <s+0x9>
    8cf6:	c6 05 52 93 20 00 79 	movb   $0x79,0x209352(%rip)        # 21204f <s+0xf>
    8cfd:	c6 05 4f 93 20 00 47 	movb   $0x47,0x20934f(%rip)        # 212053 <s+0x13>
    8d04:	c6 05 57 93 20 00 2d 	movb   $0x2d,0x209357(%rip)        # 212062 <s+0x22>
    8d0b:	c6 05 32 93 20 00 4e 	movb   $0x4e,0x209332(%rip)        # 212044 <s+0x4>
    8d12:	c6 05 30 93 20 00 71 	movb   $0x71,0x209330(%rip)        # 212049 <s+0x9>
    8d19:	c6 05 30 93 20 00 4f 	movb   $0x4f,0x209330(%rip)        # 212050 <s+0x10>
    8d20:	c6 05 30 93 20 00 35 	movb   $0x35,0x209330(%rip)        # 212057 <s+0x17>
    8d27:	c6 05 2d 93 20 00 79 	movb   $0x79,0x20932d(%rip)        # 21205b <s+0x1b>
    8d2e:	c6 05 27 93 20 00 6b 	movb   $0x6b,0x209327(%rip)        # 21205c <s+0x1c>
    8d35:	c6 05 0c 93 20 00 61 	movb   $0x61,0x20930c(%rip)        # 212048 <s+0x8>
    8d3c:	c6 05 10 93 20 00 74 	movb   $0x74,0x209310(%rip)        # 212053 <s+0x13>
    8d43:	c6 05 fd 92 20 00 7a 	movb   $0x7a,0x2092fd(%rip)        # 212047 <s+0x7>
    8d4a:	c6 05 14 93 20 00 53 	movb   $0x53,0x209314(%rip)        # 212065 <s+0x25>
    8d51:	c6 05 07 93 20 00 3c 	movb   $0x3c,0x209307(%rip)        # 21205f <s+0x1f>
    8d58:	c6 05 08 93 20 00 55 	movb   $0x55,0x209308(%rip)        # 212067 <s+0x27>
    8d5f:	c6 05 df 92 20 00 2c 	movb   $0x2c,0x2092df(%rip)        # 212045 <s+0x5>
    8d66:	c6 05 f2 92 20 00 6e 	movb   $0x6e,0x2092f2(%rip)        # 21205f <s+0x1f>
    8d6d:	c6 05 d4 92 20 00 36 	movb   $0x36,0x2092d4(%rip)        # 212048 <s+0x8>
    8d74:	c6 05 e6 92 20 00 3c 	movb   $0x3c,0x2092e6(%rip)        # 212061 <s+0x21>
    8d7b:	c6 05 c5 92 20 00 54 	movb   $0x54,0x2092c5(%rip)        # 212047 <s+0x7>
    8d82:	c6 05 db 92 20 00 6d 	movb   $0x6d,0x2092db(%rip)        # 212064 <s+0x24>
    8d89:	c6 05 ce 92 20 00 6e 	movb   $0x6e,0x2092ce(%rip)        # 21205e <s+0x1e>
    8d90:	c6 05 c8 92 20 00 42 	movb   $0x42,0x2092c8(%rip)        # 21205f <s+0x1f>
    8d97:	c6 05 a4 92 20 00 51 	movb   $0x51,0x2092a4(%rip)        # 212042 <s+0x2>
    8d9e:	c6 05 b2 92 20 00 7c 	movb   $0x7c,0x2092b2(%rip)        # 212057 <s+0x17>
    8da5:	c6 05 b3 92 20 00 68 	movb   $0x68,0x2092b3(%rip)        # 21205f <s+0x1f>
    8dac:	c6 05 a8 92 20 00 34 	movb   $0x34,0x2092a8(%rip)        # 21205b <s+0x1b>
    8db3:	c6 05 ab 92 20 00 7e 	movb   $0x7e,0x2092ab(%rip)        # 212065 <s+0x25>
    8dba:	c6 05 9b 92 20 00 57 	movb   $0x57,0x20929b(%rip)        # 21205c <s+0x1c>
    8dc1:	c6 05 81 92 20 00 45 	movb   $0x45,0x209281(%rip)        # 212049 <s+0x9>
    8dc8:	c6 05 84 92 20 00 51 	movb   $0x51,0x209284(%rip)        # 212053 <s+0x13>
    8dcf:	c6 05 84 92 20 00 42 	movb   $0x42,0x209284(%rip)        # 21205a <s+0x1a>
    8dd6:	c6 05 64 92 20 00 5e 	movb   $0x5e,0x209264(%rip)        # 212041 <s+0x1>
    8ddd:	c6 05 76 92 20 00 6e 	movb   $0x6e,0x209276(%rip)        # 21205a <s+0x1a>
    8de4:	c6 05 69 92 20 00 7e 	movb   $0x7e,0x209269(%rip)        # 212054 <s+0x14>
    8deb:	c6 05 5a 92 20 00 50 	movb   $0x50,0x20925a(%rip)        # 21204c <s+0xc>
    8df2:	c6 05 6e 92 20 00 29 	movb   $0x29,0x20926e(%rip)        # 212067 <s+0x27>
    8df9:	c6 05 55 92 20 00 67 	movb   $0x67,0x209255(%rip)        # 212055 <s+0x15>
    8e00:	c6 05 51 92 20 00 3e 	movb   $0x3e,0x209251(%rip)        # 212058 <s+0x18>
    8e07:	c6 05 39 92 20 00 3f 	movb   $0x3f,0x209239(%rip)        # 212047 <s+0x7>
    8e0e:	c6 05 4b 92 20 00 3d 	movb   $0x3d,0x20924b(%rip)        # 212060 <s+0x20>
    8e15:	c6 05 46 92 20 00 6e 	movb   $0x6e,0x209246(%rip)        # 212062 <s+0x22>
    8e1c:	c6 05 2d 92 20 00 55 	movb   $0x55,0x20922d(%rip)        # 212050 <s+0x10>
    8e23:	c6 05 39 92 20 00 7d 	movb   $0x7d,0x209239(%rip)        # 212063 <s+0x23>
    8e2a:	c6 05 1a 92 20 00 28 	movb   $0x28,0x20921a(%rip)        # 21204b <s+0xb>
    8e31:	c6 05 1b 92 20 00 30 	movb   $0x30,0x20921b(%rip)        # 212053 <s+0x13>
    8e38:	c6 05 1f 92 20 00 22 	movb   $0x22,0x20921f(%rip)        # 21205e <s+0x1e>
    8e3f:	c6 05 02 92 20 00 5f 	movb   $0x5f,0x209202(%rip)        # 212048 <s+0x8>
    8e46:	c6 05 0d 92 20 00 5a 	movb   $0x5a,0x20920d(%rip)        # 21205a <s+0x1a>
    8e4d:	c6 05 f5 91 20 00 7e 	movb   $0x7e,0x2091f5(%rip)        # 212049 <s+0x9>
    8e54:	c6 05 f9 91 20 00 2e 	movb   $0x2e,0x2091f9(%rip)        # 212054 <s+0x14>
    8e5b:	c6 05 02 92 20 00 61 	movb   $0x61,0x209202(%rip)        # 212064 <s+0x24>
    8e62:	c6 05 d7 91 20 00 26 	movb   $0x26,0x2091d7(%rip)        # 212040 <s>
    8e69:	c6 05 ee 91 20 00 68 	movb   $0x68,0x2091ee(%rip)        # 21205e <s+0x1e>
    8e70:	c6 05 ee 91 20 00 51 	movb   $0x51,0x2091ee(%rip)        # 212065 <s+0x25>
    8e77:	c6 05 c5 91 20 00 2b 	movb   $0x2b,0x2091c5(%rip)        # 212043 <s+0x3>
    8e7e:	c6 05 bf 91 20 00 37 	movb   $0x37,0x2091bf(%rip)        # 212044 <s+0x4>
    8e85:	c6 05 cf 91 20 00 7d 	movb   $0x7d,0x2091cf(%rip)        # 21205b <s+0x1b>
    8e8c:	c6 05 b5 91 20 00 26 	movb   $0x26,0x2091b5(%rip)        # 212048 <s+0x8>
    8e93:	c6 05 c6 91 20 00 4a 	movb   $0x4a,0x2091c6(%rip)        # 212060 <s+0x20>
    8e9a:	c6 05 a0 91 20 00 2f 	movb   $0x2f,0x2091a0(%rip)        # 212041 <s+0x1>
    8ea1:	c6 05 aa 91 20 00 7e 	movb   $0x7e,0x2091aa(%rip)        # 212052 <s+0x12>
    8ea8:	c6 05 a4 91 20 00 66 	movb   $0x66,0x2091a4(%rip)        # 212053 <s+0x13>
    8eaf:	c6 05 8c 91 20 00 58 	movb   $0x58,0x20918c(%rip)        # 212042 <s+0x2>
    8eb6:	c6 05 8b 91 20 00 44 	movb   $0x44,0x20918b(%rip)        # 212048 <s+0x8>
    8ebd:	c6 05 9d 91 20 00 68 	movb   $0x68,0x20919d(%rip)        # 212061 <s+0x21>
    8ec4:	c6 05 7c 91 20 00 2d 	movb   $0x2d,0x20917c(%rip)        # 212047 <s+0x7>
    8ecb:	c6 05 82 91 20 00 76 	movb   $0x76,0x209182(%rip)        # 212054 <s+0x14>
    8ed2:	c6 05 67 91 20 00 38 	movb   $0x38,0x209167(%rip)        # 212040 <s>
    8ed9:	c6 05 6c 91 20 00 43 	movb   $0x43,0x20916c(%rip)        # 21204c <s+0xc>
    8ee0:	c6 05 7c 91 20 00 7e 	movb   $0x7e,0x20917c(%rip)        # 212063 <s+0x23>
    8ee7:	c6 05 73 91 20 00 45 	movb   $0x45,0x209173(%rip)        # 212061 <s+0x21>
    8eee:	c6 05 68 91 20 00 7b 	movb   $0x7b,0x209168(%rip)        # 21205d <s+0x1d>
    8ef5:	c6 05 48 91 20 00 38 	movb   $0x38,0x209148(%rip)        # 212044 <s+0x4>
    8efc:	c6 05 48 91 20 00 7a 	movb   $0x7a,0x209148(%rip)        # 21204b <s+0xb>
    8f03:	c6 05 3a 91 20 00 48 	movb   $0x48,0x20913a(%rip)        # 212044 <s+0x4>
    8f0a:	c6 05 51 91 20 00 7a 	movb   $0x7a,0x209151(%rip)        # 212062 <s+0x22>
    8f11:	c6 05 34 91 20 00 3e 	movb   $0x3e,0x209134(%rip)        # 21204c <s+0xc>
    8f18:	c6 05 2a 91 20 00 45 	movb   $0x45,0x20912a(%rip)        # 212049 <s+0x9>
    8f1f:	c6 05 2f 91 20 00 5b 	movb   $0x5b,0x20912f(%rip)        # 212055 <s+0x15>
    8f26:	c6 05 24 91 20 00 34 	movb   $0x34,0x209124(%rip)        # 212051 <s+0x11>
    8f2d:	c6 05 2d 91 20 00 79 	movb   $0x79,0x20912d(%rip)        # 212061 <s+0x21>
    8f34:	c6 05 14 91 20 00 24 	movb   $0x24,0x209114(%rip)        # 21204f <s+0xf>
    8f3b:	c6 05 fe 90 20 00 2d 	movb   $0x2d,0x2090fe(%rip)        # 212040 <s>
    8f42:	c6 05 02 91 20 00 7c 	movb   $0x7c,0x209102(%rip)        # 21204b <s+0xb>
    8f49:	c6 05 04 91 20 00 4c 	movb   $0x4c,0x209104(%rip)        # 212054 <s+0x14>
    8f50:	c6 05 10 91 20 00 60 	movb   $0x60,0x209110(%rip)        # 212067 <s+0x27>
    8f57:	c6 05 e5 90 20 00 56 	movb   $0x56,0x2090e5(%rip)        # 212043 <s+0x3>
    8f5e:	c6 05 00 91 20 00 6e 	movb   $0x6e,0x209100(%rip)        # 212065 <s+0x25>
    8f65:	c6 05 d7 90 20 00 29 	movb   $0x29,0x2090d7(%rip)        # 212043 <s+0x3>
    8f6c:	c6 05 e3 90 20 00 40 	movb   $0x40,0x2090e3(%rip)        # 212056 <s+0x16>
    8f73:	c6 05 eb 90 20 00 26 	movb   $0x26,0x2090eb(%rip)        # 212065 <s+0x25>
    8f7a:	c6 05 de 90 20 00 57 	movb   $0x57,0x2090de(%rip)        # 21205f <s+0x1f>
    8f81:	c6 05 dc 90 20 00 56 	movb   $0x56,0x2090dc(%rip)        # 212064 <s+0x24>
    8f88:	c6 05 b4 90 20 00 4c 	movb   $0x4c,0x2090b4(%rip)        # 212043 <s+0x3>
    8f8f:	c6 05 ca 90 20 00 60 	movb   $0x60,0x2090ca(%rip)        # 212060 <s+0x20>
    8f96:	c6 05 b0 90 20 00 3e 	movb   $0x3e,0x2090b0(%rip)        # 21204d <s+0xd>
    8f9d:	c6 05 9f 90 20 00 5f 	movb   $0x5f,0x20909f(%rip)        # 212043 <s+0x3>
    8fa4:	c6 05 ac 90 20 00 45 	movb   $0x45,0x2090ac(%rip)        # 212057 <s+0x17>
    8fab:	c6 05 9f 90 20 00 2f 	movb   $0x2f,0x20909f(%rip)        # 212051 <s+0x11>
    8fb2:	c6 05 89 90 20 00 20 	movb   $0x20,0x209089(%rip)        # 212042 <s+0x2>
    8fb9:	c6 05 8e 90 20 00 6f 	movb   $0x6f,0x20908e(%rip)        # 21204e <s+0xe>
    8fc0:	c6 05 91 90 20 00 6b 	movb   $0x6b,0x209091(%rip)        # 212058 <s+0x18>
    8fc7:	c6 05 8d 90 20 00 4b 	movb   $0x4b,0x20908d(%rip)        # 21205b <s+0x1b>
    8fce:	c6 05 89 90 20 00 41 	movb   $0x41,0x209089(%rip)        # 21205e <s+0x1e>
    8fd5:	c6 05 85 90 20 00 35 	movb   $0x35,0x209085(%rip)        # 212061 <s+0x21>
    8fdc:	c6 05 61 90 20 00 46 	movb   $0x46,0x209061(%rip)        # 212044 <s+0x4>
    8fe3:	c6 05 5a 90 20 00 7e 	movb   $0x7e,0x20905a(%rip)        # 212044 <s+0x4>
    8fea:	c6 05 5a 90 20 00 75 	movb   $0x75,0x20905a(%rip)        # 21204b <s+0xb>
    8ff1:	c6 05 51 90 20 00 58 	movb   $0x58,0x209051(%rip)        # 212049 <s+0x9>
    8ff8:	c6 05 50 90 20 00 55 	movb   $0x55,0x209050(%rip)        # 21204f <s+0xf>
    8fff:	c6 05 4f 90 20 00 2a 	movb   $0x2a,0x20904f(%rip)        # 212055 <s+0x15>
    9006:	c6 05 4a 90 20 00 29 	movb   $0x29,0x20904a(%rip)        # 212057 <s+0x17>
    900d:	c6 05 38 90 20 00 50 	movb   $0x50,0x209038(%rip)        # 21204c <s+0xc>
    9014:	c6 05 43 90 20 00 46 	movb   $0x46,0x209043(%rip)        # 21205e <s+0x1e>
    901b:	c6 05 37 90 20 00 65 	movb   $0x65,0x209037(%rip)        # 212059 <s+0x19>
    9022:	c6 05 3c 90 20 00 76 	movb   $0x76,0x20903c(%rip)        # 212065 <s+0x25>
    9029:	c6 05 21 90 20 00 31 	movb   $0x31,0x209021(%rip)        # 212051 <s+0x11>
    9030:	c6 05 1a 90 20 00 6b 	movb   $0x6b,0x20901a(%rip)        # 212051 <s+0x11>
    9037:	c6 05 1f 90 20 00 3d 	movb   $0x3d,0x20901f(%rip)        # 21205d <s+0x1d>
    903e:	c6 05 1a 90 20 00 43 	movb   $0x43,0x20901a(%rip)        # 21205f <s+0x1f>
    9045:	c6 05 09 90 20 00 21 	movb   $0x21,0x209009(%rip)        # 212055 <s+0x15>
    904c:	c6 05 f7 8f 20 00 43 	movb   $0x43,0x208ff7(%rip)        # 21204a <s+0xa>
    9053:	c6 05 f6 8f 20 00 78 	movb   $0x78,0x208ff6(%rip)        # 212050 <s+0x10>
    905a:	c6 05 ee 8f 20 00 23 	movb   $0x23,0x208fee(%rip)        # 21204f <s+0xf>
    9061:	c6 05 f9 8f 20 00 59 	movb   $0x59,0x208ff9(%rip)        # 212061 <s+0x21>
    9068:	c6 05 e7 8f 20 00 21 	movb   $0x21,0x208fe7(%rip)        # 212056 <s+0x16>
    906f:	c6 05 d7 8f 20 00 67 	movb   $0x67,0x208fd7(%rip)        # 21204d <s+0xd>
    9076:	c6 05 da 8f 20 00 62 	movb   $0x62,0x208fda(%rip)        # 212057 <s+0x17>
    907d:	c6 05 cf 8f 20 00 52 	movb   $0x52,0x208fcf(%rip)        # 212053 <s+0x13>
    9084:	c6 05 d9 8f 20 00 6b 	movb   $0x6b,0x208fd9(%rip)        # 212064 <s+0x24>
    908b:	c6 05 d5 8f 20 00 57 	movb   $0x57,0x208fd5(%rip)        # 212067 <s+0x27>
    9092:	c6 05 b0 8f 20 00 23 	movb   $0x23,0x208fb0(%rip)        # 212049 <s+0x9>
    9099:	c6 05 ad 8f 20 00 20 	movb   $0x20,0x208fad(%rip)        # 21204d <s+0xd>
    90a0:	c6 05 b2 8f 20 00 4b 	movb   $0x4b,0x208fb2(%rip)        # 212059 <s+0x19>
    90a7:	c6 05 9a 8f 20 00 2f 	movb   $0x2f,0x208f9a(%rip)        # 212048 <s+0x8>
    90ae:	c6 05 a2 8f 20 00 59 	movb   $0x59,0x208fa2(%rip)        # 212057 <s+0x17>
    90b5:	c6 05 a9 8f 20 00 30 	movb   $0x30,0x208fa9(%rip)        # 212065 <s+0x25>
    90bc:	c6 05 7f 8f 20 00 55 	movb   $0x55,0x208f7f(%rip)        # 212042 <s+0x2>
    90c3:	c6 05 80 8f 20 00 7e 	movb   $0x7e,0x208f80(%rip)        # 21204a <s+0xa>
    90ca:	c6 05 70 8f 20 00 2c 	movb   $0x2c,0x208f70(%rip)        # 212041 <s+0x1>
    90d1:	c6 05 7d 8f 20 00 32 	movb   $0x32,0x208f7d(%rip)        # 212055 <s+0x15>
    90d8:	c6 05 67 8f 20 00 7e 	movb   $0x7e,0x208f67(%rip)        # 212046 <s+0x6>
    90df:	c6 05 74 8f 20 00 21 	movb   $0x21,0x208f74(%rip)        # 21205a <s+0x1a>
    90e6:	c6 05 64 8f 20 00 2e 	movb   $0x2e,0x208f64(%rip)        # 212051 <s+0x11>
    90ed:	c6 05 55 8f 20 00 4d 	movb   $0x4d,0x208f55(%rip)        # 212049 <s+0x9>
    90f4:	c6 05 47 8f 20 00 5f 	movb   $0x5f,0x208f47(%rip)        # 212042 <s+0x2>
    90fb:	c6 05 4f 8f 20 00 7b 	movb   $0x7b,0x208f4f(%rip)        # 212051 <s+0x11>
    9102:	c6 05 43 8f 20 00 4c 	movb   $0x4c,0x208f43(%rip)        # 21204c <s+0xc>
    9109:	c6 05 50 8f 20 00 59 	movb   $0x59,0x208f50(%rip)        # 212060 <s+0x20>
    9110:	c6 05 40 8f 20 00 3c 	movb   $0x3c,0x208f40(%rip)        # 212057 <s+0x17>
    9117:	c6 05 3a 8f 20 00 44 	movb   $0x44,0x208f3a(%rip)        # 212058 <s+0x18>
    911e:	c6 05 40 8f 20 00 32 	movb   $0x32,0x208f40(%rip)        # 212065 <s+0x25>
    9125:	c6 05 2c 8f 20 00 54 	movb   $0x54,0x208f2c(%rip)        # 212058 <s+0x18>
    912c:	c6 05 26 8f 20 00 3e 	movb   $0x3e,0x208f26(%rip)        # 212059 <s+0x19>
    9133:	c6 05 1c 8f 20 00 53 	movb   $0x53,0x208f1c(%rip)        # 212056 <s+0x16>
    913a:	c6 05 08 8f 20 00 34 	movb   $0x34,0x208f08(%rip)        # 212049 <s+0x9>
    9141:	c6 05 1b 8f 20 00 7e 	movb   $0x7e,0x208f1b(%rip)        # 212063 <s+0x23>
    9148:	c6 05 02 8f 20 00 70 	movb   $0x70,0x208f02(%rip)        # 212051 <s+0x11>
    914f:	c6 05 07 8f 20 00 2e 	movb   $0x2e,0x208f07(%rip)        # 21205d <s+0x1d>
    9156:	c6 05 e5 8e 20 00 2c 	movb   $0x2c,0x208ee5(%rip)        # 212042 <s+0x2>
    915d:	c6 05 f0 8e 20 00 68 	movb   $0x68,0x208ef0(%rip)        # 212054 <s+0x14>
    9164:	c6 05 ea 8e 20 00 72 	movb   $0x72,0x208eea(%rip)        # 212055 <s+0x15>
    916b:	c6 05 db 8e 20 00 51 	movb   $0x51,0x208edb(%rip)        # 21204d <s+0xd>
    9172:	c6 05 d2 8e 20 00 76 	movb   $0x76,0x208ed2(%rip)        # 21204b <s+0xb>
    9179:	c6 05 dd 8e 20 00 21 	movb   $0x21,0x208edd(%rip)        # 21205d <s+0x1d>
    9180:	c6 05 c0 8e 20 00 2c 	movb   $0x2c,0x208ec0(%rip)        # 212047 <s+0x7>
    9187:	c6 05 b7 8e 20 00 63 	movb   $0x63,0x208eb7(%rip)        # 212045 <s+0x5>
    918e:	c6 05 b5 8e 20 00 2b 	movb   $0x2b,0x208eb5(%rip)        # 21204a <s+0xa>
    9195:	c6 05 b3 8e 20 00 6e 	movb   $0x6e,0x208eb3(%rip)        # 21204f <s+0xf>
    919c:	c6 05 bc 8e 20 00 46 	movb   $0x46,0x208ebc(%rip)        # 21205f <s+0x1f>
    91a3:	c6 05 9a 8e 20 00 6e 	movb   $0x6e,0x208e9a(%rip)        # 212044 <s+0x4>
    91aa:	c6 05 a1 8e 20 00 65 	movb   $0x65,0x208ea1(%rip)        # 212052 <s+0x12>
    91b1:	c6 05 8e 8e 20 00 28 	movb   $0x28,0x208e8e(%rip)        # 212046 <s+0x6>
    91b8:	c6 05 9f 8e 20 00 4a 	movb   $0x4a,0x208e9f(%rip)        # 21205e <s+0x1e>
    91bf:	c6 05 8e 8e 20 00 7a 	movb   $0x7a,0x208e8e(%rip)        # 212054 <s+0x14>
    91c6:	c6 05 78 8e 20 00 39 	movb   $0x39,0x208e78(%rip)        # 212045 <s+0x5>
    91cd:	c6 05 82 8e 20 00 63 	movb   $0x63,0x208e82(%rip)        # 212056 <s+0x16>
    91d4:	c6 05 66 8e 20 00 29 	movb   $0x29,0x208e66(%rip)        # 212041 <s+0x1>
    91db:	c6 05 7b 8e 20 00 3f 	movb   $0x3f,0x208e7b(%rip)        # 21205d <s+0x1d>
    91e2:	c6 05 6a 8e 20 00 7b 	movb   $0x7b,0x208e6a(%rip)        # 212053 <s+0x13>
    91e9:	c6 05 61 8e 20 00 7a 	movb   $0x7a,0x208e61(%rip)        # 212051 <s+0x11>
    91f0:	c6 05 52 8e 20 00 68 	movb   $0x68,0x208e52(%rip)        # 212049 <s+0x9>
    91f7:	c6 05 64 8e 20 00 6c 	movb   $0x6c,0x208e64(%rip)        # 212062 <s+0x22>
    91fe:	c6 05 42 8e 20 00 5a 	movb   $0x5a,0x208e42(%rip)        # 212047 <s+0x7>
    9205:	c6 05 57 8e 20 00 28 	movb   $0x28,0x208e57(%rip)        # 212063 <s+0x23>
    920c:	c6 05 42 8e 20 00 68 	movb   $0x68,0x208e42(%rip)        # 212055 <s+0x15>
    9213:	c6 05 38 8e 20 00 7a 	movb   $0x7a,0x208e38(%rip)        # 212052 <s+0x12>
    921a:	c6 05 31 8e 20 00 4d 	movb   $0x4d,0x208e31(%rip)        # 212052 <s+0x12>
    9221:	c6 05 1f 8e 20 00 73 	movb   $0x73,0x208e1f(%rip)        # 212047 <s+0x7>
    9228:	c6 05 32 8e 20 00 78 	movb   $0x78,0x208e32(%rip)        # 212061 <s+0x21>
    922f:	c6 05 2c 8e 20 00 57 	movb   $0x57,0x208e2c(%rip)        # 212062 <s+0x22>
    9236:	c6 05 29 8e 20 00 29 	movb   $0x29,0x208e29(%rip)        # 212066 <s+0x26>
    923d:	c6 05 18 8e 20 00 79 	movb   $0x79,0x208e18(%rip)        # 21205c <s+0x1c>
    9244:	c6 05 f7 8d 20 00 49 	movb   $0x49,0x208df7(%rip)        # 212042 <s+0x2>
    924b:	c6 05 0e 8e 20 00 22 	movb   $0x22,0x208e0e(%rip)        # 212060 <s+0x20>
    9252:	c6 05 ee 8d 20 00 68 	movb   $0x68,0x208dee(%rip)        # 212047 <s+0x7>
    9259:	c6 05 00 8e 20 00 70 	movb   $0x70,0x208e00(%rip)        # 212060 <s+0x20>
    9260:	c6 05 ef 8d 20 00 40 	movb   $0x40,0x208def(%rip)        # 212056 <s+0x16>
    9267:	c6 05 d7 8d 20 00 70 	movb   $0x70,0x208dd7(%rip)        # 212045 <s+0x5>
    926e:	c6 05 d1 8d 20 00 28 	movb   $0x28,0x208dd1(%rip)        # 212046 <s+0x6>
    9275:	c6 05 d8 8d 20 00 76 	movb   $0x76,0x208dd8(%rip)        # 212054 <s+0x14>
    927c:	c6 05 c0 8d 20 00 2d 	movb   $0x2d,0x208dc0(%rip)        # 212043 <s+0x3>
    9283:	c6 05 bb 8d 20 00 66 	movb   $0x66,0x208dbb(%rip)        # 212045 <s+0x5>
    928a:	c6 05 c2 8d 20 00 50 	movb   $0x50,0x208dc2(%rip)        # 212053 <s+0x13>
    9291:	c6 05 ce 8d 20 00 38 	movb   $0x38,0x208dce(%rip)        # 212066 <s+0x26>
    9298:	c6 05 a4 8d 20 00 49 	movb   $0x49,0x208da4(%rip)        # 212043 <s+0x3>
    929f:	c6 05 a6 8d 20 00 37 	movb   $0x37,0x208da6(%rip)        # 21204c <s+0xc>
    92a6:	c6 05 9e 8d 20 00 7a 	movb   $0x7a,0x208d9e(%rip)        # 21204b <s+0xb>
    92ad:	c6 05 a6 8d 20 00 50 	movb   $0x50,0x208da6(%rip)        # 21205a <s+0x1a>
    92b4:	c6 05 88 8d 20 00 7a 	movb   $0x7a,0x208d88(%rip)        # 212043 <s+0x3>
    92bb:	c6 05 87 8d 20 00 3d 	movb   $0x3d,0x208d87(%rip)        # 212049 <s+0x9>
    92c2:	c6 05 8e 8d 20 00 56 	movb   $0x56,0x208d8e(%rip)        # 212057 <s+0x17>
    92c9:	c6 05 70 8d 20 00 7b 	movb   $0x7b,0x208d70(%rip)        # 212040 <s>
    92d0:	c6 05 7c 8d 20 00 33 	movb   $0x33,0x208d7c(%rip)        # 212053 <s+0x13>
    92d7:	c6 05 6f 8d 20 00 58 	movb   $0x58,0x208d6f(%rip)        # 21204d <s+0xd>
    92de:	c6 05 76 8d 20 00 73 	movb   $0x73,0x208d76(%rip)        # 21205b <s+0x1b>
    92e5:	c6 05 6c 8d 20 00 60 	movb   $0x60,0x208d6c(%rip)        # 212058 <s+0x18>
    92ec:	c6 05 5f 8d 20 00 3f 	movb   $0x3f,0x208d5f(%rip)        # 212052 <s+0x12>
    92f3:	c6 05 66 8d 20 00 24 	movb   $0x24,0x208d66(%rip)        # 212060 <s+0x20>
    92fa:	c6 05 47 8d 20 00 78 	movb   $0x78,0x208d47(%rip)        # 212048 <s+0x8>
    9301:	c6 05 43 8d 20 00 6c 	movb   $0x6c,0x208d43(%rip)        # 21204b <s+0xb>
    9308:	c6 05 51 8d 20 00 41 	movb   $0x41,0x208d51(%rip)        # 212060 <s+0x20>
    930f:	c6 05 43 8d 20 00 45 	movb   $0x45,0x208d43(%rip)        # 212059 <s+0x19>
    9316:	c6 05 45 8d 20 00 59 	movb   $0x59,0x208d45(%rip)        # 212062 <s+0x22>
    931d:	c6 05 39 8d 20 00 74 	movb   $0x74,0x208d39(%rip)        # 21205d <s+0x1d>
    9324:	c6 05 1f 8d 20 00 61 	movb   $0x61,0x208d1f(%rip)        # 21204a <s+0xa>
    932b:	c6 05 0e 8d 20 00 30 	movb   $0x30,0x208d0e(%rip)        # 212040 <s>
    9332:	c6 05 17 8d 20 00 6d 	movb   $0x6d,0x208d17(%rip)        # 212050 <s+0x10>
    9339:	c6 05 09 8d 20 00 3c 	movb   $0x3c,0x208d09(%rip)        # 212049 <s+0x9>
    9340:	c6 05 fe 8c 20 00 67 	movb   $0x67,0x208cfe(%rip)        # 212045 <s+0x5>
    9347:	c6 05 f8 8c 20 00 43 	movb   $0x43,0x208cf8(%rip)        # 212046 <s+0x6>
    934e:	c6 05 05 8d 20 00 7e 	movb   $0x7e,0x208d05(%rip)        # 21205a <s+0x1a>
    9355:	c6 05 f1 8c 20 00 55 	movb   $0x55,0x208cf1(%rip)        # 21204d <s+0xd>
    935c:	c6 05 de 8c 20 00 78 	movb   $0x78,0x208cde(%rip)        # 212041 <s+0x1>
    9363:	c6 05 f9 8c 20 00 40 	movb   $0x40,0x208cf9(%rip)        # 212063 <s+0x23>
    936a:	c6 05 e5 8c 20 00 7b 	movb   $0x7b,0x208ce5(%rip)        # 212056 <s+0x16>
    9371:	c6 05 d1 8c 20 00 73 	movb   $0x73,0x208cd1(%rip)        # 212049 <s+0x9>
    9378:	c6 05 d1 8c 20 00 6b 	movb   $0x6b,0x208cd1(%rip)        # 212050 <s+0x10>
    937f:	c6 05 cb 8c 20 00 23 	movb   $0x23,0x208ccb(%rip)        # 212051 <s+0x11>
    9386:	c6 05 c1 8c 20 00 68 	movb   $0x68,0x208cc1(%rip)        # 21204e <s+0xe>
    938d:	c6 05 c8 8c 20 00 50 	movb   $0x50,0x208cc8(%rip)        # 21205c <s+0x1c>
    9394:	c6 05 b0 8c 20 00 44 	movb   $0x44,0x208cb0(%rip)        # 21204b <s+0xb>
    939b:	c6 05 b5 8c 20 00 2d 	movb   $0x2d,0x208cb5(%rip)        # 212057 <s+0x17>
    93a2:	c6 05 9e 8c 20 00 6b 	movb   $0x6b,0x208c9e(%rip)        # 212047 <s+0x7>
    93a9:	c6 05 95 8c 20 00 2a 	movb   $0x2a,0x208c95(%rip)        # 212045 <s+0x5>
    93b0:	c6 05 a2 8c 20 00 33 	movb   $0x33,0x208ca2(%rip)        # 212059 <s+0x19>
    93b7:	c6 05 85 8c 20 00 7b 	movb   $0x7b,0x208c85(%rip)        # 212043 <s+0x3>
    93be:	c6 05 9a 8c 20 00 65 	movb   $0x65,0x208c9a(%rip)        # 21205f <s+0x1f>
    93c5:	c6 05 88 8c 20 00 3e 	movb   $0x3e,0x208c88(%rip)        # 212054 <s+0x14>
    93cc:	c6 05 7c 8c 20 00 3a 	movb   $0x3a,0x208c7c(%rip)        # 21204f <s+0xf>
    93d3:	c6 05 73 8c 20 00 76 	movb   $0x76,0x208c73(%rip)        # 21204d <s+0xd>
    93da:	c6 05 7e 8c 20 00 24 	movb   $0x24,0x208c7e(%rip)        # 21205f <s+0x1f>
    93e1:	c6 05 71 8c 20 00 30 	movb   $0x30,0x208c71(%rip)        # 212059 <s+0x19>
    93e8:	c6 05 53 8c 20 00 74 	movb   $0x74,0x208c53(%rip)        # 212042 <s+0x2>
    93ef:	c6 05 57 8c 20 00 6b 	movb   $0x6b,0x208c57(%rip)        # 21204d <s+0xd>
    93f6:	c6 05 47 8c 20 00 32 	movb   $0x32,0x208c47(%rip)        # 212044 <s+0x4>
    93fd:	c6 05 46 8c 20 00 6b 	movb   $0x6b,0x208c46(%rip)        # 21204a <s+0xa>
    9404:	c6 05 51 8c 20 00 47 	movb   $0x47,0x208c51(%rip)        # 21205c <s+0x1c>
    940b:	c6 05 4d 8c 20 00 47 	movb   $0x47,0x208c4d(%rip)        # 21205f <s+0x1f>
    9412:	c6 05 49 8c 20 00 7b 	movb   $0x7b,0x208c49(%rip)        # 212062 <s+0x22>
    9419:	c6 05 44 8c 20 00 4a 	movb   $0x4a,0x208c44(%rip)        # 212064 <s+0x24>
    9420:	c6 05 31 8c 20 00 2e 	movb   $0x2e,0x208c31(%rip)        # 212058 <s+0x18>
    9427:	c6 05 1e 8c 20 00 2e 	movb   $0x2e,0x208c1e(%rip)        # 21204c <s+0xc>
    942e:	c6 05 0e 8c 20 00 63 	movb   $0x63,0x208c0e(%rip)        # 212043 <s+0x3>
    9435:	c6 05 22 8c 20 00 5f 	movb   $0x5f,0x208c22(%rip)        # 21205e <s+0x1e>
    943c:	c6 05 24 8c 20 00 3d 	movb   $0x3d,0x208c24(%rip)        # 212067 <s+0x27>
    9443:	c6 05 fa 8b 20 00 3b 	movb   $0x3b,0x208bfa(%rip)        # 212044 <s+0x4>
    944a:	c6 05 01 8c 20 00 38 	movb   $0x38,0x208c01(%rip)        # 212052 <s+0x12>
    9451:	c6 05 0f 8c 20 00 71 	movb   $0x71,0x208c0f(%rip)        # 212067 <s+0x27>
    9458:	c6 05 f2 8b 20 00 47 	movb   $0x47,0x208bf2(%rip)        # 212051 <s+0x11>
    945f:	c6 05 00 8c 20 00 7b 	movb   $0x7b,0x208c00(%rip)        # 212066 <s+0x26>
    9466:	c6 05 ee 8b 20 00 31 	movb   $0x31,0x208bee(%rip)        # 21205b <s+0x1b>
    946d:	c6 05 e2 8b 20 00 77 	movb   $0x77,0x208be2(%rip)        # 212056 <s+0x16>
    9474:	c6 05 dc 8b 20 00 7e 	movb   $0x7e,0x208bdc(%rip)        # 212057 <s+0x17>
    947b:	c6 05 dc 8b 20 00 2b 	movb   $0x2b,0x208bdc(%rip)        # 21205e <s+0x1e>
    9482:	c6 05 bf 8b 20 00 55 	movb   $0x55,0x208bbf(%rip)        # 212048 <s+0x8>
    9489:	c6 05 d0 8b 20 00 44 	movb   $0x44,0x208bd0(%rip)        # 212060 <s+0x20>
    9490:	c6 05 ca 8b 20 00 7e 	movb   $0x7e,0x208bca(%rip)        # 212061 <s+0x21>
    9497:	c6 05 c7 8b 20 00 37 	movb   $0x37,0x208bc7(%rip)        # 212065 <s+0x25>
    949e:	c6 05 a8 8b 20 00 7d 	movb   $0x7d,0x208ba8(%rip)        # 21204d <s+0xd>
    94a5:	c6 05 b3 8b 20 00 29 	movb   $0x29,0x208bb3(%rip)        # 21205f <s+0x1f>
    94ac:	c6 05 aa 8b 20 00 77 	movb   $0x77,0x208baa(%rip)        # 21205d <s+0x1d>
    94b3:	c6 05 9c 8b 20 00 62 	movb   $0x62,0x208b9c(%rip)        # 212056 <s+0x16>
    94ba:	c6 05 8a 8b 20 00 7a 	movb   $0x7a,0x208b8a(%rip)        # 21204b <s+0xb>
    94c1:	c6 05 95 8b 20 00 2e 	movb   $0x2e,0x208b95(%rip)        # 21205d <s+0x1d>
    94c8:	c6 05 7e 8b 20 00 3e 	movb   $0x3e,0x208b7e(%rip)        # 21204d <s+0xd>
    94cf:	c6 05 90 8b 20 00 62 	movb   $0x62,0x208b90(%rip)        # 212066 <s+0x26>
    94d6:	c6 05 6e 8b 20 00 63 	movb   $0x63,0x208b6e(%rip)        # 21204b <s+0xb>
    94dd:	c6 05 61 8b 20 00 7b 	movb   $0x7b,0x208b61(%rip)        # 212045 <s+0x5>
    94e4:	c6 05 6b 8b 20 00 26 	movb   $0x26,0x208b6b(%rip)        # 212056 <s+0x16>
    94eb:	c6 05 52 8b 20 00 34 	movb   $0x34,0x208b52(%rip)        # 212044 <s+0x4>
    94f2:	c6 05 58 8b 20 00 25 	movb   $0x25,0x208b58(%rip)        # 212051 <s+0x11>
    94f9:	c6 05 5f 8b 20 00 6a 	movb   $0x6a,0x208b5f(%rip)        # 21205f <s+0x1f>
    9500:	c6 05 41 8b 20 00 5a 	movb   $0x5a,0x208b41(%rip)        # 212048 <s+0x8>
    9507:	c6 05 40 8b 20 00 36 	movb   $0x36,0x208b40(%rip)        # 21204e <s+0xe>
    950e:	c6 05 4c 8b 20 00 3a 	movb   $0x3a,0x208b4c(%rip)        # 212061 <s+0x21>
    9515:	c6 05 29 8b 20 00 21 	movb   $0x21,0x208b29(%rip)        # 212045 <s+0x5>
    951c:	c6 05 3c 8b 20 00 73 	movb   $0x73,0x208b3c(%rip)        # 21205f <s+0x1f>
    9523:	c6 05 3d 8b 20 00 28 	movb   $0x28,0x208b3d(%rip)        # 212067 <s+0x27>
    952a:	c6 05 11 8b 20 00 6a 	movb   $0x6a,0x208b11(%rip)        # 212042 <s+0x2>
    9531:	c6 05 16 8b 20 00 66 	movb   $0x66,0x208b16(%rip)        # 21204e <s+0xe>
    9538:	c6 05 01 8b 20 00 46 	movb   $0x46,0x208b01(%rip)        # 212040 <s>
    953f:	c6 05 10 8b 20 00 7e 	movb   $0x7e,0x208b10(%rip)        # 212056 <s+0x16>
    9546:	c6 05 fa 8a 20 00 69 	movb   $0x69,0x208afa(%rip)        # 212047 <s+0x7>
    954d:	c6 05 0f 8b 20 00 69 	movb   $0x69,0x208b0f(%rip)        # 212063 <s+0x23>
    9554:	c6 05 09 8b 20 00 6b 	movb   $0x6b,0x208b09(%rip)        # 212064 <s+0x24>
    955b:	c6 05 ff 8a 20 00 28 	movb   $0x28,0x208aff(%rip)        # 212061 <s+0x21>
    9562:	c6 05 f2 8a 20 00 3f 	movb   $0x3f,0x208af2(%rip)        # 21205b <s+0x1b>
    9569:	c6 05 d6 8a 20 00 32 	movb   $0x32,0x208ad6(%rip)        # 212046 <s+0x6>
    9570:	c6 05 ef 8a 20 00 2c 	movb   $0x2c,0x208aef(%rip)        # 212066 <s+0x26>
    9577:	c6 05 c2 8a 20 00 63 	movb   $0x63,0x208ac2(%rip)        # 212040 <s>
    957e:	c6 05 c8 8a 20 00 34 	movb   $0x34,0x208ac8(%rip)        # 21204d <s+0xd>
    9585:	c6 05 c2 8a 20 00 78 	movb   $0x78,0x208ac2(%rip)        # 21204e <s+0xe>
    958c:	c6 05 b8 8a 20 00 66 	movb   $0x66,0x208ab8(%rip)        # 21204b <s+0xb>
    9593:	c6 05 c6 8a 20 00 63 	movb   $0x63,0x208ac6(%rip)        # 212060 <s+0x20>
    959a:	c6 05 a4 8a 20 00 5e 	movb   $0x5e,0x208aa4(%rip)        # 212045 <s+0x5>
    95a1:	c6 05 99 8a 20 00 25 	movb   $0x25,0x208a99(%rip)        # 212041 <s+0x1>
    95a8:	c6 05 93 8a 20 00 3f 	movb   $0x3f,0x208a93(%rip)        # 212042 <s+0x2>
    95af:	c6 05 b0 8a 20 00 2a 	movb   $0x2a,0x208ab0(%rip)        # 212066 <s+0x26>
    95b6:	c6 05 9d 8a 20 00 24 	movb   $0x24,0x208a9d(%rip)        # 21205a <s+0x1a>
    95bd:	c6 05 97 8a 20 00 4b 	movb   $0x4b,0x208a97(%rip)        # 21205b <s+0x1b>
    95c4:	c6 05 84 8a 20 00 75 	movb   $0x75,0x208a84(%rip)        # 21204f <s+0xf>
    95cb:	c6 05 70 8a 20 00 2a 	movb   $0x2a,0x208a70(%rip)        # 212042 <s+0x2>
    95d2:	c6 05 88 8a 20 00 7d 	movb   $0x7d,0x208a88(%rip)        # 212061 <s+0x21>
    95d9:	c6 05 85 8a 20 00 35 	movb   $0x35,0x208a85(%rip)        # 212065 <s+0x25>
    95e0:	c6 05 61 8a 20 00 52 	movb   $0x52,0x208a61(%rip)        # 212048 <s+0x8>
    95e7:	c6 05 63 8a 20 00 66 	movb   $0x66,0x208a63(%rip)        # 212051 <s+0x11>
    95ee:	c6 05 59 8a 20 00 2b 	movb   $0x2b,0x208a59(%rip)        # 21204e <s+0xe>
    95f5:	c6 05 49 8a 20 00 55 	movb   $0x55,0x208a49(%rip)        # 212045 <s+0x5>
    95fc:	c6 05 49 8a 20 00 7b 	movb   $0x7b,0x208a49(%rip)        # 21204c <s+0xc>
    9603:	c6 05 3c 8a 20 00 29 	movb   $0x29,0x208a3c(%rip)        # 212046 <s+0x6>
    960a:	c6 05 32 8a 20 00 23 	movb   $0x23,0x208a32(%rip)        # 212043 <s+0x3>
    9611:	c6 05 4e 8a 20 00 47 	movb   $0x47,0x208a4e(%rip)        # 212066 <s+0x26>
    9618:	c6 05 3c 8a 20 00 4d 	movb   $0x4d,0x208a3c(%rip)        # 21205b <s+0x1b>
    961f:	c6 05 40 8a 20 00 68 	movb   $0x68,0x208a40(%rip)        # 212066 <s+0x26>
    9626:	c6 05 20 8a 20 00 4f 	movb   $0x4f,0x208a20(%rip)        # 21204d <s+0xd>
    962d:	c6 05 32 8a 20 00 6d 	movb   $0x6d,0x208a32(%rip)        # 212066 <s+0x26>
    9634:	c6 05 24 8a 20 00 50 	movb   $0x50,0x208a24(%rip)        # 21205f <s+0x1f>
    963b:	c6 05 19 8a 20 00 3c 	movb   $0x3c,0x208a19(%rip)        # 21205b <s+0x1b>
    9642:	c6 05 01 8a 20 00 72 	movb   $0x72,0x208a01(%rip)        # 21204a <s+0xa>
    9649:	c6 05 f0 89 20 00 79 	movb   $0x79,0x2089f0(%rip)        # 212040 <s>
    9650:	c6 05 0b 8a 20 00 7a 	movb   $0x7a,0x208a0b(%rip)        # 212062 <s+0x22>
    9657:	c6 05 ee 89 20 00 63 	movb   $0x63,0x2089ee(%rip)        # 21204c <s+0xc>
    965e:	c6 05 e1 89 20 00 62 	movb   $0x62,0x2089e1(%rip)        # 212046 <s+0x6>
    9665:	c6 05 d7 89 20 00 23 	movb   $0x23,0x2089d7(%rip)        # 212043 <s+0x3>
    966c:	c6 05 d7 89 20 00 56 	movb   $0x56,0x2089d7(%rip)        # 21204a <s+0xa>
    9673:	c6 05 c9 89 20 00 52 	movb   $0x52,0x2089c9(%rip)        # 212043 <s+0x3>
    967a:	c6 05 c4 89 20 00 59 	movb   $0x59,0x2089c4(%rip)        # 212045 <s+0x5>
    9681:	c6 05 c7 89 20 00 4e 	movb   $0x4e,0x2089c7(%rip)        # 21204f <s+0xf>
    9688:	c6 05 c9 89 20 00 32 	movb   $0x32,0x2089c9(%rip)        # 212058 <s+0x18>
    968f:	c6 05 af 89 20 00 23 	movb   $0x23,0x2089af(%rip)        # 212045 <s+0x5>
    9696:	c6 05 a5 89 20 00 24 	movb   $0x24,0x2089a5(%rip)        # 212042 <s+0x2>
    969d:	c6 05 ab 89 20 00 7b 	movb   $0x7b,0x2089ab(%rip)        # 21204f <s+0xf>
    96a4:	c6 05 b7 89 20 00 52 	movb   $0x52,0x2089b7(%rip)        # 212062 <s+0x22>
    96ab:	c6 05 8f 89 20 00 22 	movb   $0x22,0x20898f(%rip)        # 212041 <s+0x1>
    96b2:	c6 05 ab 89 20 00 6b 	movb   $0x6b,0x2089ab(%rip)        # 212064 <s+0x24>
    96b9:	c6 05 9e 89 20 00 4a 	movb   $0x4a,0x20899e(%rip)        # 21205e <s+0x1e>
    96c0:	c6 05 a0 89 20 00 7c 	movb   $0x7c,0x2089a0(%rip)        # 212067 <s+0x27>
    96c7:	c6 05 8c 89 20 00 74 	movb   $0x74,0x20898c(%rip)        # 21205a <s+0x1a>
    96ce:	c6 05 91 89 20 00 36 	movb   $0x36,0x208991(%rip)        # 212066 <s+0x26>
    96d5:	c6 05 89 89 20 00 7e 	movb   $0x7e,0x208989(%rip)        # 212065 <s+0x25>
    96dc:	c6 05 74 89 20 00 25 	movb   $0x25,0x208974(%rip)        # 212057 <s+0x17>
    96e3:	c6 05 68 89 20 00 53 	movb   $0x53,0x208968(%rip)        # 212052 <s+0x12>
    96ea:	c6 05 6b 89 20 00 77 	movb   $0x77,0x20896b(%rip)        # 21205c <s+0x1c>
    96f1:	c6 05 57 89 20 00 5b 	movb   $0x5b,0x208957(%rip)        # 21204f <s+0xf>
    96f8:	c6 05 5e 89 20 00 3a 	movb   $0x3a,0x20895e(%rip)        # 21205d <s+0x1d>
    96ff:	c6 05 52 89 20 00 73 	movb   $0x73,0x208952(%rip)        # 212058 <s+0x18>
    9706:	c6 05 3b 89 20 00 6c 	movb   $0x6c,0x20893b(%rip)        # 212048 <s+0x8>
    970d:	c6 05 2e 89 20 00 4c 	movb   $0x4c,0x20892e(%rip)        # 212042 <s+0x2>
    9714:	c6 05 30 89 20 00 3f 	movb   $0x3f,0x208930(%rip)        # 21204b <s+0xb>
    971b:	c6 05 35 89 20 00 7e 	movb   $0x7e,0x208935(%rip)        # 212057 <s+0x17>
    9722:	c6 05 23 89 20 00 4f 	movb   $0x4f,0x208923(%rip)        # 21204c <s+0xc>
    9729:	c6 05 36 89 20 00 34 	movb   $0x34,0x208936(%rip)        # 212066 <s+0x26>
    9730:	c6 05 10 89 20 00 37 	movb   $0x37,0x208910(%rip)        # 212047 <s+0x7>
    9737:	c6 05 0e 89 20 00 5e 	movb   $0x5e,0x20890e(%rip)        # 21204c <s+0xc>
    973e:	c6 05 03 89 20 00 6b 	movb   $0x6b,0x208903(%rip)        # 212048 <s+0x8>
    9745:	c6 05 0c 89 20 00 74 	movb   $0x74,0x20890c(%rip)        # 212058 <s+0x18>
    974c:	c6 05 01 89 20 00 5a 	movb   $0x5a,0x208901(%rip)        # 212054 <s+0x14>
    9753:	c6 05 f2 88 20 00 4e 	movb   $0x4e,0x2088f2(%rip)        # 21204c <s+0xc>
    975a:	c6 05 e5 88 20 00 52 	movb   $0x52,0x2088e5(%rip)        # 212046 <s+0x6>
    9761:	c6 05 e7 88 20 00 47 	movb   $0x47,0x2088e7(%rip)        # 21204f <s+0xf>
    9768:	c6 05 f1 88 20 00 40 	movb   $0x40,0x2088f1(%rip)        # 212060 <s+0x20>
    976f:	c6 05 cd 88 20 00 5a 	movb   $0x5a,0x2088cd(%rip)        # 212043 <s+0x3>
    9776:	c6 05 ce 88 20 00 35 	movb   $0x35,0x2088ce(%rip)        # 21204b <s+0xb>
    977d:	c6 05 bf 88 20 00 49 	movb   $0x49,0x2088bf(%rip)        # 212043 <s+0x3>
    9784:	c6 05 d1 88 20 00 31 	movb   $0x31,0x2088d1(%rip)        # 21205c <s+0x1c>
    978b:	c6 05 cd 88 20 00 2f 	movb   $0x2f,0x2088cd(%rip)        # 21205f <s+0x1f>
    9792:	c6 05 b9 88 20 00 62 	movb   $0x62,0x2088b9(%rip)        # 212052 <s+0x12>
    9799:	c6 05 b5 88 20 00 55 	movb   $0x55,0x2088b5(%rip)        # 212055 <s+0x15>
    97a0:	c6 05 b1 88 20 00 5e 	movb   $0x5e,0x2088b1(%rip)        # 212058 <s+0x18>
    97a7:	c6 05 ad 88 20 00 5b 	movb   $0x5b,0x2088ad(%rip)        # 21205b <s+0x1b>
    97ae:	c6 05 92 88 20 00 54 	movb   $0x54,0x208892(%rip)        # 212047 <s+0x7>
    97b5:	c6 05 a2 88 20 00 70 	movb   $0x70,0x2088a2(%rip)        # 21205e <s+0x1e>
    97bc:	c6 05 a4 88 20 00 65 	movb   $0x65,0x2088a4(%rip)        # 212067 <s+0x27>
    97c3:	c6 05 97 88 20 00 61 	movb   $0x61,0x208897(%rip)        # 212061 <s+0x21>
    97ca:	c6 05 81 88 20 00 20 	movb   $0x20,0x208881(%rip)        # 212052 <s+0x12>
    97d1:	c6 05 84 88 20 00 30 	movb   $0x30,0x208884(%rip)        # 21205c <s+0x1c>
    97d8:	c6 05 6a 88 20 00 77 	movb   $0x77,0x20886a(%rip)        # 212049 <s+0x9>
    97df:	c6 05 7d 88 20 00 7a 	movb   $0x7a,0x20887d(%rip)        # 212063 <s+0x23>
    97e6:	c6 05 68 88 20 00 2f 	movb   $0x2f,0x208868(%rip)        # 212055 <s+0x15>
    97ed:	c6 05 55 88 20 00 45 	movb   $0x45,0x208855(%rip)        # 212049 <s+0x9>
    97f4:	c6 05 64 88 20 00 48 	movb   $0x48,0x208864(%rip)        # 21205f <s+0x1f>
    97fb:	c6 05 60 88 20 00 7e 	movb   $0x7e,0x208860(%rip)        # 212062 <s+0x22>
    9802:	c6 05 39 88 20 00 5b 	movb   $0x5b,0x208839(%rip)        # 212042 <s+0x2>
    9809:	c6 05 38 88 20 00 73 	movb   $0x73,0x208838(%rip)        # 212048 <s+0x8>
    9810:	c6 05 2c 88 20 00 34 	movb   $0x34,0x20882c(%rip)        # 212043 <s+0x3>
    9817:	c6 05 27 88 20 00 7a 	movb   $0x7a,0x208827(%rip)        # 212045 <s+0x5>
    981e:	c6 05 2b 88 20 00 5e 	movb   $0x5e,0x20882b(%rip)        # 212050 <s+0x10>
    9825:	c6 05 27 88 20 00 71 	movb   $0x71,0x208827(%rip)        # 212053 <s+0x13>
    982c:	c6 05 27 88 20 00 57 	movb   $0x57,0x208827(%rip)        # 21205a <s+0x1a>
    9833:	c6 05 26 88 20 00 6b 	movb   $0x6b,0x208826(%rip)        # 212060 <s+0x20>
    983a:	c6 05 0d 88 20 00 57 	movb   $0x57,0x20880d(%rip)        # 21204e <s+0xe>
    9841:	c6 05 18 88 20 00 32 	movb   $0x32,0x208818(%rip)        # 212060 <s+0x20>
    9848:	c6 05 00 88 20 00 71 	movb   $0x71,0x208800(%rip)        # 21204f <s+0xf>
    984f:	c6 05 fe 87 20 00 22 	movb   $0x22,0x2087fe(%rip)        # 212054 <s+0x14>
    9856:	c6 05 f7 87 20 00 28 	movb   $0x28,0x2087f7(%rip)        # 212054 <s+0x14>
    985d:	c6 05 ef 87 20 00 76 	movb   $0x76,0x2087ef(%rip)        # 212053 <s+0x13>
    9864:	c6 05 f7 87 20 00 50 	movb   $0x50,0x2087f7(%rip)        # 212062 <s+0x22>
    986b:	c6 05 ee 87 20 00 2f 	movb   $0x2f,0x2087ee(%rip)        # 212060 <s+0x20>
    9872:	c6 05 eb 87 20 00 6e 	movb   $0x6e,0x2087eb(%rip)        # 212064 <s+0x24>
    9879:	c6 05 e6 87 20 00 40 	movb   $0x40,0x2087e6(%rip)        # 212066 <s+0x26>
    9880:	c6 05 d2 87 20 00 50 	movb   $0x50,0x2087d2(%rip)        # 212059 <s+0x19>
    9887:	c6 05 b4 87 20 00 45 	movb   $0x45,0x2087b4(%rip)        # 212042 <s+0x2>
    988e:	c6 05 c7 87 20 00 47 	movb   $0x47,0x2087c7(%rip)        # 21205c <s+0x1c>
    9895:	c6 05 be 87 20 00 2f 	movb   $0x2f,0x2087be(%rip)        # 21205a <s+0x1a>
    989c:	c6 05 bf 87 20 00 2d 	movb   $0x2d,0x2087bf(%rip)        # 212062 <s+0x22>
    98a3:	c6 05 a6 87 20 00 4f 	movb   $0x4f,0x2087a6(%rip)        # 212050 <s+0x10>
    98aa:	c6 05 a2 87 20 00 53 	movb   $0x53,0x2087a2(%rip)        # 212053 <s+0x13>
    98b1:	c6 05 94 87 20 00 26 	movb   $0x26,0x208794(%rip)        # 21204c <s+0xc>
    98b8:	c6 05 96 87 20 00 2e 	movb   $0x2e,0x208796(%rip)        # 212055 <s+0x15>
    98bf:	c6 05 9c 87 20 00 72 	movb   $0x72,0x20879c(%rip)        # 212062 <s+0x22>
    98c6:	c6 05 83 87 20 00 43 	movb   $0x43,0x208783(%rip)        # 212050 <s+0x10>
    98cd:	c6 05 8b 87 20 00 56 	movb   $0x56,0x20878b(%rip)        # 21205f <s+0x1f>
    98d4:	c6 05 84 87 20 00 56 	movb   $0x56,0x208784(%rip)        # 21205f <s+0x1f>
    98db:	c6 05 5e 87 20 00 24 	movb   $0x24,0x20875e(%rip)        # 212040 <s>
    98e2:	c6 05 76 87 20 00 6c 	movb   $0x6c,0x208776(%rip)        # 21205f <s+0x1f>
    98e9:	c6 05 70 87 20 00 6d 	movb   $0x6d,0x208770(%rip)        # 212060 <s+0x20>
    98f0:	c6 05 5f 87 20 00 3e 	movb   $0x3e,0x20875f(%rip)        # 212056 <s+0x16>
    98f7:	c6 05 62 87 20 00 4c 	movb   $0x4c,0x208762(%rip)        # 212060 <s+0x20>
    98fe:	c6 05 49 87 20 00 26 	movb   $0x26,0x208749(%rip)        # 21204e <s+0xe>
    9905:	c6 05 5a 87 20 00 65 	movb   $0x65,0x20875a(%rip)        # 212066 <s+0x26>
    990c:	c6 05 40 87 20 00 5a 	movb   $0x5a,0x208740(%rip)        # 212053 <s+0x13>
    9913:	c6 05 36 87 20 00 5e 	movb   $0x5e,0x208736(%rip)        # 212050 <s+0x10>
    991a:	c6 05 30 87 20 00 48 	movb   $0x48,0x208730(%rip)        # 212051 <s+0x11>
    9921:	c6 05 20 87 20 00 7e 	movb   $0x7e,0x208720(%rip)        # 212048 <s+0x8>
    9928:	c6 05 34 87 20 00 2c 	movb   $0x2c,0x208734(%rip)        # 212063 <s+0x23>
    992f:	c6 05 1b 87 20 00 3e 	movb   $0x3e,0x20871b(%rip)        # 212051 <s+0x11>
    9936:	c6 05 1f 87 20 00 2d 	movb   $0x2d,0x20871f(%rip)        # 21205c <s+0x1c>
    993d:	c6 05 19 87 20 00 76 	movb   $0x76,0x208719(%rip)        # 21205d <s+0x1d>
    9944:	c6 05 f6 86 20 00 41 	movb   $0x41,0x2086f6(%rip)        # 212041 <s+0x1>
    994b:	c6 05 15 87 20 00 6b 	movb   $0x6b,0x208715(%rip)        # 212067 <s+0x27>
    9952:	c6 05 ff 86 20 00 75 	movb   $0x75,0x2086ff(%rip)        # 212058 <s+0x18>
    9959:	c6 05 fb 86 20 00 6d 	movb   $0x6d,0x2086fb(%rip)        # 21205b <s+0x1b>
    9960:	c6 05 e2 86 20 00 2c 	movb   $0x2c,0x2086e2(%rip)        # 212049 <s+0x9>
    9967:	c6 05 d4 86 20 00 64 	movb   $0x64,0x2086d4(%rip)        # 212042 <s+0x2>
    996e:	c6 05 e6 86 20 00 35 	movb   $0x35,0x2086e6(%rip)        # 21205b <s+0x1b>
    9975:	c6 05 c9 86 20 00 36 	movb   $0x36,0x2086c9(%rip)        # 212045 <s+0x5>
    997c:	c6 05 c4 86 20 00 78 	movb   $0x78,0x2086c4(%rip)        # 212047 <s+0x7>
    9983:	c6 05 d0 86 20 00 78 	movb   $0x78,0x2086d0(%rip)        # 21205a <s+0x1a>
    998a:	c6 05 ba 86 20 00 37 	movb   $0x37,0x2086ba(%rip)        # 21204b <s+0xb>
    9991:	c6 05 c7 86 20 00 63 	movb   $0x63,0x2086c7(%rip)        # 21205f <s+0x1f>
    9998:	c6 05 b8 86 20 00 23 	movb   $0x23,0x2086b8(%rip)        # 212057 <s+0x17>
    999f:	c6 05 a5 86 20 00 3b 	movb   $0x3b,0x2086a5(%rip)        # 21204b <s+0xb>
    99a6:	c6 05 b1 86 20 00 7c 	movb   $0x7c,0x2086b1(%rip)        # 21205e <s+0x1e>
    99ad:	c6 05 a1 86 20 00 59 	movb   $0x59,0x2086a1(%rip)        # 212055 <s+0x15>
    99b4:	c6 05 89 86 20 00 42 	movb   $0x42,0x208689(%rip)        # 212044 <s+0x4>
    99bb:	c6 05 9e 86 20 00 5f 	movb   $0x5f,0x20869e(%rip)        # 212060 <s+0x20>
    99c2:	c6 05 79 86 20 00 6b 	movb   $0x6b,0x208679(%rip)        # 212042 <s+0x2>
    99c9:	c6 05 8d 86 20 00 3b 	movb   $0x3b,0x20868d(%rip)        # 21205d <s+0x1d>
    99d0:	c6 05 73 86 20 00 29 	movb   $0x29,0x208673(%rip)        # 21204a <s+0xa>
    99d7:	c6 05 65 86 20 00 73 	movb   $0x73,0x208665(%rip)        # 212043 <s+0x3>
    99de:	c6 05 71 86 20 00 63 	movb   $0x63,0x208671(%rip)        # 212056 <s+0x16>
    99e5:	c6 05 7b 86 20 00 65 	movb   $0x65,0x20867b(%rip)        # 212067 <s+0x27>
    99ec:	c6 05 57 86 20 00 53 	movb   $0x53,0x208657(%rip)        # 21204a <s+0xa>
    99f3:	c6 05 6b 86 20 00 4a 	movb   $0x4a,0x20866b(%rip)        # 212065 <s+0x25>
    99fa:	c6 05 64 86 20 00 6b 	movb   $0x6b,0x208664(%rip)        # 212065 <s+0x25>
    9a01:	c6 05 46 86 20 00 31 	movb   $0x31,0x208646(%rip)        # 21204e <s+0xe>
    9a08:	c6 05 4b 86 20 00 3f 	movb   $0x3f,0x20864b(%rip)        # 21205a <s+0x1a>
    9a0f:	c6 05 45 86 20 00 3f 	movb   $0x3f,0x208645(%rip)        # 21205b <s+0x1b>
    9a16:	c6 05 2d 86 20 00 41 	movb   $0x41,0x20862d(%rip)        # 21204a <s+0xa>
    9a1d:	c6 05 23 86 20 00 63 	movb   $0x63,0x208623(%rip)        # 212047 <s+0x7>
    9a24:	c6 05 1b 86 20 00 37 	movb   $0x37,0x20861b(%rip)        # 212046 <s+0x6>
    9a2b:	c6 05 2c 86 20 00 6d 	movb   $0x6d,0x20862c(%rip)        # 21205e <s+0x1e>
    9a32:	c6 05 07 86 20 00 23 	movb   $0x23,0x208607(%rip)        # 212040 <s>
    9a39:	c6 05 0c 86 20 00 57 	movb   $0x57,0x20860c(%rip)        # 21204c <s+0xc>
    9a40:	c6 05 0a 86 20 00 28 	movb   $0x28,0x20860a(%rip)        # 212051 <s+0x11>
    9a47:	c6 05 16 86 20 00 6c 	movb   $0x6c,0x208616(%rip)        # 212064 <s+0x24>
    9a4e:	c6 05 fe 85 20 00 57 	movb   $0x57,0x2085fe(%rip)        # 212053 <s+0x13>
    9a55:	c6 05 08 86 20 00 40 	movb   $0x40,0x208608(%rip)        # 212064 <s+0x24>
    9a5c:	c6 05 01 86 20 00 2b 	movb   $0x2b,0x208601(%rip)        # 212064 <s+0x24>
    9a63:	c6 05 eb 85 20 00 74 	movb   $0x74,0x2085eb(%rip)        # 212055 <s+0x15>
    9a6a:	c6 05 d2 85 20 00 7d 	movb   $0x7d,0x2085d2(%rip)        # 212043 <s+0x3>
    9a71:	c6 05 e4 85 20 00 55 	movb   $0x55,0x2085e4(%rip)        # 21205c <s+0x1c>
    9a78:	c6 05 c9 85 20 00 71 	movb   $0x71,0x2085c9(%rip)        # 212048 <s+0x8>
    9a7f:	c6 05 d2 85 20 00 4d 	movb   $0x4d,0x2085d2(%rip)        # 212058 <s+0x18>
    9a86:	c6 05 ce 85 20 00 4f 	movb   $0x4f,0x2085ce(%rip)        # 21205b <s+0x1b>
    9a8d:	c6 05 b5 85 20 00 23 	movb   $0x23,0x2085b5(%rip)        # 212049 <s+0x9>
    9a94:	c6 05 bd 85 20 00 63 	movb   $0x63,0x2085bd(%rip)        # 212058 <s+0x18>
    9a9b:	c6 05 aa 85 20 00 45 	movb   $0x45,0x2085aa(%rip)        # 21204c <s+0xc>
    9aa2:	c6 05 ba 85 20 00 43 	movb   $0x43,0x2085ba(%rip)        # 212063 <s+0x23>
    9aa9:	c6 05 99 85 20 00 59 	movb   $0x59,0x208599(%rip)        # 212049 <s+0x9>
    9ab0:	c6 05 94 85 20 00 74 	movb   $0x74,0x208594(%rip)        # 21204b <s+0xb>
    9ab7:	c6 05 92 85 20 00 7e 	movb   $0x7e,0x208592(%rip)        # 212050 <s+0x10>
    9abe:	c6 05 95 85 20 00 26 	movb   $0x26,0x208595(%rip)        # 21205a <s+0x1a>
    9ac5:	c6 05 9b 85 20 00 2d 	movb   $0x2d,0x20859b(%rip)        # 212067 <s+0x27>
    9acc:	c6 05 6d 85 20 00 5d 	movb   $0x5d,0x20856d(%rip)        # 212040 <s>
    9ad3:	c6 05 8d 85 20 00 7d 	movb   $0x7d,0x20858d(%rip)        # 212067 <s+0x27>
    9ada:	c6 05 6e 85 20 00 26 	movb   $0x26,0x20856e(%rip)        # 21204f <s+0xf>
    9ae1:	c6 05 6c 85 20 00 29 	movb   $0x29,0x20856c(%rip)        # 212054 <s+0x14>
    9ae8:	c6 05 63 85 20 00 26 	movb   $0x26,0x208563(%rip)        # 212052 <s+0x12>
    9aef:	c6 05 59 85 20 00 58 	movb   $0x58,0x208559(%rip)        # 21204f <s+0xf>
    9af6:	c6 05 69 85 20 00 6e 	movb   $0x6e,0x208569(%rip)        # 212066 <s+0x26>
    9afd:	c6 05 47 85 20 00 2e 	movb   $0x2e,0x208547(%rip)        # 21204b <s+0xb>
    9b04:	c6 05 5c 85 20 00 31 	movb   $0x31,0x20855c(%rip)        # 212067 <s+0x27>
    9b0b:	c6 05 54 85 20 00 26 	movb   $0x26,0x208554(%rip)        # 212066 <s+0x26>
    9b12:	c6 05 31 85 20 00 42 	movb   $0x42,0x208531(%rip)        # 21204a <s+0xa>
    9b19:	c6 05 38 85 20 00 2f 	movb   $0x2f,0x208538(%rip)        # 212058 <s+0x18>
    9b20:	c6 05 29 85 20 00 72 	movb   $0x72,0x208529(%rip)        # 212050 <s+0x10>
    9b27:	c6 05 31 85 20 00 5b 	movb   $0x5b,0x208531(%rip)        # 21205f <s+0x1f>
    9b2e:	c6 05 15 85 20 00 3b 	movb   $0x3b,0x208515(%rip)        # 21204a <s+0xa>
    9b35:	c6 05 06 85 20 00 38 	movb   $0x38,0x208506(%rip)        # 212042 <s+0x2>
    9b3c:	c6 05 0f 85 20 00 61 	movb   $0x61,0x20850f(%rip)        # 212052 <s+0x12>
    9b43:	c6 05 17 85 20 00 6c 	movb   $0x6c,0x208517(%rip)        # 212061 <s+0x21>
    9b4a:	c6 05 ff 84 20 00 71 	movb   $0x71,0x2084ff(%rip)        # 212050 <s+0x10>
    9b51:	c6 05 09 85 20 00 20 	movb   $0x20,0x208509(%rip)        # 212061 <s+0x21>
    9b58:	c6 05 e5 84 20 00 75 	movb   $0x75,0x2084e5(%rip)        # 212044 <s+0x4>
    9b5f:	c6 05 fb 84 20 00 42 	movb   $0x42,0x2084fb(%rip)        # 212061 <s+0x21>
    9b66:	c6 05 ee 84 20 00 59 	movb   $0x59,0x2084ee(%rip)        # 21205b <s+0x1b>
    9b6d:	c6 05 ec 84 20 00 5b 	movb   $0x5b,0x2084ec(%rip)        # 212060 <s+0x20>
    9b74:	c6 05 c7 84 20 00 35 	movb   $0x35,0x2084c7(%rip)        # 212042 <s+0x2>
    9b7b:	c6 05 d1 84 20 00 34 	movb   $0x34,0x2084d1(%rip)        # 212053 <s+0x13>
    9b82:	c6 05 db 84 20 00 60 	movb   $0x60,0x2084db(%rip)        # 212064 <s+0x24>
    9b89:	c6 05 b1 84 20 00 2f 	movb   $0x2f,0x2084b1(%rip)        # 212041 <s+0x1>
    9b90:	c6 05 cf 84 20 00 4c 	movb   $0x4c,0x2084cf(%rip)        # 212066 <s+0x26>
    9b97:	c6 05 c6 84 20 00 47 	movb   $0x47,0x2084c6(%rip)        # 212064 <s+0x24>
    9b9e:	c6 05 b8 84 20 00 20 	movb   $0x20,0x2084b8(%rip)        # 21205d <s+0x1d>
    9ba5:	c6 05 b5 84 20 00 38 	movb   $0x38,0x2084b5(%rip)        # 212061 <s+0x21>
    9bac:	c6 05 97 84 20 00 53 	movb   $0x53,0x208497(%rip)        # 21204a <s+0xa>
    9bb3:	c6 05 ab 84 20 00 38 	movb   $0x38,0x2084ab(%rip)        # 212065 <s+0x25>
    9bba:	c6 05 89 84 20 00 69 	movb   $0x69,0x208489(%rip)        # 21204a <s+0xa>
    9bc1:	c6 05 95 84 20 00 62 	movb   $0x62,0x208495(%rip)        # 21205d <s+0x1d>
    9bc8:	c6 05 94 84 20 00 7e 	movb   $0x7e,0x208494(%rip)        # 212063 <s+0x23>
    9bcf:	c6 05 81 84 20 00 47 	movb   $0x47,0x208481(%rip)        # 212057 <s+0x17>
    9bd6:	c6 05 85 84 20 00 5d 	movb   $0x5d,0x208485(%rip)        # 212062 <s+0x22>
    9bdd:	c6 05 5c 84 20 00 6f 	movb   $0x6f,0x20845c(%rip)        # 212040 <s>
    9be4:	c6 05 74 84 20 00 5a 	movb   $0x5a,0x208474(%rip)        # 21205f <s+0x1f>
    9beb:	c6 05 4f 84 20 00 42 	movb   $0x42,0x20844f(%rip)        # 212041 <s+0x1>
    9bf2:	c6 05 5f 84 20 00 71 	movb   $0x71,0x20845f(%rip)        # 212058 <s+0x18>
    9bf9:	c6 05 4f 84 20 00 2b 	movb   $0x2b,0x20844f(%rip)        # 21204f <s+0xf>
    9c00:	c6 05 3b 84 20 00 2f 	movb   $0x2f,0x20843b(%rip)        # 212042 <s+0x2>
    9c07:	c6 05 43 84 20 00 23 	movb   $0x23,0x208443(%rip)        # 212051 <s+0x11>
    9c0e:	c6 05 32 84 20 00 69 	movb   $0x69,0x208432(%rip)        # 212047 <s+0x7>
    9c15:	c6 05 44 84 20 00 74 	movb   $0x74,0x208444(%rip)        # 212060 <s+0x20>
    9c1c:	c6 05 33 84 20 00 5b 	movb   $0x5b,0x208433(%rip)        # 212056 <s+0x16>
    9c23:	c6 05 1d 84 20 00 58 	movb   $0x58,0x20841d(%rip)        # 212047 <s+0x7>
    9c2a:	c6 05 22 84 20 00 63 	movb   $0x63,0x208422(%rip)        # 212053 <s+0x13>
    9c31:	c6 05 0f 84 20 00 30 	movb   $0x30,0x20840f(%rip)        # 212047 <s+0x7>
    9c38:	c6 05 0c 84 20 00 4b 	movb   $0x4b,0x20840c(%rip)        # 21204b <s+0xb>
    9c3f:	c6 05 17 84 20 00 28 	movb   $0x28,0x208417(%rip)        # 21205d <s+0x1d>
    9c46:	c6 05 0f 84 20 00 2b 	movb   $0x2b,0x20840f(%rip)        # 21205c <s+0x1c>
    9c4d:	c6 05 f3 83 20 00 64 	movb   $0x64,0x2083f3(%rip)        # 212047 <s+0x7>
    9c54:	c6 05 ff 83 20 00 54 	movb   $0x54,0x2083ff(%rip)        # 21205a <s+0x1a>
    9c5b:	c6 05 04 84 20 00 62 	movb   $0x62,0x208404(%rip)        # 212066 <s+0x26>
    9c62:	c6 05 f5 83 20 00 31 	movb   $0x31,0x2083f5(%rip)        # 21205e <s+0x1e>
    9c69:	c6 05 e4 83 20 00 3a 	movb   $0x3a,0x2083e4(%rip)        # 212054 <s+0x14>
    9c70:	c6 05 e9 83 20 00 42 	movb   $0x42,0x2083e9(%rip)        # 212060 <s+0x20>
    9c77:	c6 05 d4 83 20 00 20 	movb   $0x20,0x2083d4(%rip)        # 212052 <s+0x12>
    9c7e:	c6 05 ce 83 20 00 7d 	movb   $0x7d,0x2083ce(%rip)        # 212053 <s+0x13>
    9c85:	c6 05 bf 83 20 00 69 	movb   $0x69,0x2083bf(%rip)        # 21204b <s+0xb>
    9c8c:	c6 05 ce 83 20 00 28 	movb   $0x28,0x2083ce(%rip)        # 212061 <s+0x21>
    9c93:	c6 05 bb 83 20 00 24 	movb   $0x24,0x2083bb(%rip)        # 212055 <s+0x15>
    9c9a:	c6 05 a0 83 20 00 39 	movb   $0x39,0x2083a0(%rip)        # 212041 <s+0x1>
    9ca1:	c6 05 9d 83 20 00 75 	movb   $0x75,0x20839d(%rip)        # 212045 <s+0x5>
    9ca8:	c6 05 aa 83 20 00 4f 	movb   $0x4f,0x2083aa(%rip)        # 212059 <s+0x19>
    9caf:	c6 05 93 83 20 00 39 	movb   $0x39,0x208393(%rip)        # 212049 <s+0x9>
    9cb6:	c6 05 a1 83 20 00 65 	movb   $0x65,0x2083a1(%rip)        # 21205e <s+0x1e>
    9cbd:	c6 05 89 83 20 00 45 	movb   $0x45,0x208389(%rip)        # 21204d <s+0xd>
    9cc4:	c6 05 75 83 20 00 7e 	movb   $0x7e,0x208375(%rip)        # 212040 <s>
    9ccb:	c6 05 7f 83 20 00 6a 	movb   $0x6a,0x20837f(%rip)        # 212051 <s+0x11>
    9cd2:	c6 05 7f 83 20 00 3a 	movb   $0x3a,0x20837f(%rip)        # 212058 <s+0x18>
    9cd9:	c6 05 62 83 20 00 64 	movb   $0x64,0x208362(%rip)        # 212042 <s+0x2>
    9ce0:	c6 05 60 83 20 00 2d 	movb   $0x2d,0x208360(%rip)        # 212047 <s+0x7>
    9ce7:	c6 05 53 83 20 00 51 	movb   $0x51,0x208353(%rip)        # 212041 <s+0x1>
    9cee:	c6 05 71 83 20 00 43 	movb   $0x43,0x208371(%rip)        # 212066 <s+0x26>
    9cf5:	c6 05 69 83 20 00 3d 	movb   $0x3d,0x208369(%rip)        # 212065 <s+0x25>
    9cfc:	c6 05 60 83 20 00 42 	movb   $0x42,0x208360(%rip)        # 212063 <s+0x23>
    9d03:	c6 05 4b 83 20 00 58 	movb   $0x58,0x20834b(%rip)        # 212055 <s+0x15>
    9d0a:	c6 05 47 83 20 00 37 	movb   $0x37,0x208347(%rip)        # 212058 <s+0x18>
    9d11:	c6 05 2d 83 20 00 22 	movb   $0x22,0x20832d(%rip)        # 212045 <s+0x5>
    9d18:	c6 05 22 83 20 00 6c 	movb   $0x6c,0x208322(%rip)        # 212041 <s+0x1>
    9d1f:	c6 05 21 83 20 00 4a 	movb   $0x4a,0x208321(%rip)        # 212047 <s+0x7>
    9d26:	c6 05 24 83 20 00 5d 	movb   $0x5d,0x208324(%rip)        # 212051 <s+0x11>
    9d2d:	c6 05 0c 83 20 00 5f 	movb   $0x5f,0x20830c(%rip)        # 212040 <s>
    9d34:	c6 05 0a 83 20 00 7e 	movb   $0x7e,0x20830a(%rip)        # 212045 <s+0x5>
    9d3b:	c6 05 1f 83 20 00 7c 	movb   $0x7c,0x20831f(%rip)        # 212061 <s+0x21>
    9d42:	c6 05 0c 83 20 00 7a 	movb   $0x7a,0x20830c(%rip)        # 212055 <s+0x15>
    9d49:	c6 05 12 83 20 00 7b 	movb   $0x7b,0x208312(%rip)        # 212062 <s+0x22>
    9d50:	c6 05 f4 82 20 00 21 	movb   $0x21,0x2082f4(%rip)        # 21204b <s+0xb>
    9d57:	c6 05 f1 82 20 00 43 	movb   $0x43,0x2082f1(%rip)        # 21204f <s+0xf>
    9d5e:	c6 05 dd 82 20 00 33 	movb   $0x33,0x2082dd(%rip)        # 212042 <s+0x2>
    9d65:	c6 05 db 82 20 00 5d 	movb   $0x5d,0x2082db(%rip)        # 212047 <s+0x7>
    9d6c:	c6 05 e7 82 20 00 7e 	movb   $0x7e,0x2082e7(%rip)        # 21205a <s+0x1a>
    9d73:	c6 05 ed 82 20 00 7a 	movb   $0x7a,0x2082ed(%rip)        # 212067 <s+0x27>
    9d7a:	c6 05 d3 82 20 00 54 	movb   $0x54,0x2082d3(%rip)        # 212054 <s+0x14>
    9d81:	c6 05 cf 82 20 00 2d 	movb   $0x2d,0x2082cf(%rip)        # 212057 <s+0x17>
    9d88:	c6 05 bd 82 20 00 62 	movb   $0x62,0x2082bd(%rip)        # 21204c <s+0xc>
    9d8f:	c6 05 b3 82 20 00 30 	movb   $0x30,0x2082b3(%rip)        # 212049 <s+0x9>
    9d96:	c6 05 ae 82 20 00 61 	movb   $0x61,0x2082ae(%rip)        # 21204b <s+0xb>
    9d9d:	c6 05 b8 82 20 00 69 	movb   $0x69,0x2082b8(%rip)        # 21205c <s+0x1c>
    9da4:	c6 05 a2 82 20 00 4a 	movb   $0x4a,0x2082a2(%rip)        # 21204d <s+0xd>
    9dab:	c6 05 93 82 20 00 49 	movb   $0x49,0x208293(%rip)        # 212045 <s+0x5>
    9db2:	c6 05 98 82 20 00 32 	movb   $0x32,0x208298(%rip)        # 212051 <s+0x11>
    9db9:	c6 05 8b 82 20 00 3b 	movb   $0x3b,0x20828b(%rip)        # 21204b <s+0xb>
    9dc0:	c6 05 8b 82 20 00 3e 	movb   $0x3e,0x20828b(%rip)        # 212052 <s+0x12>
    9dc7:	c6 05 94 82 20 00 70 	movb   $0x70,0x208294(%rip)        # 212062 <s+0x22>
    9dce:	c6 05 7b 82 20 00 24 	movb   $0x24,0x20827b(%rip)        # 212050 <s+0x10>
    9dd5:	c6 05 8b 82 20 00 4c 	movb   $0x4c,0x20828b(%rip)        # 212067 <s+0x27>
    9ddc:	c6 05 77 82 20 00 2a 	movb   $0x2a,0x208277(%rip)        # 21205a <s+0x1a>
    9de3:	c6 05 79 82 20 00 3d 	movb   $0x3d,0x208279(%rip)        # 212063 <s+0x23>
    9dea:	c6 05 67 82 20 00 5b 	movb   $0x5b,0x208267(%rip)        # 212058 <s+0x18>
    9df1:	c6 05 5a 82 20 00 2b 	movb   $0x2b,0x20825a(%rip)        # 212052 <s+0x12>
    9df8:	c6 05 44 82 20 00 26 	movb   $0x26,0x208244(%rip)        # 212043 <s+0x3>
    9dff:	c6 05 4f 82 20 00 33 	movb   $0x33,0x20824f(%rip)        # 212055 <s+0x15>
    9e06:	c6 05 40 82 20 00 51 	movb   $0x51,0x208240(%rip)        # 21204d <s+0xd>
    9e0d:	c6 05 33 82 20 00 2e 	movb   $0x2e,0x208233(%rip)        # 212047 <s+0x7>
    9e14:	c6 05 41 82 20 00 4d 	movb   $0x4d,0x208241(%rip)        # 21205c <s+0x1c>
    9e1b:	c6 05 32 82 20 00 76 	movb   $0x76,0x208232(%rip)        # 212054 <s+0x14>
    9e22:	c6 05 21 82 20 00 69 	movb   $0x69,0x208221(%rip)        # 21204a <s+0xa>
    9e29:	c6 05 22 82 20 00 66 	movb   $0x66,0x208222(%rip)        # 212052 <s+0x12>
    9e30:	c6 05 28 82 20 00 23 	movb   $0x23,0x208228(%rip)        # 21205f <s+0x1f>
    9e37:	c6 05 18 82 20 00 78 	movb   $0x78,0x208218(%rip)        # 212056 <s+0x16>
    9e3e:	c6 05 08 82 20 00 69 	movb   $0x69,0x208208(%rip)        # 21204d <s+0xd>
    9e45:	c6 05 10 82 20 00 7c 	movb   $0x7c,0x208210(%rip)        # 21205c <s+0x1c>
    9e4c:	c6 05 08 82 20 00 5e 	movb   $0x5e,0x208208(%rip)        # 21205b <s+0x1b>
    9e53:	c6 05 0b 82 20 00 78 	movb   $0x78,0x20820b(%rip)        # 212065 <s+0x25>
    9e5a:	c6 05 e6 81 20 00 7e 	movb   $0x7e,0x2081e6(%rip)        # 212047 <s+0x7>
    9e61:	c6 05 dc 81 20 00 26 	movb   $0x26,0x2081dc(%rip)        # 212044 <s+0x4>
    9e68:	c6 05 e4 81 20 00 73 	movb   $0x73,0x2081e4(%rip)        # 212053 <s+0x13>
    9e6f:	c6 05 de 81 20 00 4f 	movb   $0x4f,0x2081de(%rip)        # 212054 <s+0x14>
    9e76:	c6 05 e7 81 20 00 58 	movb   $0x58,0x2081e7(%rip)        # 212064 <s+0x24>
    9e7d:	c6 05 cf 81 20 00 3a 	movb   $0x3a,0x2081cf(%rip)        # 212053 <s+0x13>
    9e84:	c6 05 d5 81 20 00 2e 	movb   $0x2e,0x2081d5(%rip)        # 212060 <s+0x20>
    9e8b:	c6 05 bf 81 20 00 54 	movb   $0x54,0x2081bf(%rip)        # 212051 <s+0x11>
    9e92:	c6 05 c9 81 20 00 49 	movb   $0x49,0x2081c9(%rip)        # 212062 <s+0x22>
    9e99:	c6 05 a1 81 20 00 42 	movb   $0x42,0x2081a1(%rip)        # 212041 <s+0x1>
    9ea0:	c6 05 b3 81 20 00 3e 	movb   $0x3e,0x2081b3(%rip)        # 21205a <s+0x1a>
    9ea7:	c6 05 95 81 20 00 7e 	movb   $0x7e,0x208195(%rip)        # 212043 <s+0x3>
    9eae:	c6 05 a3 81 20 00 69 	movb   $0x69,0x2081a3(%rip)        # 212058 <s+0x18>
    9eb5:	c6 05 86 81 20 00 25 	movb   $0x25,0x208186(%rip)        # 212042 <s+0x2>
    9ebc:	c6 05 80 81 20 00 63 	movb   $0x63,0x208180(%rip)        # 212043 <s+0x3>
    9ec3:	c6 05 76 81 20 00 5b 	movb   $0x5b,0x208176(%rip)        # 212040 <s>
    9eca:	c6 05 91 81 20 00 31 	movb   $0x31,0x208191(%rip)        # 212062 <s+0x22>
    9ed1:	c6 05 7c 81 20 00 7e 	movb   $0x7e,0x20817c(%rip)        # 212054 <s+0x14>
    9ed8:	c6 05 7e 81 20 00 3d 	movb   $0x3d,0x20817e(%rip)        # 21205d <s+0x1d>
    9edf:	c6 05 68 81 20 00 4b 	movb   $0x4b,0x208168(%rip)        # 21204e <s+0xe>
    9ee6:	c6 05 72 81 20 00 47 	movb   $0x47,0x208172(%rip)        # 21205f <s+0x1f>
    9eed:	c6 05 63 81 20 00 21 	movb   $0x21,0x208163(%rip)        # 212057 <s+0x17>
    9ef4:	c6 05 6b 81 20 00 66 	movb   $0x66,0x20816b(%rip)        # 212066 <s+0x26>
    9efb:	c6 05 47 81 20 00 38 	movb   $0x38,0x208147(%rip)        # 212049 <s+0x9>
    9f02:	c6 05 5d 81 20 00 24 	movb   $0x24,0x20815d(%rip)        # 212066 <s+0x26>
    9f09:	c6 05 3e 81 20 00 7e 	movb   $0x7e,0x20813e(%rip)        # 21204e <s+0xe>
    9f10:	c6 05 37 81 20 00 55 	movb   $0x55,0x208137(%rip)        # 21204e <s+0xe>
    9f17:	c6 05 38 81 20 00 70 	movb   $0x70,0x208138(%rip)        # 212056 <s+0x16>
    9f1e:	c6 05 3a 81 20 00 76 	movb   $0x76,0x20813a(%rip)        # 21205f <s+0x1f>
    9f25:	c6 05 1c 81 20 00 34 	movb   $0x34,0x20811c(%rip)        # 212048 <s+0x8>
    9f2c:	c6 05 25 81 20 00 7e 	movb   $0x7e,0x208125(%rip)        # 212058 <s+0x18>
    9f33:	c6 05 29 81 20 00 21 	movb   $0x21,0x208129(%rip)        # 212063 <s+0x23>
    9f3a:	c6 05 19 81 20 00 6d 	movb   $0x6d,0x208119(%rip)        # 21205a <s+0x1a>
    9f41:	c6 05 f9 80 20 00 4c 	movb   $0x4c,0x2080f9(%rip)        # 212041 <s+0x1>
    9f48:	c6 05 13 81 20 00 7c 	movb   $0x7c,0x208113(%rip)        # 212062 <s+0x22>
    9f4f:	c6 05 fc 80 20 00 39 	movb   $0x39,0x2080fc(%rip)        # 212052 <s+0x12>
    9f56:	c6 05 05 81 20 00 33 	movb   $0x33,0x208105(%rip)        # 212062 <s+0x22>
    9f5d:	c6 05 de 80 20 00 7a 	movb   $0x7a,0x2080de(%rip)        # 212042 <s+0x2>
    9f64:	c6 05 f2 80 20 00 7c 	movb   $0x7c,0x2080f2(%rip)        # 21205d <s+0x1d>
    9f6b:	c6 05 f1 80 20 00 33 	movb   $0x33,0x2080f1(%rip)        # 212063 <s+0x23>
    9f72:	c6 05 e2 80 20 00 3a 	movb   $0x3a,0x2080e2(%rip)        # 21205b <s+0x1b>
    9f79:	c6 05 da 80 20 00 71 	movb   $0x71,0x2080da(%rip)        # 21205a <s+0x1a>
    9f80:	c6 05 dc 80 20 00 24 	movb   $0x24,0x2080dc(%rip)        # 212063 <s+0x23>
    9f87:	c6 05 d5 80 20 00 46 	movb   $0x46,0x2080d5(%rip)        # 212063 <s+0x23>
    9f8e:	c6 05 c1 80 20 00 7e 	movb   $0x7e,0x2080c1(%rip)        # 212056 <s+0x16>
    9f95:	c6 05 bd 80 20 00 77 	movb   $0x77,0x2080bd(%rip)        # 212059 <s+0x19>
    9f9c:	c6 05 c2 80 20 00 3b 	movb   $0x3b,0x2080c2(%rip)        # 212065 <s+0x25>
    9fa3:	c6 05 b1 80 20 00 3c 	movb   $0x3c,0x2080b1(%rip)        # 21205b <s+0x1b>
    9faa:	c6 05 a2 80 20 00 6e 	movb   $0x6e,0x2080a2(%rip)        # 212053 <s+0x13>
    9fb1:	c6 05 8d 80 20 00 2f 	movb   $0x2f,0x20808d(%rip)        # 212045 <s+0x5>
    9fb8:	c6 05 9b 80 20 00 6f 	movb   $0x6f,0x20809b(%rip)        # 21205a <s+0x1a>
    9fbf:	c6 05 88 80 20 00 24 	movb   $0x24,0x208088(%rip)        # 21204e <s+0xe>
    9fc6:	c6 05 74 80 20 00 45 	movb   $0x45,0x208074(%rip)        # 212041 <s+0x1>
    9fcd:	c6 05 81 80 20 00 5a 	movb   $0x5a,0x208081(%rip)        # 212055 <s+0x15>
    9fd4:	c6 05 7a 80 20 00 23 	movb   $0x23,0x20807a(%rip)        # 212055 <s+0x15>
    9fdb:	c6 05 67 80 20 00 69 	movb   $0x69,0x208067(%rip)        # 212049 <s+0x9>
    9fe2:	c6 05 76 80 20 00 22 	movb   $0x22,0x208076(%rip)        # 21205f <s+0x1f>
    9fe9:	c6 05 58 80 20 00 58 	movb   $0x58,0x208058(%rip)        # 212048 <s+0x8>
    9ff0:	c6 05 52 80 20 00 7e 	movb   $0x7e,0x208052(%rip)        # 212049 <s+0x9>
    9ff7:	c6 05 66 80 20 00 6d 	movb   $0x6d,0x208066(%rip)        # 212064 <s+0x24>
    9ffe:	c6 05 62 80 20 00 70 	movb   $0x70,0x208062(%rip)        # 212067 <s+0x27>
    a005:	c6 05 42 80 20 00 3c 	movb   $0x3c,0x208042(%rip)        # 21204e <s+0xe>
    a00c:	c6 05 4e 80 20 00 6d 	movb   $0x6d,0x20804e(%rip)        # 212061 <s+0x21>
    a013:	c6 05 34 80 20 00 32 	movb   $0x32,0x208034(%rip)        # 21204e <s+0xe>
    a01a:	c6 05 28 80 20 00 3d 	movb   $0x3d,0x208028(%rip)        # 212049 <s+0x9>
    a021:	c6 05 3a 80 20 00 45 	movb   $0x45,0x20803a(%rip)        # 212062 <s+0x22>
    a028:	c6 05 2e 80 20 00 6f 	movb   $0x6f,0x20802e(%rip)        # 21205d <s+0x1d>
    a02f:	c6 05 2e 80 20 00 7c 	movb   $0x7c,0x20802e(%rip)        # 212064 <s+0x24>
    a036:	c6 05 21 80 20 00 53 	movb   $0x53,0x208021(%rip)        # 21205e <s+0x1e>
    a03d:	c6 05 10 80 20 00 58 	movb   $0x58,0x208010(%rip)        # 212054 <s+0x14>
    a044:	c6 05 f8 7f 20 00 6f 	movb   $0x6f,0x207ff8(%rip)        # 212043 <s+0x3>
    a04b:	c6 05 f0 7f 20 00 3f 	movb   $0x3f,0x207ff0(%rip)        # 212042 <s+0x2>
    a052:	c6 05 fb 7f 20 00 37 	movb   $0x37,0x207ffb(%rip)        # 212054 <s+0x14>
    a059:	c6 05 02 80 20 00 3e 	movb   $0x3e,0x208002(%rip)        # 212062 <s+0x22>
    a060:	c6 05 e5 7f 20 00 2b 	movb   $0x2b,0x207fe5(%rip)        # 21204c <s+0xc>
    a067:	c6 05 ec 7f 20 00 7e 	movb   $0x7e,0x207fec(%rip)        # 21205a <s+0x1a>
    a06e:	c6 05 d3 7f 20 00 66 	movb   $0x66,0x207fd3(%rip)        # 212048 <s+0x8>
    a075:	c6 05 e0 7f 20 00 4c 	movb   $0x4c,0x207fe0(%rip)        # 21205c <s+0x1c>
    a07c:	c6 05 d3 7f 20 00 4a 	movb   $0x4a,0x207fd3(%rip)        # 212056 <s+0x16>
    a083:	c6 05 d7 7f 20 00 42 	movb   $0x42,0x207fd7(%rip)        # 212061 <s+0x21>
    a08a:	c6 05 b0 7f 20 00 65 	movb   $0x65,0x207fb0(%rip)        # 212041 <s+0x1>
    a091:	c6 05 c7 7f 20 00 24 	movb   $0x24,0x207fc7(%rip)        # 21205f <s+0x1f>
    a098:	c6 05 b0 7f 20 00 71 	movb   $0x71,0x207fb0(%rip)        # 21204f <s+0xf>
    a09f:	c6 05 9e 7f 20 00 4d 	movb   $0x4d,0x207f9e(%rip)        # 212044 <s+0x4>
    a0a6:	c6 05 a3 7f 20 00 56 	movb   $0x56,0x207fa3(%rip)        # 212050 <s+0x10>
    a0ad:	c6 05 9d 7f 20 00 60 	movb   $0x60,0x207f9d(%rip)        # 212051 <s+0x11>
    a0b4:	c6 05 a1 7f 20 00 66 	movb   $0x66,0x207fa1(%rip)        # 21205c <s+0x1c>
    a0bb:	c6 05 7f 7f 20 00 21 	movb   $0x21,0x207f7f(%rip)        # 212041 <s+0x1>
    a0c2:	c6 05 94 7f 20 00 4b 	movb   $0x4b,0x207f94(%rip)        # 21205d <s+0x1d>
    a0c9:	c6 05 87 7f 20 00 73 	movb   $0x73,0x207f87(%rip)        # 212057 <s+0x17>
    a0d0:	c6 05 81 7f 20 00 71 	movb   $0x71,0x207f81(%rip)        # 212058 <s+0x18>
    a0d7:	c6 05 68 7f 20 00 31 	movb   $0x31,0x207f68(%rip)        # 212046 <s+0x6>
    a0de:	c6 05 6b 7f 20 00 4b 	movb   $0x4b,0x207f6b(%rip)        # 212050 <s+0x10>
    a0e5:	c6 05 70 7f 20 00 3f 	movb   $0x3f,0x207f70(%rip)        # 21205c <s+0x1c>
    a0ec:	c6 05 5b 7f 20 00 5a 	movb   $0x5a,0x207f5b(%rip)        # 21204e <s+0xe>
    a0f3:	c6 05 55 7f 20 00 39 	movb   $0x39,0x207f55(%rip)        # 21204f <s+0xf>
    a0fa:	c6 05 3f 7f 20 00 25 	movb   $0x25,0x207f3f(%rip)        # 212040 <s>
    a101:	c6 05 4d 7f 20 00 44 	movb   $0x44,0x207f4d(%rip)        # 212055 <s+0x15>
    a108:	c6 05 43 7f 20 00 4b 	movb   $0x4b,0x207f43(%rip)        # 212052 <s+0x12>
    a10f:	c6 05 4f 7f 20 00 38 	movb   $0x38,0x207f4f(%rip)        # 212065 <s+0x25>
    a116:	c6 05 3e 7f 20 00 6e 	movb   $0x6e,0x207f3e(%rip)        # 21205b <s+0x1b>
    a11d:	c6 05 35 7f 20 00 6c 	movb   $0x6c,0x207f35(%rip)        # 212059 <s+0x19>
    a124:	c6 05 1b 7f 20 00 28 	movb   $0x28,0x207f1b(%rip)        # 212046 <s+0x6>
    a12b:	c6 05 20 7f 20 00 59 	movb   $0x59,0x207f20(%rip)        # 212052 <s+0x12>
    a132:	c6 05 21 7f 20 00 6d 	movb   $0x6d,0x207f21(%rip)        # 21205a <s+0x1a>
    a139:	c6 05 17 7f 20 00 3f 	movb   $0x3f,0x207f17(%rip)        # 212057 <s+0x17>
    a140:	c6 05 1f 7f 20 00 6a 	movb   $0x6a,0x207f1f(%rip)        # 212066 <s+0x26>
    a147:	c6 05 0e 7f 20 00 5e 	movb   $0x5e,0x207f0e(%rip)        # 21205c <s+0x1c>
    a14e:	c6 05 f8 7e 20 00 3c 	movb   $0x3c,0x207ef8(%rip)        # 21204d <s+0xd>
    a155:	c6 05 fd 7e 20 00 26 	movb   $0x26,0x207efd(%rip)        # 212059 <s+0x19>
    a15c:	c6 05 fa 7e 20 00 32 	movb   $0x32,0x207efa(%rip)        # 21205d <s+0x1d>
    a163:	c6 05 da 7e 20 00 46 	movb   $0x46,0x207eda(%rip)        # 212044 <s+0x4>
    a16a:	c6 05 e1 7e 20 00 53 	movb   $0x53,0x207ee1(%rip)        # 212052 <s+0x12>
    a171:	c6 05 c8 7e 20 00 5a 	movb   $0x5a,0x207ec8(%rip)        # 212040 <s>
    a178:	c6 05 c4 7e 20 00 6c 	movb   $0x6c,0x207ec4(%rip)        # 212043 <s+0x3>
    a17f:	c6 05 c0 7e 20 00 43 	movb   $0x43,0x207ec0(%rip)        # 212046 <s+0x6>
    a186:	c6 05 d4 7e 20 00 60 	movb   $0x60,0x207ed4(%rip)        # 212061 <s+0x21>
    a18d:	c6 05 ac 7e 20 00 43 	movb   $0x43,0x207eac(%rip)        # 212040 <s>
    a194:	c6 05 c8 7e 20 00 2b 	movb   $0x2b,0x207ec8(%rip)        # 212063 <s+0x23>
    a19b:	c6 05 a9 7e 20 00 3e 	movb   $0x3e,0x207ea9(%rip)        # 21204b <s+0xb>
    a1a2:	c6 05 a0 7e 20 00 56 	movb   $0x56,0x207ea0(%rip)        # 212049 <s+0x9>
    a1a9:	c6 05 a6 7e 20 00 38 	movb   $0x38,0x207ea6(%rip)        # 212056 <s+0x16>
    a1b0:	c6 05 a7 7e 20 00 78 	movb   $0x78,0x207ea7(%rip)        # 21205e <s+0x1e>
    a1b7:	c6 05 a8 7e 20 00 31 	movb   $0x31,0x207ea8(%rip)        # 212066 <s+0x26>
    a1be:	c6 05 8f 7e 20 00 6a 	movb   $0x6a,0x207e8f(%rip)        # 212054 <s+0x14>
    a1c5:	c6 05 80 7e 20 00 73 	movb   $0x73,0x207e80(%rip)        # 21204c <s+0xc>
    a1cc:	c6 05 7a 7e 20 00 7e 	movb   $0x7e,0x207e7a(%rip)        # 21204d <s+0xd>
    a1d3:	c6 05 8d 7e 20 00 73 	movb   $0x73,0x207e8d(%rip)        # 212067 <s+0x27>
    a1da:	c6 05 69 7e 20 00 2a 	movb   $0x2a,0x207e69(%rip)        # 21204a <s+0xa>
    a1e1:	c6 05 7e 7e 20 00 7e 	movb   $0x7e,0x207e7e(%rip)        # 212066 <s+0x26>
    a1e8:	c6 05 5a 7e 20 00 56 	movb   $0x56,0x207e5a(%rip)        # 212049 <s+0x9>
    a1ef:	c6 05 55 7e 20 00 3c 	movb   $0x3c,0x207e55(%rip)        # 21204b <s+0xb>
    a1f6:	c6 05 58 7e 20 00 42 	movb   $0x42,0x207e58(%rip)        # 212055 <s+0x15>
    a1fd:	c6 05 44 7e 20 00 4c 	movb   $0x4c,0x207e44(%rip)        # 212048 <s+0x8>
    a204:	c6 05 49 7e 20 00 73 	movb   $0x73,0x207e49(%rip)        # 212054 <s+0x14>
    a20b:	c6 05 3f 7e 20 00 75 	movb   $0x75,0x207e3f(%rip)        # 212051 <s+0x11>
    a212:	c6 05 33 7e 20 00 3b 	movb   $0x3b,0x207e33(%rip)        # 21204c <s+0xc>
    a219:	c6 05 42 7e 20 00 7c 	movb   $0x7c,0x207e42(%rip)        # 212062 <s+0x22>
    a220:	c6 05 2e 7e 20 00 47 	movb   $0x47,0x207e2e(%rip)        # 212055 <s+0x15>
    a227:	c6 05 37 7e 20 00 22 	movb   $0x22,0x207e37(%rip)        # 212065 <s+0x25>
    a22e:	c6 05 16 7e 20 00 3a 	movb   $0x3a,0x207e16(%rip)        # 21204b <s+0xb>
    a235:	c6 05 1b 7e 20 00 2f 	movb   $0x2f,0x207e1b(%rip)        # 212057 <s+0x17>
    a23c:	c6 05 08 7e 20 00 25 	movb   $0x25,0x207e08(%rip)        # 21204b <s+0xb>
    a243:	c6 05 0f 7e 20 00 4a 	movb   $0x4a,0x207e0f(%rip)        # 212059 <s+0x19>
    a24a:	c6 05 fc 7d 20 00 65 	movb   $0x65,0x207dfc(%rip)        # 21204d <s+0xd>
    a251:	c6 05 0a 7e 20 00 49 	movb   $0x49,0x207e0a(%rip)        # 212062 <s+0x22>
    a258:	c6 05 06 7e 20 00 51 	movb   $0x51,0x207e06(%rip)        # 212065 <s+0x25>
    a25f:	c6 05 db 7d 20 00 56 	movb   $0x56,0x207ddb(%rip)        # 212041 <s+0x1>
    a266:	c6 05 e0 7d 20 00 6e 	movb   $0x6e,0x207de0(%rip)        # 21204d <s+0xd>
    a26d:	c6 05 f2 7d 20 00 23 	movb   $0x23,0x207df2(%rip)        # 212066 <s+0x26>
    a274:	c6 05 ca 7d 20 00 48 	movb   $0x48,0x207dca(%rip)        # 212045 <s+0x5>
    a27b:	c6 05 be 7d 20 00 46 	movb   $0x46,0x207dbe(%rip)        # 212040 <s>
    a282:	c6 05 bf 7d 20 00 6a 	movb   $0x6a,0x207dbf(%rip)        # 212048 <s+0x8>
    a289:	c6 05 c0 7d 20 00 74 	movb   $0x74,0x207dc0(%rip)        # 212050 <s+0x10>
    a290:	c6 05 b3 7d 20 00 7d 	movb   $0x7d,0x207db3(%rip)        # 21204a <s+0xa>
    a297:	c6 05 b2 7d 20 00 5e 	movb   $0x5e,0x207db2(%rip)        # 212050 <s+0x10>
    a29e:	c6 05 a2 7d 20 00 7a 	movb   $0x7a,0x207da2(%rip)        # 212047 <s+0x7>
    a2a5:	c6 05 aa 7d 20 00 3f 	movb   $0x3f,0x207daa(%rip)        # 212056 <s+0x16>
    a2ac:	c6 05 8f 7d 20 00 6d 	movb   $0x6d,0x207d8f(%rip)        # 212042 <s+0x2>
    a2b3:	c6 05 8f 7d 20 00 79 	movb   $0x79,0x207d8f(%rip)        # 212049 <s+0x9>
    a2ba:	c6 05 a5 7d 20 00 6a 	movb   $0x6a,0x207da5(%rip)        # 212066 <s+0x26>
    a2c1:	c6 05 8b 7d 20 00 26 	movb   $0x26,0x207d8b(%rip)        # 212053 <s+0x13>
    a2c8:	c6 05 96 7d 20 00 5e 	movb   $0x5e,0x207d96(%rip)        # 212065 <s+0x25>
    a2cf:	c6 05 85 7d 20 00 68 	movb   $0x68,0x207d85(%rip)        # 21205b <s+0x1b>
    a2d6:	c6 05 77 7d 20 00 45 	movb   $0x45,0x207d77(%rip)        # 212054 <s+0x14>
    a2dd:	c6 05 5e 7d 20 00 65 	movb   $0x65,0x207d5e(%rip)        # 212042 <s+0x2>
    a2e4:	c6 05 5a 7d 20 00 4c 	movb   $0x4c,0x207d5a(%rip)        # 212045 <s+0x5>
    a2eb:	c6 05 5a 7d 20 00 52 	movb   $0x52,0x207d5a(%rip)        # 21204c <s+0xc>
    a2f2:	c6 05 54 7d 20 00 3e 	movb   $0x3e,0x207d54(%rip)        # 21204d <s+0xd>
    a2f9:	c6 05 4f 7d 20 00 6f 	movb   $0x6f,0x207d4f(%rip)        # 21204f <s+0xf>
    a300:	c6 05 52 7d 20 00 36 	movb   $0x36,0x207d52(%rip)        # 212059 <s+0x19>
    a307:	c6 05 3e 7d 20 00 7e 	movb   $0x7e,0x207d3e(%rip)        # 21204c <s+0xc>
    a30e:	c6 05 3c 7d 20 00 62 	movb   $0x62,0x207d3c(%rip)        # 212051 <s+0x11>
    a315:	c6 05 39 7d 20 00 6e 	movb   $0x6e,0x207d39(%rip)        # 212055 <s+0x15>
    a31c:	c6 05 27 7d 20 00 6b 	movb   $0x6b,0x207d27(%rip)        # 21204a <s+0xa>
    a323:	c6 05 36 7d 20 00 7e 	movb   $0x7e,0x207d36(%rip)        # 212060 <s+0x20>
    a32a:	c6 05 12 7d 20 00 73 	movb   $0x73,0x207d12(%rip)        # 212043 <s+0x3>
    a331:	c6 05 26 7d 20 00 54 	movb   $0x54,0x207d26(%rip)        # 21205e <s+0x1e>
    a338:	c6 05 09 7d 20 00 34 	movb   $0x34,0x207d09(%rip)        # 212048 <s+0x8>
    a33f:	c6 05 fe 7c 20 00 36 	movb   $0x36,0x207cfe(%rip)        # 212044 <s+0x4>
    a346:	c6 05 04 7d 20 00 4a 	movb   $0x4a,0x207d04(%rip)        # 212051 <s+0x11>
    a34d:	c6 05 0f 7d 20 00 5d 	movb   $0x5d,0x207d0f(%rip)        # 212063 <s+0x23>
    a354:	c6 05 fa 7c 20 00 72 	movb   $0x72,0x207cfa(%rip)        # 212055 <s+0x15>
    a35b:	c6 05 e9 7c 20 00 4b 	movb   $0x4b,0x207ce9(%rip)        # 21204b <s+0xb>
    a362:	c6 05 e3 7c 20 00 33 	movb   $0x33,0x207ce3(%rip)        # 21204c <s+0xc>
    a369:	c6 05 e3 7c 20 00 49 	movb   $0x49,0x207ce3(%rip)        # 212053 <s+0x13>
    a370:	c6 05 e3 7c 20 00 78 	movb   $0x78,0x207ce3(%rip)        # 21205a <s+0x1a>
    a377:	c6 05 e7 7c 20 00 26 	movb   $0x26,0x207ce7(%rip)        # 212065 <s+0x25>
    a37e:	c6 05 c9 7c 20 00 6c 	movb   $0x6c,0x207cc9(%rip)        # 21204e <s+0xe>
    a385:	c6 05 da 7c 20 00 59 	movb   $0x59,0x207cda(%rip)        # 212066 <s+0x26>
    a38c:	c6 05 c5 7c 20 00 6a 	movb   $0x6a,0x207cc5(%rip)        # 212058 <s+0x18>
    a393:	c6 05 c8 7c 20 00 70 	movb   $0x70,0x207cc8(%rip)        # 212062 <s+0x22>
    a39a:	c6 05 b3 7c 20 00 73 	movb   $0x73,0x207cb3(%rip)        # 212054 <s+0x14>
    a3a1:	c6 05 bb 7c 20 00 7e 	movb   $0x7e,0x207cbb(%rip)        # 212063 <s+0x23>
    a3a8:	c6 05 a5 7c 20 00 74 	movb   $0x74,0x207ca5(%rip)        # 212054 <s+0x14>
    a3af:	c6 05 ab 7c 20 00 77 	movb   $0x77,0x207cab(%rip)        # 212061 <s+0x21>
    a3b6:	c6 05 a5 7c 20 00 74 	movb   $0x74,0x207ca5(%rip)        # 212062 <s+0x22>
    a3bd:	c6 05 a3 7c 20 00 62 	movb   $0x62,0x207ca3(%rip)        # 212067 <s+0x27>
    a3c4:	c6 05 85 7c 20 00 29 	movb   $0x29,0x207c85(%rip)        # 212050 <s+0x10>
    a3cb:	c6 05 8b 7c 20 00 71 	movb   $0x71,0x207c8b(%rip)        # 21205d <s+0x1d>
    a3d2:	c6 05 8b 7c 20 00 32 	movb   $0x32,0x207c8b(%rip)        # 212064 <s+0x24>
    a3d9:	c6 05 78 7c 20 00 43 	movb   $0x43,0x207c78(%rip)        # 212058 <s+0x18>
    a3e0:	c6 05 65 7c 20 00 5b 	movb   $0x5b,0x207c65(%rip)        # 21204c <s+0xc>
    a3e7:	c6 05 5d 7c 20 00 30 	movb   $0x30,0x207c5d(%rip)        # 21204b <s+0xb>
    a3ee:	c6 05 62 7c 20 00 5f 	movb   $0x5f,0x207c62(%rip)        # 212057 <s+0x17>
    a3f5:	c6 05 49 7c 20 00 64 	movb   $0x64,0x207c49(%rip)        # 212045 <s+0x5>
    a3fc:	c6 05 5b 7c 20 00 4d 	movb   $0x4d,0x207c5b(%rip)        # 21205e <s+0x1e>
    a403:	c6 05 46 7c 20 00 64 	movb   $0x64,0x207c46(%rip)        # 212050 <s+0x10>
    a40a:	c6 05 56 7c 20 00 6b 	movb   $0x6b,0x207c56(%rip)        # 212067 <s+0x27>
    a411:	c6 05 4c 7c 20 00 7d 	movb   $0x7d,0x207c4c(%rip)        # 212064 <s+0x24>
    a418:	c6 05 47 7c 20 00 4c 	movb   $0x4c,0x207c47(%rip)        # 212066 <s+0x26>
    a41f:	c6 05 21 7c 20 00 4f 	movb   $0x4f,0x207c21(%rip)        # 212047 <s+0x7>
    a426:	c6 05 23 7c 20 00 58 	movb   $0x58,0x207c23(%rip)        # 212050 <s+0x10>
    a42d:	c6 05 19 7c 20 00 25 	movb   $0x25,0x207c19(%rip)        # 21204d <s+0xd>
    a434:	c6 05 16 7c 20 00 49 	movb   $0x49,0x207c16(%rip)        # 212051 <s+0x11>
    a43b:	c6 05 10 7c 20 00 44 	movb   $0x44,0x207c10(%rip)        # 212052 <s+0x12>
    a442:	c6 05 15 7c 20 00 49 	movb   $0x49,0x207c15(%rip)        # 21205e <s+0x1e>
    a449:	c6 05 09 7c 20 00 2b 	movb   $0x2b,0x207c09(%rip)        # 212059 <s+0x19>
    a450:	c6 05 0e 7c 20 00 71 	movb   $0x71,0x207c0e(%rip)        # 212065 <s+0x25>
    a457:	c6 05 f9 7b 20 00 28 	movb   $0x28,0x207bf9(%rip)        # 212057 <s+0x17>
    a45e:	c6 05 e2 7b 20 00 68 	movb   $0x68,0x207be2(%rip)        # 212047 <s+0x7>
    a465:	c6 05 d4 7b 20 00 76 	movb   $0x76,0x207bd4(%rip)        # 212040 <s>
    a46c:	c6 05 d8 7b 20 00 3f 	movb   $0x3f,0x207bd8(%rip)        # 21204b <s+0xb>
    a473:	c6 05 da 7b 20 00 72 	movb   $0x72,0x207bda(%rip)        # 212054 <s+0x14>
    a47a:	c6 05 e3 7b 20 00 5b 	movb   $0x5b,0x207be3(%rip)        # 212064 <s+0x24>
    a481:	c6 05 bb 7b 20 00 52 	movb   $0x52,0x207bbb(%rip)        # 212043 <s+0x3>
    a488:	c6 05 c8 7b 20 00 66 	movb   $0x66,0x207bc8(%rip)        # 212057 <s+0x17>
    a48f:	c6 05 c2 7b 20 00 4e 	movb   $0x4e,0x207bc2(%rip)        # 212058 <s+0x18>
    a496:	c6 05 ab 7b 20 00 60 	movb   $0x60,0x207bab(%rip)        # 212048 <s+0x8>
    a49d:	c6 05 a5 7b 20 00 43 	movb   $0x43,0x207ba5(%rip)        # 212049 <s+0x9>
    a4a4:	c6 05 a5 7b 20 00 5b 	movb   $0x5b,0x207ba5(%rip)        # 212050 <s+0x10>
    a4ab:	c6 05 90 7b 20 00 26 	movb   $0x26,0x207b90(%rip)        # 212042 <s+0x2>
    a4b2:	c6 05 9c 7b 20 00 58 	movb   $0x58,0x207b9c(%rip)        # 212055 <s+0x15>
    a4b9:	c6 05 9d 7b 20 00 28 	movb   $0x28,0x207b9d(%rip)        # 21205d <s+0x1d>
    a4c0:	c6 05 9c 7b 20 00 58 	movb   $0x58,0x207b9c(%rip)        # 212063 <s+0x23>
    a4c7:	c6 05 87 7b 20 00 26 	movb   $0x26,0x207b87(%rip)        # 212055 <s+0x15>
    a4ce:	c6 05 7d 7b 20 00 72 	movb   $0x72,0x207b7d(%rip)        # 212052 <s+0x12>
    a4d5:	c6 05 77 7b 20 00 5d 	movb   $0x5d,0x207b77(%rip)        # 212053 <s+0x13>
    a4dc:	c6 05 60 7b 20 00 33 	movb   $0x33,0x207b60(%rip)        # 212043 <s+0x3>
    a4e3:	c6 05 71 7b 20 00 2c 	movb   $0x2c,0x207b71(%rip)        # 21205b <s+0x1b>
    a4ea:	c6 05 5a 7b 20 00 43 	movb   $0x43,0x207b5a(%rip)        # 21204b <s+0xb>
    a4f1:	c6 05 55 7b 20 00 6a 	movb   $0x6a,0x207b55(%rip)        # 21204d <s+0xd>
    a4f8:	c6 05 49 7b 20 00 24 	movb   $0x24,0x207b49(%rip)        # 212048 <s+0x8>
    a4ff:	c6 05 3a 7b 20 00 46 	movb   $0x46,0x207b3a(%rip)        # 212040 <s>
    a506:	c6 05 58 7b 20 00 2e 	movb   $0x2e,0x207b58(%rip)        # 212065 <s+0x25>
    a50d:	c6 05 36 7b 20 00 7d 	movb   $0x7d,0x207b36(%rip)        # 21204a <s+0xa>
    a514:	c6 05 2f 7b 20 00 3c 	movb   $0x3c,0x207b2f(%rip)        # 21204a <s+0xa>
    a51b:	c6 05 43 7b 20 00 30 	movb   $0x30,0x207b43(%rip)        # 212065 <s+0x25>
    a522:	c6 05 2a 7b 20 00 53 	movb   $0x53,0x207b2a(%rip)        # 212053 <s+0x13>
    a529:	c6 05 1e 7b 20 00 29 	movb   $0x29,0x207b1e(%rip)        # 21204e <s+0xe>
    a530:	c6 05 2a 7b 20 00 20 	movb   $0x20,0x207b2a(%rip)        # 212061 <s+0x21>
    a537:	c6 05 21 7b 20 00 54 	movb   $0x54,0x207b21(%rip)        # 21205f <s+0x1f>
    a53e:	c6 05 08 7b 20 00 28 	movb   $0x28,0x207b08(%rip)        # 21204d <s+0xd>
    a545:	c6 05 05 7b 20 00 47 	movb   $0x47,0x207b05(%rip)        # 212051 <s+0x11>
    a54c:	c6 05 03 7b 20 00 30 	movb   $0x30,0x207b03(%rip)        # 212056 <s+0x16>
    a553:	c6 05 fa 7a 20 00 6e 	movb   $0x6e,0x207afa(%rip)        # 212054 <s+0x14>
    a55a:	c6 05 fc 7a 20 00 6a 	movb   $0x6a,0x207afc(%rip)        # 21205d <s+0x1d>
    a561:	c6 05 e4 7a 20 00 26 	movb   $0x26,0x207ae4(%rip)        # 21204c <s+0xc>
    a568:	c6 05 df 7a 20 00 30 	movb   $0x30,0x207adf(%rip)        # 21204e <s+0xe>
    a56f:	c6 05 d1 7a 20 00 7e 	movb   $0x7e,0x207ad1(%rip)        # 212047 <s+0x7>
    a576:	c6 05 c3 7a 20 00 6f 	movb   $0x6f,0x207ac3(%rip)        # 212040 <s>
    a57d:	c6 05 c3 7a 20 00 3e 	movb   $0x3e,0x207ac3(%rip)        # 212047 <s+0x7>
    a584:	c6 05 d6 7a 20 00 37 	movb   $0x37,0x207ad6(%rip)        # 212061 <s+0x21>
    a58b:	c6 05 d2 7a 20 00 38 	movb   $0x38,0x207ad2(%rip)        # 212064 <s+0x24>
    a592:	c6 05 bc 7a 20 00 41 	movb   $0x41,0x207abc(%rip)        # 212055 <s+0x15>
    a599:	c6 05 c3 7a 20 00 6a 	movb   $0x6a,0x207ac3(%rip)        # 212063 <s+0x23>
    a5a0:	c6 05 ba 7a 20 00 75 	movb   $0x75,0x207aba(%rip)        # 212061 <s+0x21>
    a5a7:	c6 05 b8 7a 20 00 63 	movb   $0x63,0x207ab8(%rip)        # 212066 <s+0x26>
    a5ae:	c6 05 98 7a 20 00 63 	movb   $0x63,0x207a98(%rip)        # 21204d <s+0xd>
    a5b5:	c6 05 88 7a 20 00 6a 	movb   $0x6a,0x207a88(%rip)        # 212044 <s+0x4>
    a5bc:	c6 05 97 7a 20 00 66 	movb   $0x66,0x207a97(%rip)        # 21205a <s+0x1a>
    a5c3:	c6 05 90 7a 20 00 70 	movb   $0x70,0x207a90(%rip)        # 21205a <s+0x1a>
    a5ca:	c6 05 81 7a 20 00 7c 	movb   $0x7c,0x207a81(%rip)        # 212052 <s+0x12>
    a5d1:	c6 05 7b 7a 20 00 68 	movb   $0x68,0x207a7b(%rip)        # 212053 <s+0x13>
    a5d8:	c6 05 7b 7a 20 00 30 	movb   $0x30,0x207a7b(%rip)        # 21205a <s+0x1a>
    a5df:	c6 05 68 7a 20 00 22 	movb   $0x22,0x207a68(%rip)        # 21204e <s+0xe>
    a5e6:	c6 05 56 7a 20 00 4c 	movb   $0x4c,0x207a56(%rip)        # 212043 <s+0x3>
    a5ed:	c6 05 6c 7a 20 00 4a 	movb   $0x4a,0x207a6c(%rip)        # 212060 <s+0x20>
    a5f4:	c6 05 58 7a 20 00 5a 	movb   $0x5a,0x207a58(%rip)        # 212053 <s+0x13>
    a5fb:	c6 05 50 7a 20 00 7e 	movb   $0x7e,0x207a50(%rip)        # 212052 <s+0x12>
    a602:	c6 05 54 7a 20 00 29 	movb   $0x29,0x207a54(%rip)        # 21205d <s+0x1d>
    a609:	c6 05 56 7a 20 00 4b 	movb   $0x4b,0x207a56(%rip)        # 212066 <s+0x26>
    a610:	c6 05 2a 7a 20 00 4c 	movb   $0x4c,0x207a2a(%rip)        # 212041 <s+0x1>
    a617:	c6 05 3d 7a 20 00 65 	movb   $0x65,0x207a3d(%rip)        # 21205b <s+0x1b>
    a61e:	c6 05 30 7a 20 00 6a 	movb   $0x6a,0x207a30(%rip)        # 212055 <s+0x15>
    a625:	c6 05 36 7a 20 00 3b 	movb   $0x3b,0x207a36(%rip)        # 212062 <s+0x22>
    a62c:	c6 05 17 7a 20 00 55 	movb   $0x55,0x207a17(%rip)        # 21204a <s+0xa>
    a633:	c6 05 23 7a 20 00 7e 	movb   $0x7e,0x207a23(%rip)        # 21205d <s+0x1d>
    a63a:	c6 05 22 7a 20 00 3b 	movb   $0x3b,0x207a22(%rip)        # 212063 <s+0x23>
    a641:	c6 05 19 7a 20 00 53 	movb   $0x53,0x207a19(%rip)        # 212061 <s+0x21>
    a648:	c6 05 0b 7a 20 00 7b 	movb   $0x7b,0x207a0b(%rip)        # 21205a <s+0x1a>
    a64f:	c6 05 fa 79 20 00 3f 	movb   $0x3f,0x2079fa(%rip)        # 212050 <s+0x10>
    a656:	c6 05 f4 79 20 00 58 	movb   $0x58,0x2079f4(%rip)        # 212051 <s+0x11>
    a65d:	c6 05 ec 79 20 00 54 	movb   $0x54,0x2079ec(%rip)        # 212050 <s+0x10>
    a664:	c6 05 fc 79 20 00 3a 	movb   $0x3a,0x2079fc(%rip)        # 212067 <s+0x27>
    a66b:	c6 05 d9 79 20 00 36 	movb   $0x36,0x2079d9(%rip)        # 21204b <s+0xb>
    a672:	c6 05 d8 79 20 00 77 	movb   $0x77,0x2079d8(%rip)        # 212051 <s+0x11>
    a679:	c6 05 c3 79 20 00 22 	movb   $0x22,0x2079c3(%rip)        # 212043 <s+0x3>
    a680:	c6 05 d2 79 20 00 52 	movb   $0x52,0x2079d2(%rip)        # 212059 <s+0x19>
    a687:	c6 05 cc 79 20 00 7b 	movb   $0x7b,0x2079cc(%rip)        # 21205a <s+0x1a>
    a68e:	c6 05 b9 79 20 00 28 	movb   $0x28,0x2079b9(%rip)        # 21204e <s+0xe>
    a695:	c6 05 b0 79 20 00 7e 	movb   $0x7e,0x2079b0(%rip)        # 21204c <s+0xc>
    a69c:	c6 05 bb 79 20 00 20 	movb   $0x20,0x2079bb(%rip)        # 21205e <s+0x1e>
    a6a3:	c6 05 b6 79 20 00 32 	movb   $0x32,0x2079b6(%rip)        # 212060 <s+0x20>
    a6aa:	c6 05 b6 79 20 00 64 	movb   $0x64,0x2079b6(%rip)        # 212067 <s+0x27>
    a6b1:	c6 05 ac 79 20 00 70 	movb   $0x70,0x2079ac(%rip)        # 212064 <s+0x24>
    a6b8:	c6 05 a7 79 20 00 50 	movb   $0x50,0x2079a7(%rip)        # 212066 <s+0x26>
    a6bf:	c6 05 89 79 20 00 4c 	movb   $0x4c,0x207989(%rip)        # 21204f <s+0xf>
    a6c6:	c6 05 95 79 20 00 47 	movb   $0x47,0x207995(%rip)        # 212062 <s+0x22>
    a6cd:	c6 05 84 79 20 00 26 	movb   $0x26,0x207984(%rip)        # 212058 <s+0x18>
    a6d4:	c6 05 7d 79 20 00 7a 	movb   $0x7a,0x20797d(%rip)        # 212058 <s+0x18>
    a6db:	c6 05 6f 79 20 00 77 	movb   $0x77,0x20796f(%rip)        # 212051 <s+0x11>
    a6e2:	c6 05 6b 79 20 00 6d 	movb   $0x6d,0x20796b(%rip)        # 212054 <s+0x14>
    a6e9:	c6 05 77 79 20 00 20 	movb   $0x20,0x207977(%rip)        # 212067 <s+0x27>
    a6f0:	c6 05 65 79 20 00 34 	movb   $0x34,0x207965(%rip)        # 21205c <s+0x1c>
    a6f7:	c6 05 49 79 20 00 29 	movb   $0x29,0x207949(%rip)        # 212047 <s+0x7>
    a6fe:	c6 05 46 79 20 00 5b 	movb   $0x5b,0x207946(%rip)        # 21204b <s+0xb>
    a705:	c6 05 3c 79 20 00 66 	movb   $0x66,0x20793c(%rip)        # 212048 <s+0x8>
    a70c:	c6 05 4c 79 20 00 6f 	movb   $0x6f,0x20794c(%rip)        # 21205f <s+0x1f>
    a713:	c6 05 39 79 20 00 41 	movb   $0x41,0x207939(%rip)        # 212053 <s+0x13>
    a71a:	c6 05 36 79 20 00 4b 	movb   $0x4b,0x207936(%rip)        # 212057 <s+0x17>
    a721:	c6 05 1b 79 20 00 68 	movb   $0x68,0x20791b(%rip)        # 212043 <s+0x3>
    a728:	c6 05 20 79 20 00 77 	movb   $0x77,0x207920(%rip)        # 21204f <s+0xf>
    a72f:	c6 05 2c 79 20 00 48 	movb   $0x48,0x20792c(%rip)        # 212062 <s+0x22>
    a736:	c6 05 1a 79 20 00 52 	movb   $0x52,0x20791a(%rip)        # 212057 <s+0x17>
    a73d:	c6 05 0f 79 20 00 28 	movb   $0x28,0x20790f(%rip)        # 212053 <s+0x13>
    a744:	c6 05 05 79 20 00 6d 	movb   $0x6d,0x207905(%rip)        # 212050 <s+0x10>
    a74b:	c6 05 fa 78 20 00 4a 	movb   $0x4a,0x2078fa(%rip)        # 21204c <s+0xc>
    a752:	c6 05 f0 78 20 00 48 	movb   $0x48,0x2078f0(%rip)        # 212049 <s+0x9>
    a759:	c6 05 ed 78 20 00 46 	movb   $0x46,0x2078ed(%rip)        # 21204d <s+0xd>
    a760:	c6 05 ef 78 20 00 4c 	movb   $0x4c,0x2078ef(%rip)        # 212056 <s+0x16>
    a767:	c6 05 e8 78 20 00 31 	movb   $0x31,0x2078e8(%rip)        # 212056 <s+0x16>
    a76e:	c6 05 e6 78 20 00 47 	movb   $0x47,0x2078e6(%rip)        # 21205b <s+0x1b>
    a775:	c6 05 e1 78 20 00 4d 	movb   $0x4d,0x2078e1(%rip)        # 21205d <s+0x1d>
    a77c:	c6 05 de 78 20 00 23 	movb   $0x23,0x2078de(%rip)        # 212061 <s+0x21>
    a783:	c6 05 d2 78 20 00 7e 	movb   $0x7e,0x2078d2(%rip)        # 21205c <s+0x1c>
    a78a:	c6 05 b9 78 20 00 70 	movb   $0x70,0x2078b9(%rip)        # 21204a <s+0xa>
    a791:	c6 05 b2 78 20 00 28 	movb   $0x28,0x2078b2(%rip)        # 21204a <s+0xa>
    a798:	c6 05 c2 78 20 00 72 	movb   $0x72,0x2078c2(%rip)        # 212061 <s+0x21>
    a79f:	c6 05 a0 78 20 00 45 	movb   $0x45,0x2078a0(%rip)        # 212046 <s+0x6>
    a7a6:	c6 05 a7 78 20 00 49 	movb   $0x49,0x2078a7(%rip)        # 212054 <s+0x14>
    a7ad:	c6 05 b0 78 20 00 49 	movb   $0x49,0x2078b0(%rip)        # 212064 <s+0x24>
    a7b4:	c6 05 a6 78 20 00 5e 	movb   $0x5e,0x2078a6(%rip)        # 212061 <s+0x21>
    a7bb:	c6 05 8b 78 20 00 79 	movb   $0x79,0x20788b(%rip)        # 21204d <s+0xd>
    a7c2:	c6 05 9e 78 20 00 46 	movb   $0x46,0x20789e(%rip)        # 212067 <s+0x27>
    a7c9:	c6 05 72 78 20 00 77 	movb   $0x77,0x207872(%rip)        # 212042 <s+0x2>
    a7d0:	c6 05 69 78 20 00 77 	movb   $0x77,0x207869(%rip)        # 212040 <s>
    a7d7:	c6 05 68 78 20 00 46 	movb   $0x46,0x207868(%rip)        # 212046 <s+0x6>
    a7de:	c6 05 75 78 20 00 34 	movb   $0x34,0x207875(%rip)        # 21205a <s+0x1a>
    a7e5:	c6 05 58 78 20 00 2d 	movb   $0x2d,0x207858(%rip)        # 212044 <s+0x4>
    a7ec:	c6 05 4e 78 20 00 39 	movb   $0x39,0x20784e(%rip)        # 212041 <s+0x1>
    a7f3:	c6 05 4a 78 20 00 79 	movb   $0x79,0x20784a(%rip)        # 212044 <s+0x4>
    a7fa:	c6 05 4f 78 20 00 43 	movb   $0x43,0x20784f(%rip)        # 212050 <s+0x10>
    a801:	c6 05 59 78 20 00 4c 	movb   $0x4c,0x207859(%rip)        # 212061 <s+0x21>
    a808:	c6 05 51 78 20 00 3c 	movb   $0x3c,0x207851(%rip)        # 212060 <s+0x20>
    a80f:	c6 05 4f 78 20 00 7e 	movb   $0x7e,0x20784f(%rip)        # 212065 <s+0x25>
    a816:	c6 05 47 78 20 00 42 	movb   $0x42,0x207847(%rip)        # 212064 <s+0x24>
    a81d:	c6 05 3d 78 20 00 51 	movb   $0x51,0x20783d(%rip)        # 212061 <s+0x21>
    a824:	c6 05 3a 78 20 00 68 	movb   $0x68,0x20783a(%rip)        # 212065 <s+0x25>
    a82b:	c6 05 11 78 20 00 47 	movb   $0x47,0x207811(%rip)        # 212043 <s+0x3>
    a832:	c6 05 13 78 20 00 75 	movb   $0x75,0x207813(%rip)        # 21204c <s+0xc>
    a839:	c6 05 27 78 20 00 61 	movb   $0x61,0x207827(%rip)        # 212067 <s+0x27>
    a840:	c6 05 17 78 20 00 75 	movb   $0x75,0x207817(%rip)        # 21205e <s+0x1e>
    a847:	c6 05 fe 77 20 00 74 	movb   $0x74,0x2077fe(%rip)        # 21204c <s+0xc>
    a84e:	c6 05 05 78 20 00 7a 	movb   $0x7a,0x207805(%rip)        # 21205a <s+0x1a>
    a855:	c6 05 ea 77 20 00 2b 	movb   $0x2b,0x2077ea(%rip)        # 212046 <s+0x6>
    a85c:	c6 05 df 77 20 00 2d 	movb   $0x2d,0x2077df(%rip)        # 212042 <s+0x2>
    a863:	c6 05 e7 77 20 00 49 	movb   $0x49,0x2077e7(%rip)        # 212051 <s+0x11>
    a86a:	c6 05 e2 77 20 00 7e 	movb   $0x7e,0x2077e2(%rip)        # 212053 <s+0x13>
    a871:	c6 05 d2 77 20 00 4b 	movb   $0x4b,0x2077d2(%rip)        # 21204a <s+0xa>
    a878:	c6 05 dc 77 20 00 68 	movb   $0x68,0x2077dc(%rip)        # 21205b <s+0x1b>
    a87f:	c6 05 cf 77 20 00 60 	movb   $0x60,0x2077cf(%rip)        # 212055 <s+0x15>
    a886:	c6 05 b9 77 20 00 74 	movb   $0x74,0x2077b9(%rip)        # 212046 <s+0x6>
    a88d:	c6 05 c5 77 20 00 3a 	movb   $0x3a,0x2077c5(%rip)        # 212059 <s+0x19>
    a894:	c6 05 bf 77 20 00 2b 	movb   $0x2b,0x2077bf(%rip)        # 21205a <s+0x1a>
    a89b:	c6 05 ab 77 20 00 4a 	movb   $0x4a,0x2077ab(%rip)        # 21204d <s+0xd>
    a8a2:	c6 05 a4 77 20 00 2d 	movb   $0x2d,0x2077a4(%rip)        # 21204d <s+0xd>
    a8a9:	c6 05 a5 77 20 00 34 	movb   $0x34,0x2077a5(%rip)        # 212055 <s+0x15>
    a8b0:	c6 05 a6 77 20 00 7e 	movb   $0x7e,0x2077a6(%rip)        # 21205d <s+0x1d>
    a8b7:	c6 05 a0 77 20 00 5a 	movb   $0x5a,0x2077a0(%rip)        # 21205e <s+0x1e>
    a8be:	c6 05 7e 77 20 00 65 	movb   $0x65,0x20777e(%rip)        # 212043 <s+0x3>
    a8c5:	c6 05 78 77 20 00 30 	movb   $0x30,0x207778(%rip)        # 212044 <s+0x4>
    a8cc:	c6 05 71 77 20 00 6c 	movb   $0x6c,0x207771(%rip)        # 212044 <s+0x4>
    a8d3:	c6 05 72 77 20 00 5d 	movb   $0x5d,0x207772(%rip)        # 21204c <s+0xc>
    a8da:	c6 05 7d 77 20 00 2b 	movb   $0x2b,0x20777d(%rip)        # 21205e <s+0x1e>
    a8e1:	c6 05 5b 77 20 00 69 	movb   $0x69,0x20775b(%rip)        # 212043 <s+0x3>
    a8e8:	c6 05 73 77 20 00 22 	movb   $0x22,0x207773(%rip)        # 212062 <s+0x22>
    a8ef:	c6 05 6b 77 20 00 3e 	movb   $0x3e,0x20776b(%rip)        # 212061 <s+0x21>
    a8f6:	c6 05 6a 77 20 00 20 	movb   $0x20,0x20776a(%rip)        # 212067 <s+0x27>
    a8fd:	c6 05 3d 77 20 00 57 	movb   $0x57,0x20773d(%rip)        # 212041 <s+0x1>
    a904:	c6 05 54 77 20 00 42 	movb   $0x42,0x207754(%rip)        # 21205f <s+0x1f>
    a90b:	c6 05 55 77 20 00 57 	movb   $0x57,0x207755(%rip)        # 212067 <s+0x27>
    a912:	c6 05 47 77 20 00 2c 	movb   $0x2c,0x207747(%rip)        # 212060 <s+0x20>
    a919:	c6 05 26 77 20 00 62 	movb   $0x62,0x207726(%rip)        # 212046 <s+0x6>
    a920:	c6 05 1e 77 20 00 2a 	movb   $0x2a,0x20771e(%rip)        # 212045 <s+0x5>
    a927:	c6 05 30 77 20 00 62 	movb   $0x62,0x207730(%rip)        # 21205e <s+0x1e>
    a92e:	c6 05 27 77 20 00 58 	movb   $0x58,0x207727(%rip)        # 21205c <s+0x1c>
    a935:	c6 05 1a 77 20 00 74 	movb   $0x74,0x20771a(%rip)        # 212056 <s+0x16>
    a93c:	c6 05 06 77 20 00 4c 	movb   $0x4c,0x207706(%rip)        # 212049 <s+0x9>
    a943:	c6 05 f9 76 20 00 61 	movb   $0x61,0x2076f9(%rip)        # 212043 <s+0x3>
    a94a:	c6 05 fa 76 20 00 6b 	movb   $0x6b,0x2076fa(%rip)        # 21204b <s+0xb>
    a951:	c6 05 f8 76 20 00 2b 	movb   $0x2b,0x2076f8(%rip)        # 212050 <s+0x10>
    a958:	c6 05 f2 76 20 00 20 	movb   $0x20,0x2076f2(%rip)        # 212051 <s+0x11>
    a95f:	c6 05 dc 76 20 00 6b 	movb   $0x6b,0x2076dc(%rip)        # 212042 <s+0x2>
    a966:	c6 05 db 76 20 00 2e 	movb   $0x2e,0x2076db(%rip)        # 212048 <s+0x8>
    a96d:	c6 05 f3 76 20 00 40 	movb   $0x40,0x2076f3(%rip)        # 212067 <s+0x27>
    a974:	c6 05 d6 76 20 00 41 	movb   $0x41,0x2076d6(%rip)        # 212051 <s+0x11>
    a97b:	c6 05 e2 76 20 00 44 	movb   $0x44,0x2076e2(%rip)        # 212064 <s+0x24>
    a982:	c6 05 d3 76 20 00 3a 	movb   $0x3a,0x2076d3(%rip)        # 21205c <s+0x1c>
    a989:	c6 05 bd 76 20 00 45 	movb   $0x45,0x2076bd(%rip)        # 21204d <s+0xd>
    a990:	c6 05 cd 76 20 00 46 	movb   $0x46,0x2076cd(%rip)        # 212064 <s+0x24>
    a997:	c6 05 bf 76 20 00 59 	movb   $0x59,0x2076bf(%rip)        # 21205d <s+0x1d>
    a99e:	c6 05 ba 76 20 00 2d 	movb   $0x2d,0x2076ba(%rip)        # 21205f <s+0x1f>
    a9a5:	c6 05 9a 76 20 00 4e 	movb   $0x4e,0x20769a(%rip)        # 212046 <s+0x6>
    a9ac:	c6 05 aa 76 20 00 77 	movb   $0x77,0x2076aa(%rip)        # 21205d <s+0x1d>
    a9b3:	c6 05 8a 76 20 00 66 	movb   $0x66,0x20768a(%rip)        # 212044 <s+0x4>
    a9ba:	c6 05 99 76 20 00 52 	movb   $0x52,0x207699(%rip)        # 21205a <s+0x1a>
    a9c1:	c6 05 91 76 20 00 5a 	movb   $0x5a,0x207691(%rip)        # 212059 <s+0x19>
    a9c8:	c6 05 92 76 20 00 54 	movb   $0x54,0x207692(%rip)        # 212061 <s+0x21>
    a9cf:	c6 05 75 76 20 00 66 	movb   $0x66,0x207675(%rip)        # 21204b <s+0xb>
    a9d6:	c6 05 83 76 20 00 2f 	movb   $0x2f,0x207683(%rip)        # 212060 <s+0x20>
    a9dd:	c6 05 80 76 20 00 56 	movb   $0x56,0x207680(%rip)        # 212064 <s+0x24>
    a9e4:	c6 05 59 76 20 00 79 	movb   $0x79,0x207659(%rip)        # 212044 <s+0x4>
    a9eb:	c6 05 68 76 20 00 7e 	movb   $0x7e,0x207668(%rip)        # 21205a <s+0x1a>
    a9f2:	c6 05 6a 76 20 00 6a 	movb   $0x6a,0x20766a(%rip)        # 212063 <s+0x23>
    a9f9:	c6 05 67 76 20 00 6b 	movb   $0x6b,0x207667(%rip)        # 212067 <s+0x27>
    aa00:	c6 05 52 76 20 00 62 	movb   $0x62,0x207652(%rip)        # 212059 <s+0x19>
    aa07:	c6 05 39 76 20 00 26 	movb   $0x26,0x207639(%rip)        # 212047 <s+0x7>
    aa0e:	c6 05 34 76 20 00 53 	movb   $0x53,0x207634(%rip)        # 212049 <s+0x9>
    aa15:	c6 05 43 76 20 00 55 	movb   $0x55,0x207643(%rip)        # 21205f <s+0x1f>
    aa1c:	c6 05 22 76 20 00 34 	movb   $0x34,0x207622(%rip)        # 212045 <s+0x5>
    aa23:	c6 05 35 76 20 00 77 	movb   $0x77,0x207635(%rip)        # 21205f <s+0x1f>
    aa2a:	c6 05 17 76 20 00 70 	movb   $0x70,0x207617(%rip)        # 212048 <s+0x8>
    aa31:	c6 05 1f 76 20 00 70 	movb   $0x70,0x20761f(%rip)        # 212057 <s+0x17>
    aa38:	c6 05 0d 76 20 00 4d 	movb   $0x4d,0x20760d(%rip)        # 21204c <s+0xc>
    aa3f:	c6 05 fd 75 20 00 20 	movb   $0x20,0x2075fd(%rip)        # 212043 <s+0x3>
    aa46:	c6 05 04 76 20 00 7e 	movb   $0x7e,0x207604(%rip)        # 212051 <s+0x11>
    aa4d:	c6 05 10 76 20 00 52 	movb   $0x52,0x207610(%rip)        # 212064 <s+0x24>
    aa54:	c6 05 07 76 20 00 55 	movb   $0x55,0x207607(%rip)        # 212062 <s+0x22>
    aa5b:	c6 05 fd 75 20 00 47 	movb   $0x47,0x2075fd(%rip)        # 21205f <s+0x1f>
    aa62:	c6 05 fc 75 20 00 53 	movb   $0x53,0x2075fc(%rip)        # 212065 <s+0x25>
    aa69:	c6 05 df 75 20 00 37 	movb   $0x37,0x2075df(%rip)        # 21204f <s+0xf>
    aa70:	c6 05 e7 75 20 00 57 	movb   $0x57,0x2075e7(%rip)        # 21205e <s+0x1e>
    aa77:	c6 05 e0 75 20 00 54 	movb   $0x54,0x2075e0(%rip)        # 21205e <s+0x1e>
    aa7e:	c6 05 e1 75 20 00 78 	movb   $0x78,0x2075e1(%rip)        # 212066 <s+0x26>
    aa85:	c6 05 d5 75 20 00 2c 	movb   $0x2c,0x2075d5(%rip)        # 212061 <s+0x21>
    aa8c:	c6 05 c8 75 20 00 39 	movb   $0x39,0x2075c8(%rip)        # 21205b <s+0x1b>
    aa93:	c6 05 bb 75 20 00 61 	movb   $0x61,0x2075bb(%rip)        # 212055 <s+0x15>
    aa9a:	c6 05 a9 75 20 00 30 	movb   $0x30,0x2075a9(%rip)        # 21204a <s+0xa>
    aaa1:	c6 05 ac 75 20 00 30 	movb   $0x30,0x2075ac(%rip)        # 212054 <s+0x14>
    aaa8:	c6 05 b7 75 20 00 21 	movb   $0x21,0x2075b7(%rip)        # 212066 <s+0x26>
    aaaf:	c6 05 a7 75 20 00 72 	movb   $0x72,0x2075a7(%rip)        # 21205d <s+0x1d>
    aab6:	c6 05 8f 75 20 00 54 	movb   $0x54,0x20758f(%rip)        # 21204c <s+0xc>
    aabd:	c6 05 91 75 20 00 7b 	movb   $0x7b,0x207591(%rip)        # 212055 <s+0x15>
    aac4:	c6 05 94 75 20 00 7e 	movb   $0x7e,0x207594(%rip)        # 21205f <s+0x1f>
    aacb:	c6 05 92 75 20 00 62 	movb   $0x62,0x207592(%rip)        # 212064 <s+0x24>
    aad2:	c6 05 88 75 20 00 3a 	movb   $0x3a,0x207588(%rip)        # 212061 <s+0x21>
    aad9:	c6 05 63 75 20 00 59 	movb   $0x59,0x207563(%rip)        # 212043 <s+0x3>
    aae0:	c6 05 66 75 20 00 36 	movb   $0x36,0x207566(%rip)        # 21204d <s+0xd>
    aae7:	c6 05 6d 75 20 00 58 	movb   $0x58,0x20756d(%rip)        # 21205b <s+0x1b>
    aaee:	c6 05 6d 75 20 00 20 	movb   $0x20,0x20756d(%rip)        # 212062 <s+0x22>
    aaf5:	c6 05 6a 75 20 00 73 	movb   $0x73,0x20756a(%rip)        # 212066 <s+0x26>
    aafc:	c6 05 56 75 20 00 45 	movb   $0x45,0x207556(%rip)        # 212059 <s+0x19>
    ab03:	c6 05 36 75 20 00 4e 	movb   $0x4e,0x207536(%rip)        # 212040 <s>
    ab0a:	c6 05 4e 75 20 00 50 	movb   $0x50,0x20754e(%rip)        # 21205f <s+0x1f>
    ab11:	c6 05 2f 75 20 00 57 	movb   $0x57,0x20752f(%rip)        # 212047 <s+0x7>
    ab18:	c6 05 42 75 20 00 53 	movb   $0x53,0x207542(%rip)        # 212061 <s+0x21>
    ab1f:	c6 05 28 75 20 00 41 	movb   $0x41,0x207528(%rip)        # 21204e <s+0xe>
    ab26:	c6 05 34 75 20 00 76 	movb   $0x76,0x207534(%rip)        # 212061 <s+0x21>
    ab2d:	c6 05 10 75 20 00 7c 	movb   $0x7c,0x207510(%rip)        # 212044 <s+0x4>
    ab34:	c6 05 21 75 20 00 75 	movb   $0x75,0x207521(%rip)        # 21205c <s+0x1c>
    ab3b:	c6 05 10 75 20 00 4b 	movb   $0x4b,0x207510(%rip)        # 212052 <s+0x12>
    ab42:	c6 05 04 75 20 00 40 	movb   $0x40,0x207504(%rip)        # 21204d <s+0xd>
    ab49:	c6 05 f6 74 20 00 64 	movb   $0x64,0x2074f6(%rip)        # 212046 <s+0x6>
    ab50:	c6 05 f5 74 20 00 40 	movb   $0x40,0x2074f5(%rip)        # 21204c <s+0xc>
    ab57:	c6 05 e3 74 20 00 6e 	movb   $0x6e,0x2074e3(%rip)        # 212041 <s+0x1>
    ab5e:	c6 05 fd 74 20 00 30 	movb   $0x30,0x2074fd(%rip)        # 212062 <s+0x22>
    ab65:	c6 05 f6 74 20 00 4f 	movb   $0x4f,0x2074f6(%rip)        # 212062 <s+0x22>
    ab6c:	c6 05 eb 74 20 00 59 	movb   $0x59,0x2074eb(%rip)        # 21205e <s+0x1e>
    ab73:	c6 05 d4 74 20 00 71 	movb   $0x71,0x2074d4(%rip)        # 21204e <s+0xe>
    ab7a:	c6 05 d2 74 20 00 7b 	movb   $0x7b,0x2074d2(%rip)        # 212053 <s+0x13>
    ab81:	c6 05 c7 74 20 00 49 	movb   $0x49,0x2074c7(%rip)        # 21204f <s+0xf>
    ab88:	c6 05 d3 74 20 00 50 	movb   $0x50,0x2074d3(%rip)        # 212062 <s+0x22>
    ab8f:	c6 05 cd 74 20 00 59 	movb   $0x59,0x2074cd(%rip)        # 212063 <s+0x23>
    ab96:	c6 05 a4 74 20 00 37 	movb   $0x37,0x2074a4(%rip)        # 212041 <s+0x1>
    ab9d:	c6 05 c3 74 20 00 61 	movb   $0x61,0x2074c3(%rip)        # 212067 <s+0x27>
    aba4:	c6 05 ac 74 20 00 3f 	movb   $0x3f,0x2074ac(%rip)        # 212057 <s+0x17>
    abab:	c6 05 ae 74 20 00 4e 	movb   $0x4e,0x2074ae(%rip)        # 212060 <s+0x20>
    abb2:	c6 05 a2 74 20 00 49 	movb   $0x49,0x2074a2(%rip)        # 21205b <s+0x1b>
    abb9:	c6 05 91 74 20 00 2a 	movb   $0x2a,0x207491(%rip)        # 212051 <s+0x11>
    abc0:	c6 05 9c 74 20 00 77 	movb   $0x77,0x20749c(%rip)        # 212063 <s+0x23>
    abc7:	c6 05 8f 74 20 00 25 	movb   $0x25,0x20748f(%rip)        # 21205d <s+0x1d>
    abce:	c6 05 6c 74 20 00 34 	movb   $0x34,0x20746c(%rip)        # 212041 <s+0x1>
    abd5:	c6 05 67 74 20 00 4b 	movb   $0x4b,0x207467(%rip)        # 212043 <s+0x3>
    abdc:	c6 05 78 74 20 00 76 	movb   $0x76,0x207478(%rip)        # 21205b <s+0x1b>
    abe3:	c6 05 7d 74 20 00 5d 	movb   $0x5d,0x20747d(%rip)        # 212067 <s+0x27>
    abea:	c6 05 74 74 20 00 39 	movb   $0x39,0x207474(%rip)        # 212065 <s+0x25>
    abf1:	c6 05 5d 74 20 00 49 	movb   $0x49,0x20745d(%rip)        # 212055 <s+0x15>
    abf8:	c6 05 52 74 20 00 21 	movb   $0x21,0x207452(%rip)        # 212051 <s+0x11>
    abff:	c6 05 44 74 20 00 6b 	movb   $0x6b,0x207444(%rip)        # 21204a <s+0xa>
    ac06:	c6 05 36 74 20 00 61 	movb   $0x61,0x207436(%rip)        # 212043 <s+0x3>
    ac0d:	c6 05 3d 74 20 00 33 	movb   $0x33,0x20743d(%rip)        # 212051 <s+0x11>
    ac14:	c6 05 4a 74 20 00 6c 	movb   $0x6c,0x20744a(%rip)        # 212065 <s+0x25>
    ac1b:	c6 05 3e 74 20 00 23 	movb   $0x23,0x20743e(%rip)        # 212060 <s+0x20>
    ac22:	c6 05 2d 74 20 00 4f 	movb   $0x4f,0x20742d(%rip)        # 212056 <s+0x16>
    ac29:	c6 05 28 74 20 00 51 	movb   $0x51,0x207428(%rip)        # 212058 <s+0x18>
    ac30:	c6 05 0b 74 20 00 7b 	movb   $0x7b,0x20740b(%rip)        # 212042 <s+0x2>
    ac37:	c6 05 0b 74 20 00 72 	movb   $0x72,0x20740b(%rip)        # 212049 <s+0x9>
    ac3e:	c6 05 21 74 20 00 69 	movb   $0x69,0x207421(%rip)        # 212066 <s+0x26>
    ac45:	c6 05 fa 73 20 00 3d 	movb   $0x3d,0x2073fa(%rip)        # 212046 <s+0x6>
    ac4c:	c6 05 10 74 20 00 5d 	movb   $0x5d,0x207410(%rip)        # 212063 <s+0x23>
    ac53:	c6 05 ef 73 20 00 31 	movb   $0x31,0x2073ef(%rip)        # 212049 <s+0x9>
    ac5a:	c6 05 fa 73 20 00 52 	movb   $0x52,0x2073fa(%rip)        # 21205b <s+0x1b>
    ac61:	c6 05 f5 73 20 00 35 	movb   $0x35,0x2073f5(%rip)        # 21205d <s+0x1d>
    ac68:	c6 05 db 73 20 00 69 	movb   $0x69,0x2073db(%rip)        # 21204a <s+0xa>
    ac6f:	c6 05 ec 73 20 00 2a 	movb   $0x2a,0x2073ec(%rip)        # 212062 <s+0x22>
    ac76:	c6 05 da 73 20 00 40 	movb   $0x40,0x2073da(%rip)        # 212057 <s+0x17>
    ac7d:	c6 05 e3 73 20 00 5a 	movb   $0x5a,0x2073e3(%rip)        # 212067 <s+0x27>
    ac84:	c6 05 c5 73 20 00 53 	movb   $0x53,0x2073c5(%rip)        # 212050 <s+0x10>
    ac8b:	c6 05 bc 73 20 00 65 	movb   $0x65,0x2073bc(%rip)        # 21204e <s+0xe>
    ac92:	c6 05 b1 73 20 00 7c 	movb   $0x7c,0x2073b1(%rip)        # 21204a <s+0xa>
    ac99:	c6 05 bf 73 20 00 5b 	movb   $0x5b,0x2073bf(%rip)        # 21205f <s+0x1f>
    aca0:	c6 05 af 73 20 00 2a 	movb   $0x2a,0x2073af(%rip)        # 212056 <s+0x16>
    aca7:	c6 05 af 73 20 00 66 	movb   $0x66,0x2073af(%rip)        # 21205d <s+0x1d>
    acae:	c6 05 a6 73 20 00 6a 	movb   $0x6a,0x2073a6(%rip)        # 21205b <s+0x1b>
    acb5:	c6 05 8e 73 20 00 25 	movb   $0x25,0x20738e(%rip)        # 21204a <s+0xa>
    acbc:	c6 05 a2 73 20 00 53 	movb   $0x53,0x2073a2(%rip)        # 212065 <s+0x25>
    acc3:	c6 05 88 73 20 00 36 	movb   $0x36,0x207388(%rip)        # 212052 <s+0x12>
    acca:	c6 05 82 73 20 00 5a 	movb   $0x5a,0x207382(%rip)        # 212053 <s+0x13>
    acd1:	c6 05 69 73 20 00 75 	movb   $0x75,0x207369(%rip)        # 212041 <s+0x1>
    acd8:	c6 05 76 73 20 00 52 	movb   $0x52,0x207376(%rip)        # 212055 <s+0x15>
    acdf:	c6 05 7b 73 20 00 57 	movb   $0x57,0x20737b(%rip)        # 212061 <s+0x21>
    ace6:	c6 05 69 73 20 00 63 	movb   $0x63,0x207369(%rip)        # 212056 <s+0x16>
    aced:	c6 05 70 73 20 00 7a 	movb   $0x7a,0x207370(%rip)        # 212064 <s+0x24>
    acf4:	c6 05 4a 73 20 00 47 	movb   $0x47,0x20734a(%rip)        # 212045 <s+0x5>
    acfb:	c6 05 64 73 20 00 66 	movb   $0x66,0x207364(%rip)        # 212066 <s+0x26>
    ad02:	c6 05 52 73 20 00 25 	movb   $0x25,0x207352(%rip)        # 21205b <s+0x1b>
    ad09:	c6 05 56 73 20 00 32 	movb   $0x32,0x207356(%rip)        # 212066 <s+0x26>
    ad10:	c6 05 4e 73 20 00 73 	movb   $0x73,0x20734e(%rip)        # 212065 <s+0x25>
    ad17:	c6 05 2a 73 20 00 75 	movb   $0x75,0x20732a(%rip)        # 212048 <s+0x8>
    ad1e:	c6 05 35 73 20 00 42 	movb   $0x42,0x207335(%rip)        # 21205a <s+0x1a>
    ad25:	c6 05 32 73 20 00 7e 	movb   $0x7e,0x207332(%rip)        # 21205e <s+0x1e>
    ad2c:	c6 05 21 73 20 00 24 	movb   $0x24,0x207321(%rip)        # 212054 <s+0x14>
    ad33:	c6 05 20 73 20 00 6d 	movb   $0x6d,0x207320(%rip)        # 21205a <s+0x1a>
    ad3a:	c6 05 02 73 20 00 36 	movb   $0x36,0x207302(%rip)        # 212043 <s+0x3>
    ad41:	c6 05 fc 72 20 00 67 	movb   $0x67,0x2072fc(%rip)        # 212044 <s+0x4>
    ad48:	c6 05 05 73 20 00 75 	movb   $0x75,0x207305(%rip)        # 212054 <s+0x14>
    ad4f:	c6 05 04 73 20 00 5b 	movb   $0x5b,0x207304(%rip)        # 21205a <s+0x1a>
    ad56:	c6 05 00 73 20 00 5b 	movb   $0x5b,0x207300(%rip)        # 21205d <s+0x1d>
    ad5d:	c6 05 02 73 20 00 59 	movb   $0x59,0x207302(%rip)        # 212066 <s+0x26>
    ad64:	c6 05 f0 72 20 00 37 	movb   $0x37,0x2072f0(%rip)        # 21205b <s+0x1b>
    ad6b:	c6 05 f2 72 20 00 42 	movb   $0x42,0x2072f2(%rip)        # 212064 <s+0x24>
    ad72:	c6 05 de 72 20 00 41 	movb   $0x41,0x2072de(%rip)        # 212057 <s+0x17>
    ad79:	c6 05 cb 72 20 00 55 	movb   $0x55,0x2072cb(%rip)        # 21204b <s+0xb>
    ad80:	c6 05 cd 72 20 00 6c 	movb   $0x6c,0x2072cd(%rip)        # 212054 <s+0x14>
    ad87:	c6 05 c8 72 20 00 28 	movb   $0x28,0x2072c8(%rip)        # 212056 <s+0x16>
    ad8e:	c6 05 bb 72 20 00 2f 	movb   $0x2f,0x2072bb(%rip)        # 212050 <s+0x10>
    ad95:	c6 05 b1 72 20 00 7e 	movb   $0x7e,0x2072b1(%rip)        # 21204d <s+0xd>
    ad9c:	c6 05 a8 72 20 00 21 	movb   $0x21,0x2072a8(%rip)        # 21204b <s+0xb>
    ada3:	c6 05 b4 72 20 00 5e 	movb   $0x5e,0x2072b4(%rip)        # 21205e <s+0x1e>
    adaa:	c6 05 91 72 20 00 47 	movb   $0x47,0x207291(%rip)        # 212042 <s+0x2>
    adb1:	c6 05 9d 72 20 00 3e 	movb   $0x3e,0x20729d(%rip)        # 212055 <s+0x15>
    adb8:	c6 05 97 72 20 00 75 	movb   $0x75,0x207297(%rip)        # 212056 <s+0x16>
    adbf:	c6 05 9a 72 20 00 4f 	movb   $0x4f,0x20729a(%rip)        # 212060 <s+0x20>
    adc6:	c6 05 73 72 20 00 2e 	movb   $0x2e,0x207273(%rip)        # 212040 <s>
    adcd:	c6 05 90 72 20 00 30 	movb   $0x30,0x207290(%rip)        # 212064 <s+0x24>
    add4:	c6 05 7f 72 20 00 31 	movb   $0x31,0x20727f(%rip)        # 21205a <s+0x1a>
    addb:	c6 05 80 72 20 00 49 	movb   $0x49,0x207280(%rip)        # 212062 <s+0x22>
    ade2:	c6 05 60 72 20 00 34 	movb   $0x34,0x207260(%rip)        # 212049 <s+0x9>
    ade9:	c6 05 6f 72 20 00 31 	movb   $0x31,0x20726f(%rip)        # 21205f <s+0x1f>
    adf0:	c6 05 56 72 20 00 7b 	movb   $0x7b,0x207256(%rip)        # 21204d <s+0xd>
    adf7:	c6 05 57 72 20 00 55 	movb   $0x55,0x207257(%rip)        # 212055 <s+0x15>
    adfe:	c6 05 56 72 20 00 70 	movb   $0x70,0x207256(%rip)        # 21205b <s+0x1b>
    ae05:	c6 05 4a 72 20 00 5b 	movb   $0x5b,0x20724a(%rip)        # 212056 <s+0x16>
    ae0c:	c6 05 50 72 20 00 65 	movb   $0x65,0x207250(%rip)        # 212063 <s+0x23>
    ae13:	c6 05 33 72 20 00 69 	movb   $0x69,0x207233(%rip)        # 21204d <s+0xd>
    ae1a:	c6 05 2c 72 20 00 48 	movb   $0x48,0x20722c(%rip)        # 21204d <s+0xd>
    ae21:	c6 05 1c 72 20 00 4c 	movb   $0x4c,0x20721c(%rip)        # 212044 <s+0x4>
    ae28:	c6 05 29 72 20 00 6f 	movb   $0x6f,0x207229(%rip)        # 212058 <s+0x18>
    ae2f:	c6 05 11 72 20 00 52 	movb   $0x52,0x207211(%rip)        # 212047 <s+0x7>
    ae36:	c6 05 28 72 20 00 2e 	movb   $0x2e,0x207228(%rip)        # 212065 <s+0x25>
    ae3d:	c6 05 01 72 20 00 43 	movb   $0x43,0x207201(%rip)        # 212045 <s+0x5>
    ae44:	c6 05 08 72 20 00 29 	movb   $0x29,0x207208(%rip)        # 212053 <s+0x13>
    ae4b:	c6 05 f0 71 20 00 54 	movb   $0x54,0x2071f0(%rip)        # 212042 <s+0x2>
    ae52:	c6 05 02 72 20 00 5b 	movb   $0x5b,0x207202(%rip)        # 21205b <s+0x1b>
    ae59:	c6 05 fa 71 20 00 48 	movb   $0x48,0x2071fa(%rip)        # 21205a <s+0x1a>
    ae60:	c6 05 ff 71 20 00 43 	movb   $0x43,0x2071ff(%rip)        # 212066 <s+0x26>
    ae67:	c6 05 f2 71 20 00 5e 	movb   $0x5e,0x2071f2(%rip)        # 212060 <s+0x20>
    ae6e:	c6 05 d1 71 20 00 36 	movb   $0x36,0x2071d1(%rip)        # 212046 <s+0x6>
    ae75:	c6 05 dd 71 20 00 2b 	movb   $0x2b,0x2071dd(%rip)        # 212059 <s+0x19>
    ae7c:	c6 05 de 71 20 00 3c 	movb   $0x3c,0x2071de(%rip)        # 212061 <s+0x21>
    ae83:	c6 05 cb 71 20 00 2c 	movb   $0x2c,0x2071cb(%rip)        # 212055 <s+0x15>
    ae8a:	c6 05 b2 71 20 00 66 	movb   $0x66,0x2071b2(%rip)        # 212043 <s+0x3>
    ae91:	c6 05 b8 71 20 00 7a 	movb   $0x7a,0x2071b8(%rip)        # 212050 <s+0x10>
    ae98:	c6 05 a5 71 20 00 4f 	movb   $0x4f,0x2071a5(%rip)        # 212044 <s+0x4>
    ae9f:	c6 05 b2 71 20 00 38 	movb   $0x38,0x2071b2(%rip)        # 212058 <s+0x18>
    aea6:	c6 05 a2 71 20 00 56 	movb   $0x56,0x2071a2(%rip)        # 21204f <s+0xf>
    aead:	c6 05 ac 71 20 00 57 	movb   $0x57,0x2071ac(%rip)        # 212060 <s+0x20>
    aeb4:	c6 05 92 71 20 00 20 	movb   $0x20,0x207192(%rip)        # 21204d <s+0xd>
    aebb:	c6 05 83 71 20 00 76 	movb   $0x76,0x207183(%rip)        # 212045 <s+0x5>
    aec2:	c6 05 86 71 20 00 3c 	movb   $0x3c,0x207186(%rip)        # 21204f <s+0xf>
    aec9:	c6 05 7a 71 20 00 6e 	movb   $0x6e,0x20717a(%rip)        # 21204a <s+0xa>
    aed0:	c6 05 8c 71 20 00 28 	movb   $0x28,0x20718c(%rip)        # 212063 <s+0x23>
    aed7:	c6 05 85 71 20 00 6d 	movb   $0x6d,0x207185(%rip)        # 212063 <s+0x23>
    aede:	c6 05 82 71 20 00 6a 	movb   $0x6a,0x207182(%rip)        # 212067 <s+0x27>
    aee5:	c6 05 72 71 20 00 34 	movb   $0x34,0x207172(%rip)        # 21205e <s+0x1e>
    aeec:	c6 05 6b 71 20 00 48 	movb   $0x48,0x20716b(%rip)        # 21205e <s+0x1e>
    aef3:	c6 05 6d 71 20 00 5e 	movb   $0x5e,0x20716d(%rip)        # 212067 <s+0x27>
    aefa:	c6 05 5d 71 20 00 31 	movb   $0x31,0x20715d(%rip)        # 21205e <s+0x1e>
    af01:	c6 05 51 71 20 00 64 	movb   $0x64,0x207151(%rip)        # 212059 <s+0x19>
    af08:	c6 05 42 71 20 00 57 	movb   $0x57,0x207142(%rip)        # 212051 <s+0x11>
    af0f:	c6 05 43 71 20 00 67 	movb   $0x67,0x207143(%rip)        # 212059 <s+0x19>
    af16:	c6 05 2f 71 20 00 2c 	movb   $0x2c,0x20712f(%rip)        # 21204c <s+0xc>
    af1d:	c6 05 2c 71 20 00 49 	movb   $0x49,0x20712c(%rip)        # 212050 <s+0x10>
    af24:	c6 05 1a 71 20 00 69 	movb   $0x69,0x20711a(%rip)        # 212045 <s+0x5>
    af2b:	c6 05 31 71 20 00 6e 	movb   $0x6e,0x207131(%rip)        # 212063 <s+0x23>
    af32:	c6 05 13 71 20 00 43 	movb   $0x43,0x207113(%rip)        # 21204c <s+0xc>
    af39:	c6 05 27 71 20 00 61 	movb   $0x61,0x207127(%rip)        # 212067 <s+0x27>
    af40:	c6 05 fd 70 20 00 76 	movb   $0x76,0x2070fd(%rip)        # 212044 <s+0x4>
    af47:	c6 05 f7 70 20 00 22 	movb   $0x22,0x2070f7(%rip)        # 212045 <s+0x5>
    af4e:	c6 05 03 71 20 00 6b 	movb   $0x6b,0x207103(%rip)        # 212058 <s+0x18>
    af55:	c6 05 e9 70 20 00 34 	movb   $0x34,0x2070e9(%rip)        # 212045 <s+0x5>
    af5c:	c6 05 f4 70 20 00 65 	movb   $0x65,0x2070f4(%rip)        # 212057 <s+0x17>
    af63:	c6 05 f4 70 20 00 55 	movb   $0x55,0x2070f4(%rip)        # 21205e <s+0x1e>
    af6a:	c6 05 e1 70 20 00 73 	movb   $0x73,0x2070e1(%rip)        # 212052 <s+0x12>
    af71:	c6 05 d1 70 20 00 79 	movb   $0x79,0x2070d1(%rip)        # 212049 <s+0x9>
    af78:	c6 05 cd 70 20 00 3e 	movb   $0x3e,0x2070cd(%rip)        # 21204c <s+0xc>
    af7f:	c6 05 d6 70 20 00 44 	movb   $0x44,0x2070d6(%rip)        # 21205c <s+0x1c>
    af86:	c6 05 ba 70 20 00 6d 	movb   $0x6d,0x2070ba(%rip)        # 212047 <s+0x7>
    af8d:	c6 05 d3 70 20 00 75 	movb   $0x75,0x2070d3(%rip)        # 212067 <s+0x27>
    af94:	c6 05 b6 70 20 00 59 	movb   $0x59,0x2070b6(%rip)        # 212051 <s+0x11>
    af9b:	c6 05 b4 70 20 00 2c 	movb   $0x2c,0x2070b4(%rip)        # 212056 <s+0x16>
    afa2:	c6 05 a3 70 20 00 39 	movb   $0x39,0x2070a3(%rip)        # 21204c <s+0xc>
    afa9:	c6 05 9d 70 20 00 3f 	movb   $0x3f,0x20709d(%rip)        # 21204d <s+0xd>
    afb0:	c6 05 95 70 20 00 46 	movb   $0x46,0x207095(%rip)        # 21204c <s+0xc>
    afb7:	c6 05 a6 70 20 00 6a 	movb   $0x6a,0x2070a6(%rip)        # 212064 <s+0x24>
    afbe:	c6 05 7f 70 20 00 4b 	movb   $0x4b,0x20707f(%rip)        # 212044 <s+0x4>
    afc5:	c6 05 7d 70 20 00 6d 	movb   $0x6d,0x20707d(%rip)        # 212049 <s+0x9>
    afcc:	c6 05 76 70 20 00 57 	movb   $0x57,0x207076(%rip)        # 212049 <s+0x9>
    afd3:	c6 05 7d 70 20 00 73 	movb   $0x73,0x20707d(%rip)        # 212057 <s+0x17>
    afda:	c6 05 7c 70 20 00 43 	movb   $0x43,0x20707c(%rip)        # 21205d <s+0x1d>
    afe1:	c6 05 6f 70 20 00 61 	movb   $0x61,0x20706f(%rip)        # 212057 <s+0x17>
    afe8:	c6 05 5d 70 20 00 6e 	movb   $0x6e,0x20705d(%rip)        # 21204c <s+0xc>
    afef:	c6 05 6c 70 20 00 53 	movb   $0x53,0x20706c(%rip)        # 212062 <s+0x22>
    aff6:	c6 05 49 70 20 00 37 	movb   $0x37,0x207049(%rip)        # 212046 <s+0x6>
    affd:	c6 05 47 70 20 00 32 	movb   $0x32,0x207047(%rip)        # 21204b <s+0xb>
    b004:	c6 05 50 70 20 00 56 	movb   $0x56,0x207050(%rip)        # 21205b <s+0x1b>
    b00b:	c6 05 55 70 20 00 4d 	movb   $0x4d,0x207055(%rip)        # 212067 <s+0x27>
    b012:	c6 05 30 70 20 00 7a 	movb   $0x7a,0x207030(%rip)        # 212049 <s+0x9>
    b019:	c6 05 22 70 20 00 6a 	movb   $0x6a,0x207022(%rip)        # 212042 <s+0x2>
    b020:	c6 05 31 70 20 00 4d 	movb   $0x4d,0x207031(%rip)        # 212058 <s+0x18>
    b027:	c6 05 33 70 20 00 23 	movb   $0x23,0x207033(%rip)        # 212061 <s+0x21>
    b02e:	c6 05 26 70 20 00 55 	movb   $0x55,0x207026(%rip)        # 21205b <s+0x1b>
    b035:	c6 05 14 70 20 00 24 	movb   $0x24,0x207014(%rip)        # 212050 <s+0x10>
    b03c:	c6 05 ff 6f 20 00 73 	movb   $0x73,0x206fff(%rip)        # 212042 <s+0x2>
    b043:	c6 05 1a 70 20 00 3d 	movb   $0x3d,0x20701a(%rip)        # 212064 <s+0x24>
    b04a:	c6 05 0d 70 20 00 7e 	movb   $0x7e,0x20700d(%rip)        # 21205e <s+0x1e>
    b051:	c6 05 07 70 20 00 75 	movb   $0x75,0x207007(%rip)        # 21205f <s+0x1f>
    b058:	c6 05 f7 6f 20 00 75 	movb   $0x75,0x206ff7(%rip)        # 212056 <s+0x16>
    b05f:	c6 05 df 6f 20 00 7b 	movb   $0x7b,0x206fdf(%rip)        # 212045 <s+0x5>
    b066:	c6 05 e2 6f 20 00 49 	movb   $0x49,0x206fe2(%rip)        # 21204f <s+0xf>
    b06d:	c6 05 dd 6f 20 00 61 	movb   $0x61,0x206fdd(%rip)        # 212051 <s+0x11>
    b074:	c6 05 e2 6f 20 00 69 	movb   $0x69,0x206fe2(%rip)        # 21205d <s+0x1d>
    b07b:	c6 05 d5 6f 20 00 57 	movb   $0x57,0x206fd5(%rip)        # 212057 <s+0x17>
    b082:	c6 05 be 6f 20 00 50 	movb   $0x50,0x206fbe(%rip)        # 212047 <s+0x7>
    b089:	c6 05 b0 6f 20 00 23 	movb   $0x23,0x206fb0(%rip)        # 212040 <s>
    b090:	c6 05 bd 6f 20 00 7a 	movb   $0x7a,0x206fbd(%rip)        # 212054 <s+0x14>
    b097:	c6 05 c7 6f 20 00 23 	movb   $0x23,0x206fc7(%rip)        # 212065 <s+0x25>
    b09e:	c6 05 a3 6f 20 00 2b 	movb   $0x2b,0x206fa3(%rip)        # 212048 <s+0x8>
    b0a5:	c6 05 a1 6f 20 00 20 	movb   $0x20,0x206fa1(%rip)        # 21204d <s+0xd>
    b0ac:	c6 05 a0 6f 20 00 44 	movb   $0x44,0x206fa0(%rip)        # 212053 <s+0x13>
    b0b3:	c6 05 9c 6f 20 00 2b 	movb   $0x2b,0x206f9c(%rip)        # 212056 <s+0x16>
    b0ba:	c6 05 8f 6f 20 00 43 	movb   $0x43,0x206f8f(%rip)        # 212050 <s+0x10>
    b0c1:	c6 05 8b 6f 20 00 31 	movb   $0x31,0x206f8b(%rip)        # 212053 <s+0x13>
    b0c8:	c6 05 8e 6f 20 00 26 	movb   $0x26,0x206f8e(%rip)        # 21205d <s+0x1d>
    b0cf:	c6 05 80 6f 20 00 21 	movb   $0x21,0x206f80(%rip)        # 212056 <s+0x16>
    b0d6:	c6 05 80 6f 20 00 64 	movb   $0x64,0x206f80(%rip)        # 21205d <s+0x1d>
    b0dd:	c6 05 82 6f 20 00 7c 	movb   $0x7c,0x206f82(%rip)        # 212066 <s+0x26>
    b0e4:	c6 05 67 6f 20 00 7c 	movb   $0x7c,0x206f67(%rip)        # 212052 <s+0x12>
    b0eb:	c6 05 65 6f 20 00 7e 	movb   $0x7e,0x206f65(%rip)        # 212057 <s+0x17>
    b0f2:	c6 05 63 6f 20 00 47 	movb   $0x47,0x206f63(%rip)        # 21205c <s+0x1c>
    b0f9:	c6 05 46 6f 20 00 61 	movb   $0x61,0x206f46(%rip)        # 212046 <s+0x6>
    b100:	c6 05 50 6f 20 00 3f 	movb   $0x3f,0x206f50(%rip)        # 212057 <s+0x17>
    b107:	c6 05 40 6f 20 00 49 	movb   $0x49,0x206f40(%rip)        # 21204e <s+0xe>
    b10e:	c6 05 4e 6f 20 00 77 	movb   $0x77,0x206f4e(%rip)        # 212063 <s+0x23>
    b115:	c6 05 38 6f 20 00 4a 	movb   $0x4a,0x206f38(%rip)        # 212054 <s+0x14>
    b11c:	c6 05 2f 6f 20 00 67 	movb   $0x67,0x206f2f(%rip)        # 212052 <s+0x12>
    b123:	c6 05 3c 6f 20 00 62 	movb   $0x62,0x206f3c(%rip)        # 212066 <s+0x26>
    b12a:	c6 05 29 6f 20 00 36 	movb   $0x36,0x206f29(%rip)        # 21205a <s+0x1a>
    b131:	c6 05 0d 6f 20 00 64 	movb   $0x64,0x206f0d(%rip)        # 212045 <s+0x5>
    b138:	c6 05 28 6f 20 00 39 	movb   $0x39,0x206f28(%rip)        # 212067 <s+0x27>
    b13f:	c6 05 14 6f 20 00 6f 	movb   $0x6f,0x206f14(%rip)        # 21205a <s+0x1a>
    b146:	c6 05 f3 6e 20 00 4a 	movb   $0x4a,0x206ef3(%rip)        # 212040 <s>
    b14d:	c6 05 11 6f 20 00 2b 	movb   $0x2b,0x206f11(%rip)        # 212065 <s+0x25>
    b154:	c6 05 ed 6e 20 00 72 	movb   $0x72,0x206eed(%rip)        # 212048 <s+0x8>
    b15b:	c6 05 f8 6e 20 00 6e 	movb   $0x6e,0x206ef8(%rip)        # 21205a <s+0x1a>
    b162:	c6 05 da 6e 20 00 42 	movb   $0x42,0x206eda(%rip)        # 212043 <s+0x3>
    b169:	c6 05 d7 6e 20 00 58 	movb   $0x58,0x206ed7(%rip)        # 212047 <s+0x7>
    b170:	c6 05 d4 6e 20 00 41 	movb   $0x41,0x206ed4(%rip)        # 21204b <s+0xb>
    b177:	c6 05 c4 6e 20 00 22 	movb   $0x22,0x206ec4(%rip)        # 212042 <s+0x2>
    b17e:	c6 05 cd 6e 20 00 79 	movb   $0x79,0x206ecd(%rip)        # 212052 <s+0x12>
    b185:	c6 05 c5 6e 20 00 65 	movb   $0x65,0x206ec5(%rip)        # 212051 <s+0x11>
    b18c:	c6 05 c4 6e 20 00 55 	movb   $0x55,0x206ec4(%rip)        # 212057 <s+0x17>
    b193:	c6 05 bc 6e 20 00 6a 	movb   $0x6a,0x206ebc(%rip)        # 212056 <s+0x16>
    b19a:	c6 05 ab 6e 20 00 31 	movb   $0x31,0x206eab(%rip)        # 21204c <s+0xc>
    b1a1:	c6 05 ac 6e 20 00 24 	movb   $0x24,0x206eac(%rip)        # 212054 <s+0x14>
    b1a8:	c6 05 b3 6e 20 00 58 	movb   $0x58,0x206eb3(%rip)        # 212062 <s+0x22>
    b1af:	c6 05 8b 6e 20 00 21 	movb   $0x21,0x206e8b(%rip)        # 212041 <s+0x1>
    b1b6:	c6 05 83 6e 20 00 3b 	movb   $0x3b,0x206e83(%rip)        # 212040 <s>
    b1bd:	c6 05 a2 6e 20 00 70 	movb   $0x70,0x206ea2(%rip)        # 212066 <s+0x26>
    b1c4:	c6 05 81 6e 20 00 7e 	movb   $0x7e,0x206e81(%rip)        # 21204c <s+0xc>
    b1cb:	c6 05 8c 6e 20 00 33 	movb   $0x33,0x206e8c(%rip)        # 21205e <s+0x1e>
    b1d2:	c6 05 6d 6e 20 00 3b 	movb   $0x3b,0x206e6d(%rip)        # 212046 <s+0x6>
    b1d9:	c6 05 70 6e 20 00 4a 	movb   $0x4a,0x206e70(%rip)        # 212050 <s+0x10>
    b1e0:	c6 05 70 6e 20 00 20 	movb   $0x20,0x206e70(%rip)        # 212057 <s+0x17>
    b1e7:	c6 05 5c 6e 20 00 52 	movb   $0x52,0x206e5c(%rip)        # 21204a <s+0xa>
    b1ee:	c6 05 5c 6e 20 00 2e 	movb   $0x2e,0x206e5c(%rip)        # 212051 <s+0x11>
    b1f5:	c6 05 5a 6e 20 00 4a 	movb   $0x4a,0x206e5a(%rip)        # 212056 <s+0x16>
    b1fc:	c6 05 40 6e 20 00 37 	movb   $0x37,0x206e40(%rip)        # 212043 <s+0x3>
    b203:	c6 05 59 6e 20 00 31 	movb   $0x31,0x206e59(%rip)        # 212063 <s+0x23>
    b20a:	c6 05 35 6e 20 00 62 	movb   $0x62,0x206e35(%rip)        # 212046 <s+0x6>
    b211:	c6 05 42 6e 20 00 48 	movb   $0x48,0x206e42(%rip)        # 21205a <s+0x1a>
    b218:	c6 05 36 6e 20 00 56 	movb   $0x56,0x206e36(%rip)        # 212055 <s+0x15>
    b21f:	c6 05 1b 6e 20 00 33 	movb   $0x33,0x206e1b(%rip)        # 212041 <s+0x1>
    b226:	c6 05 2c 6e 20 00 62 	movb   $0x62,0x206e2c(%rip)        # 212059 <s+0x19>
    b22d:	c6 05 23 6e 20 00 6f 	movb   $0x6f,0x206e23(%rip)        # 212057 <s+0x17>
    b234:	c6 05 0a 6e 20 00 4f 	movb   $0x4f,0x206e0a(%rip)        # 212045 <s+0x5>
    b23b:	c6 05 06 6e 20 00 23 	movb   $0x23,0x206e06(%rip)        # 212048 <s+0x8>
    b242:	c6 05 06 6e 20 00 7e 	movb   $0x7e,0x206e06(%rip)        # 21204f <s+0xf>
    b249:	c6 05 12 6e 20 00 72 	movb   $0x72,0x206e12(%rip)        # 212062 <s+0x22>
    b250:	c6 05 09 6e 20 00 32 	movb   $0x32,0x206e09(%rip)        # 212060 <s+0x20>
    b257:	c6 05 e2 6d 20 00 61 	movb   $0x61,0x206de2(%rip)        # 212040 <s>
    b25e:	c6 05 f7 6d 20 00 4b 	movb   $0x4b,0x206df7(%rip)        # 21205c <s+0x1c>
    b265:	c6 05 e4 6d 20 00 35 	movb   $0x35,0x206de4(%rip)        # 212050 <s+0x10>
    b26c:	c6 05 da 6d 20 00 58 	movb   $0x58,0x206dda(%rip)        # 21204d <s+0xd>
    b273:	c6 05 c6 6d 20 00 52 	movb   $0x52,0x206dc6(%rip)        # 212040 <s>
    b27a:	c6 05 e0 6d 20 00 3c 	movb   $0x3c,0x206de0(%rip)        # 212061 <s+0x21>
    b281:	c6 05 c2 6d 20 00 26 	movb   $0x26,0x206dc2(%rip)        # 21204a <s+0xa>
    b288:	c6 05 b4 6d 20 00 2e 	movb   $0x2e,0x206db4(%rip)        # 212043 <s+0x3>
    b28f:	c6 05 c7 6d 20 00 69 	movb   $0x69,0x206dc7(%rip)        # 21205d <s+0x1d>
    b296:	c6 05 bb 6d 20 00 49 	movb   $0x49,0x206dbb(%rip)        # 212058 <s+0x18>
    b29d:	c6 05 b5 6d 20 00 23 	movb   $0x23,0x206db5(%rip)        # 212059 <s+0x19>
    b2a4:	c6 05 b6 6d 20 00 6a 	movb   $0x6a,0x206db6(%rip)        # 212061 <s+0x21>
    b2ab:	c6 05 97 6d 20 00 65 	movb   $0x65,0x206d97(%rip)        # 212049 <s+0x9>
    b2b2:	c6 05 ac 6d 20 00 32 	movb   $0x32,0x206dac(%rip)        # 212065 <s+0x25>
    b2b9:	c6 05 95 6d 20 00 67 	movb   $0x67,0x206d95(%rip)        # 212055 <s+0x15>
    b2c0:	c6 05 81 6d 20 00 4f 	movb   $0x4f,0x206d81(%rip)        # 212048 <s+0x8>
    b2c7:	c6 05 7c 6d 20 00 58 	movb   $0x58,0x206d7c(%rip)        # 21204a <s+0xa>
    b2ce:	c6 05 72 6d 20 00 52 	movb   $0x52,0x206d72(%rip)        # 212047 <s+0x7>
    b2d5:	c6 05 6f 6d 20 00 41 	movb   $0x41,0x206d6f(%rip)        # 21204b <s+0xb>
    b2dc:	c6 05 69 6d 20 00 55 	movb   $0x55,0x206d69(%rip)        # 21204c <s+0xc>
    b2e3:	c6 05 78 6d 20 00 30 	movb   $0x30,0x206d78(%rip)        # 212062 <s+0x22>
    b2ea:	c6 05 5e 6d 20 00 31 	movb   $0x31,0x206d5e(%rip)        # 21204f <s+0xf>
    b2f1:	c6 05 54 6d 20 00 59 	movb   $0x59,0x206d54(%rip)        # 21204c <s+0xc>
    b2f8:	c6 05 47 6d 20 00 38 	movb   $0x38,0x206d47(%rip)        # 212046 <s+0x6>
    b2ff:	c6 05 40 6d 20 00 79 	movb   $0x79,0x206d40(%rip)        # 212046 <s+0x6>
    b306:	c6 05 5a 6d 20 00 33 	movb   $0x33,0x206d5a(%rip)        # 212067 <s+0x27>
    b30d:	c6 05 40 6d 20 00 61 	movb   $0x61,0x206d40(%rip)        # 212054 <s+0x14>
    b314:	c6 05 2a 6d 20 00 57 	movb   $0x57,0x206d2a(%rip)        # 212045 <s+0x5>
    b31b:	c6 05 32 6d 20 00 49 	movb   $0x49,0x206d32(%rip)        # 212054 <s+0x14>
    b322:	c6 05 34 6d 20 00 5b 	movb   $0x5b,0x206d34(%rip)        # 21205d <s+0x1d>
    b329:	c6 05 2e 6d 20 00 2c 	movb   $0x2c,0x206d2e(%rip)        # 21205e <s+0x1e>
    b330:	c6 05 22 6d 20 00 73 	movb   $0x73,0x206d22(%rip)        # 212059 <s+0x19>
    b337:	c6 05 15 6d 20 00 55 	movb   $0x55,0x206d15(%rip)        # 212053 <s+0x13>
    b33e:	c6 05 17 6d 20 00 59 	movb   $0x59,0x206d17(%rip)        # 21205c <s+0x1c>
    b345:	c6 05 0a 6d 20 00 6d 	movb   $0x6d,0x206d0a(%rip)        # 212056 <s+0x16>
    b34c:	c6 05 10 6d 20 00 61 	movb   $0x61,0x206d10(%rip)        # 212063 <s+0x23>
    b353:	c6 05 09 6d 20 00 4d 	movb   $0x4d,0x206d09(%rip)        # 212063 <s+0x23>
    b35a:	c6 05 ed 6c 20 00 34 	movb   $0x34,0x206ced(%rip)        # 21204e <s+0xe>
    b361:	c6 05 ef 6c 20 00 4d 	movb   $0x4d,0x206cef(%rip)        # 212057 <s+0x17>
    b368:	c6 05 de 6c 20 00 61 	movb   $0x61,0x206cde(%rip)        # 21204d <s+0xd>
    b36f:	c6 05 d8 6c 20 00 6b 	movb   $0x6b,0x206cd8(%rip)        # 21204e <s+0xe>
    b376:	c6 05 e4 6c 20 00 31 	movb   $0x31,0x206ce4(%rip)        # 212061 <s+0x21>
    b37d:	c6 05 bc 6c 20 00 25 	movb   $0x25,0x206cbc(%rip)        # 212040 <s>
    b384:	c6 05 d2 6c 20 00 50 	movb   $0x50,0x206cd2(%rip)        # 21205d <s+0x1d>
    b38b:	c6 05 d1 6c 20 00 42 	movb   $0x42,0x206cd1(%rip)        # 212063 <s+0x23>
    b392:	c6 05 ba 6c 20 00 4b 	movb   $0x4b,0x206cba(%rip)        # 212053 <s+0x13>
    b399:	c6 05 a3 6c 20 00 63 	movb   $0x63,0x206ca3(%rip)        # 212043 <s+0x3>
    b3a0:	c6 05 a5 6c 20 00 70 	movb   $0x70,0x206ca5(%rip)        # 21204c <s+0xc>
    b3a7:	c6 05 9f 6c 20 00 77 	movb   $0x77,0x206c9f(%rip)        # 21204d <s+0xd>
    b3ae:	c6 05 a5 6c 20 00 67 	movb   $0x67,0x206ca5(%rip)        # 21205a <s+0x1a>
    b3b5:	c6 05 a8 6c 20 00 49 	movb   $0x49,0x206ca8(%rip)        # 212064 <s+0x24>
    b3bc:	c6 05 95 6c 20 00 52 	movb   $0x52,0x206c95(%rip)        # 212058 <s+0x18>
    b3c3:	c6 05 9c 6c 20 00 41 	movb   $0x41,0x206c9c(%rip)        # 212066 <s+0x26>
    b3ca:	c6 05 8d 6c 20 00 22 	movb   $0x22,0x206c8d(%rip)        # 21205e <s+0x1e>
    b3d1:	c6 05 83 6c 20 00 5b 	movb   $0x5b,0x206c83(%rip)        # 21205b <s+0x1b>
    b3d8:	c6 05 7b 6c 20 00 3b 	movb   $0x3b,0x206c7b(%rip)        # 21205a <s+0x1a>
    b3df:	c6 05 6a 6c 20 00 35 	movb   $0x35,0x206c6a(%rip)        # 212050 <s+0x10>
    b3e6:	c6 05 68 6c 20 00 67 	movb   $0x67,0x206c68(%rip)        # 212055 <s+0x15>
    b3ed:	c6 05 4e 6c 20 00 33 	movb   $0x33,0x206c4e(%rip)        # 212042 <s+0x2>
    b3f4:	c6 05 67 6c 20 00 5e 	movb   $0x5e,0x206c67(%rip)        # 212062 <s+0x22>
    b3fb:	c6 05 56 6c 20 00 71 	movb   $0x71,0x206c56(%rip)        # 212058 <s+0x18>
    b402:	c6 05 4e 6c 20 00 76 	movb   $0x76,0x206c4e(%rip)        # 212057 <s+0x17>
    b409:	c6 05 48 6c 20 00 6d 	movb   $0x6d,0x206c48(%rip)        # 212058 <s+0x18>
    b410:	c6 05 43 6c 20 00 64 	movb   $0x64,0x206c43(%rip)        # 21205a <s+0x1a>
    b417:	c6 05 3a 6c 20 00 55 	movb   $0x55,0x206c3a(%rip)        # 212058 <s+0x18>
    b41e:	c6 05 29 6c 20 00 3b 	movb   $0x3b,0x206c29(%rip)        # 21204e <s+0xe>
    b425:	c6 05 23 6c 20 00 2b 	movb   $0x2b,0x206c23(%rip)        # 21204f <s+0xf>
    b42c:	c6 05 1f 6c 20 00 60 	movb   $0x60,0x206c1f(%rip)        # 212052 <s+0x12>
    b433:	c6 05 1c 6c 20 00 6a 	movb   $0x6a,0x206c1c(%rip)        # 212056 <s+0x16>
    b43a:	c6 05 25 6c 20 00 40 	movb   $0x40,0x206c25(%rip)        # 212066 <s+0x26>
    b441:	c6 05 17 6c 20 00 44 	movb   $0x44,0x206c17(%rip)        # 21205f <s+0x1f>
    b448:	c6 05 13 6c 20 00 71 	movb   $0x71,0x206c13(%rip)        # 212062 <s+0x22>
    b44f:	c6 05 0d 6c 20 00 2e 	movb   $0x2e,0x206c0d(%rip)        # 212063 <s+0x23>
    b456:	c6 05 ee 6b 20 00 4b 	movb   $0x4b,0x206bee(%rip)        # 21204b <s+0xb>
    b45d:	c6 05 f6 6b 20 00 77 	movb   $0x77,0x206bf6(%rip)        # 21205a <s+0x1a>
    b464:	c6 05 de 6b 20 00 75 	movb   $0x75,0x206bde(%rip)        # 212049 <s+0x9>
    b46b:	c6 05 e5 6b 20 00 42 	movb   $0x42,0x206be5(%rip)        # 212057 <s+0x17>
    b472:	c6 05 cb 6b 20 00 7a 	movb   $0x7a,0x206bcb(%rip)        # 212044 <s+0x4>
    b479:	c6 05 df 6b 20 00 43 	movb   $0x43,0x206bdf(%rip)        # 21205f <s+0x1f>
    b480:	c6 05 c1 6b 20 00 38 	movb   $0x38,0x206bc1(%rip)        # 212048 <s+0x8>
    b487:	c6 05 d7 6b 20 00 45 	movb   $0x45,0x206bd7(%rip)        # 212065 <s+0x25>
    b48e:	c6 05 b2 6b 20 00 7e 	movb   $0x7e,0x206bb2(%rip)        # 212047 <s+0x7>
    b495:	c6 05 a6 6b 20 00 2d 	movb   $0x2d,0x206ba6(%rip)        # 212042 <s+0x2>
    b49c:	c6 05 c4 6b 20 00 60 	movb   $0x60,0x206bc4(%rip)        # 212067 <s+0x27>
    b4a3:	c6 05 bc 6b 20 00 57 	movb   $0x57,0x206bbc(%rip)        # 212066 <s+0x26>
    b4aa:	c6 05 ac 6b 20 00 64 	movb   $0x64,0x206bac(%rip)        # 21205d <s+0x1d>
    b4b1:	c6 05 92 6b 20 00 28 	movb   $0x28,0x206b92(%rip)        # 21204a <s+0xa>
    b4b8:	c6 05 95 6b 20 00 4d 	movb   $0x4d,0x206b95(%rip)        # 212054 <s+0x14>
    b4bf:	c6 05 99 6b 20 00 2e 	movb   $0x2e,0x206b99(%rip)        # 21205f <s+0x1f>
    b4c6:	c6 05 91 6b 20 00 46 	movb   $0x46,0x206b91(%rip)        # 21205e <s+0x1e>
    b4cd:	c6 05 8e 6b 20 00 33 	movb   $0x33,0x206b8e(%rip)        # 212062 <s+0x22>
    b4d4:	c6 05 85 6b 20 00 78 	movb   $0x78,0x206b85(%rip)        # 212060 <s+0x20>
    b4db:	c6 05 62 6b 20 00 79 	movb   $0x79,0x206b62(%rip)        # 212044 <s+0x4>
    b4e2:	c6 05 6d 6b 20 00 65 	movb   $0x65,0x206b6d(%rip)        # 212056 <s+0x16>
    b4e9:	c6 05 5b 6b 20 00 4f 	movb   $0x4f,0x206b5b(%rip)        # 21204b <s+0xb>
    b4f0:	c6 05 5f 6b 20 00 62 	movb   $0x62,0x206b5f(%rip)        # 212056 <s+0x16>
    b4f7:	c6 05 46 6b 20 00 2a 	movb   $0x2a,0x206b46(%rip)        # 212044 <s+0x4>
    b4fe:	c6 05 4a 6b 20 00 66 	movb   $0x66,0x206b4a(%rip)        # 21204f <s+0xf>
    b505:	c6 05 57 6b 20 00 59 	movb   $0x59,0x206b57(%rip)        # 212063 <s+0x23>
    b50c:	c6 05 3e 6b 20 00 60 	movb   $0x60,0x206b3e(%rip)        # 212051 <s+0x11>
    b513:	c6 05 47 6b 20 00 5d 	movb   $0x5d,0x206b47(%rip)        # 212061 <s+0x21>
    b51a:	c6 05 26 6b 20 00 3e 	movb   $0x3e,0x206b26(%rip)        # 212047 <s+0x7>
    b521:	c6 05 30 6b 20 00 75 	movb   $0x75,0x206b30(%rip)        # 212058 <s+0x18>
    b528:	c6 05 1e 6b 20 00 7e 	movb   $0x7e,0x206b1e(%rip)        # 21204d <s+0xd>
    b52f:	c6 05 2d 6b 20 00 77 	movb   $0x77,0x206b2d(%rip)        # 212063 <s+0x23>
    b536:	c6 05 21 6b 20 00 29 	movb   $0x29,0x206b21(%rip)        # 21205e <s+0x1e>
    b53d:	c6 05 1c 6b 20 00 50 	movb   $0x50,0x206b1c(%rip)        # 212060 <s+0x20>
    b544:	c6 05 1c 6b 20 00 3d 	movb   $0x3d,0x206b1c(%rip)        # 212067 <s+0x27>
    b54b:	c6 05 f3 6a 20 00 7d 	movb   $0x7d,0x206af3(%rip)        # 212045 <s+0x5>
    b552:	c6 05 0d 6b 20 00 62 	movb   $0x62,0x206b0d(%rip)        # 212066 <s+0x26>
    b559:	c6 05 e8 6a 20 00 7e 	movb   $0x7e,0x206ae8(%rip)        # 212048 <s+0x8>
    b560:	c6 05 f1 6a 20 00 28 	movb   $0x28,0x206af1(%rip)        # 212058 <s+0x18>
    b567:	c6 05 f9 6a 20 00 77 	movb   $0x77,0x206af9(%rip)        # 212067 <s+0x27>
    b56e:	c6 05 dd 6a 20 00 6b 	movb   $0x6b,0x206add(%rip)        # 212052 <s+0x12>
    b575:	c6 05 dd 6a 20 00 61 	movb   $0x61,0x206add(%rip)        # 212059 <s+0x19>
    b57c:	c6 05 e1 6a 20 00 59 	movb   $0x59,0x206ae1(%rip)        # 212064 <s+0x24>
    b583:	c6 05 bd 6a 20 00 60 	movb   $0x60,0x206abd(%rip)        # 212047 <s+0x7>
    b58a:	c6 05 bb 6a 20 00 6c 	movb   $0x6c,0x206abb(%rip)        # 21204c <s+0xc>
    b591:	c6 05 bd 6a 20 00 3e 	movb   $0x3e,0x206abd(%rip)        # 212055 <s+0x15>
    b598:	c6 05 bd 6a 20 00 32 	movb   $0x32,0x206abd(%rip)        # 21205c <s+0x1c>
    b59f:	c6 05 b5 6a 20 00 5b 	movb   $0x5b,0x206ab5(%rip)        # 21205b <s+0x1b>
    b5a6:	c6 05 a4 6a 20 00 54 	movb   $0x54,0x206aa4(%rip)        # 212051 <s+0x11>
    b5ad:	c6 05 b3 6a 20 00 40 	movb   $0x40,0x206ab3(%rip)        # 212067 <s+0x27>
    b5b4:	c6 05 a3 6a 20 00 5a 	movb   $0x5a,0x206aa3(%rip)        # 21205e <s+0x1e>
    b5bb:	c6 05 a3 6a 20 00 7c 	movb   $0x7c,0x206aa3(%rip)        # 212065 <s+0x25>
    b5c2:	c6 05 9d 6a 20 00 48 	movb   $0x48,0x206a9d(%rip)        # 212066 <s+0x26>
    b5c9:	c6 05 81 6a 20 00 60 	movb   $0x60,0x206a81(%rip)        # 212051 <s+0x11>
    b5d0:	c6 05 7b 6a 20 00 2f 	movb   $0x2f,0x206a7b(%rip)        # 212052 <s+0x12>
    b5d7:	c6 05 68 6a 20 00 40 	movb   $0x40,0x206a68(%rip)        # 212046 <s+0x6>
    b5de:	c6 05 7a 6a 20 00 75 	movb   $0x75,0x206a7a(%rip)        # 21205f <s+0x1f>
    b5e5:	c6 05 6a 6a 20 00 7c 	movb   $0x7c,0x206a6a(%rip)        # 212056 <s+0x16>
    b5ec:	c6 05 63 6a 20 00 65 	movb   $0x65,0x206a63(%rip)        # 212056 <s+0x16>
    b5f3:	c6 05 6b 6a 20 00 7c 	movb   $0x7c,0x206a6b(%rip)        # 212065 <s+0x25>
    b5fa:	c6 05 4c 6a 20 00 55 	movb   $0x55,0x206a4c(%rip)        # 21204d <s+0xd>
    b601:	c6 05 4b 6a 20 00 7c 	movb   $0x7c,0x206a4b(%rip)        # 212053 <s+0x13>
    b608:	c6 05 54 6a 20 00 78 	movb   $0x78,0x206a54(%rip)        # 212063 <s+0x23>
    b60f:	c6 05 4d 6a 20 00 3f 	movb   $0x3f,0x206a4d(%rip)        # 212063 <s+0x23>
    b616:	c6 05 28 6a 20 00 41 	movb   $0x41,0x206a28(%rip)        # 212045 <s+0x5>
    b61d:	c6 05 1d 6a 20 00 6e 	movb   $0x6e,0x206a1d(%rip)        # 212041 <s+0x1>
    b624:	c6 05 1b 6a 20 00 6b 	movb   $0x6b,0x206a1b(%rip)        # 212046 <s+0x6>
    b62b:	c6 05 1f 6a 20 00 25 	movb   $0x25,0x206a1f(%rip)        # 212051 <s+0x11>
    b632:	c6 05 21 6a 20 00 3b 	movb   $0x3b,0x206a21(%rip)        # 21205a <s+0x1a>
    b639:	c6 05 08 6a 20 00 7e 	movb   $0x7e,0x206a08(%rip)        # 212048 <s+0x8>
    b640:	c6 05 0e 6a 20 00 6a 	movb   $0x6a,0x206a0e(%rip)        # 212055 <s+0x15>
    b647:	c6 05 15 6a 20 00 4d 	movb   $0x4d,0x206a15(%rip)        # 212063 <s+0x23>
    b64e:	c6 05 f5 69 20 00 20 	movb   $0x20,0x2069f5(%rip)        # 21204a <s+0xa>
    b655:	c6 05 f5 69 20 00 6c 	movb   $0x6c,0x2069f5(%rip)        # 212051 <s+0x11>
    b65c:	c6 05 f7 69 20 00 4f 	movb   $0x4f,0x2069f7(%rip)        # 21205a <s+0x1a>
    b663:	c6 05 ee 69 20 00 46 	movb   $0x46,0x2069ee(%rip)        # 212058 <s+0x18>
    b66a:	c6 05 d6 69 20 00 3c 	movb   $0x3c,0x2069d6(%rip)        # 212047 <s+0x7>
    b671:	c6 05 e1 69 20 00 64 	movb   $0x64,0x2069e1(%rip)        # 212059 <s+0x19>
    b678:	c6 05 cf 69 20 00 60 	movb   $0x60,0x2069cf(%rip)        # 21204e <s+0xe>
    b67f:	c6 05 d5 69 20 00 22 	movb   $0x22,0x2069d5(%rip)        # 21205b <s+0x1b>
    b686:	c6 05 ba 69 20 00 30 	movb   $0x30,0x2069ba(%rip)        # 212047 <s+0x7>
    b68d:	c6 05 c9 69 20 00 5b 	movb   $0x5b,0x2069c9(%rip)        # 21205d <s+0x1d>
    b694:	c6 05 a6 69 20 00 67 	movb   $0x67,0x2069a6(%rip)        # 212041 <s+0x1>
    b69b:	c6 05 c1 69 20 00 6d 	movb   $0x6d,0x2069c1(%rip)        # 212063 <s+0x23>
    b6a2:	c6 05 ac 69 20 00 39 	movb   $0x39,0x2069ac(%rip)        # 212055 <s+0x15>
    b6a9:	c6 05 a3 69 20 00 4d 	movb   $0x4d,0x2069a3(%rip)        # 212053 <s+0x13>
    b6b0:	c6 05 9a 69 20 00 6e 	movb   $0x6e,0x20699a(%rip)        # 212051 <s+0x11>
    b6b7:	c6 05 9d 69 20 00 69 	movb   $0x69,0x20699d(%rip)        # 21205b <s+0x1b>
    b6be:	c6 05 9d 69 20 00 58 	movb   $0x58,0x20699d(%rip)        # 212062 <s+0x22>
    b6c5:	c6 05 76 69 20 00 21 	movb   $0x21,0x206976(%rip)        # 212042 <s+0x2>
    b6cc:	c6 05 91 69 20 00 44 	movb   $0x44,0x206991(%rip)        # 212064 <s+0x24>
    b6d3:	c6 05 82 69 20 00 53 	movb   $0x53,0x206982(%rip)        # 21205c <s+0x1c>
    b6da:	c6 05 86 69 20 00 3f 	movb   $0x3f,0x206986(%rip)        # 212067 <s+0x27>
    b6e1:	c6 05 6c 69 20 00 72 	movb   $0x72,0x20696c(%rip)        # 212054 <s+0x14>
    b6e8:	c6 05 5f 69 20 00 74 	movb   $0x74,0x20695f(%rip)        # 21204e <s+0xe>
    b6ef:	c6 05 4d 69 20 00 6e 	movb   $0x6e,0x20694d(%rip)        # 212043 <s+0x3>
    b6f6:	c6 05 5c 69 20 00 47 	movb   $0x47,0x20695c(%rip)        # 212059 <s+0x19>
    b6fd:	c6 05 3f 69 20 00 2f 	movb   $0x2f,0x20693f(%rip)        # 212043 <s+0x3>
    b704:	c6 05 36 69 20 00 7e 	movb   $0x7e,0x206936(%rip)        # 212041 <s+0x1>
    b70b:	c6 05 3f 69 20 00 2d 	movb   $0x2d,0x20693f(%rip)        # 212051 <s+0x11>
    b712:	c6 05 37 69 20 00 6d 	movb   $0x6d,0x206937(%rip)        # 212050 <s+0x10>
    b719:	c6 05 2b 69 20 00 54 	movb   $0x54,0x20692b(%rip)        # 21204b <s+0xb>
    b720:	c6 05 33 69 20 00 38 	movb   $0x38,0x206933(%rip)        # 21205a <s+0x1a>
    b727:	c6 05 18 69 20 00 40 	movb   $0x40,0x206918(%rip)        # 212046 <s+0x6>
    b72e:	c6 05 1b 69 20 00 7d 	movb   $0x7d,0x20691b(%rip)        # 212050 <s+0x10>
    b735:	c6 05 0e 69 20 00 3c 	movb   $0x3c,0x20690e(%rip)        # 21204a <s+0xa>
    b73c:	c6 05 1d 69 20 00 6d 	movb   $0x6d,0x20691d(%rip)        # 212060 <s+0x20>
    b743:	c6 05 17 69 20 00 58 	movb   $0x58,0x206917(%rip)        # 212061 <s+0x21>
    b74a:	c6 05 0f 69 20 00 22 	movb   $0x22,0x20690f(%rip)        # 212060 <s+0x20>
    b751:	c6 05 ea 68 20 00 7d 	movb   $0x7d,0x2068ea(%rip)        # 212042 <s+0x2>
    b758:	c6 05 f8 68 20 00 7b 	movb   $0x7b,0x2068f8(%rip)        # 212057 <s+0x17>
    b75f:	c6 05 ed 68 20 00 7e 	movb   $0x7e,0x2068ed(%rip)        # 212053 <s+0x13>
    b766:	c6 05 ec 68 20 00 59 	movb   $0x59,0x2068ec(%rip)        # 212059 <s+0x19>
    b76d:	c6 05 e8 68 20 00 4f 	movb   $0x4f,0x2068e8(%rip)        # 21205c <s+0x1c>
    b774:	c6 05 ca 68 20 00 7e 	movb   $0x7e,0x2068ca(%rip)        # 212045 <s+0x5>
    b77b:	c6 05 c8 68 20 00 20 	movb   $0x20,0x2068c8(%rip)        # 21204a <s+0xa>
    b782:	c6 05 dc 68 20 00 28 	movb   $0x28,0x2068dc(%rip)        # 212065 <s+0x25>
    b789:	c6 05 c4 68 20 00 3b 	movb   $0x3b,0x2068c4(%rip)        # 212054 <s+0x14>
    b790:	c6 05 c2 68 20 00 31 	movb   $0x31,0x2068c2(%rip)        # 212059 <s+0x19>
    b797:	c6 05 ac 68 20 00 60 	movb   $0x60,0x2068ac(%rip)        # 21204a <s+0xa>
    b79e:	c6 05 ad 68 20 00 7d 	movb   $0x7d,0x2068ad(%rip)        # 212052 <s+0x12>
    b7a5:	c6 05 a8 68 20 00 2b 	movb   $0x2b,0x2068a8(%rip)        # 212054 <s+0x14>
    b7ac:	c6 05 af 68 20 00 4d 	movb   $0x4d,0x2068af(%rip)        # 212062 <s+0x22>
    b7b3:	c6 05 a2 68 20 00 7e 	movb   $0x7e,0x2068a2(%rip)        # 21205c <s+0x1c>
    b7ba:	c6 05 93 68 20 00 29 	movb   $0x29,0x206893(%rip)        # 212054 <s+0x14>
    b7c1:	c6 05 8f 68 20 00 39 	movb   $0x39,0x20688f(%rip)        # 212057 <s+0x17>
    b7c8:	c6 05 7a 68 20 00 6c 	movb   $0x6c,0x20687a(%rip)        # 212049 <s+0x9>
    b7cf:	c6 05 87 68 20 00 5a 	movb   $0x5a,0x206887(%rip)        # 21205d <s+0x1d>
    b7d6:	c6 05 7f 68 20 00 73 	movb   $0x73,0x20687f(%rip)        # 21205c <s+0x1c>
    b7dd:	c6 05 82 68 20 00 6b 	movb   $0x6b,0x206882(%rip)        # 212066 <s+0x26>
    b7e4:	c6 05 55 68 20 00 5d 	movb   $0x5d,0x206855(%rip)        # 212040 <s>
    b7eb:	c6 05 72 68 20 00 58 	movb   $0x58,0x206872(%rip)        # 212064 <s+0x24>
    b7f2:	c6 05 61 68 20 00 6b 	movb   $0x6b,0x206861(%rip)        # 21205a <s+0x1a>
    b7f9:	c6 05 5d 68 20 00 38 	movb   $0x38,0x20685d(%rip)        # 21205d <s+0x1d>
    b800:	c6 05 3b 68 20 00 33 	movb   $0x33,0x20683b(%rip)        # 212042 <s+0x2>
    b807:	c6 05 32 68 20 00 50 	movb   $0x50,0x206832(%rip)        # 212040 <s>
    b80e:	c6 05 3a 68 20 00 58 	movb   $0x58,0x20683a(%rip)        # 21204f <s+0xf>
    b815:	c6 05 30 68 20 00 3e 	movb   $0x3e,0x206830(%rip)        # 21204c <s+0xc>
    b81c:	c6 05 40 68 20 00 60 	movb   $0x60,0x206840(%rip)        # 212063 <s+0x23>
    b823:	c6 05 35 68 20 00 57 	movb   $0x57,0x206835(%rip)        # 21205f <s+0x1f>
    b82a:	c6 05 1b 68 20 00 44 	movb   $0x44,0x20681b(%rip)        # 21204c <s+0xc>
    b831:	c6 05 2b 68 20 00 33 	movb   $0x33,0x20682b(%rip)        # 212063 <s+0x23>
    b838:	c6 05 08 68 20 00 5b 	movb   $0x5b,0x206808(%rip)        # 212047 <s+0x7>
    b83f:	c6 05 02 68 20 00 4f 	movb   $0x4f,0x206802(%rip)        # 212048 <s+0x8>
    b846:	c6 05 19 68 20 00 70 	movb   $0x70,0x206819(%rip)        # 212066 <s+0x26>
    b84d:	c6 05 ef 67 20 00 39 	movb   $0x39,0x2067ef(%rip)        # 212043 <s+0x3>
    b854:	c6 05 0b 68 20 00 60 	movb   $0x60,0x20680b(%rip)        # 212066 <s+0x26>
    b85b:	c6 05 ef 67 20 00 5b 	movb   $0x5b,0x2067ef(%rip)        # 212051 <s+0x11>
    b862:	c6 05 f6 67 20 00 3b 	movb   $0x3b,0x2067f6(%rip)        # 21205f <s+0x1f>
    b869:	c6 05 f7 67 20 00 4f 	movb   $0x4f,0x2067f7(%rip)        # 212067 <s+0x27>
    b870:	c6 05 ca 67 20 00 7e 	movb   $0x7e,0x2067ca(%rip)        # 212041 <s+0x1>
    b877:	c6 05 d1 67 20 00 3e 	movb   $0x3e,0x2067d1(%rip)        # 21204f <s+0xf>
    b87e:	c6 05 e0 67 20 00 34 	movb   $0x34,0x2067e0(%rip)        # 212065 <s+0x25>
    b885:	c6 05 c1 67 20 00 69 	movb   $0x69,0x2067c1(%rip)        # 21204d <s+0xd>
    b88c:	c6 05 b6 67 20 00 47 	movb   $0x47,0x2067b6(%rip)        # 212049 <s+0x9>
    b893:	c6 05 b5 67 20 00 58 	movb   $0x58,0x2067b5(%rip)        # 21204f <s+0xf>
    b89a:	c6 05 a1 67 20 00 68 	movb   $0x68,0x2067a1(%rip)        # 212042 <s+0x2>
    b8a1:	c6 05 bc 67 20 00 34 	movb   $0x34,0x2067bc(%rip)        # 212064 <s+0x24>
    b8a8:	c6 05 91 67 20 00 54 	movb   $0x54,0x206791(%rip)        # 212040 <s>
    b8af:	c6 05 8d 67 20 00 7e 	movb   $0x7e,0x20678d(%rip)        # 212043 <s+0x3>
    b8b6:	c6 05 9a 67 20 00 6f 	movb   $0x6f,0x20679a(%rip)        # 212057 <s+0x17>
    b8bd:	c6 05 81 67 20 00 3f 	movb   $0x3f,0x206781(%rip)        # 212045 <s+0x5>
    b8c4:	c6 05 83 67 20 00 6d 	movb   $0x6d,0x206783(%rip)        # 21204e <s+0xe>
    b8cb:	c6 05 8d 67 20 00 63 	movb   $0x63,0x20678d(%rip)        # 21205f <s+0x1f>
    b8d2:	c6 05 81 67 20 00 75 	movb   $0x75,0x206781(%rip)        # 21205a <s+0x1a>
    b8d9:	c6 05 6c 67 20 00 76 	movb   $0x76,0x20676c(%rip)        # 21204c <s+0xc>
    b8e0:	c6 05 5b 67 20 00 40 	movb   $0x40,0x20675b(%rip)        # 212042 <s+0x2>
    b8e7:	c6 05 59 67 20 00 37 	movb   $0x37,0x206759(%rip)        # 212047 <s+0x7>
    b8ee:	c6 05 72 67 20 00 41 	movb   $0x41,0x206772(%rip)        # 212067 <s+0x27>
    b8f5:	c6 05 5c 67 20 00 4a 	movb   $0x4a,0x20675c(%rip)        # 212058 <s+0x18>
    b8fc:	c6 05 5c 67 20 00 20 	movb   $0x20,0x20675c(%rip)        # 21205f <s+0x1f>
    b903:	c6 05 38 67 20 00 56 	movb   $0x56,0x206738(%rip)        # 212042 <s+0x2>
    b90a:	c6 05 2f 67 20 00 53 	movb   $0x53,0x20672f(%rip)        # 212040 <s>
    b911:	c6 05 46 67 20 00 46 	movb   $0x46,0x206746(%rip)        # 21205e <s+0x1e>
    b918:	c6 05 33 67 20 00 6d 	movb   $0x6d,0x206733(%rip)        # 212052 <s+0x12>
    b91f:	c6 05 26 67 20 00 4b 	movb   $0x4b,0x206726(%rip)        # 21204c <s+0xc>
    b926:	c6 05 32 67 20 00 30 	movb   $0x30,0x206732(%rip)        # 21205f <s+0x1f>
    b92d:	c6 05 2e 67 20 00 6e 	movb   $0x6e,0x20672e(%rip)        # 212062 <s+0x22>
    b934:	c6 05 13 67 20 00 5a 	movb   $0x5a,0x206713(%rip)        # 21204e <s+0xe>
    b93b:	c6 05 0f 67 20 00 4d 	movb   $0x4d,0x20670f(%rip)        # 212051 <s+0x11>
    b942:	c6 05 fc 66 20 00 46 	movb   $0x46,0x2066fc(%rip)        # 212045 <s+0x5>
    b949:	c6 05 0c 67 20 00 5f 	movb   $0x5f,0x20670c(%rip)        # 21205c <s+0x1c>
    b950:	c6 05 0d 67 20 00 29 	movb   $0x29,0x20670d(%rip)        # 212064 <s+0x24>
    b957:	c6 05 fd 66 20 00 77 	movb   $0x77,0x2066fd(%rip)        # 21205b <s+0x1b>
    b95e:	c6 05 f8 66 20 00 7e 	movb   $0x7e,0x2066f8(%rip)        # 21205d <s+0x1d>
    b965:	c6 05 d9 66 20 00 66 	movb   $0x66,0x2066d9(%rip)        # 212045 <s+0x5>
    b96c:	c6 05 e2 66 20 00 7c 	movb   $0x7c,0x2066e2(%rip)        # 212055 <s+0x15>
    b973:	c6 05 e9 66 20 00 3f 	movb   $0x3f,0x2066e9(%rip)        # 212063 <s+0x23>
    b97a:	c6 05 cc 66 20 00 5e 	movb   $0x5e,0x2066cc(%rip)        # 21204d <s+0xd>
    b981:	c6 05 d9 66 20 00 28 	movb   $0x28,0x2066d9(%rip)        # 212061 <s+0x21>
    b988:	c6 05 b9 66 20 00 6a 	movb   $0x6a,0x2066b9(%rip)        # 212048 <s+0x8>
    b98f:	c6 05 b8 66 20 00 67 	movb   $0x67,0x2066b8(%rip)        # 21204e <s+0xe>
    b996:	c6 05 ae 66 20 00 48 	movb   $0x48,0x2066ae(%rip)        # 21204b <s+0xb>
    b99d:	c6 05 9c 66 20 00 54 	movb   $0x54,0x20669c(%rip)        # 212040 <s>
    b9a4:	c6 05 b6 66 20 00 64 	movb   $0x64,0x2066b6(%rip)        # 212061 <s+0x21>
    b9ab:	c6 05 92 66 20 00 76 	movb   $0x76,0x206692(%rip)        # 212044 <s+0x4>
    b9b2:	c6 05 a4 66 20 00 40 	movb   $0x40,0x2066a4(%rip)        # 21205d <s+0x1d>
    b9b9:	c6 05 91 66 20 00 4b 	movb   $0x4b,0x206691(%rip)        # 212051 <s+0x11>
    b9c0:	c6 05 96 66 20 00 3f 	movb   $0x3f,0x206696(%rip)        # 21205d <s+0x1d>
    b9c7:	c6 05 7c 66 20 00 73 	movb   $0x73,0x20667c(%rip)        # 21204a <s+0xa>
    b9ce:	c6 05 6d 66 20 00 77 	movb   $0x77,0x20666d(%rip)        # 212042 <s+0x2>
    b9d5:	c6 05 7d 66 20 00 4a 	movb   $0x4a,0x20667d(%rip)        # 212059 <s+0x19>
    b9dc:	c6 05 63 66 20 00 70 	movb   $0x70,0x206663(%rip)        # 212046 <s+0x6>
    b9e3:	c6 05 67 66 20 00 66 	movb   $0x66,0x206667(%rip)        # 212051 <s+0x11>
    b9ea:	c6 05 5e 66 20 00 71 	movb   $0x71,0x20665e(%rip)        # 21204f <s+0xf>
    b9f1:	c6 05 51 66 20 00 6c 	movb   $0x6c,0x206651(%rip)        # 212049 <s+0x9>
    b9f8:	c6 05 48 66 20 00 4b 	movb   $0x4b,0x206648(%rip)        # 212047 <s+0x7>
    b9ff:	c6 05 54 66 20 00 2d 	movb   $0x2d,0x206654(%rip)        # 21205a <s+0x1a>
    ba06:	c6 05 50 66 20 00 22 	movb   $0x22,0x206650(%rip)        # 21205d <s+0x1d>
    ba0d:	c6 05 32 66 20 00 20 	movb   $0x20,0x206632(%rip)        # 212046 <s+0x6>
    ba14:	c6 05 30 66 20 00 74 	movb   $0x74,0x206630(%rip)        # 21204b <s+0xb>
    ba1b:	c6 05 25 66 20 00 4e 	movb   $0x4e,0x206625(%rip)        # 212047 <s+0x7>
    ba22:	c6 05 31 66 20 00 29 	movb   $0x29,0x206631(%rip)        # 21205a <s+0x1a>
    ba29:	c6 05 1a 66 20 00 79 	movb   $0x79,0x20661a(%rip)        # 21204a <s+0xa>
    ba30:	c6 05 1b 66 20 00 75 	movb   $0x75,0x20661b(%rip)        # 212052 <s+0x12>
    ba37:	c6 05 16 66 20 00 69 	movb   $0x69,0x206616(%rip)        # 212054 <s+0x14>
    ba3e:	c6 05 1e 66 20 00 31 	movb   $0x31,0x20661e(%rip)        # 212063 <s+0x23>
    ba45:	c6 05 02 66 20 00 22 	movb   $0x22,0x206602(%rip)        # 21204e <s+0xe>
    ba4c:	c6 05 f6 65 20 00 7d 	movb   $0x7d,0x2065f6(%rip)        # 212049 <s+0x9>
    ba53:	c6 05 f5 65 20 00 3e 	movb   $0x3e,0x2065f5(%rip)        # 21204f <s+0xf>
    ba5a:	c6 05 e4 65 20 00 52 	movb   $0x52,0x2065e4(%rip)        # 212045 <s+0x5>
    ba61:	c6 05 f0 65 20 00 33 	movb   $0x33,0x2065f0(%rip)        # 212058 <s+0x18>
    ba68:	c6 05 dc 65 20 00 45 	movb   $0x45,0x2065dc(%rip)        # 21204b <s+0xb>
    ba6f:	c6 05 de 65 20 00 55 	movb   $0x55,0x2065de(%rip)        # 212054 <s+0x14>
    ba76:	c6 05 cc 65 20 00 50 	movb   $0x50,0x2065cc(%rip)        # 212049 <s+0x9>
    ba7d:	c6 05 dd 65 20 00 5f 	movb   $0x5f,0x2065dd(%rip)        # 212061 <s+0x21>
    ba84:	c6 05 d5 65 20 00 6f 	movb   $0x6f,0x2065d5(%rip)        # 212060 <s+0x20>
    ba8b:	c6 05 c5 65 20 00 28 	movb   $0x28,0x2065c5(%rip)        # 212057 <s+0x17>
    ba92:	c6 05 b4 65 20 00 3d 	movb   $0x3d,0x2065b4(%rip)        # 21204d <s+0xd>
    ba99:	c6 05 a9 65 20 00 2e 	movb   $0x2e,0x2065a9(%rip)        # 212049 <s+0x9>
    baa0:	c6 05 a6 65 20 00 21 	movb   $0x21,0x2065a6(%rip)        # 21204d <s+0xd>
    baa7:	c6 05 b8 65 20 00 70 	movb   $0x70,0x2065b8(%rip)        # 212066 <s+0x26>
    baae:	c6 05 94 65 20 00 6a 	movb   $0x6a,0x206594(%rip)        # 212049 <s+0x9>
    bab5:	c6 05 99 65 20 00 4b 	movb   $0x4b,0x206599(%rip)        # 212055 <s+0x15>
    babc:	c6 05 7e 65 20 00 2b 	movb   $0x2b,0x20657e(%rip)        # 212041 <s+0x1>
    bac3:	c6 05 94 65 20 00 36 	movb   $0x36,0x206594(%rip)        # 21205e <s+0x1e>
    baca:	c6 05 85 65 20 00 2d 	movb   $0x2d,0x206585(%rip)        # 212056 <s+0x16>
    bad1:	c6 05 8e 65 20 00 36 	movb   $0x36,0x20658e(%rip)        # 212066 <s+0x26>
    bad8:	c6 05 7b 65 20 00 3e 	movb   $0x3e,0x20657b(%rip)        # 21205a <s+0x1a>
    badf:	c6 05 5e 65 20 00 51 	movb   $0x51,0x20655e(%rip)        # 212044 <s+0x4>
    bae6:	c6 05 61 65 20 00 40 	movb   $0x40,0x206561(%rip)        # 21204e <s+0xe>
    baed:	c6 05 6e 65 20 00 2a 	movb   $0x2a,0x20656e(%rip)        # 212062 <s+0x22>
    baf4:	c6 05 4e 65 20 00 4d 	movb   $0x4d,0x20654e(%rip)        # 212049 <s+0x9>
    bafb:	c6 05 42 65 20 00 31 	movb   $0x31,0x206542(%rip)        # 212044 <s+0x4>
    bb02:	c6 05 44 65 20 00 34 	movb   $0x34,0x206544(%rip)        # 21204d <s+0xd>
    bb09:	c6 05 49 65 20 00 2a 	movb   $0x2a,0x206549(%rip)        # 212059 <s+0x19>
    bb10:	c6 05 37 65 20 00 4a 	movb   $0x4a,0x206537(%rip)        # 21204e <s+0xe>
    bb17:	c6 05 29 65 20 00 20 	movb   $0x20,0x206529(%rip)        # 212047 <s+0x7>
    bb1e:	c6 05 2b 65 20 00 60 	movb   $0x60,0x20652b(%rip)        # 212050 <s+0x10>
    bb25:	c6 05 38 65 20 00 48 	movb   $0x48,0x206538(%rip)        # 212064 <s+0x24>
    bb2c:	c6 05 24 65 20 00 24 	movb   $0x24,0x206524(%rip)        # 212057 <s+0x17>
    bb33:	c6 05 22 65 20 00 50 	movb   $0x50,0x206522(%rip)        # 21205c <s+0x1c>
    bb3a:	c6 05 16 65 20 00 26 	movb   $0x26,0x206516(%rip)        # 212057 <s+0x17>
    bb41:	c6 05 14 65 20 00 6d 	movb   $0x6d,0x206514(%rip)        # 21205c <s+0x1c>
    bb48:	c6 05 11 65 20 00 39 	movb   $0x39,0x206511(%rip)        # 212060 <s+0x20>
    bb4f:	c6 05 05 65 20 00 7e 	movb   $0x7e,0x206505(%rip)        # 21205b <s+0x1b>
    bb56:	c6 05 fd 64 20 00 4d 	movb   $0x4d,0x2064fd(%rip)        # 21205a <s+0x1a>
    bb5d:	c6 05 00 65 20 00 7e 	movb   $0x7e,0x206500(%rip)        # 212064 <s+0x24>
    bb64:	c6 05 ea 64 20 00 58 	movb   $0x58,0x2064ea(%rip)        # 212055 <s+0x15>
    bb6b:	c6 05 e5 64 20 00 36 	movb   $0x36,0x2064e5(%rip)        # 212057 <s+0x17>
    bb72:	c6 05 d2 64 20 00 6e 	movb   $0x6e,0x2064d2(%rip)        # 21204b <s+0xb>
    bb79:	c6 05 ce 64 20 00 42 	movb   $0x42,0x2064ce(%rip)        # 21204e <s+0xe>
    bb80:	c6 05 be 64 20 00 66 	movb   $0x66,0x2064be(%rip)        # 212045 <s+0x5>
    bb87:	c6 05 be 64 20 00 78 	movb   $0x78,0x2064be(%rip)        # 21204c <s+0xc>
    bb8e:	c6 05 d2 64 20 00 68 	movb   $0x68,0x2064d2(%rip)        # 212067 <s+0x27>
    bb95:	c6 05 b6 64 20 00 74 	movb   $0x74,0x2064b6(%rip)        # 212052 <s+0x12>
    bb9c:	c6 05 a1 64 20 00 58 	movb   $0x58,0x2064a1(%rip)        # 212044 <s+0x4>
    bba3:	c6 05 9b 64 20 00 74 	movb   $0x74,0x20649b(%rip)        # 212045 <s+0x5>
    bbaa:	c6 05 b5 64 20 00 6b 	movb   $0x6b,0x2064b5(%rip)        # 212066 <s+0x26>
    bbb1:	c6 05 9d 64 20 00 46 	movb   $0x46,0x20649d(%rip)        # 212055 <s+0x15>
    bbb8:	c6 05 9d 64 20 00 74 	movb   $0x74,0x20649d(%rip)        # 21205c <s+0x1c>
    bbbf:	c6 05 91 64 20 00 4c 	movb   $0x4c,0x206491(%rip)        # 212057 <s+0x17>
    bbc6:	c6 05 77 64 20 00 28 	movb   $0x28,0x206477(%rip)        # 212044 <s+0x4>
    bbcd:	c6 05 8a 64 20 00 35 	movb   $0x35,0x20648a(%rip)        # 21205e <s+0x1e>
    bbd4:	c6 05 71 64 20 00 70 	movb   $0x70,0x206471(%rip)        # 21204c <s+0xc>
    bbdb:	c6 05 6c 64 20 00 7c 	movb   $0x7c,0x20646c(%rip)        # 21204e <s+0xe>
    bbe2:	c6 05 6b 64 20 00 6f 	movb   $0x6f,0x20646b(%rip)        # 212054 <s+0x14>
    bbe9:	c6 05 62 64 20 00 45 	movb   $0x45,0x206462(%rip)        # 212052 <s+0x12>
    bbf0:	c6 05 69 64 20 00 7d 	movb   $0x7d,0x206469(%rip)        # 212060 <s+0x20>
    bbf7:	c6 05 5c 64 20 00 5b 	movb   $0x5b,0x20645c(%rip)        # 21205a <s+0x1a>
    bbfe:	c6 05 4b 64 20 00 69 	movb   $0x69,0x20644b(%rip)        # 212050 <s+0x10>
    bc05:	c6 05 4e 64 20 00 66 	movb   $0x66,0x20644e(%rip)        # 21205a <s+0x1a>
    bc0c:	c6 05 2d 64 20 00 5f 	movb   $0x5f,0x20642d(%rip)        # 212040 <s>
    bc13:	c6 05 35 64 20 00 68 	movb   $0x68,0x206435(%rip)        # 21204f <s+0xf>
    bc1a:	c6 05 2a 64 20 00 40 	movb   $0x40,0x20642a(%rip)        # 21204b <s+0xb>
    bc21:	c6 05 1f 64 20 00 70 	movb   $0x70,0x20641f(%rip)        # 212047 <s+0x7>
    bc28:	c6 05 14 64 20 00 61 	movb   $0x61,0x206414(%rip)        # 212043 <s+0x3>
    bc2f:	c6 05 28 64 20 00 4d 	movb   $0x4d,0x206428(%rip)        # 21205e <s+0x1e>
    bc36:	c6 05 27 64 20 00 76 	movb   $0x76,0x206427(%rip)        # 212064 <s+0x24>
    bc3d:	c6 05 0c 64 20 00 47 	movb   $0x47,0x20640c(%rip)        # 212050 <s+0x10>
    bc44:	c6 05 1c 64 20 00 41 	movb   $0x41,0x20641c(%rip)        # 212067 <s+0x27>
    bc4b:	c6 05 15 64 20 00 72 	movb   $0x72,0x206415(%rip)        # 212067 <s+0x27>
    bc52:	c6 05 f5 63 20 00 69 	movb   $0x69,0x2063f5(%rip)        # 21204e <s+0xe>
    bc59:	c6 05 01 64 20 00 5f 	movb   $0x5f,0x206401(%rip)        # 212061 <s+0x21>
    bc60:	c6 05 dc 63 20 00 41 	movb   $0x41,0x2063dc(%rip)        # 212043 <s+0x3>
    bc67:	c6 05 ef 63 20 00 62 	movb   $0x62,0x2063ef(%rip)        # 21205d <s+0x1d>
    bc6e:	c6 05 d1 63 20 00 7c 	movb   $0x7c,0x2063d1(%rip)        # 212046 <s+0x6>
    bc75:	c6 05 cb 63 20 00 51 	movb   $0x51,0x2063cb(%rip)        # 212047 <s+0x7>
    bc7c:	c6 05 dc 63 20 00 5a 	movb   $0x5a,0x2063dc(%rip)        # 21205f <s+0x1f>
    bc83:	c6 05 db 63 20 00 2e 	movb   $0x2e,0x2063db(%rip)        # 212065 <s+0x25>
    bc8a:	c6 05 d6 63 20 00 2f 	movb   $0x2f,0x2063d6(%rip)        # 212067 <s+0x27>
    bc91:	c6 05 b3 63 20 00 47 	movb   $0x47,0x2063b3(%rip)        # 21204b <s+0xb>
    bc98:	c6 05 b4 63 20 00 2c 	movb   $0x2c,0x2063b4(%rip)        # 212053 <s+0x13>
    bc9f:	c6 05 a3 63 20 00 3e 	movb   $0x3e,0x2063a3(%rip)        # 212049 <s+0x9>
    bca6:	c6 05 b0 63 20 00 55 	movb   $0x55,0x2063b0(%rip)        # 21205d <s+0x1d>
    bcad:	c6 05 9d 63 20 00 36 	movb   $0x36,0x20639d(%rip)        # 212051 <s+0x11>
    bcb4:	c6 05 98 63 20 00 49 	movb   $0x49,0x206398(%rip)        # 212053 <s+0x13>
    bcbb:	c6 05 85 63 20 00 40 	movb   $0x40,0x206385(%rip)        # 212047 <s+0x7>
    bcc2:	c6 05 7c 63 20 00 44 	movb   $0x44,0x20637c(%rip)        # 212045 <s+0x5>
    bcc9:	c6 05 72 63 20 00 68 	movb   $0x68,0x206372(%rip)        # 212042 <s+0x2>
    bcd0:	c6 05 6b 63 20 00 24 	movb   $0x24,0x20636b(%rip)        # 212042 <s+0x2>
    bcd7:	c6 05 7a 63 20 00 78 	movb   $0x78,0x20637a(%rip)        # 212058 <s+0x18>
    bcde:	c6 05 67 63 20 00 3b 	movb   $0x3b,0x206367(%rip)        # 21204c <s+0xc>
    bce5:	c6 05 55 63 20 00 3f 	movb   $0x3f,0x206355(%rip)        # 212041 <s+0x1>
    bcec:	c6 05 74 63 20 00 64 	movb   $0x64,0x206374(%rip)        # 212067 <s+0x27>
    bcf3:	c6 05 59 63 20 00 5d 	movb   $0x5d,0x206359(%rip)        # 212053 <s+0x13>
    bcfa:	c6 05 5c 63 20 00 7e 	movb   $0x7e,0x20635c(%rip)        # 21205d <s+0x1d>
    bd01:	c6 05 39 63 20 00 2d 	movb   $0x2d,0x206339(%rip)        # 212041 <s+0x1>
    bd08:	c6 05 3a 63 20 00 6b 	movb   $0x6b,0x20633a(%rip)        # 212049 <s+0x9>
    bd0f:	c6 05 2e 63 20 00 66 	movb   $0x66,0x20632e(%rip)        # 212044 <s+0x4>
    bd16:	c6 05 3a 63 20 00 2e 	movb   $0x2e,0x20633a(%rip)        # 212057 <s+0x17>
    bd1d:	c6 05 30 63 20 00 59 	movb   $0x59,0x206330(%rip)        # 212054 <s+0x14>
    bd24:	c6 05 16 63 20 00 48 	movb   $0x48,0x206316(%rip)        # 212041 <s+0x1>
    bd2b:	c6 05 18 63 20 00 7d 	movb   $0x7d,0x206318(%rip)        # 21204a <s+0xa>
    bd32:	c6 05 2c 63 20 00 64 	movb   $0x64,0x20632c(%rip)        # 212065 <s+0x25>
    bd39:	c6 05 00 63 20 00 49 	movb   $0x49,0x206300(%rip)        # 212040 <s>
    bd40:	c6 05 0b 63 20 00 4b 	movb   $0x4b,0x20630b(%rip)        # 212052 <s+0x12>
    bd47:	c6 05 f9 62 20 00 6b 	movb   $0x6b,0x2062f9(%rip)        # 212047 <s+0x7>
    bd4e:	c6 05 f1 62 20 00 67 	movb   $0x67,0x2062f1(%rip)        # 212046 <s+0x6>
    bd55:	c6 05 e7 62 20 00 30 	movb   $0x30,0x2062e7(%rip)        # 212043 <s+0x3>
    bd5c:	c6 05 e8 62 20 00 5a 	movb   $0x5a,0x2062e8(%rip)        # 21204b <s+0xb>
    bd63:	c6 05 e1 62 20 00 2c 	movb   $0x2c,0x2062e1(%rip)        # 21204b <s+0xb>
    bd6a:	c6 05 e9 62 20 00 7d 	movb   $0x7d,0x2062e9(%rip)        # 21205a <s+0x1a>
    bd71:	c6 05 d3 62 20 00 68 	movb   $0x68,0x2062d3(%rip)        # 21204b <s+0xb>
    bd78:	c6 05 e3 62 20 00 42 	movb   $0x42,0x2062e3(%rip)        # 212062 <s+0x22>
    bd7f:	c6 05 ce 62 20 00 5f 	movb   $0x5f,0x2062ce(%rip)        # 212054 <s+0x14>
    bd86:	c6 05 d2 62 20 00 28 	movb   $0x28,0x2062d2(%rip)        # 21205f <s+0x1f>
    bd8d:	c6 05 ae 62 20 00 3b 	movb   $0x3b,0x2062ae(%rip)        # 212042 <s+0x2>
    bd94:	c6 05 b3 62 20 00 64 	movb   $0x64,0x2062b3(%rip)        # 21204e <s+0xe>
    bd9b:	c6 05 b4 62 20 00 5e 	movb   $0x5e,0x2062b4(%rip)        # 212056 <s+0x16>
    bda2:	c6 05 bc 62 20 00 2e 	movb   $0x2e,0x2062bc(%rip)        # 212065 <s+0x25>
    bda9:	c6 05 a3 62 20 00 57 	movb   $0x57,0x2062a3(%rip)        # 212053 <s+0x13>
    bdb0:	c6 05 9c 62 20 00 7a 	movb   $0x7a,0x20629c(%rip)        # 212053 <s+0x13>
    bdb7:	c6 05 92 62 20 00 5e 	movb   $0x5e,0x206292(%rip)        # 212050 <s+0x10>
    bdbe:	c6 05 86 62 20 00 46 	movb   $0x46,0x206286(%rip)        # 21204b <s+0xb>
    bdc5:	c6 05 7c 62 20 00 7a 	movb   $0x7a,0x20627c(%rip)        # 212048 <s+0x8>
    bdcc:	c6 05 79 62 20 00 41 	movb   $0x41,0x206279(%rip)        # 21204c <s+0xc>
    bdd3:	c6 05 71 62 20 00 44 	movb   $0x44,0x206271(%rip)        # 21204b <s+0xb>
    bdda:	c6 05 7a 62 20 00 67 	movb   $0x67,0x20627a(%rip)        # 21205b <s+0x1b>
    bde1:	c6 05 7f 62 20 00 55 	movb   $0x55,0x20627f(%rip)        # 212067 <s+0x27>
    bde8:	c6 05 76 62 20 00 43 	movb   $0x43,0x206276(%rip)        # 212065 <s+0x25>
    bdef:	c6 05 4b 62 20 00 55 	movb   $0x55,0x20624b(%rip)        # 212041 <s+0x1>
    bdf6:	c6 05 49 62 20 00 7e 	movb   $0x7e,0x206249(%rip)        # 212046 <s+0x6>
    bdfd:	c6 05 50 62 20 00 4c 	movb   $0x4c,0x206250(%rip)        # 212054 <s+0x14>
    be04:	c6 05 50 62 20 00 41 	movb   $0x41,0x206250(%rip)        # 21205b <s+0x1b>
    be0b:	c6 05 32 62 20 00 23 	movb   $0x23,0x206232(%rip)        # 212044 <s+0x4>
    be12:	c6 05 3a 62 20 00 62 	movb   $0x62,0x20623a(%rip)        # 212053 <s+0x13>
    be19:	c6 05 3b 62 20 00 7d 	movb   $0x7d,0x20623b(%rip)        # 21205b <s+0x1b>
    be20:	c6 05 1e 62 20 00 2a 	movb   $0x2a,0x20621e(%rip)        # 212045 <s+0x5>
    be27:	c6 05 2a 62 20 00 28 	movb   $0x28,0x20622a(%rip)        # 212058 <s+0x18>
    be2e:	c6 05 1b 62 20 00 77 	movb   $0x77,0x20621b(%rip)        # 212050 <s+0x10>
    be35:	c6 05 13 62 20 00 48 	movb   $0x48,0x206213(%rip)        # 21204f <s+0xf>
    be3c:	c6 05 00 62 20 00 32 	movb   $0x32,0x206200(%rip)        # 212043 <s+0x3>
    be43:	c6 05 1d 62 20 00 35 	movb   $0x35,0x20621d(%rip)        # 212067 <s+0x27>
    be4a:	c6 05 f5 61 20 00 71 	movb   $0x71,0x2061f5(%rip)        # 212046 <s+0x6>
    be51:	c6 05 f7 61 20 00 4d 	movb   $0x4d,0x2061f7(%rip)        # 21204f <s+0xf>
    be58:	c6 05 f5 61 20 00 4e 	movb   $0x4e,0x2061f5(%rip)        # 212054 <s+0x14>
    be5f:	c6 05 f9 61 20 00 3b 	movb   $0x3b,0x2061f9(%rip)        # 21205f <s+0x1f>
    be66:	c6 05 dd 61 20 00 2f 	movb   $0x2f,0x2061dd(%rip)        # 21204a <s+0xa>
    be6d:	c6 05 e5 61 20 00 71 	movb   $0x71,0x2061e5(%rip)        # 212059 <s+0x19>
    be74:	c6 05 e3 61 20 00 6a 	movb   $0x6a,0x2061e3(%rip)        # 21205e <s+0x1e>
    be7b:	c6 05 ca 61 20 00 4f 	movb   $0x4f,0x2061ca(%rip)        # 21204c <s+0xc>
    be82:	c6 05 c5 61 20 00 4a 	movb   $0x4a,0x2061c5(%rip)        # 21204e <s+0xe>
    be89:	c6 05 c2 61 20 00 42 	movb   $0x42,0x2061c2(%rip)        # 212052 <s+0x12>
    be90:	c6 05 b3 61 20 00 33 	movb   $0x33,0x2061b3(%rip)        # 21204a <s+0xa>
    be97:	c6 05 a7 61 20 00 56 	movb   $0x56,0x2061a7(%rip)        # 212045 <s+0x5>
    be9e:	c6 05 bc 61 20 00 76 	movb   $0x76,0x2061bc(%rip)        # 212061 <s+0x21>
    bea5:	c6 05 b6 61 20 00 52 	movb   $0x52,0x2061b6(%rip)        # 212062 <s+0x22>
    beac:	c6 05 9c 61 20 00 28 	movb   $0x28,0x20619c(%rip)        # 21204f <s+0xf>
    beb3:	c6 05 a4 61 20 00 28 	movb   $0x28,0x2061a4(%rip)        # 21205e <s+0x1e>
    beba:	c6 05 98 61 20 00 60 	movb   $0x60,0x206198(%rip)        # 212059 <s+0x19>
    bec1:	c6 05 8e 61 20 00 63 	movb   $0x63,0x20618e(%rip)        # 212056 <s+0x16>
    bec8:	c6 05 82 61 20 00 4a 	movb   $0x4a,0x206182(%rip)        # 212051 <s+0x11>
    becf:	c6 05 90 61 20 00 4d 	movb   $0x4d,0x206190(%rip)        # 212066 <s+0x26>
    bed6:	c6 05 72 61 20 00 33 	movb   $0x33,0x206172(%rip)        # 21204f <s+0xf>
    bedd:	c6 05 66 61 20 00 63 	movb   $0x63,0x206166(%rip)        # 21204a <s+0xa>
    bee4:	c6 05 62 61 20 00 5d 	movb   $0x5d,0x206162(%rip)        # 21204d <s+0xd>
    beeb:	c6 05 72 61 20 00 55 	movb   $0x55,0x206172(%rip)        # 212064 <s+0x24>
    bef2:	c6 05 5d 61 20 00 3f 	movb   $0x3f,0x20615d(%rip)        # 212056 <s+0x16>
    bef9:	c6 05 62 61 20 00 4c 	movb   $0x4c,0x206162(%rip)        # 212062 <s+0x22>
    bf00:	c6 05 60 61 20 00 59 	movb   $0x59,0x206160(%rip)        # 212067 <s+0x27>
    bf07:	c6 05 4b 61 20 00 7b 	movb   $0x7b,0x20614b(%rip)        # 212059 <s+0x19>
    bf0e:	c6 05 33 61 20 00 41 	movb   $0x41,0x206133(%rip)        # 212048 <s+0x8>
    bf15:	c6 05 2a 61 20 00 7d 	movb   $0x7d,0x20612a(%rip)        # 212046 <s+0x6>
    bf1c:	c6 05 24 61 20 00 45 	movb   $0x45,0x206124(%rip)        # 212047 <s+0x7>
    bf23:	c6 05 28 61 20 00 67 	movb   $0x67,0x206128(%rip)        # 212052 <s+0x12>
    bf2a:	c6 05 1c 61 20 00 52 	movb   $0x52,0x20611c(%rip)        # 21204d <s+0xd>
    bf31:	c6 05 2a 61 20 00 45 	movb   $0x45,0x20612a(%rip)        # 212062 <s+0x22>
    bf38:	c6 05 07 61 20 00 64 	movb   $0x64,0x206107(%rip)        # 212046 <s+0x6>
    bf3f:	c6 05 0e 61 20 00 74 	movb   $0x74,0x20610e(%rip)        # 212054 <s+0x14>
    bf46:	c6 05 18 61 20 00 2a 	movb   $0x2a,0x206118(%rip)        # 212065 <s+0x25>
    bf4d:	c6 05 f0 60 20 00 52 	movb   $0x52,0x2060f0(%rip)        # 212044 <s+0x4>
    bf54:	c6 05 0c 61 20 00 55 	movb   $0x55,0x20610c(%rip)        # 212067 <s+0x27>
    bf5b:	c6 05 04 61 20 00 75 	movb   $0x75,0x206104(%rip)        # 212066 <s+0x26>
    bf62:	c6 05 f7 60 20 00 20 	movb   $0x20,0x2060f7(%rip)        # 212060 <s+0x20>
    bf69:	c6 05 d5 60 20 00 28 	movb   $0x28,0x2060d5(%rip)        # 212045 <s+0x5>
    bf70:	c6 05 ed 60 20 00 60 	movb   $0x60,0x2060ed(%rip)        # 212064 <s+0x24>
    bf77:	c6 05 d9 60 20 00 76 	movb   $0x76,0x2060d9(%rip)        # 212057 <s+0x17>
    bf7e:	c6 05 ce 60 20 00 34 	movb   $0x34,0x2060ce(%rip)        # 212053 <s+0x13>
    bf85:	c6 05 d2 60 20 00 36 	movb   $0x36,0x2060d2(%rip)        # 21205e <s+0x1e>
    bf8c:	c6 05 bd 60 20 00 31 	movb   $0x31,0x2060bd(%rip)        # 212050 <s+0x10>
    bf93:	c6 05 b3 60 20 00 30 	movb   $0x30,0x2060b3(%rip)        # 21204d <s+0xd>
    bf9a:	c6 05 ae 60 20 00 3d 	movb   $0x3d,0x2060ae(%rip)        # 21204f <s+0xf>
    bfa1:	c6 05 a3 60 20 00 22 	movb   $0x22,0x2060a3(%rip)        # 21204b <s+0xb>
    bfa8:	c6 05 92 60 20 00 4f 	movb   $0x4f,0x206092(%rip)        # 212041 <s+0x1>
    bfaf:	c6 05 ad 60 20 00 5d 	movb   $0x5d,0x2060ad(%rip)        # 212063 <s+0x23>
    bfb6:	c6 05 9d 60 20 00 53 	movb   $0x53,0x20609d(%rip)        # 21205a <s+0x1a>
    bfbd:	c6 05 9e 60 20 00 71 	movb   $0x71,0x20609e(%rip)        # 212062 <s+0x22>
    bfc4:	c6 05 78 60 20 00 75 	movb   $0x75,0x206078(%rip)        # 212043 <s+0x3>
    bfcb:	c6 05 73 60 20 00 4d 	movb   $0x4d,0x206073(%rip)        # 212045 <s+0x5>
    bfd2:	c6 05 8e 60 20 00 68 	movb   $0x68,0x20608e(%rip)        # 212067 <s+0x27>
    bfd9:	c6 05 6c 60 20 00 6f 	movb   $0x6f,0x20606c(%rip)        # 21204c <s+0xc>
    bfe0:	c6 05 63 60 20 00 33 	movb   $0x33,0x206063(%rip)        # 21204a <s+0xa>
    bfe7:	c6 05 71 60 20 00 3a 	movb   $0x3a,0x206071(%rip)        # 21205f <s+0x1f>
    bfee:	c6 05 53 60 20 00 70 	movb   $0x70,0x206053(%rip)        # 212048 <s+0x8>
    bff5:	c6 05 48 60 20 00 73 	movb   $0x73,0x206048(%rip)        # 212044 <s+0x4>
    bffc:	c6 05 3f 60 20 00 37 	movb   $0x37,0x20603f(%rip)        # 212042 <s+0x2>
    c003:	c6 05 3c 60 20 00 6b 	movb   $0x6b,0x20603c(%rip)        # 212046 <s+0x6>
    c00a:	c6 05 53 60 20 00 43 	movb   $0x43,0x206053(%rip)        # 212064 <s+0x24>
    c011:	c6 05 2a 60 20 00 5e 	movb   $0x5e,0x20602a(%rip)        # 212042 <s+0x2>
    c018:	c6 05 3b 60 20 00 4c 	movb   $0x4c,0x20603b(%rip)        # 21205a <s+0x1a>
    c01f:	c6 05 41 60 20 00 75 	movb   $0x75,0x206041(%rip)        # 212067 <s+0x27>
    c026:	c6 05 2b 60 20 00 24 	movb   $0x24,0x20602b(%rip)        # 212058 <s+0x18>
    c02d:	c6 05 14 60 20 00 60 	movb   $0x60,0x206014(%rip)        # 212048 <s+0x8>
    c034:	c6 05 0e 60 20 00 54 	movb   $0x54,0x20600e(%rip)        # 212049 <s+0x9>
    c03b:	c6 05 05 60 20 00 6b 	movb   $0x6b,0x206005(%rip)        # 212047 <s+0x7>
    c042:	c6 05 fb 5f 20 00 2a 	movb   $0x2a,0x205ffb(%rip)        # 212044 <s+0x4>
    c049:	c6 05 f1 5f 20 00 42 	movb   $0x42,0x205ff1(%rip)        # 212041 <s+0x1>
    c050:	c6 05 eb 5f 20 00 31 	movb   $0x31,0x205feb(%rip)        # 212042 <s+0x2>
    c057:	c6 05 f9 5f 20 00 66 	movb   $0x66,0x205ff9(%rip)        # 212057 <s+0x17>
    c05e:	c6 05 e6 5f 20 00 7b 	movb   $0x7b,0x205fe6(%rip)        # 21204b <s+0xb>
    c065:	c6 05 fb 5f 20 00 71 	movb   $0x71,0x205ffb(%rip)        # 212067 <s+0x27>
    c06c:	c6 05 ec 5f 20 00 7a 	movb   $0x7a,0x205fec(%rip)        # 21205f <s+0x1f>
    c073:	c6 05 c7 5f 20 00 71 	movb   $0x71,0x205fc7(%rip)        # 212041 <s+0x1>
    c07a:	c6 05 c7 5f 20 00 6c 	movb   $0x6c,0x205fc7(%rip)        # 212048 <s+0x8>
    c081:	c6 05 cc 5f 20 00 6c 	movb   $0x6c,0x205fcc(%rip)        # 212054 <s+0x14>
    c088:	c6 05 d2 5f 20 00 3e 	movb   $0x3e,0x205fd2(%rip)        # 212061 <s+0x21>
    c08f:	c6 05 cf 5f 20 00 24 	movb   $0x24,0x205fcf(%rip)        # 212065 <s+0x25>
    c096:	c6 05 be 5f 20 00 40 	movb   $0x40,0x205fbe(%rip)        # 21205b <s+0x1b>
    c09d:	c6 05 ab 5f 20 00 6c 	movb   $0x6c,0x205fab(%rip)        # 21204f <s+0xf>
    c0a4:	c6 05 95 5f 20 00 43 	movb   $0x43,0x205f95(%rip)        # 212040 <s>
    c0ab:	c6 05 a4 5f 20 00 57 	movb   $0x57,0x205fa4(%rip)        # 212056 <s+0x16>
    c0b2:	c6 05 89 5f 20 00 48 	movb   $0x48,0x205f89(%rip)        # 212042 <s+0x2>
    c0b9:	c6 05 9f 5f 20 00 6c 	movb   $0x6c,0x205f9f(%rip)        # 21205f <s+0x1f>
    c0c0:	c6 05 97 5f 20 00 57 	movb   $0x57,0x205f97(%rip)        # 21205e <s+0x1e>
    c0c7:	c6 05 89 5f 20 00 46 	movb   $0x46,0x205f89(%rip)        # 212057 <s+0x17>
    c0ce:	c6 05 78 5f 20 00 46 	movb   $0x46,0x205f78(%rip)        # 21204d <s+0xd>
    c0d5:	c6 05 88 5f 20 00 28 	movb   $0x28,0x205f88(%rip)        # 212064 <s+0x24>
    c0dc:	c6 05 6b 5f 20 00 7e 	movb   $0x7e,0x205f6b(%rip)        # 21204e <s+0xe>
    c0e3:	c6 05 6e 5f 20 00 2a 	movb   $0x2a,0x205f6e(%rip)        # 212058 <s+0x18>
    c0ea:	c6 05 60 5f 20 00 77 	movb   $0x77,0x205f60(%rip)        # 212051 <s+0x11>
    c0f1:	c6 05 68 5f 20 00 7d 	movb   $0x7d,0x205f68(%rip)        # 212060 <s+0x20>
    c0f8:	c6 05 43 5f 20 00 4a 	movb   $0x4a,0x205f43(%rip)        # 212042 <s+0x2>
    c0ff:	c6 05 42 5f 20 00 69 	movb   $0x69,0x205f42(%rip)        # 212048 <s+0x8>
    c106:	c6 05 36 5f 20 00 45 	movb   $0x45,0x205f36(%rip)        # 212043 <s+0x3>
    c10d:	c6 05 41 5f 20 00 7d 	movb   $0x7d,0x205f41(%rip)        # 212055 <s+0x15>
    c114:	c6 05 30 5f 20 00 5d 	movb   $0x5d,0x205f30(%rip)        # 21204b <s+0xb>
    c11b:	c6 05 1e 5f 20 00 64 	movb   $0x64,0x205f1e(%rip)        # 212040 <s>
    c122:	c6 05 1d 5f 20 00 65 	movb   $0x65,0x205f1d(%rip)        # 212046 <s+0x6>
    c129:	c6 05 1a 5f 20 00 60 	movb   $0x60,0x205f1a(%rip)        # 21204a <s+0xa>
    c130:	c6 05 0c 5f 20 00 41 	movb   $0x41,0x205f0c(%rip)        # 212043 <s+0x3>
    c137:	c6 05 05 5f 20 00 73 	movb   $0x73,0x205f05(%rip)        # 212043 <s+0x3>
    c13e:	c6 05 ff 5e 20 00 44 	movb   $0x44,0x205eff(%rip)        # 212044 <s+0x4>
    c145:	c6 05 10 5f 20 00 7e 	movb   $0x7e,0x205f10(%rip)        # 21205c <s+0x1c>
    c14c:	c6 05 08 5f 20 00 44 	movb   $0x44,0x205f08(%rip)        # 21205b <s+0x1b>
    c153:	c6 05 f5 5e 20 00 5d 	movb   $0x5d,0x205ef5(%rip)        # 21204f <s+0xf>
    c15a:	c6 05 04 5f 20 00 62 	movb   $0x62,0x205f04(%rip)        # 212065 <s+0x25>
    c161:	c6 05 e4 5e 20 00 6b 	movb   $0x6b,0x205ee4(%rip)        # 21204c <s+0xc>
    c168:	c6 05 e6 5e 20 00 45 	movb   $0x45,0x205ee6(%rip)        # 212055 <s+0x15>
    c16f:	c6 05 d0 5e 20 00 29 	movb   $0x29,0x205ed0(%rip)        # 212046 <s+0x6>
    c176:	c6 05 c4 5e 20 00 49 	movb   $0x49,0x205ec4(%rip)        # 212041 <s+0x1>
    c17d:	c6 05 db 5e 20 00 20 	movb   $0x20,0x205edb(%rip)        # 21205f <s+0x1f>
    c184:	c6 05 bd 5e 20 00 22 	movb   $0x22,0x205ebd(%rip)        # 212048 <s+0x8>
    c18b:	c6 05 bd 5e 20 00 7e 	movb   $0x7e,0x205ebd(%rip)        # 21204f <s+0xf>
    c192:	c6 05 a9 5e 20 00 43 	movb   $0x43,0x205ea9(%rip)        # 212042 <s+0x2>
    c199:	c6 05 af 5e 20 00 7d 	movb   $0x7d,0x205eaf(%rip)        # 21204f <s+0xf>
    c1a0:	c6 05 9c 5e 20 00 34 	movb   $0x34,0x205e9c(%rip)        # 212043 <s+0x3>
    c1a7:	c6 05 ad 5e 20 00 4d 	movb   $0x4d,0x205ead(%rip)        # 21205b <s+0x1b>
    c1ae:	c6 05 93 5e 20 00 69 	movb   $0x69,0x205e93(%rip)        # 212048 <s+0x8>
    c1b5:	c6 05 a7 5e 20 00 77 	movb   $0x77,0x205ea7(%rip)        # 212063 <s+0x23>
    c1bc:	c6 05 87 5e 20 00 26 	movb   $0x26,0x205e87(%rip)        # 21204a <s+0xa>
    c1c3:	c6 05 8f 5e 20 00 7e 	movb   $0x7e,0x205e8f(%rip)        # 212059 <s+0x19>
    c1ca:	c6 05 7a 5e 20 00 7a 	movb   $0x7a,0x205e7a(%rip)        # 21204b <s+0xb>
    c1d1:	c6 05 8c 5e 20 00 5e 	movb   $0x5e,0x205e8c(%rip)        # 212064 <s+0x24>
    c1d8:	c6 05 75 5e 20 00 3b 	movb   $0x3b,0x205e75(%rip)        # 212054 <s+0x14>
    c1df:	c6 05 68 5e 20 00 39 	movb   $0x39,0x205e68(%rip)        # 21204e <s+0xe>
    c1e6:	c6 05 78 5e 20 00 3b 	movb   $0x3b,0x205e78(%rip)        # 212065 <s+0x25>
    c1ed:	c6 05 55 5e 20 00 79 	movb   $0x79,0x205e55(%rip)        # 212049 <s+0x9>
    c1f4:	c6 05 65 5e 20 00 2d 	movb   $0x2d,0x205e65(%rip)        # 212060 <s+0x20>
    c1fb:	c6 05 4c 5e 20 00 30 	movb   $0x30,0x205e4c(%rip)        # 21204e <s+0xe>
    c202:	c6 05 43 5e 20 00 72 	movb   $0x72,0x205e43(%rip)        # 21204c <s+0xc>
    c209:	c6 05 54 5e 20 00 5a 	movb   $0x5a,0x205e54(%rip)        # 212064 <s+0x24>
    c210:	c6 05 4f 5e 20 00 37 	movb   $0x37,0x205e4f(%rip)        # 212066 <s+0x26>
    c217:	c6 05 3e 5e 20 00 30 	movb   $0x30,0x205e3e(%rip)        # 21205c <s+0x1c>
    c21e:	c6 05 2e 5e 20 00 56 	movb   $0x56,0x205e2e(%rip)        # 212053 <s+0x13>
    c225:	c6 05 32 5e 20 00 58 	movb   $0x58,0x205e32(%rip)        # 21205e <s+0x1e>
    c22c:	c6 05 31 5e 20 00 5a 	movb   $0x5a,0x205e31(%rip)        # 212064 <s+0x24>
    c233:	c6 05 14 5e 20 00 7a 	movb   $0x7a,0x205e14(%rip)        # 21204e <s+0xe>
    c23a:	c6 05 17 5e 20 00 30 	movb   $0x30,0x205e17(%rip)        # 212058 <s+0x18>
    c241:	c6 05 0a 5e 20 00 76 	movb   $0x76,0x205e0a(%rip)        # 212052 <s+0x12>
    c248:	c6 05 04 5e 20 00 4f 	movb   $0x4f,0x205e04(%rip)        # 212053 <s+0x13>
    c24f:	c6 05 f8 5d 20 00 2f 	movb   $0x2f,0x205df8(%rip)        # 21204e <s+0xe>
    c256:	c6 05 fa 5d 20 00 52 	movb   $0x52,0x205dfa(%rip)        # 212057 <s+0x17>
    c25d:	c6 05 dd 5d 20 00 2d 	movb   $0x2d,0x205ddd(%rip)        # 212041 <s+0x1>
    c264:	c6 05 f2 5d 20 00 77 	movb   $0x77,0x205df2(%rip)        # 21205d <s+0x1d>
    c26b:	c6 05 d3 5d 20 00 49 	movb   $0x49,0x205dd3(%rip)        # 212045 <s+0x5>
    c272:	c6 05 e4 5d 20 00 37 	movb   $0x37,0x205de4(%rip)        # 21205d <s+0x1d>
    c279:	c6 05 c2 5d 20 00 4f 	movb   $0x4f,0x205dc2(%rip)        # 212042 <s+0x2>
    c280:	c6 05 bf 5d 20 00 4e 	movb   $0x4e,0x205dbf(%rip)        # 212046 <s+0x6>
    c287:	c6 05 c4 5d 20 00 2e 	movb   $0x2e,0x205dc4(%rip)        # 212052 <s+0x12>
    c28e:	c6 05 c6 5d 20 00 43 	movb   $0x43,0x205dc6(%rip)        # 21205b <s+0x1b>
    c295:	c6 05 c6 5d 20 00 72 	movb   $0x72,0x205dc6(%rip)        # 212062 <s+0x22>
    c29c:	c6 05 b0 5d 20 00 3b 	movb   $0x3b,0x205db0(%rip)        # 212053 <s+0x13>
    c2a3:	c6 05 ac 5d 20 00 61 	movb   $0x61,0x205dac(%rip)        # 212056 <s+0x16>
    c2aa:	c6 05 99 5d 20 00 5f 	movb   $0x5f,0x205d99(%rip)        # 21204a <s+0xa>
    c2b1:	c6 05 8c 5d 20 00 56 	movb   $0x56,0x205d8c(%rip)        # 212044 <s+0x4>
    c2b8:	c6 05 8c 5d 20 00 44 	movb   $0x44,0x205d8c(%rip)        # 21204b <s+0xb>
    c2bf:	c6 05 9d 5d 20 00 24 	movb   $0x24,0x205d9d(%rip)        # 212063 <s+0x23>
    c2c6:	c6 05 89 5d 20 00 62 	movb   $0x62,0x205d89(%rip)        # 212056 <s+0x16>
    c2cd:	c6 05 81 5d 20 00 54 	movb   $0x54,0x205d81(%rip)        # 212055 <s+0x15>
    c2d4:	c6 05 6c 5d 20 00 70 	movb   $0x70,0x205d6c(%rip)        # 212047 <s+0x7>
    c2db:	c6 05 83 5d 20 00 69 	movb   $0x69,0x205d83(%rip)        # 212065 <s+0x25>
    c2e2:	c6 05 73 5d 20 00 53 	movb   $0x53,0x205d73(%rip)        # 21205c <s+0x1c>
    c2e9:	c6 05 55 5d 20 00 38 	movb   $0x38,0x205d55(%rip)        # 212045 <s+0x5>
    c2f0:	c6 05 6e 5d 20 00 2a 	movb   $0x2a,0x205d6e(%rip)        # 212065 <s+0x25>
    c2f7:	c6 05 47 5d 20 00 6e 	movb   $0x6e,0x205d47(%rip)        # 212045 <s+0x5>
    c2fe:	c6 05 51 5d 20 00 3a 	movb   $0x3a,0x205d51(%rip)        # 212056 <s+0x16>
    c305:	c6 05 58 5d 20 00 57 	movb   $0x57,0x205d58(%rip)        # 212064 <s+0x24>
    c30c:	c6 05 4f 5d 20 00 5f 	movb   $0x5f,0x205d4f(%rip)        # 212062 <s+0x22>
    c313:	c6 05 36 5d 20 00 67 	movb   $0x67,0x205d36(%rip)        # 212050 <s+0x10>
    c31a:	c6 05 2e 5d 20 00 6f 	movb   $0x6f,0x205d2e(%rip)        # 21204f <s+0xf>
    c321:	c6 05 28 5d 20 00 3b 	movb   $0x3b,0x205d28(%rip)        # 212050 <s+0x10>
    c328:	c6 05 18 5d 20 00 3e 	movb   $0x3e,0x205d18(%rip)        # 212047 <s+0x7>
    c32f:	c6 05 22 5d 20 00 55 	movb   $0x55,0x205d22(%rip)        # 212058 <s+0x18>
    c336:	c6 05 10 5d 20 00 62 	movb   $0x62,0x205d10(%rip)        # 21204d <s+0xd>
    c33d:	c6 05 15 5d 20 00 61 	movb   $0x61,0x205d15(%rip)        # 212059 <s+0x19>
    c344:	c6 05 16 5d 20 00 57 	movb   $0x57,0x205d16(%rip)        # 212061 <s+0x21>
    c34b:	c6 05 fe 5c 20 00 34 	movb   $0x34,0x205cfe(%rip)        # 212050 <s+0x10>
    c352:	c6 05 ee 5c 20 00 7c 	movb   $0x7c,0x205cee(%rip)        # 212047 <s+0x7>
    c359:	c6 05 e3 5c 20 00 41 	movb   $0x41,0x205ce3(%rip)        # 212043 <s+0x3>
    c360:	c6 05 dd 5c 20 00 41 	movb   $0x41,0x205cdd(%rip)        # 212044 <s+0x4>
    c367:	c6 05 ed 5c 20 00 4e 	movb   $0x4e,0x205ced(%rip)        # 21205b <s+0x1b>
    c36e:	c6 05 d4 5c 20 00 2c 	movb   $0x2c,0x205cd4(%rip)        # 212049 <s+0x9>
    c375:	c6 05 cd 5c 20 00 72 	movb   $0x72,0x205ccd(%rip)        # 212049 <s+0x9>
    c37c:	c6 05 c7 5c 20 00 66 	movb   $0x66,0x205cc7(%rip)        # 21204a <s+0xa>
    c383:	c6 05 b7 5c 20 00 49 	movb   $0x49,0x205cb7(%rip)        # 212041 <s+0x1>
    c38a:	c6 05 bf 5c 20 00 33 	movb   $0x33,0x205cbf(%rip)        # 212050 <s+0x10>
    c391:	c6 05 b0 5c 20 00 21 	movb   $0x21,0x205cb0(%rip)        # 212048 <s+0x8>
    c398:	c6 05 c6 5c 20 00 5f 	movb   $0x5f,0x205cc6(%rip)        # 212065 <s+0x25>
    c39f:	c6 05 ba 5c 20 00 5a 	movb   $0x5a,0x205cba(%rip)        # 212060 <s+0x20>
    c3a6:	c6 05 ba 5c 20 00 34 	movb   $0x34,0x205cba(%rip)        # 212067 <s+0x27>
    c3ad:	c6 05 a5 5c 20 00 4b 	movb   $0x4b,0x205ca5(%rip)        # 212059 <s+0x19>
    c3b4:	c6 05 98 5c 20 00 5a 	movb   $0x5a,0x205c98(%rip)        # 212053 <s+0x13>
    c3bb:	c6 05 86 5c 20 00 6b 	movb   $0x6b,0x205c86(%rip)        # 212048 <s+0x8>
    c3c2:	c6 05 7e 5c 20 00 5b 	movb   $0x5b,0x205c7e(%rip)        # 212047 <s+0x7>
    c3c9:	c6 05 81 5c 20 00 45 	movb   $0x45,0x205c81(%rip)        # 212051 <s+0x11>
    c3d0:	c6 05 78 5c 20 00 65 	movb   $0x65,0x205c78(%rip)        # 21204f <s+0xf>
    c3d7:	c6 05 6f 5c 20 00 79 	movb   $0x79,0x205c6f(%rip)        # 21204d <s+0xd>
    c3de:	c6 05 6f 5c 20 00 7d 	movb   $0x7d,0x205c6f(%rip)        # 212054 <s+0x14>
    c3e5:	c6 05 5a 5c 20 00 34 	movb   $0x34,0x205c5a(%rip)        # 212046 <s+0x6>
    c3ec:	c6 05 60 5c 20 00 7d 	movb   $0x7d,0x205c60(%rip)        # 212053 <s+0x13>
    c3f3:	c6 05 60 5c 20 00 38 	movb   $0x38,0x205c60(%rip)        # 21205a <s+0x1a>
    c3fa:	c6 05 42 5c 20 00 40 	movb   $0x40,0x205c42(%rip)        # 212043 <s+0x3>
    c401:	c6 05 3b 5c 20 00 28 	movb   $0x28,0x205c3b(%rip)        # 212043 <s+0x3>
    c408:	c6 05 32 5c 20 00 34 	movb   $0x34,0x205c32(%rip)        # 212041 <s+0x1>
    c40f:	c6 05 3b 5c 20 00 53 	movb   $0x53,0x205c3b(%rip)        # 212051 <s+0x11>
    c416:	c6 05 4a 5c 20 00 3f 	movb   $0x3f,0x205c4a(%rip)        # 212067 <s+0x27>
    c41d:	c6 05 22 5c 20 00 78 	movb   $0x78,0x205c22(%rip)        # 212046 <s+0x6>
    c424:	c6 05 29 5c 20 00 2e 	movb   $0x2e,0x205c29(%rip)        # 212054 <s+0x14>
    c42b:	c6 05 27 5c 20 00 50 	movb   $0x50,0x205c27(%rip)        # 212059 <s+0x19>
    c432:	c6 05 2a 5c 20 00 50 	movb   $0x50,0x205c2a(%rip)        # 212063 <s+0x23>
    c439:	c6 05 11 5c 20 00 37 	movb   $0x37,0x205c11(%rip)        # 212051 <s+0x11>
    c440:	c6 05 04 5c 20 00 41 	movb   $0x41,0x205c04(%rip)        # 21204b <s+0xb>
    c447:	c6 05 f6 5b 20 00 78 	movb   $0x78,0x205bf6(%rip)        # 212044 <s+0x4>
    c44e:	c6 05 0b 5c 20 00 7e 	movb   $0x7e,0x205c0b(%rip)        # 212060 <s+0x20>
    c455:	c6 05 f3 5b 20 00 37 	movb   $0x37,0x205bf3(%rip)        # 21204f <s+0xf>
    c45c:	c6 05 e6 5b 20 00 5d 	movb   $0x5d,0x205be6(%rip)        # 212049 <s+0x9>
    c463:	c6 05 ea 5b 20 00 46 	movb   $0x46,0x205bea(%rip)        # 212054 <s+0x14>
    c46a:	c6 05 d1 5b 20 00 35 	movb   $0x35,0x205bd1(%rip)        # 212042 <s+0x2>
    c471:	c6 05 cd 5b 20 00 39 	movb   $0x39,0x205bcd(%rip)        # 212045 <s+0x5>
    c478:	c6 05 c4 5b 20 00 56 	movb   $0x56,0x205bc4(%rip)        # 212043 <s+0x3>
    c47f:	c6 05 db 5b 20 00 74 	movb   $0x74,0x205bdb(%rip)        # 212061 <s+0x21>
    c486:	c6 05 cb 5b 20 00 4f 	movb   $0x4f,0x205bcb(%rip)        # 212058 <s+0x18>
    c48d:	c6 05 d2 5b 20 00 46 	movb   $0x46,0x205bd2(%rip)        # 212066 <s+0x26>
    c494:	c6 05 bd 5b 20 00 32 	movb   $0x32,0x205bbd(%rip)        # 212058 <s+0x18>
    c49b:	c6 05 a9 5b 20 00 7b 	movb   $0x7b,0x205ba9(%rip)        # 21204b <s+0xb>
    c4a2:	c6 05 a7 5b 20 00 66 	movb   $0x66,0x205ba7(%rip)        # 212050 <s+0x10>
    c4a9:	c6 05 ad 5b 20 00 2b 	movb   $0x2b,0x205bad(%rip)        # 21205d <s+0x1d>
    c4b0:	c6 05 a0 5b 20 00 32 	movb   $0x32,0x205ba0(%rip)        # 212057 <s+0x17>
    c4b7:	c6 05 82 5b 20 00 35 	movb   $0x35,0x205b82(%rip)        # 212040 <s>
    c4be:	c6 05 95 5b 20 00 66 	movb   $0x66,0x205b95(%rip)        # 21205a <s+0x1a>
    c4c5:	c6 05 9b 5b 20 00 36 	movb   $0x36,0x205b9b(%rip)        # 212067 <s+0x27>
    c4cc:	c6 05 88 5b 20 00 74 	movb   $0x74,0x205b88(%rip)        # 21205b <s+0x1b>
    c4d3:	c6 05 6a 5b 20 00 69 	movb   $0x69,0x205b6a(%rip)        # 212044 <s+0x4>
    c4da:	c6 05 69 5b 20 00 59 	movb   $0x59,0x205b69(%rip)        # 21204a <s+0xa>
    c4e1:	c6 05 68 5b 20 00 7e 	movb   $0x7e,0x205b68(%rip)        # 212050 <s+0x10>
    c4e8:	c6 05 70 5b 20 00 3f 	movb   $0x3f,0x205b70(%rip)        # 21205f <s+0x1f>
    c4ef:	c6 05 62 5b 20 00 5d 	movb   $0x5d,0x205b62(%rip)        # 212058 <s+0x18>
    c4f6:	c6 05 43 5b 20 00 50 	movb   $0x50,0x205b43(%rip)        # 212040 <s>
    c4fd:	c6 05 45 5b 20 00 3a 	movb   $0x3a,0x205b45(%rip)        # 212049 <s+0x9>
    c504:	c6 05 4a 5b 20 00 67 	movb   $0x67,0x205b4a(%rip)        # 212055 <s+0x15>
    c50b:	c6 05 4d 5b 20 00 6d 	movb   $0x6d,0x205b4d(%rip)        # 21205f <s+0x1f>
    c512:	c6 05 2a 5b 20 00 31 	movb   $0x31,0x205b2a(%rip)        # 212043 <s+0x3>
    c519:	c6 05 42 5b 20 00 2d 	movb   $0x2d,0x205b42(%rip)        # 212062 <s+0x22>
    c520:	c6 05 2d 5b 20 00 4f 	movb   $0x4f,0x205b2d(%rip)        # 212054 <s+0x14>
    c527:	c6 05 16 5b 20 00 33 	movb   $0x33,0x205b16(%rip)        # 212044 <s+0x4>
    c52e:	c6 05 2f 5b 20 00 6e 	movb   $0x6e,0x205b2f(%rip)        # 212064 <s+0x24>
    c535:	c6 05 1f 5b 20 00 47 	movb   $0x47,0x205b1f(%rip)        # 21205b <s+0x1b>
    c53c:	c6 05 18 5b 20 00 7c 	movb   $0x7c,0x205b18(%rip)        # 21205b <s+0x1b>
    c543:	c6 05 04 5b 20 00 7a 	movb   $0x7a,0x205b04(%rip)        # 21204e <s+0xe>
    c54a:	c6 05 fb 5a 20 00 69 	movb   $0x69,0x205afb(%rip)        # 21204c <s+0xc>
    c551:	c6 05 e8 5a 20 00 52 	movb   $0x52,0x205ae8(%rip)        # 212040 <s>
    c558:	c6 05 00 5b 20 00 29 	movb   $0x29,0x205b00(%rip)        # 21205f <s+0x1f>
    c55f:	c6 05 ee 5a 20 00 7e 	movb   $0x7e,0x205aee(%rip)        # 212054 <s+0x14>
    c566:	c6 05 d6 5a 20 00 33 	movb   $0x33,0x205ad6(%rip)        # 212043 <s+0x3>
    c56d:	c6 05 e7 5a 20 00 73 	movb   $0x73,0x205ae7(%rip)        # 21205b <s+0x1b>
    c574:	c6 05 d3 5a 20 00 75 	movb   $0x75,0x205ad3(%rip)        # 21204e <s+0xe>
    c57b:	c6 05 d5 5a 20 00 62 	movb   $0x62,0x205ad5(%rip)        # 212057 <s+0x17>
    c582:	c6 05 bf 5a 20 00 6b 	movb   $0x6b,0x205abf(%rip)        # 212048 <s+0x8>
    c589:	c6 05 b9 5a 20 00 7a 	movb   $0x7a,0x205ab9(%rip)        # 212049 <s+0x9>
    c590:	c6 05 b3 5a 20 00 43 	movb   $0x43,0x205ab3(%rip)        # 21204a <s+0xa>
    c597:	c6 05 bf 5a 20 00 2d 	movb   $0x2d,0x205abf(%rip)        # 21205d <s+0x1d>
    c59e:	c6 05 b2 5a 20 00 67 	movb   $0x67,0x205ab2(%rip)        # 212057 <s+0x17>
    c5a5:	c6 05 94 5a 20 00 72 	movb   $0x72,0x205a94(%rip)        # 212040 <s>
    c5ac:	c6 05 9f 5a 20 00 2f 	movb   $0x2f,0x205a9f(%rip)        # 212052 <s+0x12>
    c5b3:	c6 05 a8 5a 20 00 3c 	movb   $0x3c,0x205aa8(%rip)        # 212062 <s+0x22>
    c5ba:	c6 05 a2 5a 20 00 74 	movb   $0x74,0x205aa2(%rip)        # 212063 <s+0x23>
    c5c1:	c6 05 81 5a 20 00 2d 	movb   $0x2d,0x205a81(%rip)        # 212049 <s+0x9>
    c5c8:	c6 05 83 5a 20 00 65 	movb   $0x65,0x205a83(%rip)        # 212052 <s+0x12>
    c5cf:	c6 05 8a 5a 20 00 4f 	movb   $0x4f,0x205a8a(%rip)        # 212060 <s+0x20>
    c5d6:	c6 05 89 5a 20 00 4c 	movb   $0x4c,0x205a89(%rip)        # 212066 <s+0x26>
    c5dd:	c6 05 75 5a 20 00 7e 	movb   $0x7e,0x205a75(%rip)        # 212059 <s+0x19>
    c5e4:	c6 05 61 5a 20 00 63 	movb   $0x63,0x205a61(%rip)        # 21204c <s+0xc>
    c5eb:	c6 05 64 5a 20 00 3e 	movb   $0x3e,0x205a64(%rip)        # 212056 <s+0x16>
    c5f2:	c6 05 4c 5a 20 00 6e 	movb   $0x6e,0x205a4c(%rip)        # 212045 <s+0x5>
    c5f9:	c6 05 66 5a 20 00 74 	movb   $0x74,0x205a66(%rip)        # 212066 <s+0x26>
    c600:	c6 05 50 5a 20 00 73 	movb   $0x73,0x205a50(%rip)        # 212057 <s+0x17>
    c607:	c6 05 54 5a 20 00 39 	movb   $0x39,0x205a54(%rip)        # 212062 <s+0x22>
    c60e:	c6 05 50 5a 20 00 6a 	movb   $0x6a,0x205a50(%rip)        # 212065 <s+0x25>
    c615:	c6 05 32 5a 20 00 76 	movb   $0x76,0x205a32(%rip)        # 21204e <s+0xe>
    c61c:	c6 05 2d 5a 20 00 3b 	movb   $0x3b,0x205a2d(%rip)        # 212050 <s+0x10>
    c623:	c6 05 16 5a 20 00 42 	movb   $0x42,0x205a16(%rip)        # 212040 <s>
    c62a:	c6 05 14 5a 20 00 57 	movb   $0x57,0x205a14(%rip)        # 212045 <s+0x5>
    c631:	c6 05 21 5a 20 00 48 	movb   $0x48,0x205a21(%rip)        # 212059 <s+0x19>
    c638:	c6 05 17 5a 20 00 7d 	movb   $0x7d,0x205a17(%rip)        # 212056 <s+0x16>
    c63f:	c6 05 18 5a 20 00 52 	movb   $0x52,0x205a18(%rip)        # 21205e <s+0x1e>
    c646:	c6 05 1a 5a 20 00 7c 	movb   $0x7c,0x205a1a(%rip)        # 212067 <s+0x27>
    c64d:	c6 05 09 5a 20 00 31 	movb   $0x31,0x205a09(%rip)        # 21205d <s+0x1d>
    c654:	c6 05 fd 59 20 00 53 	movb   $0x53,0x2059fd(%rip)        # 212058 <s+0x18>
    c65b:	c6 05 fe 59 20 00 60 	movb   $0x60,0x2059fe(%rip)        # 212060 <s+0x20>
    c662:	c6 05 ec 59 20 00 49 	movb   $0x49,0x2059ec(%rip)        # 212055 <s+0x15>
    c669:	c6 05 df 59 20 00 45 	movb   $0x45,0x2059df(%rip)        # 21204f <s+0xf>
    c670:	c6 05 ca 59 20 00 20 	movb   $0x20,0x2059ca(%rip)        # 212041 <s+0x1>
    c677:	c6 05 e8 59 20 00 60 	movb   $0x60,0x2059e8(%rip)        # 212066 <s+0x26>
    c67e:	c6 05 c0 59 20 00 4a 	movb   $0x4a,0x2059c0(%rip)        # 212045 <s+0x5>
    c685:	c6 05 da 59 20 00 55 	movb   $0x55,0x2059da(%rip)        # 212066 <s+0x26>
    c68c:	c6 05 b7 59 20 00 2a 	movb   $0x2a,0x2059b7(%rip)        # 21204a <s+0xa>
    c693:	c6 05 a7 59 20 00 70 	movb   $0x70,0x2059a7(%rip)        # 212041 <s+0x1>
    c69a:	c6 05 a7 59 20 00 2b 	movb   $0x2b,0x2059a7(%rip)        # 212048 <s+0x8>
    c6a1:	c6 05 9f 59 20 00 72 	movb   $0x72,0x20599f(%rip)        # 212047 <s+0x7>
    c6a8:	c6 05 9d 59 20 00 3e 	movb   $0x3e,0x20599d(%rip)        # 21204c <s+0xc>
    c6af:	c6 05 9a 59 20 00 5b 	movb   $0x5b,0x20599a(%rip)        # 212050 <s+0x10>
    c6b6:	c6 05 8b 59 20 00 63 	movb   $0x63,0x20598b(%rip)        # 212048 <s+0x8>
    c6bd:	c6 05 90 59 20 00 29 	movb   $0x29,0x205990(%rip)        # 212054 <s+0x14>
    c6c4:	c6 05 77 59 20 00 55 	movb   $0x55,0x205977(%rip)        # 212042 <s+0x2>
    c6cb:	c6 05 6f 59 20 00 47 	movb   $0x47,0x20596f(%rip)        # 212041 <s+0x1>
    c6d2:	c6 05 8a 59 20 00 58 	movb   $0x58,0x20598a(%rip)        # 212063 <s+0x23>
    c6d9:	c6 05 6e 59 20 00 22 	movb   $0x22,0x20596e(%rip)        # 21204e <s+0xe>
    c6e0:	c6 05 6a 59 20 00 55 	movb   $0x55,0x20596a(%rip)        # 212051 <s+0x11>
    c6e7:	c6 05 59 59 20 00 25 	movb   $0x25,0x205959(%rip)        # 212047 <s+0x7>
    c6ee:	c6 05 5d 59 20 00 2a 	movb   $0x2a,0x20595d(%rip)        # 212052 <s+0x12>
    c6f5:	c6 05 49 59 20 00 3a 	movb   $0x3a,0x205949(%rip)        # 212045 <s+0x5>
    c6fc:	c6 05 42 59 20 00 5e 	movb   $0x5e,0x205942(%rip)        # 212045 <s+0x5>
    c703:	c6 05 40 59 20 00 58 	movb   $0x58,0x205940(%rip)        # 21204a <s+0xa>
    c70a:	c6 05 4d 59 20 00 62 	movb   $0x62,0x20594d(%rip)        # 21205e <s+0x1e>
    c711:	c6 05 33 59 20 00 32 	movb   $0x32,0x205933(%rip)        # 21204b <s+0xb>
    c718:	c6 05 30 59 20 00 45 	movb   $0x45,0x205930(%rip)        # 21204f <s+0xf>
    c71f:	c6 05 24 59 20 00 57 	movb   $0x57,0x205924(%rip)        # 21204a <s+0xa>
    c726:	c6 05 2e 59 20 00 26 	movb   $0x26,0x20592e(%rip)        # 21205b <s+0x1b>
    c72d:	c6 05 15 59 20 00 26 	movb   $0x26,0x205915(%rip)        # 212049 <s+0x9>
    c734:	c6 05 06 59 20 00 69 	movb   $0x69,0x205906(%rip)        # 212041 <s+0x1>
    c73b:	c6 05 ff 58 20 00 76 	movb   $0x76,0x2058ff(%rip)        # 212041 <s+0x1>
    c742:	c6 05 f9 58 20 00 45 	movb   $0x45,0x2058f9(%rip)        # 212042 <s+0x2>
    c749:	c6 05 08 59 20 00 79 	movb   $0x79,0x205908(%rip)        # 212058 <s+0x18>
    c750:	c6 05 07 59 20 00 35 	movb   $0x35,0x205907(%rip)        # 21205e <s+0x1e>
    c757:	c6 05 f9 58 20 00 4a 	movb   $0x4a,0x2058f9(%rip)        # 212057 <s+0x17>
    c75e:	c6 05 fe 58 20 00 4c 	movb   $0x4c,0x2058fe(%rip)        # 212063 <s+0x23>
    c765:	c6 05 d8 58 20 00 24 	movb   $0x24,0x2058d8(%rip)        # 212044 <s+0x4>
    c76c:	c6 05 f4 58 20 00 2f 	movb   $0x2f,0x2058f4(%rip)        # 212067 <s+0x27>
    c773:	c6 05 d2 58 20 00 59 	movb   $0x59,0x2058d2(%rip)        # 21204c <s+0xc>
    c77a:	c6 05 c2 58 20 00 52 	movb   $0x52,0x2058c2(%rip)        # 212043 <s+0x3>
    c781:	c6 05 be 58 20 00 75 	movb   $0x75,0x2058be(%rip)        # 212046 <s+0x6>
    c788:	c6 05 b8 58 20 00 5a 	movb   $0x5a,0x2058b8(%rip)        # 212047 <s+0x7>
    c78f:	c6 05 c4 58 20 00 65 	movb   $0x65,0x2058c4(%rip)        # 21205a <s+0x1a>
    c796:	c6 05 c7 58 20 00 52 	movb   $0x52,0x2058c7(%rip)        # 212064 <s+0x24>
    c79d:	c6 05 b5 58 20 00 36 	movb   $0x36,0x2058b5(%rip)        # 212059 <s+0x19>
    c7a4:	c6 05 9e 58 20 00 53 	movb   $0x53,0x20589e(%rip)        # 212049 <s+0x9>
    c7ab:	c6 05 a3 58 20 00 7e 	movb   $0x7e,0x2058a3(%rip)        # 212055 <s+0x15>
    c7b2:	c6 05 9a 58 20 00 78 	movb   $0x78,0x20589a(%rip)        # 212053 <s+0x13>
    c7b9:	c6 05 91 58 20 00 24 	movb   $0x24,0x205891(%rip)        # 212051 <s+0x11>
    c7c0:	c6 05 79 58 20 00 4f 	movb   $0x4f,0x205879(%rip)        # 212040 <s>
    c7c7:	c6 05 90 58 20 00 31 	movb   $0x31,0x205890(%rip)        # 21205e <s+0x1e>
    c7ce:	c6 05 77 58 20 00 20 	movb   $0x20,0x205877(%rip)        # 21204c <s+0xc>
    c7d5:	c6 05 7e 58 20 00 76 	movb   $0x76,0x20587e(%rip)        # 21205a <s+0x1a>
    c7dc:	c6 05 75 58 20 00 4d 	movb   $0x4d,0x205875(%rip)        # 212058 <s+0x18>
    c7e3:	c6 05 6f 58 20 00 71 	movb   $0x71,0x20586f(%rip)        # 212059 <s+0x19>
    c7ea:	c6 05 53 58 20 00 47 	movb   $0x47,0x205853(%rip)        # 212044 <s+0x4>
    c7f1:	c6 05 4c 58 20 00 6a 	movb   $0x6a,0x20584c(%rip)        # 212044 <s+0x4>
    c7f8:	c6 05 61 58 20 00 78 	movb   $0x78,0x205861(%rip)        # 212060 <s+0x20>
    c7ff:	c6 05 3d 58 20 00 7e 	movb   $0x7e,0x20583d(%rip)        # 212043 <s+0x3>
    c806:	c6 05 47 58 20 00 5a 	movb   $0x5a,0x205847(%rip)        # 212054 <s+0x14>
    c80d:	c6 05 48 58 20 00 79 	movb   $0x79,0x205848(%rip)        # 21205c <s+0x1c>
    c814:	c6 05 40 58 20 00 28 	movb   $0x28,0x205840(%rip)        # 21205b <s+0x1b>
    c81b:	c6 05 36 58 20 00 58 	movb   $0x58,0x205836(%rip)        # 212058 <s+0x18>
    c822:	c6 05 33 58 20 00 67 	movb   $0x67,0x205833(%rip)        # 21205c <s+0x1c>
    c829:	c6 05 17 58 20 00 68 	movb   $0x68,0x205817(%rip)        # 212047 <s+0x7>
    c830:	c6 05 12 58 20 00 70 	movb   $0x70,0x205812(%rip)        # 212049 <s+0x9>
    c837:	c6 05 20 58 20 00 46 	movb   $0x46,0x205820(%rip)        # 21205e <s+0x1e>
    c83e:	c6 05 13 58 20 00 40 	movb   $0x40,0x205813(%rip)        # 212058 <s+0x18>
    c845:	c6 05 0d 58 20 00 44 	movb   $0x44,0x20580d(%rip)        # 212059 <s+0x19>
    c84c:	c6 05 01 58 20 00 4c 	movb   $0x4c,0x205801(%rip)        # 212054 <s+0x14>
    c853:	c6 05 0a 58 20 00 48 	movb   $0x48,0x20580a(%rip)        # 212064 <s+0x24>
    c85a:	c6 05 f3 57 20 00 3d 	movb   $0x3d,0x2057f3(%rip)        # 212054 <s+0x14>
    c861:	c6 05 e0 57 20 00 3a 	movb   $0x3a,0x2057e0(%rip)        # 212048 <s+0x8>
    c868:	c6 05 e0 57 20 00 36 	movb   $0x36,0x2057e0(%rip)        # 21204f <s+0xf>
    c86f:	c6 05 ce 57 20 00 25 	movb   $0x25,0x2057ce(%rip)        # 212044 <s+0x4>
    c876:	c6 05 c6 57 20 00 32 	movb   $0x32,0x2057c6(%rip)        # 212043 <s+0x3>
    c87d:	c6 05 d3 57 20 00 6c 	movb   $0x6c,0x2057d3(%rip)        # 212057 <s+0x17>
    c884:	c6 05 da 57 20 00 6a 	movb   $0x6a,0x2057da(%rip)        # 212065 <s+0x25>
    c88b:	c6 05 b1 57 20 00 6e 	movb   $0x6e,0x2057b1(%rip)        # 212043 <s+0x3>
    c892:	c6 05 cd 57 20 00 23 	movb   $0x23,0x2057cd(%rip)        # 212066 <s+0x26>
    c899:	c6 05 b0 57 20 00 42 	movb   $0x42,0x2057b0(%rip)        # 212050 <s+0x10>
    c8a0:	c6 05 bd 57 20 00 4e 	movb   $0x4e,0x2057bd(%rip)        # 212064 <s+0x24>
    c8a7:	c6 05 9b 57 20 00 22 	movb   $0x22,0x20579b(%rip)        # 212049 <s+0x9>
    c8ae:	c6 05 9f 57 20 00 55 	movb   $0x55,0x20579f(%rip)        # 212054 <s+0x14>
    c8b5:	c6 05 a5 57 20 00 36 	movb   $0x36,0x2057a5(%rip)        # 212061 <s+0x21>
    c8bc:	c6 05 8e 57 20 00 2b 	movb   $0x2b,0x20578e(%rip)        # 212051 <s+0x11>
    c8c3:	c6 05 9b 57 20 00 3e 	movb   $0x3e,0x20579b(%rip)        # 212065 <s+0x25>
    c8ca:	c6 05 78 57 20 00 32 	movb   $0x32,0x205778(%rip)        # 212049 <s+0x9>
    c8d1:	c6 05 6a 57 20 00 7e 	movb   $0x7e,0x20576a(%rip)        # 212042 <s+0x2>
    c8d8:	c6 05 80 57 20 00 4c 	movb   $0x4c,0x205780(%rip)        # 21205f <s+0x1f>
    c8df:	c6 05 66 57 20 00 57 	movb   $0x57,0x205766(%rip)        # 21204c <s+0xc>
    c8e6:	c6 05 5e 57 20 00 61 	movb   $0x61,0x20575e(%rip)        # 21204b <s+0xb>
    c8ed:	c6 05 63 57 20 00 63 	movb   $0x63,0x205763(%rip)        # 212057 <s+0x17>
    c8f4:	c6 05 5d 57 20 00 78 	movb   $0x78,0x20575d(%rip)        # 212058 <s+0x18>
    c8fb:	c6 05 45 57 20 00 56 	movb   $0x56,0x205745(%rip)        # 212047 <s+0x7>
    c902:	c6 05 5a 57 20 00 23 	movb   $0x23,0x20575a(%rip)        # 212063 <s+0x23>
    c909:	c6 05 52 57 20 00 30 	movb   $0x30,0x205752(%rip)        # 212062 <s+0x22>
    c910:	c6 05 47 57 20 00 2f 	movb   $0x2f,0x205747(%rip)        # 21205e <s+0x1e>
    c917:	c6 05 28 57 20 00 66 	movb   $0x66,0x205728(%rip)        # 212046 <s+0x6>
    c91e:	c6 05 39 57 20 00 70 	movb   $0x70,0x205739(%rip)        # 21205e <s+0x1e>
    c925:	c6 05 2c 57 20 00 44 	movb   $0x44,0x20572c(%rip)        # 212058 <s+0x18>
    c92c:	c6 05 2c 57 20 00 7c 	movb   $0x7c,0x20572c(%rip)        # 21205f <s+0x1f>
    c933:	c6 05 2a 57 20 00 78 	movb   $0x78,0x20572a(%rip)        # 212064 <s+0x24>
    c93a:	c6 05 19 57 20 00 26 	movb   $0x26,0x205719(%rip)        # 21205a <s+0x1a>
    c941:	c6 05 03 57 20 00 4b 	movb   $0x4b,0x205703(%rip)        # 21204b <s+0xb>
    c948:	c6 05 02 57 20 00 62 	movb   $0x62,0x205702(%rip)        # 212051 <s+0x11>
    c94f:	c6 05 0f 57 20 00 46 	movb   $0x46,0x20570f(%rip)        # 212065 <s+0x25>
    c956:	c6 05 f9 56 20 00 4b 	movb   $0x4b,0x2056f9(%rip)        # 212056 <s+0x16>
    c95d:	c6 05 f5 56 20 00 58 	movb   $0x58,0x2056f5(%rip)        # 212059 <s+0x19>
    c964:	c6 05 f2 56 20 00 38 	movb   $0x38,0x2056f2(%rip)        # 21205d <s+0x1d>
    c96b:	c6 05 dc 56 20 00 24 	movb   $0x24,0x2056dc(%rip)        # 21204e <s+0xe>
    c972:	c6 05 ce 56 20 00 4e 	movb   $0x4e,0x2056ce(%rip)        # 212047 <s+0x7>
    c979:	c6 05 ce 56 20 00 37 	movb   $0x37,0x2056ce(%rip)        # 21204e <s+0xe>
    c980:	c6 05 b9 56 20 00 30 	movb   $0x30,0x2056b9(%rip)        # 212040 <s>
    c987:	c6 05 c9 56 20 00 4d 	movb   $0x4d,0x2056c9(%rip)        # 212057 <s+0x17>
    c98e:	c6 05 c2 56 20 00 7e 	movb   $0x7e,0x2056c2(%rip)        # 212057 <s+0x17>
    c995:	c6 05 b3 56 20 00 21 	movb   $0x21,0x2056b3(%rip)        # 21204f <s+0xf>
    c99c:	c6 05 b7 56 20 00 4c 	movb   $0x4c,0x2056b7(%rip)        # 21205a <s+0x1a>
    c9a3:	c6 05 ab 56 20 00 75 	movb   $0x75,0x2056ab(%rip)        # 212055 <s+0x15>
    c9aa:	c6 05 ac 56 20 00 45 	movb   $0x45,0x2056ac(%rip)        # 21205d <s+0x1d>
    c9b1:	c6 05 8a 56 20 00 53 	movb   $0x53,0x20568a(%rip)        # 212042 <s+0x2>
    c9b8:	c6 05 9c 56 20 00 6e 	movb   $0x6e,0x20569c(%rip)        # 21205b <s+0x1b>
    c9bf:	c6 05 9a 56 20 00 45 	movb   $0x45,0x20569a(%rip)        # 212060 <s+0x20>
    c9c6:	c6 05 8f 56 20 00 4b 	movb   $0x4b,0x20568f(%rip)        # 21205c <s+0x1c>
    c9cd:	c6 05 6d 56 20 00 62 	movb   $0x62,0x20566d(%rip)        # 212041 <s+0x1>
    c9d4:	c6 05 86 56 20 00 7e 	movb   $0x7e,0x205686(%rip)        # 212061 <s+0x21>
    c9db:	c6 05 85 56 20 00 44 	movb   $0x44,0x205685(%rip)        # 212067 <s+0x27>
    c9e2:	c6 05 75 56 20 00 21 	movb   $0x21,0x205675(%rip)        # 21205e <s+0x1e>
    c9e9:	c6 05 6e 56 20 00 2a 	movb   $0x2a,0x20566e(%rip)        # 21205e <s+0x1e>
    c9f0:	c6 05 6b 56 20 00 62 	movb   $0x62,0x20566b(%rip)        # 212062 <s+0x22>
    c9f7:	c6 05 47 56 20 00 5f 	movb   $0x5f,0x205647(%rip)        # 212045 <s+0x5>
    c9fe:	c6 05 49 56 20 00 23 	movb   $0x23,0x205649(%rip)        # 21204e <s+0xe>
    ca05:	c6 05 3c 56 20 00 79 	movb   $0x79,0x20563c(%rip)        # 212048 <s+0x8>
    ca0c:	c6 05 38 56 20 00 35 	movb   $0x35,0x205638(%rip)        # 21204b <s+0xb>
    ca13:	c6 05 46 56 20 00 40 	movb   $0x40,0x205646(%rip)        # 212060 <s+0x20>
    ca1a:	c6 05 3b 56 20 00 75 	movb   $0x75,0x20563b(%rip)        # 21205c <s+0x1c>
    ca21:	c6 05 39 56 20 00 4b 	movb   $0x4b,0x205639(%rip)        # 212061 <s+0x21>
    ca28:	c6 05 29 56 20 00 71 	movb   $0x71,0x205629(%rip)        # 212058 <s+0x18>
    ca2f:	c6 05 2f 56 20 00 44 	movb   $0x44,0x20562f(%rip)        # 212065 <s+0x25>
    ca36:	c6 05 29 56 20 00 60 	movb   $0x60,0x205629(%rip)        # 212066 <s+0x26>
    ca3d:	c6 05 03 56 20 00 57 	movb   $0x57,0x205603(%rip)        # 212047 <s+0x7>
    ca44:	c6 05 19 56 20 00 4e 	movb   $0x4e,0x205619(%rip)        # 212064 <s+0x24>
    ca4b:	c6 05 fb 55 20 00 70 	movb   $0x70,0x2055fb(%rip)        # 21204d <s+0xd>
    ca52:	c6 05 07 56 20 00 58 	movb   $0x58,0x205607(%rip)        # 212060 <s+0x20>
    ca59:	c6 05 e4 55 20 00 67 	movb   $0x67,0x2055e4(%rip)        # 212044 <s+0x4>
    ca60:	c6 05 f8 55 20 00 73 	movb   $0x73,0x2055f8(%rip)        # 21205f <s+0x1f>
    ca67:	c6 05 f8 55 20 00 41 	movb   $0x41,0x2055f8(%rip)        # 212066 <s+0x26>
    ca6e:	c6 05 e1 55 20 00 7b 	movb   $0x7b,0x2055e1(%rip)        # 212056 <s+0x16>
    ca75:	c6 05 cb 55 20 00 37 	movb   $0x37,0x2055cb(%rip)        # 212047 <s+0x7>
    ca7c:	c6 05 da 55 20 00 64 	movb   $0x64,0x2055da(%rip)        # 21205d <s+0x1d>
    ca83:	c6 05 c9 55 20 00 21 	movb   $0x21,0x2055c9(%rip)        # 212053 <s+0x13>
    ca8a:	c6 05 d1 55 20 00 7d 	movb   $0x7d,0x2055d1(%rip)        # 212062 <s+0x22>
    ca91:	c6 05 b4 55 20 00 4a 	movb   $0x4a,0x2055b4(%rip)        # 21204c <s+0xc>
    ca98:	c6 05 ac 55 20 00 20 	movb   $0x20,0x2055ac(%rip)        # 21204b <s+0xb>
    ca9f:	c6 05 ab 55 20 00 24 	movb   $0x24,0x2055ab(%rip)        # 212051 <s+0x11>
    caa6:	c6 05 a3 55 20 00 33 	movb   $0x33,0x2055a3(%rip)        # 212050 <s+0x10>
    caad:	c6 05 a2 55 20 00 3b 	movb   $0x3b,0x2055a2(%rip)        # 212056 <s+0x16>
    cab4:	c6 05 8d 55 20 00 54 	movb   $0x54,0x20558d(%rip)        # 212048 <s+0x8>
    cabb:	c6 05 a4 55 20 00 23 	movb   $0x23,0x2055a4(%rip)        # 212066 <s+0x26>
    cac2:	c6 05 86 55 20 00 4f 	movb   $0x4f,0x205586(%rip)        # 21204f <s+0xf>
    cac9:	c6 05 90 55 20 00 37 	movb   $0x37,0x205590(%rip)        # 212060 <s+0x20>
    cad0:	c6 05 6b 55 20 00 35 	movb   $0x35,0x20556b(%rip)        # 212042 <s+0x2>
    cad7:	c6 05 72 55 20 00 49 	movb   $0x49,0x205572(%rip)        # 212050 <s+0x10>
    cade:	c6 05 5f 55 20 00 79 	movb   $0x79,0x20555f(%rip)        # 212044 <s+0x4>
    cae5:	c6 05 58 55 20 00 40 	movb   $0x40,0x205558(%rip)        # 212044 <s+0x4>
    caec:	c6 05 55 55 20 00 79 	movb   $0x79,0x205555(%rip)        # 212048 <s+0x8>
    caf3:	c6 05 5f 55 20 00 24 	movb   $0x24,0x20555f(%rip)        # 212059 <s+0x19>
    cafa:	c6 05 54 55 20 00 7e 	movb   $0x7e,0x205554(%rip)        # 212055 <s+0x15>
    cb01:	c6 05 4e 55 20 00 24 	movb   $0x24,0x20554e(%rip)        # 212056 <s+0x16>
    cb08:	c6 05 46 55 20 00 42 	movb   $0x42,0x205546(%rip)        # 212055 <s+0x15>
    cb0f:	c6 05 45 55 20 00 7e 	movb   $0x7e,0x205545(%rip)        # 21205b <s+0x1b>
    cb16:	c6 05 46 55 20 00 35 	movb   $0x35,0x205546(%rip)        # 212063 <s+0x23>
    cb1d:	c6 05 42 55 20 00 54 	movb   $0x54,0x205542(%rip)        # 212066 <s+0x26>
    cb24:	c6 05 2d 55 20 00 3c 	movb   $0x3c,0x20552d(%rip)        # 212058 <s+0x18>
    cb2b:	c6 05 18 55 20 00 29 	movb   $0x29,0x205518(%rip)        # 21204a <s+0xa>
    cb32:	c6 05 12 55 20 00 67 	movb   $0x67,0x205512(%rip)        # 21204b <s+0xb>
    cb39:	c6 05 14 55 20 00 6f 	movb   $0x6f,0x205514(%rip)        # 212054 <s+0x14>
    cb40:	c6 05 1f 55 20 00 5b 	movb   $0x5b,0x20551f(%rip)        # 212066 <s+0x26>
    cb47:	c6 05 f3 54 20 00 7b 	movb   $0x7b,0x2054f3(%rip)        # 212041 <s+0x1>
    cb4e:	c6 05 12 55 20 00 41 	movb   $0x41,0x205512(%rip)        # 212067 <s+0x27>
    cb55:	c6 05 fb 54 20 00 58 	movb   $0x58,0x2054fb(%rip)        # 212057 <s+0x17>
    cb5c:	c6 05 e3 54 20 00 2f 	movb   $0x2f,0x2054e3(%rip)        # 212046 <s+0x6>
    cb63:	c6 05 eb 54 20 00 48 	movb   $0x48,0x2054eb(%rip)        # 212055 <s+0x15>
    cb6a:	c6 05 f2 54 20 00 68 	movb   $0x68,0x2054f2(%rip)        # 212063 <s+0x23>
    cb71:	c6 05 e6 54 20 00 6c 	movb   $0x6c,0x2054e6(%rip)        # 21205e <s+0x1e>
    cb78:	c6 05 c4 54 20 00 2a 	movb   $0x2a,0x2054c4(%rip)        # 212043 <s+0x3>
    cb7f:	c6 05 da 54 20 00 2a 	movb   $0x2a,0x2054da(%rip)        # 212060 <s+0x20>
    cb86:	c6 05 b3 54 20 00 79 	movb   $0x79,0x2054b3(%rip)        # 212040 <s>
    cb8d:	c6 05 ce 54 20 00 32 	movb   $0x32,0x2054ce(%rip)        # 212062 <s+0x22>
    cb94:	c6 05 cb 54 20 00 63 	movb   $0x63,0x2054cb(%rip)        # 212066 <s+0x26>
    cb9b:	c6 05 c0 54 20 00 49 	movb   $0x49,0x2054c0(%rip)        # 212062 <s+0x22>
    cba2:	c6 05 a1 54 20 00 78 	movb   $0x78,0x2054a1(%rip)        # 21204a <s+0xa>
    cba9:	c6 05 9c 54 20 00 5e 	movb   $0x5e,0x20549c(%rip)        # 21204c <s+0xc>
    cbb0:	c6 05 af 54 20 00 26 	movb   $0x26,0x2054af(%rip)        # 212066 <s+0x26>
    cbb7:	c6 05 a5 54 20 00 3b 	movb   $0x3b,0x2054a5(%rip)        # 212063 <s+0x23>
    cbbe:	c6 05 8c 54 20 00 76 	movb   $0x76,0x20548c(%rip)        # 212051 <s+0x11>
    cbc5:	c6 05 78 54 20 00 7d 	movb   $0x7d,0x205478(%rip)        # 212044 <s+0x4>
    cbcc:	c6 05 6f 54 20 00 51 	movb   $0x51,0x20546f(%rip)        # 212042 <s+0x2>
    cbd3:	c6 05 88 54 20 00 48 	movb   $0x48,0x205488(%rip)        # 212062 <s+0x22>
    cbda:	c6 05 60 54 20 00 79 	movb   $0x79,0x205460(%rip)        # 212041 <s+0x1>
    cbe1:	c6 05 6f 54 20 00 58 	movb   $0x58,0x20546f(%rip)        # 212057 <s+0x17>
    cbe8:	c6 05 57 54 20 00 72 	movb   $0x72,0x205457(%rip)        # 212046 <s+0x6>
    cbef:	c6 05 4b 54 20 00 66 	movb   $0x66,0x20544b(%rip)        # 212041 <s+0x1>
    cbf6:	c6 05 53 54 20 00 2c 	movb   $0x2c,0x205453(%rip)        # 212050 <s+0x10>
    cbfd:	c6 05 5b 54 20 00 76 	movb   $0x76,0x20545b(%rip)        # 21205f <s+0x1f>
    cc04:	c6 05 36 54 20 00 5e 	movb   $0x5e,0x205436(%rip)        # 212041 <s+0x1>
    cc0b:	c6 05 3c 54 20 00 7e 	movb   $0x7e,0x20543c(%rip)        # 21204e <s+0xe>
    cc12:	c6 05 27 54 20 00 23 	movb   $0x23,0x205427(%rip)        # 212040 <s>
    cc19:	c6 05 47 54 20 00 20 	movb   $0x20,0x205447(%rip)        # 212067 <s+0x27>
    cc20:	c6 05 2a 54 20 00 34 	movb   $0x34,0x20542a(%rip)        # 212051 <s+0x11>
    cc27:	c6 05 2f 54 20 00 28 	movb   $0x28,0x20542f(%rip)        # 21205d <s+0x1d>
    cc2e:	c6 05 2b 54 20 00 2f 	movb   $0x2f,0x20542b(%rip)        # 212060 <s+0x20>
    cc35:	c6 05 25 54 20 00 7d 	movb   $0x7d,0x205425(%rip)        # 212061 <s+0x21>
    cc3c:	c6 05 0f 54 20 00 7e 	movb   $0x7e,0x20540f(%rip)        # 212052 <s+0x12>
    cc43:	c6 05 12 54 20 00 4b 	movb   $0x4b,0x205412(%rip)        # 21205c <s+0x1c>
    cc4a:	c6 05 07 54 20 00 36 	movb   $0x36,0x205407(%rip)        # 212058 <s+0x18>
    cc51:	c6 05 01 54 20 00 72 	movb   $0x72,0x205401(%rip)        # 212059 <s+0x19>
    cc58:	c6 05 f5 53 20 00 35 	movb   $0x35,0x2053f5(%rip)        # 212054 <s+0x14>
    cc5f:	c6 05 f7 53 20 00 63 	movb   $0x63,0x2053f7(%rip)        # 21205d <s+0x1d>
    cc66:	c6 05 f0 53 20 00 24 	movb   $0x24,0x2053f0(%rip)        # 21205d <s+0x1d>
    cc6d:	c6 05 da 53 20 00 7a 	movb   $0x7a,0x2053da(%rip)        # 21204e <s+0xe>
    cc74:	c6 05 db 53 20 00 7b 	movb   $0x7b,0x2053db(%rip)        # 212056 <s+0x16>
    cc7b:	c6 05 df 53 20 00 73 	movb   $0x73,0x2053df(%rip)        # 212061 <s+0x21>
    cc82:	c6 05 bf 53 20 00 64 	movb   $0x64,0x2053bf(%rip)        # 212048 <s+0x8>
    cc89:	c6 05 bb 53 20 00 69 	movb   $0x69,0x2053bb(%rip)        # 21204b <s+0xb>
    cc90:	c6 05 a9 53 20 00 64 	movb   $0x64,0x2053a9(%rip)        # 212040 <s>
    cc97:	c6 05 a3 53 20 00 28 	movb   $0x28,0x2053a3(%rip)        # 212041 <s+0x1>
    cc9e:	c6 05 aa 53 20 00 4e 	movb   $0x4e,0x2053aa(%rip)        # 21204f <s+0xf>
    cca5:	c6 05 9d 53 20 00 76 	movb   $0x76,0x20539d(%rip)        # 212049 <s+0x9>
    ccac:	c6 05 a1 53 20 00 26 	movb   $0x26,0x2053a1(%rip)        # 212054 <s+0x14>
    ccb3:	c6 05 92 53 20 00 46 	movb   $0x46,0x205392(%rip)        # 21204c <s+0xc>
    ccba:	c6 05 a0 53 20 00 5a 	movb   $0x5a,0x2053a0(%rip)        # 212061 <s+0x21>
    ccc1:	c6 05 9d 53 20 00 79 	movb   $0x79,0x20539d(%rip)        # 212065 <s+0x25>
    ccc8:	c6 05 81 53 20 00 38 	movb   $0x38,0x205381(%rip)        # 212050 <s+0x10>
    cccf:	c6 05 8c 53 20 00 73 	movb   $0x73,0x20538c(%rip)        # 212062 <s+0x22>
    ccd6:	c6 05 74 53 20 00 39 	movb   $0x39,0x205374(%rip)        # 212051 <s+0x11>
    ccdd:	c6 05 65 53 20 00 3a 	movb   $0x3a,0x205365(%rip)        # 212049 <s+0x9>
    cce4:	c6 05 73 53 20 00 3c 	movb   $0x3c,0x205373(%rip)        # 21205e <s+0x1e>
    cceb:	c6 05 52 53 20 00 46 	movb   $0x46,0x205352(%rip)        # 212044 <s+0x4>
    ccf2:	c6 05 54 53 20 00 41 	movb   $0x41,0x205354(%rip)        # 21204d <s+0xd>
    ccf9:	c6 05 4d 53 20 00 59 	movb   $0x59,0x20534d(%rip)        # 21204d <s+0xd>
    cd00:	c6 05 53 53 20 00 7e 	movb   $0x7e,0x205353(%rip)        # 21205a <s+0x1a>
    cd07:	c6 05 32 53 20 00 34 	movb   $0x34,0x205332(%rip)        # 212040 <s>
    cd0e:	c6 05 4f 53 20 00 3a 	movb   $0x3a,0x20534f(%rip)        # 212064 <s+0x24>
    cd15:	c6 05 2b 53 20 00 79 	movb   $0x79,0x20532b(%rip)        # 212047 <s+0x7>
    cd1c:	c6 05 3a 53 20 00 4b 	movb   $0x4b,0x20533a(%rip)        # 21205d <s+0x1d>
    cd23:	c6 05 2c 53 20 00 47 	movb   $0x47,0x20532c(%rip)        # 212056 <s+0x16>
    cd2a:	c6 05 30 53 20 00 2c 	movb   $0x2c,0x205330(%rip)        # 212061 <s+0x21>
    cd31:	c6 05 2e 53 20 00 50 	movb   $0x50,0x20532e(%rip)        # 212066 <s+0x26>
    cd38:	c6 05 04 53 20 00 54 	movb   $0x54,0x205304(%rip)        # 212043 <s+0x3>
    cd3f:	c6 05 0e 53 20 00 40 	movb   $0x40,0x20530e(%rip)        # 212054 <s+0x14>
    cd46:	c6 05 13 53 20 00 37 	movb   $0x37,0x205313(%rip)        # 212060 <s+0x20>
    cd4d:	c6 05 12 53 20 00 32 	movb   $0x32,0x205312(%rip)        # 212066 <s+0x26>
    cd54:	c6 05 ec 52 20 00 61 	movb   $0x61,0x2052ec(%rip)        # 212047 <s+0x7>
    cd5b:	c6 05 f6 52 20 00 4b 	movb   $0x4b,0x2052f6(%rip)        # 212058 <s+0x18>
    cd62:	c6 05 dd 52 20 00 6a 	movb   $0x6a,0x2052dd(%rip)        # 212046 <s+0x6>
    cd69:	c6 05 f5 52 20 00 6e 	movb   $0x6e,0x2052f5(%rip)        # 212065 <s+0x25>
    cd70:	c6 05 e1 52 20 00 72 	movb   $0x72,0x2052e1(%rip)        # 212058 <s+0x18>
    cd77:	c6 05 d4 52 20 00 20 	movb   $0x20,0x2052d4(%rip)        # 212052 <s+0x12>
    cd7e:	c6 05 cd 52 20 00 3d 	movb   $0x3d,0x2052cd(%rip)        # 212052 <s+0x12>
    cd85:	c6 05 cc 52 20 00 63 	movb   $0x63,0x2052cc(%rip)        # 212058 <s+0x18>
    cd8c:	c6 05 b4 52 20 00 74 	movb   $0x74,0x2052b4(%rip)        # 212047 <s+0x7>
    cd93:	c6 05 b6 52 20 00 33 	movb   $0x33,0x2052b6(%rip)        # 212050 <s+0x10>
    cd9a:	c6 05 bb 52 20 00 6f 	movb   $0x6f,0x2052bb(%rip)        # 21205c <s+0x1c>
    cda1:	c6 05 a8 52 20 00 63 	movb   $0x63,0x2052a8(%rip)        # 212050 <s+0x10>
    cda8:	c6 05 af 52 20 00 5e 	movb   $0x5e,0x2052af(%rip)        # 21205e <s+0x1e>
    cdaf:	c6 05 a6 52 20 00 4c 	movb   $0x4c,0x2052a6(%rip)        # 21205c <s+0x1c>
    cdb6:	c6 05 a7 52 20 00 3b 	movb   $0x3b,0x2052a7(%rip)        # 212064 <s+0x24>
    cdbd:	c6 05 84 52 20 00 28 	movb   $0x28,0x205284(%rip)        # 212048 <s+0x8>
    cdc4:	c6 05 99 52 20 00 76 	movb   $0x76,0x205299(%rip)        # 212064 <s+0x24>
    cdcb:	c6 05 89 52 20 00 3f 	movb   $0x3f,0x205289(%rip)        # 21205b <s+0x1b>
    cdd2:	c6 05 80 52 20 00 64 	movb   $0x64,0x205280(%rip)        # 212059 <s+0x19>
    cdd9:	c6 05 6a 52 20 00 2d 	movb   $0x2d,0x20526a(%rip)        # 21204a <s+0xa>
    cde0:	c6 05 7a 52 20 00 70 	movb   $0x70,0x20527a(%rip)        # 212061 <s+0x21>
    cde7:	c6 05 61 52 20 00 45 	movb   $0x45,0x205261(%rip)        # 21204f <s+0xf>
    cdee:	c6 05 70 52 20 00 6f 	movb   $0x6f,0x205270(%rip)        # 212065 <s+0x25>
    cdf5:	c6 05 45 52 20 00 6e 	movb   $0x6e,0x205245(%rip)        # 212041 <s+0x1>
    cdfc:	c6 05 56 52 20 00 66 	movb   $0x66,0x205256(%rip)        # 212059 <s+0x19>
    ce03:	c6 05 3e 52 20 00 3c 	movb   $0x3c,0x20523e(%rip)        # 212048 <s+0x8>
    ce0a:	c6 05 44 52 20 00 72 	movb   $0x72,0x205244(%rip)        # 212055 <s+0x15>
    ce11:	c6 05 37 52 20 00 64 	movb   $0x64,0x205237(%rip)        # 21204f <s+0xf>
    ce18:	c6 05 28 52 20 00 3f 	movb   $0x3f,0x205228(%rip)        # 212047 <s+0x7>
    ce1f:	c6 05 2e 52 20 00 31 	movb   $0x31,0x20522e(%rip)        # 212054 <s+0x14>
    ce26:	c6 05 15 52 20 00 25 	movb   $0x25,0x205215(%rip)        # 212042 <s+0x2>
    ce2d:	c6 05 0c 52 20 00 7e 	movb   $0x7e,0x20520c(%rip)        # 212040 <s>
    ce34:	c6 05 2b 52 20 00 6d 	movb   $0x6d,0x20522b(%rip)        # 212066 <s+0x26>
    ce3b:	c6 05 23 52 20 00 6a 	movb   $0x6a,0x205223(%rip)        # 212065 <s+0x25>
    ce42:	c6 05 06 52 20 00 37 	movb   $0x37,0x205206(%rip)        # 21204f <s+0xf>
    ce49:	c6 05 12 52 20 00 76 	movb   $0x76,0x205212(%rip)        # 212062 <s+0x22>
    ce50:	c6 05 f1 51 20 00 2a 	movb   $0x2a,0x2051f1(%rip)        # 212048 <s+0x8>
    ce57:	c6 05 04 52 20 00 7c 	movb   $0x7c,0x205204(%rip)        # 212062 <s+0x22>
    ce5e:	c6 05 ee 51 20 00 79 	movb   $0x79,0x2051ee(%rip)        # 212053 <s+0x13>
    ce65:	c6 05 f7 51 20 00 43 	movb   $0x43,0x2051f7(%rip)        # 212063 <s+0x23>
    ce6c:	c6 05 e2 51 20 00 57 	movb   $0x57,0x2051e2(%rip)        # 212055 <s+0x15>
    ce73:	c6 05 ea 51 20 00 53 	movb   $0x53,0x2051ea(%rip)        # 212064 <s+0x24>
    ce7a:	c6 05 c9 51 20 00 59 	movb   $0x59,0x2051c9(%rip)        # 21204a <s+0xa>
    ce81:	c6 05 d4 51 20 00 2f 	movb   $0x2f,0x2051d4(%rip)        # 21205c <s+0x1c>
    ce88:	c6 05 d3 51 20 00 43 	movb   $0x43,0x2051d3(%rip)        # 212062 <s+0x22>
    ce8f:	c6 05 ae 51 20 00 3c 	movb   $0x3c,0x2051ae(%rip)        # 212044 <s+0x4>
    ce96:	c6 05 c2 51 20 00 7e 	movb   $0x7e,0x2051c2(%rip)        # 21205f <s+0x1f>
    ce9d:	c6 05 9d 51 20 00 73 	movb   $0x73,0x20519d(%rip)        # 212041 <s+0x1>
    cea4:	c6 05 a1 51 20 00 40 	movb   $0x40,0x2051a1(%rip)        # 21204c <s+0xc>
    ceab:	c6 05 9d 51 20 00 45 	movb   $0x45,0x20519d(%rip)        # 21204f <s+0xf>
    ceb2:	c6 05 8d 51 20 00 3e 	movb   $0x3e,0x20518d(%rip)        # 212046 <s+0x6>
    ceb9:	c6 05 83 51 20 00 3d 	movb   $0x3d,0x205183(%rip)        # 212043 <s+0x3>
    cec0:	c6 05 9d 51 20 00 2a 	movb   $0x2a,0x20519d(%rip)        # 212064 <s+0x24>
    cec7:	c6 05 85 51 20 00 5a 	movb   $0x5a,0x205185(%rip)        # 212053 <s+0x13>
    cece:	c6 05 7c 51 20 00 61 	movb   $0x61,0x20517c(%rip)        # 212051 <s+0x11>
    ced5:	c6 05 80 51 20 00 6a 	movb   $0x6a,0x205180(%rip)        # 21205c <s+0x1c>
    cedc:	c6 05 6f 51 20 00 5d 	movb   $0x5d,0x20516f(%rip)        # 212052 <s+0x12>
    cee3:	c6 05 6e 51 20 00 49 	movb   $0x49,0x20516e(%rip)        # 212058 <s+0x18>
    ceea:	c6 05 6d 51 20 00 43 	movb   $0x43,0x20516d(%rip)        # 21205e <s+0x1e>
    cef1:	c6 05 5c 51 20 00 5d 	movb   $0x5d,0x20515c(%rip)        # 212054 <s+0x14>
    cef8:	c6 05 52 51 20 00 7b 	movb   $0x7b,0x205152(%rip)        # 212051 <s+0x11>
    ceff:	c6 05 3d 51 20 00 66 	movb   $0x66,0x20513d(%rip)        # 212043 <s+0x3>
    cf06:	c6 05 3c 51 20 00 6c 	movb   $0x6c,0x20513c(%rip)        # 212049 <s+0x9>
    cf0d:	c6 05 44 51 20 00 37 	movb   $0x37,0x205144(%rip)        # 212058 <s+0x18>
    cf14:	c6 05 49 51 20 00 77 	movb   $0x77,0x205149(%rip)        # 212064 <s+0x24>
    cf1b:	c6 05 25 51 20 00 25 	movb   $0x25,0x205125(%rip)        # 212047 <s+0x7>
    cf22:	c6 05 17 51 20 00 68 	movb   $0x68,0x205117(%rip)        # 212040 <s>
    cf29:	c6 05 34 51 20 00 76 	movb   $0x76,0x205134(%rip)        # 212064 <s+0x24>
    cf30:	c6 05 2b 51 20 00 4c 	movb   $0x4c,0x20512b(%rip)        # 212062 <s+0x22>
    cf37:	c6 05 19 51 20 00 74 	movb   $0x74,0x205119(%rip)        # 212057 <s+0x17>
    cf3e:	c6 05 11 51 20 00 52 	movb   $0x52,0x205111(%rip)        # 212056 <s+0x16>
    cf45:	c6 05 f4 50 20 00 2e 	movb   $0x2e,0x2050f4(%rip)        # 212040 <s>
    cf4c:	c6 05 fb 50 20 00 2e 	movb   $0x2e,0x2050fb(%rip)        # 21204e <s+0xe>
    cf53:	c6 05 04 51 20 00 74 	movb   $0x74,0x205104(%rip)        # 21205e <s+0x1e>
    cf5a:	c6 05 f8 50 20 00 4a 	movb   $0x4a,0x2050f8(%rip)        # 212059 <s+0x19>
    cf61:	c6 05 d8 50 20 00 21 	movb   $0x21,0x2050d8(%rip)        # 212040 <s>
    cf68:	c6 05 e4 50 20 00 6e 	movb   $0x6e,0x2050e4(%rip)        # 212053 <s+0x13>
    cf6f:	c6 05 dc 50 20 00 23 	movb   $0x23,0x2050dc(%rip)        # 212052 <s+0x12>
    cf76:	c6 05 cd 50 20 00 2f 	movb   $0x2f,0x2050cd(%rip)        # 21204a <s+0xa>
    cf7d:	c6 05 dc 50 20 00 28 	movb   $0x28,0x2050dc(%rip)        # 212060 <s+0x20>
    cf84:	c6 05 b8 50 20 00 3f 	movb   $0x3f,0x2050b8(%rip)        # 212043 <s+0x3>
    cf8b:	c6 05 d5 50 20 00 6b 	movb   $0x6b,0x2050d5(%rip)        # 212067 <s+0x27>
    cf92:	c6 05 ca 50 20 00 2d 	movb   $0x2d,0x2050ca(%rip)        # 212063 <s+0x23>
    cf99:	c6 05 c0 50 20 00 51 	movb   $0x51,0x2050c0(%rip)        # 212060 <s+0x20>
    cfa0:	c6 05 ae 50 20 00 44 	movb   $0x44,0x2050ae(%rip)        # 212055 <s+0x15>
    cfa7:	c6 05 b0 50 20 00 75 	movb   $0x75,0x2050b0(%rip)        # 21205e <s+0x1e>
    cfae:	c6 05 8e 50 20 00 28 	movb   $0x28,0x20508e(%rip)        # 212043 <s+0x3>
    cfb5:	c6 05 a4 50 20 00 5d 	movb   $0x5d,0x2050a4(%rip)        # 212060 <s+0x20>
    cfbc:	c6 05 8d 50 20 00 58 	movb   $0x58,0x20508d(%rip)        # 212050 <s+0x10>
    cfc3:	c6 05 8d 50 20 00 22 	movb   $0x22,0x20508d(%rip)        # 212057 <s+0x17>
    cfca:	c6 05 86 50 20 00 72 	movb   $0x72,0x205086(%rip)        # 212057 <s+0x17>
    cfd1:	c6 05 82 50 20 00 4b 	movb   $0x4b,0x205082(%rip)        # 21205a <s+0x1a>
    cfd8:	c6 05 64 50 20 00 50 	movb   $0x50,0x205064(%rip)        # 212043 <s+0x3>
    cfdf:	c6 05 75 50 20 00 2b 	movb   $0x2b,0x205075(%rip)        # 21205b <s+0x1b>
    cfe6:	c6 05 76 50 20 00 6c 	movb   $0x6c,0x205076(%rip)        # 212063 <s+0x23>
    cfed:	c6 05 6d 50 20 00 67 	movb   $0x67,0x20506d(%rip)        # 212061 <s+0x21>
    cff4:	c6 05 49 50 20 00 2e 	movb   $0x2e,0x205049(%rip)        # 212044 <s+0x4>
    cffb:	c6 05 5c 50 20 00 72 	movb   $0x72,0x20505c(%rip)        # 21205e <s+0x1e>
    d002:	c6 05 38 50 20 00 3c 	movb   $0x3c,0x205038(%rip)        # 212041 <s+0x1>
    d009:	c6 05 3b 50 20 00 63 	movb   $0x63,0x20503b(%rip)        # 21204b <s+0xb>
    d010:	c6 05 46 50 20 00 22 	movb   $0x22,0x205046(%rip)        # 21205d <s+0x1d>
    d017:	c6 05 34 50 20 00 57 	movb   $0x57,0x205034(%rip)        # 212052 <s+0x12>
    d01e:	c6 05 36 50 20 00 74 	movb   $0x74,0x205036(%rip)        # 21205b <s+0x1b>
    d025:	c6 05 27 50 20 00 66 	movb   $0x66,0x205027(%rip)        # 212053 <s+0x13>
    d02c:	c6 05 25 50 20 00 47 	movb   $0x47,0x205025(%rip)        # 212058 <s+0x18>
    d033:	c6 05 24 50 20 00 4c 	movb   $0x4c,0x205024(%rip)        # 21205e <s+0x1e>
    d03a:	c6 05 0f 50 20 00 2e 	movb   $0x2e,0x20500f(%rip)        # 212050 <s+0x10>
    d041:	c6 05 fd 4f 20 00 36 	movb   $0x36,0x204ffd(%rip)        # 212045 <s+0x5>
    d048:	c6 05 fe 4f 20 00 70 	movb   $0x70,0x204ffe(%rip)        # 21204d <s+0xd>
    d04f:	c6 05 0e 50 20 00 4d 	movb   $0x4d,0x20500e(%rip)        # 212064 <s+0x24>
    d056:	c6 05 f2 4f 20 00 2a 	movb   $0x2a,0x204ff2(%rip)        # 21204f <s+0xf>
    d05d:	c6 05 fe 4f 20 00 4b 	movb   $0x4b,0x204ffe(%rip)        # 212062 <s+0x22>
    d064:	c6 05 e9 4f 20 00 3a 	movb   $0x3a,0x204fe9(%rip)        # 212054 <s+0x14>
    d06b:	c6 05 f2 4f 20 00 6a 	movb   $0x6a,0x204ff2(%rip)        # 212064 <s+0x24>
    d072:	c6 05 ca 4f 20 00 58 	movb   $0x58,0x204fca(%rip)        # 212043 <s+0x3>
    d079:	c6 05 c6 4f 20 00 4c 	movb   $0x4c,0x204fc6(%rip)        # 212046 <s+0x6>
    d080:	c6 05 da 4f 20 00 70 	movb   $0x70,0x204fda(%rip)        # 212061 <s+0x21>
    d087:	c6 05 d1 4f 20 00 51 	movb   $0x51,0x204fd1(%rip)        # 21205f <s+0x1f>
    d08e:	c6 05 af 4f 20 00 40 	movb   $0x40,0x204faf(%rip)        # 212044 <s+0x4>
    d095:	c6 05 c1 4f 20 00 5b 	movb   $0x5b,0x204fc1(%rip)        # 21205d <s+0x1d>
    d09c:	c6 05 c1 4f 20 00 39 	movb   $0x39,0x204fc1(%rip)        # 212064 <s+0x24>
    d0a3:	c6 05 b0 4f 20 00 31 	movb   $0x31,0x204fb0(%rip)        # 21205a <s+0x1a>
    d0aa:	c6 05 b2 4f 20 00 42 	movb   $0x42,0x204fb2(%rip)        # 212063 <s+0x23>
    d0b1:	c6 05 92 4f 20 00 6d 	movb   $0x6d,0x204f92(%rip)        # 21204a <s+0xa>
    d0b8:	c6 05 a7 4f 20 00 5a 	movb   $0x5a,0x204fa7(%rip)        # 212066 <s+0x26>
    d0bf:	c6 05 87 4f 20 00 6b 	movb   $0x6b,0x204f87(%rip)        # 21204d <s+0xd>
    d0c6:	c6 05 83 4f 20 00 2d 	movb   $0x2d,0x204f83(%rip)        # 212050 <s+0x10>
    d0cd:	c6 05 87 4f 20 00 6b 	movb   $0x6b,0x204f87(%rip)        # 21205b <s+0x1b>
    d0d4:	c6 05 69 4f 20 00 37 	movb   $0x37,0x204f69(%rip)        # 212044 <s+0x4>
    d0db:	c6 05 84 4f 20 00 34 	movb   $0x34,0x204f84(%rip)        # 212066 <s+0x26>
    d0e2:	c6 05 58 4f 20 00 3c 	movb   $0x3c,0x204f58(%rip)        # 212041 <s+0x1>
    d0e9:	c6 05 58 4f 20 00 4e 	movb   $0x4e,0x204f58(%rip)        # 212048 <s+0x8>
    d0f0:	c6 05 69 4f 20 00 4a 	movb   $0x4a,0x204f69(%rip)        # 212060 <s+0x20>
    d0f7:	c6 05 50 4f 20 00 7c 	movb   $0x7c,0x204f50(%rip)        # 21204e <s+0xe>
    d0fe:	c6 05 56 4f 20 00 33 	movb   $0x33,0x204f56(%rip)        # 21205b <s+0x1b>
    d105:	c6 05 4b 4f 20 00 6f 	movb   $0x6f,0x204f4b(%rip)        # 212057 <s+0x17>
    d10c:	c6 05 53 4f 20 00 6c 	movb   $0x6c,0x204f53(%rip)        # 212066 <s+0x26>
    d113:	c6 05 37 4f 20 00 7e 	movb   $0x7e,0x204f37(%rip)        # 212051 <s+0x11>
    d11a:	c6 05 44 4f 20 00 6d 	movb   $0x6d,0x204f44(%rip)        # 212065 <s+0x25>
    d121:	c6 05 1c 4f 20 00 57 	movb   $0x57,0x204f1c(%rip)        # 212044 <s+0x4>
    d128:	c6 05 17 4f 20 00 5e 	movb   $0x5e,0x204f17(%rip)        # 212046 <s+0x6>
    d12f:	c6 05 18 4f 20 00 47 	movb   $0x47,0x204f18(%rip)        # 21204e <s+0xe>
    d136:	c6 05 07 4f 20 00 20 	movb   $0x20,0x204f07(%rip)        # 212044 <s+0x4>
    d13d:	c6 05 00 4f 20 00 6d 	movb   $0x6d,0x204f00(%rip)        # 212044 <s+0x4>
    d144:	c6 05 fc 4e 20 00 74 	movb   $0x74,0x204efc(%rip)        # 212047 <s+0x7>
    d14b:	c6 05 f5 4e 20 00 2f 	movb   $0x2f,0x204ef5(%rip)        # 212047 <s+0x7>
    d152:	c6 05 f7 4e 20 00 49 	movb   $0x49,0x204ef7(%rip)        # 212050 <s+0x10>
    d159:	c6 05 05 4f 20 00 29 	movb   $0x29,0x204f05(%rip)        # 212065 <s+0x25>
    d160:	c6 05 ef 4e 20 00 7a 	movb   $0x7a,0x204eef(%rip)        # 212056 <s+0x16>
    d167:	c6 05 f0 4e 20 00 3f 	movb   $0x3f,0x204ef0(%rip)        # 21205e <s+0x1e>
    d16e:	c6 05 e0 4e 20 00 31 	movb   $0x31,0x204ee0(%rip)        # 212055 <s+0x15>
    d175:	c6 05 d5 4e 20 00 6f 	movb   $0x6f,0x204ed5(%rip)        # 212051 <s+0x11>
    d17c:	c6 05 d9 4e 20 00 7d 	movb   $0x7d,0x204ed9(%rip)        # 21205c <s+0x1c>
    d183:	c6 05 d9 4e 20 00 4f 	movb   $0x4f,0x204ed9(%rip)        # 212063 <s+0x23>
    d18a:	c6 05 be 4e 20 00 2e 	movb   $0x2e,0x204ebe(%rip)        # 21204f <s+0xf>
    d191:	c6 05 c6 4e 20 00 38 	movb   $0x38,0x204ec6(%rip)        # 21205e <s+0x1e>
    d198:	c6 05 c0 4e 20 00 2e 	movb   $0x2e,0x204ec0(%rip)        # 21205f <s+0x1f>
    d19f:	c6 05 c1 4e 20 00 75 	movb   $0x75,0x204ec1(%rip)        # 212067 <s+0x27>
    d1a6:	c6 05 a0 4e 20 00 71 	movb   $0x71,0x204ea0(%rip)        # 21204d <s+0xd>
    d1ad:	c6 05 9d 4e 20 00 71 	movb   $0x71,0x204e9d(%rip)        # 212051 <s+0x11>
    d1b4:	c6 05 8e 4e 20 00 45 	movb   $0x45,0x204e8e(%rip)        # 212049 <s+0x9>
    d1bb:	c6 05 9c 4e 20 00 23 	movb   $0x23,0x204e9c(%rip)        # 21205e <s+0x1e>
    d1c2:	c6 05 8d 4e 20 00 42 	movb   $0x42,0x204e8d(%rip)        # 212056 <s+0x16>
    d1c9:	c6 05 94 4e 20 00 2a 	movb   $0x2a,0x204e94(%rip)        # 212064 <s+0x24>
    d1d0:	c6 05 90 4e 20 00 4f 	movb   $0x4f,0x204e90(%rip)        # 212067 <s+0x27>
    d1d7:	c6 05 73 4e 20 00 6c 	movb   $0x6c,0x204e73(%rip)        # 212051 <s+0x11>
    d1de:	c6 05 6e 4e 20 00 6a 	movb   $0x6a,0x204e6e(%rip)        # 212053 <s+0x13>
    d1e5:	c6 05 5c 4e 20 00 75 	movb   $0x75,0x204e5c(%rip)        # 212048 <s+0x8>
    d1ec:	c6 05 64 4e 20 00 63 	movb   $0x63,0x204e64(%rip)        # 212057 <s+0x17>
    d1f3:	c6 05 62 4e 20 00 25 	movb   $0x25,0x204e62(%rip)        # 21205c <s+0x1c>
    d1fa:	c6 05 5e 4e 20 00 64 	movb   $0x64,0x204e5e(%rip)        # 21205f <s+0x1f>
    d201:	c6 05 5a 4e 20 00 49 	movb   $0x49,0x204e5a(%rip)        # 212062 <s+0x22>
    d208:	c6 05 3b 4e 20 00 4e 	movb   $0x4e,0x204e3b(%rip)        # 21204a <s+0xa>
    d20f:	c6 05 38 4e 20 00 6d 	movb   $0x6d,0x204e38(%rip)        # 21204e <s+0xe>
    d216:	c6 05 43 4e 20 00 5a 	movb   $0x5a,0x204e43(%rip)        # 212060 <s+0x20>
    d21d:	c6 05 31 4e 20 00 64 	movb   $0x64,0x204e31(%rip)        # 212055 <s+0x15>
    d224:	c6 05 18 4e 20 00 66 	movb   $0x66,0x204e18(%rip)        # 212043 <s+0x3>
    d22b:	c6 05 12 4e 20 00 4e 	movb   $0x4e,0x204e12(%rip)        # 212044 <s+0x4>
    d232:	c6 05 1a 4e 20 00 4e 	movb   $0x4e,0x204e1a(%rip)        # 212053 <s+0x13>
    d239:	c6 05 21 4e 20 00 2d 	movb   $0x2d,0x204e21(%rip)        # 212061 <s+0x21>
    d240:	c6 05 fc 4d 20 00 74 	movb   $0x74,0x204dfc(%rip)        # 212043 <s+0x3>
    d247:	c6 05 0a 4e 20 00 53 	movb   $0x53,0x204e0a(%rip)        # 212058 <s+0x18>
    d24e:	c6 05 fc 4d 20 00 52 	movb   $0x52,0x204dfc(%rip)        # 212051 <s+0x11>
    d255:	c6 05 ed 4d 20 00 50 	movb   $0x50,0x204ded(%rip)        # 212049 <s+0x9>
    d25c:	c6 05 e2 4d 20 00 40 	movb   $0x40,0x204de2(%rip)        # 212045 <s+0x5>
    d263:	c6 05 d6 4d 20 00 2c 	movb   $0x2c,0x204dd6(%rip)        # 212040 <s>
    d26a:	c6 05 d3 4d 20 00 39 	movb   $0x39,0x204dd3(%rip)        # 212044 <s+0x4>
    d271:	c6 05 d9 4d 20 00 72 	movb   $0x72,0x204dd9(%rip)        # 212051 <s+0x11>
    d278:	c6 05 dc 4d 20 00 4f 	movb   $0x4f,0x204ddc(%rip)        # 21205b <s+0x1b>
    d27f:	c6 05 ce 4d 20 00 60 	movb   $0x60,0x204dce(%rip)        # 212054 <s+0x14>
    d286:	c6 05 be 4d 20 00 69 	movb   $0x69,0x204dbe(%rip)        # 21204b <s+0xb>
    d28d:	c6 05 b0 4d 20 00 45 	movb   $0x45,0x204db0(%rip)        # 212044 <s+0x4>
    d294:	c6 05 c4 4d 20 00 24 	movb   $0x24,0x204dc4(%rip)        # 21205f <s+0x1f>
    d29b:	c6 05 bf 4d 20 00 4a 	movb   $0x4a,0x204dbf(%rip)        # 212061 <s+0x21>
    d2a2:	c6 05 9d 4d 20 00 45 	movb   $0x45,0x204d9d(%rip)        # 212046 <s+0x6>
    d2a9:	c6 05 b5 4d 20 00 24 	movb   $0x24,0x204db5(%rip)        # 212065 <s+0x25>
    d2b0:	c6 05 aa 4d 20 00 46 	movb   $0x46,0x204daa(%rip)        # 212061 <s+0x21>
    d2b7:	c6 05 87 4d 20 00 7a 	movb   $0x7a,0x204d87(%rip)        # 212045 <s+0x5>
    d2be:	c6 05 7f 4d 20 00 24 	movb   $0x24,0x204d7f(%rip)        # 212044 <s+0x4>
    d2c5:	c6 05 8d 4d 20 00 45 	movb   $0x45,0x204d8d(%rip)        # 212059 <s+0x19>
    d2cc:	c6 05 6e 4d 20 00 25 	movb   $0x25,0x204d6e(%rip)        # 212041 <s+0x1>
    d2d3:	c6 05 6f 4d 20 00 44 	movb   $0x44,0x204d6f(%rip)        # 212049 <s+0x9>
    d2da:	c6 05 83 4d 20 00 43 	movb   $0x43,0x204d83(%rip)        # 212064 <s+0x24>
    d2e1:	c6 05 5f 4d 20 00 70 	movb   $0x70,0x204d5f(%rip)        # 212047 <s+0x7>
    d2e8:	c6 05 60 4d 20 00 7e 	movb   $0x7e,0x204d60(%rip)        # 21204f <s+0xf>
    d2ef:	c6 05 5f 4d 20 00 5f 	movb   $0x5f,0x204d5f(%rip)        # 212055 <s+0x15>
    d2f6:	c6 05 62 4d 20 00 5e 	movb   $0x5e,0x204d62(%rip)        # 21205f <s+0x1f>
    d2fd:	c6 05 4b 4d 20 00 3e 	movb   $0x3e,0x204d4b(%rip)        # 21204f <s+0xf>
    d304:	c6 05 4a 4d 20 00 61 	movb   $0x61,0x204d4a(%rip)        # 212055 <s+0x15>
    d30b:	c6 05 39 4d 20 00 7b 	movb   $0x7b,0x204d39(%rip)        # 21204b <s+0xb>
    d312:	c6 05 38 4d 20 00 21 	movb   $0x21,0x204d38(%rip)        # 212051 <s+0x11>
    d319:	c6 05 43 4d 20 00 2d 	movb   $0x2d,0x204d43(%rip)        # 212063 <s+0x23>
    d320:	c6 05 1a 4d 20 00 4b 	movb   $0x4b,0x204d1a(%rip)        # 212041 <s+0x1>
    d327:	c6 05 26 4d 20 00 73 	movb   $0x73,0x204d26(%rip)        # 212054 <s+0x14>
    d32e:	c6 05 13 4d 20 00 2b 	movb   $0x2b,0x204d13(%rip)        # 212048 <s+0x8>
    d335:	c6 05 0b 4d 20 00 39 	movb   $0x39,0x204d0b(%rip)        # 212047 <s+0x7>
    d33c:	c6 05 1b 4d 20 00 6a 	movb   $0x6a,0x204d1b(%rip)        # 21205e <s+0x1e>
    d343:	c6 05 fd 4c 20 00 4a 	movb   $0x4a,0x204cfd(%rip)        # 212047 <s+0x7>
    d34a:	c6 05 07 4d 20 00 26 	movb   $0x26,0x204d07(%rip)        # 212058 <s+0x18>
    d351:	c6 05 fd 4c 20 00 57 	movb   $0x57,0x204cfd(%rip)        # 212055 <s+0x15>
    d358:	c6 05 f4 4c 20 00 21 	movb   $0x21,0x204cf4(%rip)        # 212053 <s+0x13>
    d35f:	c6 05 f0 4c 20 00 7b 	movb   $0x7b,0x204cf0(%rip)        # 212056 <s+0x16>
    d366:	c6 05 d9 4c 20 00 33 	movb   $0x33,0x204cd9(%rip)        # 212046 <s+0x6>
    d36d:	c6 05 e5 4c 20 00 47 	movb   $0x47,0x204ce5(%rip)        # 212059 <s+0x19>
    d374:	c6 05 d0 4c 20 00 75 	movb   $0x75,0x204cd0(%rip)        # 21204b <s+0xb>
    d37b:	c6 05 cc 4c 20 00 68 	movb   $0x68,0x204ccc(%rip)        # 21204e <s+0xe>
    d382:	c6 05 bf 4c 20 00 78 	movb   $0x78,0x204cbf(%rip)        # 212048 <s+0x8>
    d389:	c6 05 cb 4c 20 00 48 	movb   $0x48,0x204ccb(%rip)        # 21205b <s+0x1b>
    d390:	c6 05 bb 4c 20 00 66 	movb   $0x66,0x204cbb(%rip)        # 212052 <s+0x12>
    d397:	c6 05 a8 4c 20 00 36 	movb   $0x36,0x204ca8(%rip)        # 212046 <s+0x6>
    d39e:	c6 05 af 4c 20 00 78 	movb   $0x78,0x204caf(%rip)        # 212054 <s+0x14>
    d3a5:	c6 05 b0 4c 20 00 41 	movb   $0x41,0x204cb0(%rip)        # 21205c <s+0x1c>
    d3ac:	c6 05 ab 4c 20 00 6e 	movb   $0x6e,0x204cab(%rip)        # 21205e <s+0x1e>
    d3b3:	c6 05 99 4c 20 00 3f 	movb   $0x3f,0x204c99(%rip)        # 212053 <s+0x13>
    d3ba:	c6 05 a3 4c 20 00 70 	movb   $0x70,0x204ca3(%rip)        # 212064 <s+0x24>
    d3c1:	c6 05 79 4c 20 00 26 	movb   $0x26,0x204c79(%rip)        # 212041 <s+0x1>
    d3c8:	c6 05 74 4c 20 00 45 	movb   $0x45,0x204c74(%rip)        # 212043 <s+0x3>
    d3cf:	c6 05 8f 4c 20 00 4b 	movb   $0x4b,0x204c8f(%rip)        # 212065 <s+0x25>
    d3d6:	c6 05 81 4c 20 00 68 	movb   $0x68,0x204c81(%rip)        # 21205e <s+0x1e>
    d3dd:	c6 05 78 4c 20 00 50 	movb   $0x50,0x204c78(%rip)        # 21205c <s+0x1c>
    d3e4:	c6 05 5d 4c 20 00 47 	movb   $0x47,0x204c5d(%rip)        # 212048 <s+0x8>
    d3eb:	c6 05 6a 4c 20 00 47 	movb   $0x47,0x204c6a(%rip)        # 21205c <s+0x1c>
    d3f2:	c6 05 5d 4c 20 00 20 	movb   $0x20,0x204c5d(%rip)        # 212056 <s+0x16>
    d3f9:	c6 05 5e 4c 20 00 37 	movb   $0x37,0x204c5e(%rip)        # 21205e <s+0x1e>
    d400:	c6 05 4a 4c 20 00 26 	movb   $0x26,0x204c4a(%rip)        # 212051 <s+0x11>
    d407:	c6 05 46 4c 20 00 45 	movb   $0x45,0x204c46(%rip)        # 212054 <s+0x14>
    d40e:	c6 05 39 4c 20 00 78 	movb   $0x78,0x204c39(%rip)        # 21204e <s+0xe>
    d415:	c6 05 48 4c 20 00 4e 	movb   $0x4e,0x204c48(%rip)        # 212064 <s+0x24>
    d41c:	c6 05 3d 4c 20 00 29 	movb   $0x29,0x204c3d(%rip)        # 212060 <s+0x20>
    d423:	c6 05 29 4c 20 00 2d 	movb   $0x2d,0x204c29(%rip)        # 212053 <s+0x13>
    d42a:	c6 05 31 4c 20 00 65 	movb   $0x65,0x204c31(%rip)        # 212062 <s+0x22>
    d431:	c6 05 08 4c 20 00 2c 	movb   $0x2c,0x204c08(%rip)        # 212040 <s>
    d438:	c6 05 27 4c 20 00 47 	movb   $0x47,0x204c27(%rip)        # 212066 <s+0x26>
    d43f:	c6 05 0b 4c 20 00 48 	movb   $0x48,0x204c0b(%rip)        # 212051 <s+0x11>
    d446:	c6 05 0a 4c 20 00 6c 	movb   $0x6c,0x204c0a(%rip)        # 212057 <s+0x17>
    d44d:	c6 05 07 4c 20 00 77 	movb   $0x77,0x204c07(%rip)        # 21205b <s+0x1b>
    d454:	c6 05 06 4c 20 00 36 	movb   $0x36,0x204c06(%rip)        # 212061 <s+0x21>
    d45b:	c6 05 f9 4b 20 00 74 	movb   $0x74,0x204bf9(%rip)        # 21205b <s+0x1b>
    d462:	c6 05 fd 4b 20 00 67 	movb   $0x67,0x204bfd(%rip)        # 212066 <s+0x26>
    d469:	c6 05 ed 4b 20 00 2a 	movb   $0x2a,0x204bed(%rip)        # 21205d <s+0x1d>
    d470:	c6 05 ce 4b 20 00 6f 	movb   $0x6f,0x204bce(%rip)        # 212045 <s+0x5>
    d477:	c6 05 d2 4b 20 00 58 	movb   $0x58,0x204bd2(%rip)        # 212050 <s+0x10>
    d47e:	c6 05 bd 4b 20 00 51 	movb   $0x51,0x204bbd(%rip)        # 212042 <s+0x2>
    d485:	c6 05 b8 4b 20 00 78 	movb   $0x78,0x204bb8(%rip)        # 212044 <s+0x4>
    d48c:	c6 05 d0 4b 20 00 76 	movb   $0x76,0x204bd0(%rip)        # 212063 <s+0x23>
    d493:	c6 05 a6 4b 20 00 68 	movb   $0x68,0x204ba6(%rip)        # 212040 <s>
    d49a:	c6 05 b5 4b 20 00 43 	movb   $0x43,0x204bb5(%rip)        # 212056 <s+0x16>
    d4a1:	c6 05 ba 4b 20 00 6d 	movb   $0x6d,0x204bba(%rip)        # 212062 <s+0x22>
    d4a8:	c6 05 a8 4b 20 00 64 	movb   $0x64,0x204ba8(%rip)        # 212057 <s+0x17>
    d4af:	c6 05 b1 4b 20 00 7b 	movb   $0x7b,0x204bb1(%rip)        # 212067 <s+0x27>
    d4b6:	c6 05 9f 4b 20 00 2d 	movb   $0x2d,0x204b9f(%rip)        # 21205c <s+0x1c>
    d4bd:	c6 05 9e 4b 20 00 7e 	movb   $0x7e,0x204b9e(%rip)        # 212062 <s+0x22>
    d4c4:	c6 05 7a 4b 20 00 3b 	movb   $0x3b,0x204b7a(%rip)        # 212045 <s+0x5>
    d4cb:	c6 05 83 4b 20 00 24 	movb   $0x24,0x204b83(%rip)        # 212055 <s+0x15>
    d4d2:	c6 05 6b 4b 20 00 30 	movb   $0x30,0x204b6b(%rip)        # 212044 <s+0x4>
    d4d9:	c6 05 79 4b 20 00 22 	movb   $0x22,0x204b79(%rip)        # 212059 <s+0x19>
    d4e0:	c6 05 69 4b 20 00 36 	movb   $0x36,0x204b69(%rip)        # 212050 <s+0x10>
    d4e7:	c6 05 5c 4b 20 00 2f 	movb   $0x2f,0x204b5c(%rip)        # 21204a <s+0xa>
    d4ee:	c6 05 5b 4b 20 00 3c 	movb   $0x3c,0x204b5b(%rip)        # 212050 <s+0x10>
    d4f5:	c6 05 50 4b 20 00 46 	movb   $0x46,0x204b50(%rip)        # 21204c <s+0xc>
    d4fc:	c6 05 4c 4b 20 00 49 	movb   $0x49,0x204b4c(%rip)        # 21204f <s+0xf>
    d503:	c6 05 4c 4b 20 00 61 	movb   $0x61,0x204b4c(%rip)        # 212056 <s+0x16>
    d50a:	c6 05 4e 4b 20 00 4b 	movb   $0x4b,0x204b4e(%rip)        # 21205f <s+0x1f>
    d511:	c6 05 45 4b 20 00 7e 	movb   $0x7e,0x204b45(%rip)        # 21205d <s+0x1d>
    d518:	c6 05 47 4b 20 00 61 	movb   $0x61,0x204b47(%rip)        # 212066 <s+0x26>
    d51f:	c6 05 32 4b 20 00 5b 	movb   $0x5b,0x204b32(%rip)        # 212058 <s+0x18>
    d526:	c6 05 32 4b 20 00 77 	movb   $0x77,0x204b32(%rip)        # 21205f <s+0x1f>
    d52d:	c6 05 1c 4b 20 00 56 	movb   $0x56,0x204b1c(%rip)        # 212050 <s+0x10>
    d534:	c6 05 13 4b 20 00 21 	movb   $0x21,0x204b13(%rip)        # 21204e <s+0xe>
    d53b:	c6 05 1c 4b 20 00 5b 	movb   $0x5b,0x204b1c(%rip)        # 21205e <s+0x1e>
    d542:	c6 05 05 4b 20 00 31 	movb   $0x31,0x204b05(%rip)        # 21204e <s+0xe>
    d549:	c6 05 16 4b 20 00 77 	movb   $0x77,0x204b16(%rip)        # 212066 <s+0x26>
    d550:	c6 05 f4 4a 20 00 65 	movb   $0x65,0x204af4(%rip)        # 21204b <s+0xb>
    d557:	c6 05 04 4b 20 00 54 	movb   $0x54,0x204b04(%rip)        # 212062 <s+0x22>
    d55e:	c6 05 f1 4a 20 00 4e 	movb   $0x4e,0x204af1(%rip)        # 212056 <s+0x16>
    d565:	c6 05 fa 4a 20 00 20 	movb   $0x20,0x204afa(%rip)        # 212066 <s+0x26>
    d56c:	c6 05 e6 4a 20 00 55 	movb   $0x55,0x204ae6(%rip)        # 212059 <s+0x19>
    d573:	c6 05 d0 4a 20 00 3f 	movb   $0x3f,0x204ad0(%rip)        # 21204a <s+0xa>
    d57a:	c6 05 df 4a 20 00 5f 	movb   $0x5f,0x204adf(%rip)        # 212060 <s+0x20>
    d581:	c6 05 c7 4a 20 00 44 	movb   $0x44,0x204ac7(%rip)        # 21204f <s+0xf>
    d588:	c6 05 b8 4a 20 00 60 	movb   $0x60,0x204ab8(%rip)        # 212047 <s+0x7>
    d58f:	c6 05 c8 4a 20 00 3a 	movb   $0x3a,0x204ac8(%rip)        # 21205e <s+0x1e>
    d596:	c6 05 a9 4a 20 00 77 	movb   $0x77,0x204aa9(%rip)        # 212046 <s+0x6>
    d59d:	c6 05 bf 4a 20 00 40 	movb   $0x40,0x204abf(%rip)        # 212063 <s+0x23>
    d5a4:	c6 05 ae 4a 20 00 2e 	movb   $0x2e,0x204aae(%rip)        # 212059 <s+0x19>
    d5ab:	c6 05 b0 4a 20 00 25 	movb   $0x25,0x204ab0(%rip)        # 212062 <s+0x22>
    d5b2:	c6 05 8c 4a 20 00 2a 	movb   $0x2a,0x204a8c(%rip)        # 212045 <s+0x5>
    d5b9:	c6 05 95 4a 20 00 4a 	movb   $0x4a,0x204a95(%rip)        # 212055 <s+0x15>
    d5c0:	c6 05 7d 4a 20 00 49 	movb   $0x49,0x204a7d(%rip)        # 212044 <s+0x4>
    d5c7:	c6 05 80 4a 20 00 48 	movb   $0x48,0x204a80(%rip)        # 21204e <s+0xe>
    d5ce:	c6 05 8a 4a 20 00 76 	movb   $0x76,0x204a8a(%rip)        # 21205f <s+0x1f>
    d5d5:	c6 05 66 4a 20 00 3b 	movb   $0x3b,0x204a66(%rip)        # 212042 <s+0x2>
    d5dc:	c6 05 78 4a 20 00 41 	movb   $0x41,0x204a78(%rip)        # 21205b <s+0x1b>
    d5e3:	c6 05 58 4a 20 00 31 	movb   $0x31,0x204a58(%rip)        # 212042 <s+0x2>
    d5ea:	c6 05 56 4a 20 00 6d 	movb   $0x6d,0x204a56(%rip)        # 212047 <s+0x7>
    d5f1:	c6 05 6e 4a 20 00 5e 	movb   $0x5e,0x204a6e(%rip)        # 212066 <s+0x26>
    d5f8:	c6 05 4f 4a 20 00 66 	movb   $0x66,0x204a4f(%rip)        # 21204e <s+0xe>
    d5ff:	c6 05 5e 4a 20 00 46 	movb   $0x46,0x204a5e(%rip)        # 212064 <s+0x24>
    d606:	c6 05 34 4a 20 00 6a 	movb   $0x6a,0x204a34(%rip)        # 212041 <s+0x1>
    d60d:	c6 05 39 4a 20 00 24 	movb   $0x24,0x204a39(%rip)        # 21204d <s+0xd>
    d614:	c6 05 3f 4a 20 00 58 	movb   $0x58,0x204a3f(%rip)        # 21205a <s+0x1a>
    d61b:	c6 05 45 4a 20 00 33 	movb   $0x33,0x204a45(%rip)        # 212067 <s+0x27>
    d622:	c6 05 26 4a 20 00 48 	movb   $0x48,0x204a26(%rip)        # 21204f <s+0xf>
    d629:	c6 05 30 4a 20 00 65 	movb   $0x65,0x204a30(%rip)        # 212060 <s+0x20>
    d630:	c6 05 13 4a 20 00 77 	movb   $0x77,0x204a13(%rip)        # 21204a <s+0xa>
    d637:	c6 05 25 4a 20 00 36 	movb   $0x36,0x204a25(%rip)        # 212063 <s+0x23>
    d63e:	c6 05 21 4a 20 00 76 	movb   $0x76,0x204a21(%rip)        # 212066 <s+0x26>
    d645:	c6 05 ff 49 20 00 55 	movb   $0x55,0x2049ff(%rip)        # 21204b <s+0xb>
    d64c:	c6 05 f5 49 20 00 22 	movb   $0x22,0x2049f5(%rip)        # 212048 <s+0x8>
    d653:	c6 05 ff 49 20 00 51 	movb   $0x51,0x2049ff(%rip)        # 212059 <s+0x19>
    d65a:	c6 05 e8 49 20 00 35 	movb   $0x35,0x2049e8(%rip)        # 212049 <s+0x9>
    d661:	c6 05 fa 49 20 00 2b 	movb   $0x2b,0x2049fa(%rip)        # 212062 <s+0x22>
    d668:	c6 05 e6 49 20 00 7e 	movb   $0x7e,0x2049e6(%rip)        # 212055 <s+0x15>
    d66f:	c6 05 e4 49 20 00 2d 	movb   $0x2d,0x2049e4(%rip)        # 21205a <s+0x1a>
    d676:	c6 05 d7 49 20 00 73 	movb   $0x73,0x2049d7(%rip)        # 212054 <s+0x14>
    d67d:	c6 05 da 49 20 00 49 	movb   $0x49,0x2049da(%rip)        # 21205e <s+0x1e>
    d684:	c6 05 b5 49 20 00 3f 	movb   $0x3f,0x2049b5(%rip)        # 212040 <s>
    d68b:	c6 05 ce 49 20 00 44 	movb   $0x44,0x2049ce(%rip)        # 212060 <s+0x20>
    d692:	c6 05 b8 49 20 00 51 	movb   $0x51,0x2049b8(%rip)        # 212051 <s+0x11>
    d699:	c6 05 c4 49 20 00 2a 	movb   $0x2a,0x2049c4(%rip)        # 212064 <s+0x24>
    d6a0:	c6 05 a8 49 20 00 30 	movb   $0x30,0x2049a8(%rip)        # 21204f <s+0xf>
    d6a7:	c6 05 ac 49 20 00 52 	movb   $0x52,0x2049ac(%rip)        # 21205a <s+0x1a>
    d6ae:	c6 05 98 49 20 00 4a 	movb   $0x4a,0x204998(%rip)        # 21204d <s+0xd>
    d6b5:	c6 05 a5 49 20 00 3b 	movb   $0x3b,0x2049a5(%rip)        # 212061 <s+0x21>
    d6bc:	c6 05 a2 49 20 00 66 	movb   $0x66,0x2049a2(%rip)        # 212065 <s+0x25>
    d6c3:	c6 05 8c 49 20 00 56 	movb   $0x56,0x20498c(%rip)        # 212056 <s+0x16>
    d6ca:	c6 05 80 49 20 00 7a 	movb   $0x7a,0x204980(%rip)        # 212051 <s+0x11>
    d6d1:	c6 05 77 49 20 00 26 	movb   $0x26,0x204977(%rip)        # 21204f <s+0xf>
    d6d8:	c6 05 7f 49 20 00 62 	movb   $0x62,0x20497f(%rip)        # 21205e <s+0x1e>
    d6df:	c6 05 61 49 20 00 53 	movb   $0x53,0x204961(%rip)        # 212047 <s+0x7>
    d6e6:	c6 05 5d 49 20 00 40 	movb   $0x40,0x20495d(%rip)        # 21204a <s+0xa>
    d6ed:	c6 05 68 49 20 00 54 	movb   $0x54,0x204968(%rip)        # 21205c <s+0x1c>
    d6f4:	c6 05 5c 49 20 00 79 	movb   $0x79,0x20495c(%rip)        # 212057 <s+0x17>
    d6fb:	c6 05 53 49 20 00 5e 	movb   $0x5e,0x204953(%rip)        # 212055 <s+0x15>
    d702:	c6 05 47 49 20 00 24 	movb   $0x24,0x204947(%rip)        # 212050 <s+0x10>
    d709:	c6 05 38 49 20 00 5b 	movb   $0x5b,0x204938(%rip)        # 212048 <s+0x8>
    d710:	c6 05 2d 49 20 00 51 	movb   $0x51,0x20492d(%rip)        # 212044 <s+0x4>
    d717:	c6 05 47 49 20 00 71 	movb   $0x71,0x204947(%rip)        # 212065 <s+0x25>
    d71e:	c6 05 2e 49 20 00 5b 	movb   $0x5b,0x20492e(%rip)        # 212053 <s+0x13>
    d725:	c6 05 1d 49 20 00 2c 	movb   $0x2c,0x20491d(%rip)        # 212049 <s+0x9>
    d72c:	c6 05 12 49 20 00 3c 	movb   $0x3c,0x204912(%rip)        # 212045 <s+0x5>
    d733:	c6 05 12 49 20 00 46 	movb   $0x46,0x204912(%rip)        # 21204c <s+0xc>
    d73a:	c6 05 0d 49 20 00 2e 	movb   $0x2e,0x20490d(%rip)        # 21204e <s+0xe>
    d741:	c6 05 0b 49 20 00 54 	movb   $0x54,0x20490b(%rip)        # 212053 <s+0x13>
    d748:	c6 05 0d 49 20 00 4f 	movb   $0x4f,0x20490d(%rip)        # 21205c <s+0x1c>
    d74f:	c6 05 0c 49 20 00 57 	movb   $0x57,0x20490c(%rip)        # 212062 <s+0x22>
    d756:	c6 05 07 49 20 00 65 	movb   $0x65,0x204907(%rip)        # 212064 <s+0x24>
    d75d:	c6 05 e2 48 20 00 5d 	movb   $0x5d,0x2048e2(%rip)        # 212046 <s+0x6>
    d764:	c6 05 f8 48 20 00 43 	movb   $0x43,0x2048f8(%rip)        # 212063 <s+0x23>
    d76b:	c6 05 df 48 20 00 26 	movb   $0x26,0x2048df(%rip)        # 212051 <s+0x11>
    d772:	c6 05 c9 48 20 00 34 	movb   $0x34,0x2048c9(%rip)        # 212042 <s+0x2>
    d779:	c6 05 e1 48 20 00 37 	movb   $0x37,0x2048e1(%rip)        # 212061 <s+0x21>
    d780:	c6 05 d1 48 20 00 7b 	movb   $0x7b,0x2048d1(%rip)        # 212058 <s+0x18>
    d787:	c6 05 c1 48 20 00 5d 	movb   $0x5d,0x2048c1(%rip)        # 21204f <s+0xf>
    d78e:	c6 05 ad 48 20 00 7b 	movb   $0x7b,0x2048ad(%rip)        # 212042 <s+0x2>
    d795:	c6 05 a8 48 20 00 3e 	movb   $0x3e,0x2048a8(%rip)        # 212044 <s+0x4>
    d79c:	c6 05 a4 48 20 00 6a 	movb   $0x6a,0x2048a4(%rip)        # 212047 <s+0x7>
    d7a3:	c6 05 b4 48 20 00 41 	movb   $0x41,0x2048b4(%rip)        # 21205e <s+0x1e>
    d7aa:	c6 05 af 48 20 00 62 	movb   $0x62,0x2048af(%rip)        # 212060 <s+0x20>
    d7b1:	c6 05 89 48 20 00 4d 	movb   $0x4d,0x204889(%rip)        # 212041 <s+0x1>
    d7b8:	c6 05 9a 48 20 00 6d 	movb   $0x6d,0x20489a(%rip)        # 212059 <s+0x19>
    d7bf:	c6 05 9e 48 20 00 34 	movb   $0x34,0x20489e(%rip)        # 212064 <s+0x24>
    d7c6:	c6 05 80 48 20 00 35 	movb   $0x35,0x204880(%rip)        # 21204d <s+0xd>
    d7cd:	c6 05 8b 48 20 00 55 	movb   $0x55,0x20488b(%rip)        # 21205f <s+0x1f>
    d7d4:	c6 05 80 48 20 00 36 	movb   $0x36,0x204880(%rip)        # 21205b <s+0x1b>
    d7db:	c6 05 62 48 20 00 6e 	movb   $0x6e,0x204862(%rip)        # 212044 <s+0x4>
    d7e2:	c6 05 62 48 20 00 5e 	movb   $0x5e,0x204862(%rip)        # 21204b <s+0xb>
    d7e9:	c6 05 67 48 20 00 45 	movb   $0x45,0x204867(%rip)        # 212057 <s+0x17>
    d7f0:	c6 05 4d 48 20 00 71 	movb   $0x71,0x20484d(%rip)        # 212044 <s+0x4>
    d7f7:	c6 05 4b 48 20 00 71 	movb   $0x71,0x20484b(%rip)        # 212049 <s+0x9>
    d7fe:	c6 05 4e 48 20 00 40 	movb   $0x40,0x20484e(%rip)        # 212053 <s+0x13>
    d805:	c6 05 4d 48 20 00 5a 	movb   $0x5a,0x20484d(%rip)        # 212059 <s+0x19>
    d80c:	c6 05 4d 48 20 00 20 	movb   $0x20,0x20484d(%rip)        # 212060 <s+0x20>
    d813:	c6 05 41 48 20 00 64 	movb   $0x64,0x204841(%rip)        # 21205b <s+0x1b>
    d81a:	c6 05 44 48 20 00 72 	movb   $0x72,0x204844(%rip)        # 212065 <s+0x25>
    d821:	c6 05 39 48 20 00 6e 	movb   $0x6e,0x204839(%rip)        # 212061 <s+0x21>
    d828:	c6 05 31 48 20 00 66 	movb   $0x66,0x204831(%rip)        # 212060 <s+0x20>
    d82f:	c6 05 2d 48 20 00 64 	movb   $0x64,0x20482d(%rip)        # 212063 <s+0x23>
    d836:	c6 05 1f 48 20 00 6f 	movb   $0x6f,0x20481f(%rip)        # 21205c <s+0x1c>
    d83d:	c6 05 09 48 20 00 7e 	movb   $0x7e,0x204809(%rip)        # 21204d <s+0xd>
    d844:	c6 05 ff 47 20 00 36 	movb   $0x36,0x2047ff(%rip)        # 21204a <s+0xa>
    d84b:	c6 05 f7 47 20 00 3e 	movb   $0x3e,0x2047f7(%rip)        # 212049 <s+0x9>
    d852:	c6 05 fa 47 20 00 5b 	movb   $0x5b,0x2047fa(%rip)        # 212053 <s+0x13>
    d859:	c6 05 e7 47 20 00 36 	movb   $0x36,0x2047e7(%rip)        # 212047 <s+0x7>
    d860:	c6 05 de 47 20 00 76 	movb   $0x76,0x2047de(%rip)        # 212045 <s+0x5>
    d867:	c6 05 df 47 20 00 33 	movb   $0x33,0x2047df(%rip)        # 21204d <s+0xd>
    d86e:	c6 05 d1 47 20 00 28 	movb   $0x28,0x2047d1(%rip)        # 212046 <s+0x6>
    d875:	c6 05 d9 47 20 00 59 	movb   $0x59,0x2047d9(%rip)        # 212055 <s+0x15>
    d87c:	c6 05 e4 47 20 00 57 	movb   $0x57,0x2047e4(%rip)        # 212067 <s+0x27>
    d883:	c6 05 cd 47 20 00 40 	movb   $0x40,0x2047cd(%rip)        # 212057 <s+0x17>
    d88a:	c6 05 ca 47 20 00 23 	movb   $0x23,0x2047ca(%rip)        # 21205b <s+0x1b>
    d891:	c6 05 ba 47 20 00 71 	movb   $0x71,0x2047ba(%rip)        # 212052 <s+0x12>
    d898:	c6 05 bc 47 20 00 3e 	movb   $0x3e,0x2047bc(%rip)        # 21205b <s+0x1b>
    d89f:	c6 05 bd 47 20 00 72 	movb   $0x72,0x2047bd(%rip)        # 212063 <s+0x23>
    d8a6:	c6 05 ac 47 20 00 45 	movb   $0x45,0x2047ac(%rip)        # 212059 <s+0x19>
    d8ad:	c6 05 95 47 20 00 29 	movb   $0x29,0x204795(%rip)        # 212049 <s+0x9>
    d8b4:	c6 05 8e 47 20 00 78 	movb   $0x78,0x20478e(%rip)        # 212049 <s+0x9>
    d8bb:	c6 05 a5 47 20 00 69 	movb   $0x69,0x2047a5(%rip)        # 212067 <s+0x27>
    d8c2:	c6 05 7e 47 20 00 68 	movb   $0x68,0x20477e(%rip)        # 212047 <s+0x7>
    d8c9:	c6 05 8b 47 20 00 2b 	movb   $0x2b,0x20478b(%rip)        # 21205b <s+0x1b>
    d8d0:	c6 05 76 47 20 00 73 	movb   $0x73,0x204776(%rip)        # 21204d <s+0xd>
    d8d7:	c6 05 80 47 20 00 62 	movb   $0x62,0x204780(%rip)        # 21205e <s+0x1e>
    d8de:	c6 05 7e 47 20 00 5d 	movb   $0x5d,0x20477e(%rip)        # 212063 <s+0x23>
    d8e5:	c6 05 66 47 20 00 59 	movb   $0x59,0x204766(%rip)        # 212052 <s+0x12>
    d8ec:	c6 05 54 47 20 00 47 	movb   $0x47,0x204754(%rip)        # 212047 <s+0x7>
    d8f3:	c6 05 5f 47 20 00 5a 	movb   $0x5a,0x20475f(%rip)        # 212059 <s+0x19>
    d8fa:	c6 05 5d 47 20 00 7d 	movb   $0x7d,0x20475d(%rip)        # 21205e <s+0x1e>
    d901:	c6 05 5a 47 20 00 6a 	movb   $0x6a,0x20475a(%rip)        # 212062 <s+0x22>
    d908:	c6 05 50 47 20 00 4b 	movb   $0x4b,0x204750(%rip)        # 21205f <s+0x1f>
    d90f:	c6 05 3c 47 20 00 79 	movb   $0x79,0x20473c(%rip)        # 212052 <s+0x12>
    d916:	c6 05 33 47 20 00 7e 	movb   $0x7e,0x204733(%rip)        # 212050 <s+0x10>
    d91d:	c6 05 23 47 20 00 7e 	movb   $0x7e,0x204723(%rip)        # 212047 <s+0x7>
    d924:	c6 05 18 47 20 00 6f 	movb   $0x6f,0x204718(%rip)        # 212043 <s+0x3>
    d92b:	c6 05 21 47 20 00 2e 	movb   $0x2e,0x204721(%rip)        # 212053 <s+0x13>
    d932:	c6 05 17 47 20 00 23 	movb   $0x23,0x204717(%rip)        # 212050 <s+0x10>
    d939:	c6 05 1d 47 20 00 67 	movb   $0x67,0x20471d(%rip)        # 21205d <s+0x1d>
    d940:	c6 05 03 47 20 00 76 	movb   $0x76,0x204703(%rip)        # 21204a <s+0xa>
    d947:	c6 05 0d 47 20 00 42 	movb   $0x42,0x20470d(%rip)        # 21205b <s+0x1b>
    d94e:	c6 05 fb 46 20 00 74 	movb   $0x74,0x2046fb(%rip)        # 212050 <s+0x10>
    d955:	c6 05 e9 46 20 00 2a 	movb   $0x2a,0x2046e9(%rip)        # 212045 <s+0x5>
    d95c:	c6 05 de 46 20 00 7e 	movb   $0x7e,0x2046de(%rip)        # 212041 <s+0x1>
    d963:	c6 05 e6 46 20 00 49 	movb   $0x49,0x2046e6(%rip)        # 212050 <s+0x10>
    d96a:	c6 05 de 46 20 00 79 	movb   $0x79,0x2046de(%rip)        # 21204f <s+0xf>
    d971:	c6 05 db 46 20 00 39 	movb   $0x39,0x2046db(%rip)        # 212053 <s+0x13>
    d978:	c6 05 d7 46 20 00 35 	movb   $0x35,0x2046d7(%rip)        # 212056 <s+0x16>
    d97f:	c6 05 cb 46 20 00 64 	movb   $0x64,0x2046cb(%rip)        # 212051 <s+0x11>
    d986:	c6 05 da 46 20 00 2f 	movb   $0x2f,0x2046da(%rip)        # 212067 <s+0x27>
    d98d:	c6 05 d1 46 20 00 50 	movb   $0x50,0x2046d1(%rip)        # 212065 <s+0x25>
    d994:	c6 05 a8 46 20 00 37 	movb   $0x37,0x2046a8(%rip)        # 212043 <s+0x3>
    d99b:	c6 05 c5 46 20 00 46 	movb   $0x46,0x2046c5(%rip)        # 212067 <s+0x27>
    d9a2:	c6 05 b7 46 20 00 7a 	movb   $0x7a,0x2046b7(%rip)        # 212060 <s+0x20>
    d9a9:	c6 05 b6 46 20 00 75 	movb   $0x75,0x2046b6(%rip)        # 212066 <s+0x26>
    d9b0:	c6 05 a1 46 20 00 4f 	movb   $0x4f,0x2046a1(%rip)        # 212058 <s+0x18>
    d9b7:	c6 05 a6 46 20 00 4c 	movb   $0x4c,0x2046a6(%rip)        # 212064 <s+0x24>
    d9be:	c6 05 a2 46 20 00 6c 	movb   $0x6c,0x2046a2(%rip)        # 212067 <s+0x27>
    d9c5:	c6 05 75 46 20 00 55 	movb   $0x55,0x204675(%rip)        # 212041 <s+0x1>
    d9cc:	c6 05 79 46 20 00 6e 	movb   $0x6e,0x204679(%rip)        # 21204c <s+0xc>
    d9d3:	c6 05 7c 46 20 00 78 	movb   $0x78,0x20467c(%rip)        # 212056 <s+0x16>
    d9da:	c6 05 82 46 20 00 7a 	movb   $0x7a,0x204682(%rip)        # 212063 <s+0x23>
    d9e1:	c6 05 79 46 20 00 55 	movb   $0x55,0x204679(%rip)        # 212061 <s+0x21>
    d9e8:	c6 05 5e 46 20 00 3b 	movb   $0x3b,0x20465e(%rip)        # 21204d <s+0xd>
    d9ef:	c6 05 69 46 20 00 2c 	movb   $0x2c,0x204669(%rip)        # 21205f <s+0x1f>
    d9f6:	c6 05 50 46 20 00 33 	movb   $0x33,0x204650(%rip)        # 21204d <s+0xd>
    d9fd:	c6 05 46 46 20 00 6c 	movb   $0x6c,0x204646(%rip)        # 21204a <s+0xa>
    da04:	c6 05 50 46 20 00 4c 	movb   $0x4c,0x204650(%rip)        # 21205b <s+0x1b>
    da0b:	c6 05 3c 46 20 00 69 	movb   $0x69,0x20463c(%rip)        # 21204e <s+0xe>
    da12:	c6 05 45 46 20 00 65 	movb   $0x65,0x204645(%rip)        # 21205e <s+0x1e>
    da19:	c6 05 46 46 20 00 40 	movb   $0x40,0x204646(%rip)        # 212066 <s+0x26>
    da20:	c6 05 39 46 20 00 53 	movb   $0x53,0x204639(%rip)        # 212060 <s+0x20>
    da27:	c6 05 35 46 20 00 60 	movb   $0x60,0x204635(%rip)        # 212063 <s+0x23>
    da2e:	c6 05 17 46 20 00 40 	movb   $0x40,0x204617(%rip)        # 21204c <s+0xc>
    da35:	c6 05 0d 46 20 00 45 	movb   $0x45,0x20460d(%rip)        # 212049 <s+0x9>
    da3c:	c6 05 04 46 20 00 77 	movb   $0x77,0x204604(%rip)        # 212047 <s+0x7>
    da43:	c6 05 f7 45 20 00 5a 	movb   $0x5a,0x2045f7(%rip)        # 212041 <s+0x1>
    da4a:	c6 05 f5 45 20 00 3a 	movb   $0x3a,0x2045f5(%rip)        # 212046 <s+0x6>
    da51:	c6 05 0e 46 20 00 70 	movb   $0x70,0x20460e(%rip)        # 212066 <s+0x26>
    da58:	c6 05 08 46 20 00 75 	movb   $0x75,0x204608(%rip)        # 212067 <s+0x27>
    da5f:	c6 05 ea 45 20 00 7e 	movb   $0x7e,0x2045ea(%rip)        # 212050 <s+0x10>
    da66:	c6 05 f9 45 20 00 7a 	movb   $0x7a,0x2045f9(%rip)        # 212066 <s+0x26>
    da6d:	c6 05 e3 45 20 00 48 	movb   $0x48,0x2045e3(%rip)        # 212057 <s+0x17>
    da74:	c6 05 d9 45 20 00 50 	movb   $0x50,0x2045d9(%rip)        # 212054 <s+0x14>
    da7b:	c6 05 e2 45 20 00 46 	movb   $0x46,0x2045e2(%rip)        # 212064 <s+0x24>
    da82:	c6 05 b9 45 20 00 61 	movb   $0x61,0x2045b9(%rip)        # 212042 <s+0x2>
    da89:	c6 05 b4 45 20 00 69 	movb   $0x69,0x2045b4(%rip)        # 212044 <s+0x4>
    da90:	c6 05 b3 45 20 00 5e 	movb   $0x5e,0x2045b3(%rip)        # 21204a <s+0xa>
    da97:	c6 05 af 45 20 00 77 	movb   $0x77,0x2045af(%rip)        # 21204d <s+0xd>
    da9e:	c6 05 a2 45 20 00 48 	movb   $0x48,0x2045a2(%rip)        # 212047 <s+0x7>
    daa5:	c6 05 a2 45 20 00 36 	movb   $0x36,0x2045a2(%rip)        # 21204e <s+0xe>
    daac:	c6 05 aa 45 20 00 42 	movb   $0x42,0x2045aa(%rip)        # 21205d <s+0x1d>
    dab3:	c6 05 96 45 20 00 53 	movb   $0x53,0x204596(%rip)        # 212050 <s+0x10>
    daba:	c6 05 86 45 20 00 73 	movb   $0x73,0x204586(%rip)        # 212047 <s+0x7>
    dac1:	c6 05 97 45 20 00 6b 	movb   $0x6b,0x204597(%rip)        # 21205f <s+0x1f>
    dac8:	c6 05 93 45 20 00 62 	movb   $0x62,0x204593(%rip)        # 212062 <s+0x22>
    dacf:	c6 05 85 45 20 00 20 	movb   $0x20,0x204585(%rip)        # 21205b <s+0x1b>
    dad6:	c6 05 81 45 20 00 37 	movb   $0x37,0x204581(%rip)        # 21205e <s+0x1e>
    dadd:	c6 05 72 45 20 00 2f 	movb   $0x2f,0x204572(%rip)        # 212056 <s+0x16>
    dae4:	c6 05 72 45 20 00 6a 	movb   $0x6a,0x204572(%rip)        # 21205d <s+0x1d>
    daeb:	c6 05 56 45 20 00 4b 	movb   $0x4b,0x204556(%rip)        # 212048 <s+0x8>
    daf2:	c6 05 5b 45 20 00 4b 	movb   $0x4b,0x20455b(%rip)        # 212054 <s+0x14>
    daf9:	c6 05 62 45 20 00 3a 	movb   $0x3a,0x204562(%rip)        # 212062 <s+0x22>
    db00:	c6 05 4e 45 20 00 44 	movb   $0x44,0x20454e(%rip)        # 212055 <s+0x15>
    db07:	c6 05 46 45 20 00 39 	movb   $0x39,0x204546(%rip)        # 212054 <s+0x14>
    db0e:	c6 05 3f 45 20 00 64 	movb   $0x64,0x20453f(%rip)        # 212054 <s+0x14>
    db15:	c6 05 4b 45 20 00 49 	movb   $0x49,0x20454b(%rip)        # 212067 <s+0x27>
    db1c:	c6 05 40 45 20 00 7e 	movb   $0x7e,0x204540(%rip)        # 212063 <s+0x23>
    db23:	c6 05 32 45 20 00 25 	movb   $0x25,0x204532(%rip)        # 21205c <s+0x1c>
    db2a:	c6 05 13 45 20 00 7d 	movb   $0x7d,0x204513(%rip)        # 212044 <s+0x4>
    db31:	c6 05 10 45 20 00 64 	movb   $0x64,0x204510(%rip)        # 212048 <s+0x8>
    db38:	c6 05 1f 45 20 00 77 	movb   $0x77,0x20451f(%rip)        # 21205e <s+0x1e>
    db3f:	c6 05 10 45 20 00 7a 	movb   $0x7a,0x204510(%rip)        # 212056 <s+0x16>
    db46:	c6 05 02 45 20 00 6f 	movb   $0x6f,0x204502(%rip)        # 21204f <s+0xf>
    db4d:	c6 05 f7 44 20 00 4e 	movb   $0x4e,0x2044f7(%rip)        # 21204b <s+0xb>
    db54:	c6 05 ec 44 20 00 4b 	movb   $0x4b,0x2044ec(%rip)        # 212047 <s+0x7>
    db5b:	c6 05 fd 44 20 00 64 	movb   $0x64,0x2044fd(%rip)        # 21205f <s+0x1f>
    db62:	c6 05 e8 44 20 00 22 	movb   $0x22,0x2044e8(%rip)        # 212051 <s+0x11>
    db69:	c6 05 da 44 20 00 4b 	movb   $0x4b,0x2044da(%rip)        # 21204a <s+0xa>
    db70:	c6 05 ed 44 20 00 45 	movb   $0x45,0x2044ed(%rip)        # 212064 <s+0x24>
    db77:	c6 05 cc 44 20 00 26 	movb   $0x26,0x2044cc(%rip)        # 21204a <s+0xa>
    db7e:	c6 05 e2 44 20 00 34 	movb   $0x34,0x2044e2(%rip)        # 212067 <s+0x27>
    db85:	c6 05 cf 44 20 00 70 	movb   $0x70,0x2044cf(%rip)        # 21205b <s+0x1b>
    db8c:	c6 05 b2 44 20 00 4a 	movb   $0x4a,0x2044b2(%rip)        # 212045 <s+0x5>
    db93:	c6 05 cc 44 20 00 33 	movb   $0x33,0x2044cc(%rip)        # 212066 <s+0x26>
    db9a:	c6 05 a6 44 20 00 6d 	movb   $0x6d,0x2044a6(%rip)        # 212047 <s+0x7>
    dba1:	c6 05 a7 44 20 00 45 	movb   $0x45,0x2044a7(%rip)        # 21204f <s+0xf>
    dba8:	c6 05 a5 44 20 00 5a 	movb   $0x5a,0x2044a5(%rip)        # 212054 <s+0x14>
    dbaf:	c6 05 97 44 20 00 4a 	movb   $0x4a,0x204497(%rip)        # 21204d <s+0xd>
    dbb6:	c6 05 85 44 20 00 36 	movb   $0x36,0x204485(%rip)        # 212042 <s+0x2>
    dbbd:	c6 05 80 44 20 00 7e 	movb   $0x7e,0x204480(%rip)        # 212044 <s+0x4>
    dbc4:	c6 05 8e 44 20 00 61 	movb   $0x61,0x20448e(%rip)        # 212059 <s+0x19>
    dbcb:	c6 05 8f 44 20 00 3a 	movb   $0x3a,0x20448f(%rip)        # 212061 <s+0x21>
    dbd2:	c6 05 83 44 20 00 62 	movb   $0x62,0x204483(%rip)        # 21205c <s+0x1c>
    dbd9:	c6 05 85 44 20 00 38 	movb   $0x38,0x204485(%rip)        # 212065 <s+0x25>
    dbe0:	c6 05 5d 44 20 00 72 	movb   $0x72,0x20445d(%rip)        # 212044 <s+0x4>
    dbe7:	c6 05 62 44 20 00 32 	movb   $0x32,0x204462(%rip)        # 212050 <s+0x10>
    dbee:	c6 05 5f 44 20 00 6a 	movb   $0x6a,0x20445f(%rip)        # 212054 <s+0x14>
    dbf5:	c6 05 66 44 20 00 26 	movb   $0x26,0x204466(%rip)        # 212062 <s+0x22>
    dbfc:	c6 05 54 44 20 00 7e 	movb   $0x7e,0x204454(%rip)        # 212057 <s+0x17>
    dc03:	c6 05 5c 44 20 00 65 	movb   $0x65,0x20445c(%rip)        # 212066 <s+0x26>
    dc0a:	c6 05 52 44 20 00 64 	movb   $0x64,0x204452(%rip)        # 212063 <s+0x23>
    dc11:	c6 05 49 44 20 00 7c 	movb   $0x7c,0x204449(%rip)        # 212061 <s+0x21>
    dc18:	c6 05 27 44 20 00 22 	movb   $0x22,0x204427(%rip)        # 212046 <s+0x6>
    dc1f:	c6 05 2f 44 20 00 55 	movb   $0x55,0x20442f(%rip)        # 212055 <s+0x15>
    dc26:	c6 05 28 44 20 00 23 	movb   $0x23,0x204428(%rip)        # 212055 <s+0x15>
    dc2d:	c6 05 28 44 20 00 67 	movb   $0x67,0x204428(%rip)        # 21205c <s+0x1c>
    dc34:	c6 05 05 44 20 00 5b 	movb   $0x5b,0x204405(%rip)        # 212040 <s>
    dc3b:	c6 05 fe 43 20 00 47 	movb   $0x47,0x2043fe(%rip)        # 212040 <s>
    dc42:	c6 05 07 44 20 00 72 	movb   $0x72,0x204407(%rip)        # 212050 <s+0x10>
    dc49:	c6 05 f0 43 20 00 49 	movb   $0x49,0x2043f0(%rip)        # 212040 <s>
    dc50:	c6 05 eb 43 20 00 55 	movb   $0x55,0x2043eb(%rip)        # 212042 <s+0x2>
    dc57:	c6 05 e6 43 20 00 3c 	movb   $0x3c,0x2043e6(%rip)        # 212044 <s+0x4>
    dc5e:	c6 05 fc 43 20 00 69 	movb   $0x69,0x2043fc(%rip)        # 212061 <s+0x21>
    dc65:	c6 05 da 43 20 00 38 	movb   $0x38,0x2043da(%rip)        # 212046 <s+0x6>
    dc6c:	c6 05 d0 43 20 00 3e 	movb   $0x3e,0x2043d0(%rip)        # 212043 <s+0x3>
    dc73:	c6 05 da 43 20 00 53 	movb   $0x53,0x2043da(%rip)        # 212054 <s+0x14>
    dc7a:	c6 05 cc 43 20 00 22 	movb   $0x22,0x2043cc(%rip)        # 21204d <s+0xd>
    dc81:	c6 05 d4 43 20 00 39 	movb   $0x39,0x2043d4(%rip)        # 21205c <s+0x1c>
    dc88:	c6 05 c2 43 20 00 42 	movb   $0x42,0x2043c2(%rip)        # 212051 <s+0x11>
    dc8f:	c6 05 b6 43 20 00 60 	movb   $0x60,0x2043b6(%rip)        # 21204c <s+0xc>
    dc96:	c6 05 b1 43 20 00 78 	movb   $0x78,0x2043b1(%rip)        # 21204e <s+0xe>
    dc9d:	c6 05 a4 43 20 00 40 	movb   $0x40,0x2043a4(%rip)        # 212048 <s+0x8>
    dca4:	c6 05 ae 43 20 00 7e 	movb   $0x7e,0x2043ae(%rip)        # 212059 <s+0x19>
    dcab:	c6 05 a1 43 20 00 2f 	movb   $0x2f,0x2043a1(%rip)        # 212053 <s+0x13>
    dcb2:	c6 05 9e 43 20 00 30 	movb   $0x30,0x20439e(%rip)        # 212057 <s+0x17>
    dcb9:	c6 05 99 43 20 00 68 	movb   $0x68,0x204399(%rip)        # 212059 <s+0x19>
    dcc0:	c6 05 9a 43 20 00 70 	movb   $0x70,0x20439a(%rip)        # 212061 <s+0x21>
    dcc7:	c6 05 75 43 20 00 74 	movb   $0x74,0x204375(%rip)        # 212043 <s+0x3>
    dcce:	c6 05 89 43 20 00 51 	movb   $0x51,0x204389(%rip)        # 21205e <s+0x1e>
    dcd5:	c6 05 65 43 20 00 44 	movb   $0x44,0x204365(%rip)        # 212041 <s+0x1>
    dcdc:	c6 05 72 43 20 00 3c 	movb   $0x3c,0x204372(%rip)        # 212055 <s+0x15>
    dce3:	c6 05 56 43 20 00 26 	movb   $0x26,0x204356(%rip)        # 212040 <s>
    dcea:	c6 05 6a 43 20 00 6f 	movb   $0x6f,0x20436a(%rip)        # 21205b <s+0x1b>
    dcf1:	c6 05 48 43 20 00 7b 	movb   $0x7b,0x204348(%rip)        # 212040 <s>
    dcf8:	c6 05 63 43 20 00 7b 	movb   $0x7b,0x204363(%rip)        # 212062 <s+0x22>
    dcff:	c6 05 47 43 20 00 5b 	movb   $0x5b,0x204347(%rip)        # 21204d <s+0xd>
    dd06:	c6 05 56 43 20 00 20 	movb   $0x20,0x204356(%rip)        # 212063 <s+0x23>
    dd0d:	c6 05 49 43 20 00 47 	movb   $0x47,0x204349(%rip)        # 21205d <s+0x1d>
    dd14:	c6 05 4c 43 20 00 65 	movb   $0x65,0x20434c(%rip)        # 212067 <s+0x27>
    dd1b:	c6 05 38 43 20 00 20 	movb   $0x20,0x204338(%rip)        # 21205a <s+0x1a>
    dd22:	c6 05 23 43 20 00 40 	movb   $0x40,0x204323(%rip)        # 21204c <s+0xc>
    dd29:	c6 05 19 43 20 00 21 	movb   $0x21,0x204319(%rip)        # 212049 <s+0x9>
    dd30:	c6 05 14 43 20 00 47 	movb   $0x47,0x204314(%rip)        # 21204b <s+0xb>
    dd37:	c6 05 25 43 20 00 55 	movb   $0x55,0x204325(%rip)        # 212063 <s+0x23>
    dd3e:	c6 05 0a 43 20 00 50 	movb   $0x50,0x20430a(%rip)        # 21204f <s+0xf>
    dd45:	c6 05 05 43 20 00 2d 	movb   $0x2d,0x204305(%rip)        # 212051 <s+0x11>
    dd4c:	c6 05 12 43 20 00 55 	movb   $0x55,0x204312(%rip)        # 212065 <s+0x25>
    dd53:	c6 05 0a 43 20 00 6d 	movb   $0x6d,0x20430a(%rip)        # 212064 <s+0x24>
    dd5a:	c6 05 e1 42 20 00 7b 	movb   $0x7b,0x2042e1(%rip)        # 212042 <s+0x2>
    dd61:	c6 05 f7 42 20 00 3f 	movb   $0x3f,0x2042f7(%rip)        # 21205f <s+0x1f>
    dd68:	c6 05 f6 42 20 00 7a 	movb   $0x7a,0x2042f6(%rip)        # 212065 <s+0x25>
    dd6f:	c6 05 d6 42 20 00 5f 	movb   $0x5f,0x2042d6(%rip)        # 21204c <s+0xc>
    dd76:	c6 05 c9 42 20 00 76 	movb   $0x76,0x2042c9(%rip)        # 212046 <s+0x6>
    dd7d:	c6 05 ce 42 20 00 2a 	movb   $0x2a,0x2042ce(%rip)        # 212052 <s+0x12>
    dd84:	c6 05 cc 42 20 00 2a 	movb   $0x2a,0x2042cc(%rip)        # 212057 <s+0x17>
    dd8b:	c6 05 ba 42 20 00 3f 	movb   $0x3f,0x2042ba(%rip)        # 21204c <s+0xc>
    dd92:	c6 05 b2 42 20 00 57 	movb   $0x57,0x2042b2(%rip)        # 21204b <s+0xb>
    dd99:	c6 05 c1 42 20 00 7d 	movb   $0x7d,0x2042c1(%rip)        # 212061 <s+0x21>
    dda0:	c6 05 ae 42 20 00 5a 	movb   $0x5a,0x2042ae(%rip)        # 212055 <s+0x15>
    dda7:	c6 05 95 42 20 00 7e 	movb   $0x7e,0x204295(%rip)        # 212043 <s+0x3>
    ddae:	c6 05 90 42 20 00 45 	movb   $0x45,0x204290(%rip)        # 212045 <s+0x5>
    ddb5:	c6 05 9d 42 20 00 32 	movb   $0x32,0x20429d(%rip)        # 212059 <s+0x19>
    ddbc:	c6 05 90 42 20 00 2e 	movb   $0x2e,0x204290(%rip)        # 212053 <s+0x13>
    ddc3:	c6 05 99 42 20 00 60 	movb   $0x60,0x204299(%rip)        # 212063 <s+0x23>
    ddca:	c6 05 83 42 20 00 7e 	movb   $0x7e,0x204283(%rip)        # 212054 <s+0x14>
    ddd1:	c6 05 7a 42 20 00 5a 	movb   $0x5a,0x20427a(%rip)        # 212052 <s+0x12>
    ddd8:	c6 05 78 42 20 00 70 	movb   $0x70,0x204278(%rip)        # 212057 <s+0x17>
    dddf:	c6 05 80 42 20 00 2c 	movb   $0x2c,0x204280(%rip)        # 212066 <s+0x26>
    dde6:	c6 05 65 42 20 00 66 	movb   $0x66,0x204265(%rip)        # 212052 <s+0x12>
    dded:	c6 05 60 42 20 00 67 	movb   $0x67,0x204260(%rip)        # 212054 <s+0x14>
    ddf4:	c6 05 4a 42 20 00 3d 	movb   $0x3d,0x20424a(%rip)        # 212045 <s+0x5>
    ddfb:	c6 05 53 42 20 00 3b 	movb   $0x3b,0x204253(%rip)        # 212055 <s+0x15>
    de02:	c6 05 43 42 20 00 42 	movb   $0x42,0x204243(%rip)        # 21204c <s+0xc>
    de09:	c6 05 54 42 20 00 6a 	movb   $0x6a,0x204254(%rip)        # 212064 <s+0x24>
    de10:	c6 05 2f 42 20 00 31 	movb   $0x31,0x20422f(%rip)        # 212046 <s+0x6>
    de17:	c6 05 44 42 20 00 42 	movb   $0x42,0x204244(%rip)        # 212062 <s+0x22>
    de1e:	c6 05 33 42 20 00 43 	movb   $0x43,0x204233(%rip)        # 212058 <s+0x18>
    de25:	c6 05 2c 42 20 00 67 	movb   $0x67,0x20422c(%rip)        # 212058 <s+0x18>
    de2c:	c6 05 1b 42 20 00 35 	movb   $0x35,0x20421b(%rip)        # 21204e <s+0xe>
    de33:	c6 05 12 42 20 00 55 	movb   $0x55,0x204212(%rip)        # 21204c <s+0xc>
    de3a:	c6 05 14 42 20 00 4d 	movb   $0x4d,0x204214(%rip)        # 212055 <s+0x15>
    de41:	c6 05 1a 42 20 00 48 	movb   $0x48,0x20421a(%rip)        # 212062 <s+0x22>
    de48:	c6 05 00 42 20 00 5d 	movb   $0x5d,0x204200(%rip)        # 21204f <s+0xf>
    de4f:	c6 05 0f 42 20 00 25 	movb   $0x25,0x20420f(%rip)        # 212065 <s+0x25>
    de56:	c6 05 e8 41 20 00 38 	movb   $0x38,0x2041e8(%rip)        # 212045 <s+0x5>
    de5d:	c6 05 e1 41 20 00 6f 	movb   $0x6f,0x2041e1(%rip)        # 212045 <s+0x5>
    de64:	c6 05 fa 41 20 00 6b 	movb   $0x6b,0x2041fa(%rip)        # 212065 <s+0x25>
    de6b:	c6 05 f2 41 20 00 25 	movb   $0x25,0x2041f2(%rip)        # 212064 <s+0x24>
    de72:	c6 05 d8 41 20 00 30 	movb   $0x30,0x2041d8(%rip)        # 212051 <s+0x11>
    de79:	c6 05 d6 41 20 00 7d 	movb   $0x7d,0x2041d6(%rip)        # 212056 <s+0x16>
    de80:	c6 05 bd 41 20 00 30 	movb   $0x30,0x2041bd(%rip)        # 212044 <s+0x4>
    de87:	c6 05 d2 41 20 00 28 	movb   $0x28,0x2041d2(%rip)        # 212060 <s+0x20>
    de8e:	c6 05 c2 41 20 00 77 	movb   $0x77,0x2041c2(%rip)        # 212057 <s+0x17>
    de95:	c6 05 b6 41 20 00 65 	movb   $0x65,0x2041b6(%rip)        # 212052 <s+0x12>
    de9c:	c6 05 a8 41 20 00 63 	movb   $0x63,0x2041a8(%rip)        # 21204b <s+0xb>
    dea3:	c6 05 b6 41 20 00 63 	movb   $0x63,0x2041b6(%rip)        # 212060 <s+0x20>
    deaa:	c6 05 9a 41 20 00 7b 	movb   $0x7b,0x20419a(%rip)        # 21204b <s+0xb>
    deb1:	c6 05 94 41 20 00 21 	movb   $0x21,0x204194(%rip)        # 21204c <s+0xc>
    deb8:	c6 05 85 41 20 00 71 	movb   $0x71,0x204185(%rip)        # 212044 <s+0x4>
    debf:	c6 05 8b 41 20 00 3a 	movb   $0x3a,0x20418b(%rip)        # 212051 <s+0x11>
    dec6:	c6 05 7d 41 20 00 20 	movb   $0x20,0x20417d(%rip)        # 21204a <s+0xa>
    decd:	c6 05 70 41 20 00 76 	movb   $0x76,0x204170(%rip)        # 212044 <s+0x4>
    ded4:	c6 05 85 41 20 00 56 	movb   $0x56,0x204185(%rip)        # 212060 <s+0x20>
    dedb:	c6 05 60 41 20 00 68 	movb   $0x68,0x204160(%rip)        # 212042 <s+0x2>
    dee2:	c6 05 68 41 20 00 33 	movb   $0x33,0x204168(%rip)        # 212051 <s+0x11>
    dee9:	c6 05 72 41 20 00 23 	movb   $0x23,0x204172(%rip)        # 212062 <s+0x22>
    def0:	c6 05 61 41 20 00 5d 	movb   $0x5d,0x204161(%rip)        # 212058 <s+0x18>
    def7:	c6 05 4d 41 20 00 2e 	movb   $0x2e,0x20414d(%rip)        # 21204b <s+0xb>
    defe:	c6 05 4f 41 20 00 41 	movb   $0x41,0x20414f(%rip)        # 212054 <s+0x14>
    df05:	c6 05 5a 41 20 00 4b 	movb   $0x4b,0x20415a(%rip)        # 212066 <s+0x26>
    df0c:	c6 05 45 41 20 00 6d 	movb   $0x6d,0x204145(%rip)        # 212058 <s+0x18>
    df13:	c6 05 4a 41 20 00 7c 	movb   $0x7c,0x20414a(%rip)        # 212064 <s+0x24>
    df1a:	c6 05 43 41 20 00 75 	movb   $0x75,0x204143(%rip)        # 212064 <s+0x24>
    df21:	c6 05 35 41 20 00 42 	movb   $0x42,0x204135(%rip)        # 21205d <s+0x1d>
    df28:	c6 05 33 41 20 00 6d 	movb   $0x6d,0x204133(%rip)        # 212062 <s+0x22>
    df2f:	c6 05 21 41 20 00 56 	movb   $0x56,0x204121(%rip)        # 212057 <s+0x17>
    df36:	c6 05 05 41 20 00 74 	movb   $0x74,0x204105(%rip)        # 212042 <s+0x2>
    df3d:	c6 05 1c 41 20 00 69 	movb   $0x69,0x20411c(%rip)        # 212060 <s+0x20>
    df44:	c6 05 0d 41 20 00 62 	movb   $0x62,0x20410d(%rip)        # 212058 <s+0x18>
    df4b:	c6 05 13 41 20 00 4e 	movb   $0x4e,0x204113(%rip)        # 212065 <s+0x25>
    df52:	c6 05 fa 40 20 00 22 	movb   $0x22,0x2040fa(%rip)        # 212053 <s+0x13>
    df59:	c6 05 e1 40 20 00 22 	movb   $0x22,0x2040e1(%rip)        # 212041 <s+0x1>
    df60:	c6 05 f1 40 20 00 5f 	movb   $0x5f,0x2040f1(%rip)        # 212058 <s+0x18>
    df67:	c6 05 e1 40 20 00 6d 	movb   $0x6d,0x2040e1(%rip)        # 21204f <s+0xf>
    df6e:	c6 05 d7 40 20 00 4b 	movb   $0x4b,0x2040d7(%rip)        # 21204c <s+0xc>
    df75:	c6 05 da 40 20 00 49 	movb   $0x49,0x2040da(%rip)        # 212056 <s+0x16>
    df7c:	c6 05 c0 40 20 00 79 	movb   $0x79,0x2040c0(%rip)        # 212043 <s+0x3>
    df83:	c6 05 c5 40 20 00 7e 	movb   $0x7e,0x2040c5(%rip)        # 21204f <s+0xf>
    df8a:	c6 05 c3 40 20 00 62 	movb   $0x62,0x2040c3(%rip)        # 212054 <s+0x14>
    df91:	c6 05 b3 40 20 00 51 	movb   $0x51,0x2040b3(%rip)        # 21204b <s+0xb>
    df98:	c6 05 bd 40 20 00 54 	movb   $0x54,0x2040bd(%rip)        # 21205c <s+0x1c>
    df9f:	c6 05 a8 40 20 00 71 	movb   $0x71,0x2040a8(%rip)        # 21204e <s+0xe>
    dfa6:	c6 05 b3 40 20 00 6a 	movb   $0x6a,0x2040b3(%rip)        # 212060 <s+0x20>
    dfad:	c6 05 a1 40 20 00 2d 	movb   $0x2d,0x2040a1(%rip)        # 212055 <s+0x15>
    dfb4:	c6 05 9a 40 20 00 5b 	movb   $0x5b,0x20409a(%rip)        # 212055 <s+0x15>
    dfbb:	c6 05 a3 40 20 00 6c 	movb   $0x6c,0x2040a3(%rip)        # 212065 <s+0x25>
    dfc2:	c6 05 78 40 20 00 48 	movb   $0x48,0x204078(%rip)        # 212041 <s+0x1>
    dfc9:	c6 05 80 40 20 00 29 	movb   $0x29,0x204080(%rip)        # 212050 <s+0x10>
    dfd0:	c6 05 77 40 20 00 6d 	movb   $0x6d,0x204077(%rip)        # 21204e <s+0xe>
    dfd7:	c6 05 71 40 20 00 71 	movb   $0x71,0x204071(%rip)        # 21204f <s+0xf>
    dfde:	c6 05 6a 40 20 00 5f 	movb   $0x5f,0x20406a(%rip)        # 21204f <s+0xf>
    dfe5:	c6 05 7a 40 20 00 5d 	movb   $0x5d,0x20407a(%rip)        # 212066 <s+0x26>
    dfec:	c6 05 55 40 20 00 7e 	movb   $0x7e,0x204055(%rip)        # 212048 <s+0x8>
    dff3:	c6 05 4f 40 20 00 6c 	movb   $0x6c,0x20404f(%rip)        # 212049 <s+0x9>
    dffa:	c6 05 3f 40 20 00 3e 	movb   $0x3e,0x20403f(%rip)        # 212040 <s>
    e001:	c6 05 4a 40 20 00 3a 	movb   $0x3a,0x20404a(%rip)        # 212052 <s+0x12>
    e008:	c6 05 57 40 20 00 2b 	movb   $0x2b,0x204057(%rip)        # 212066 <s+0x26>
    e00f:	c6 05 3a 40 20 00 35 	movb   $0x35,0x20403a(%rip)        # 212050 <s+0x10>
    e016:	c6 05 35 40 20 00 25 	movb   $0x25,0x204035(%rip)        # 212052 <s+0x12>
    e01d:	c6 05 20 40 20 00 7a 	movb   $0x7a,0x204020(%rip)        # 212044 <s+0x4>
    e024:	c6 05 2f 40 20 00 6a 	movb   $0x6a,0x20402f(%rip)        # 21205a <s+0x1a>
    e02b:	c6 05 31 40 20 00 5f 	movb   $0x5f,0x204031(%rip)        # 212063 <s+0x23>
    e032:	c6 05 20 40 20 00 39 	movb   $0x39,0x204020(%rip)        # 212059 <s+0x19>
    e039:	c6 05 1f 40 20 00 3c 	movb   $0x3c,0x20401f(%rip)        # 21205f <s+0x1f>
    e040:	c6 05 00 40 20 00 7e 	movb   $0x7e,0x204000(%rip)        # 212047 <s+0x7>
    e047:	c6 05 0e 40 20 00 69 	movb   $0x69,0x20400e(%rip)        # 21205c <s+0x1c>
    e04e:	c6 05 ff 3f 20 00 51 	movb   $0x51,0x203fff(%rip)        # 212054 <s+0x14>
    e055:	c6 05 01 40 20 00 6d 	movb   $0x6d,0x204001(%rip)        # 21205d <s+0x1d>
    e05c:	c6 05 ec 3f 20 00 3e 	movb   $0x3e,0x203fec(%rip)        # 21204f <s+0xf>
    e063:	c6 05 f5 3f 20 00 31 	movb   $0x31,0x203ff5(%rip)        # 21205f <s+0x1f>
    e06a:	c6 05 ec 3f 20 00 66 	movb   $0x66,0x203fec(%rip)        # 21205d <s+0x1d>
    e071:	c6 05 e8 3f 20 00 31 	movb   $0x31,0x203fe8(%rip)        # 212060 <s+0x20>
    e078:	c6 05 c7 3f 20 00 72 	movb   $0x72,0x203fc7(%rip)        # 212046 <s+0x6>
    e07f:	c6 05 d5 3f 20 00 5a 	movb   $0x5a,0x203fd5(%rip)        # 21205b <s+0x1b>
    e086:	c6 05 ce 3f 20 00 4d 	movb   $0x4d,0x203fce(%rip)        # 21205b <s+0x1b>
    e08d:	c6 05 c9 3f 20 00 65 	movb   $0x65,0x203fc9(%rip)        # 21205d <s+0x1d>
    e094:	c6 05 ab 3f 20 00 59 	movb   $0x59,0x203fab(%rip)        # 212046 <s+0x6>
    e09b:	c6 05 af 3f 20 00 28 	movb   $0x28,0x203faf(%rip)        # 212051 <s+0x11>
    e0a2:	c6 05 ab 3f 20 00 43 	movb   $0x43,0x203fab(%rip)        # 212054 <s+0x14>
    e0a9:	c6 05 aa 3f 20 00 74 	movb   $0x74,0x203faa(%rip)        # 21205a <s+0x1a>
    e0b0:	c6 05 a5 3f 20 00 3b 	movb   $0x3b,0x203fa5(%rip)        # 21205c <s+0x1c>
    e0b7:	c6 05 8c 3f 20 00 28 	movb   $0x28,0x203f8c(%rip)        # 21204a <s+0xa>
    e0be:	c6 05 9f 3f 20 00 56 	movb   $0x56,0x203f9f(%rip)        # 212064 <s+0x24>
    e0c5:	c6 05 91 3f 20 00 50 	movb   $0x50,0x203f91(%rip)        # 21205d <s+0x1d>
    e0cc:	c6 05 85 3f 20 00 74 	movb   $0x74,0x203f85(%rip)        # 212058 <s+0x18>
    e0d3:	c6 05 80 3f 20 00 28 	movb   $0x28,0x203f80(%rip)        # 21205a <s+0x1a>
    e0da:	c6 05 61 3f 20 00 79 	movb   $0x79,0x203f61(%rip)        # 212042 <s+0x2>
    e0e1:	c6 05 72 3f 20 00 44 	movb   $0x44,0x203f72(%rip)        # 21205a <s+0x1a>
    e0e8:	c6 05 68 3f 20 00 58 	movb   $0x58,0x203f68(%rip)        # 212057 <s+0x17>
    e0ef:	c6 05 71 3f 20 00 55 	movb   $0x55,0x203f71(%rip)        # 212067 <s+0x27>
    e0f6:	c6 05 4e 3f 20 00 72 	movb   $0x72,0x203f4e(%rip)        # 21204b <s+0xb>
    e0fd:	c6 05 54 3f 20 00 34 	movb   $0x34,0x203f54(%rip)        # 212058 <s+0x18>
    e104:	c6 05 3c 3f 20 00 68 	movb   $0x68,0x203f3c(%rip)        # 212047 <s+0x7>
    e10b:	c6 05 50 3f 20 00 3a 	movb   $0x3a,0x203f50(%rip)        # 212062 <s+0x22>
    e112:	c6 05 38 3f 20 00 4f 	movb   $0x4f,0x203f38(%rip)        # 212051 <s+0x11>
    e119:	c6 05 24 3f 20 00 69 	movb   $0x69,0x203f24(%rip)        # 212044 <s+0x4>
    e120:	c6 05 26 3f 20 00 72 	movb   $0x72,0x203f26(%rip)        # 21204d <s+0xd>
    e127:	c6 05 21 3f 20 00 3a 	movb   $0x3a,0x203f21(%rip)        # 21204f <s+0xf>
    e12e:	c6 05 18 3f 20 00 75 	movb   $0x75,0x203f18(%rip)        # 21204d <s+0xd>
    e135:	c6 05 06 3f 20 00 7e 	movb   $0x7e,0x203f06(%rip)        # 212042 <s+0x2>
    e13c:	c6 05 08 3f 20 00 59 	movb   $0x59,0x203f08(%rip)        # 21204b <s+0xb>
    e143:	c6 05 16 3f 20 00 21 	movb   $0x21,0x203f16(%rip)        # 212060 <s+0x20>
    e14a:	c6 05 13 3f 20 00 2d 	movb   $0x2d,0x203f13(%rip)        # 212064 <s+0x24>
    e151:	c6 05 fa 3e 20 00 64 	movb   $0x64,0x203efa(%rip)        # 212052 <s+0x12>
    e158:	c6 05 f0 3e 20 00 2d 	movb   $0x2d,0x203ef0(%rip)        # 21204f <s+0xf>
    e15f:	c6 05 e7 3e 20 00 58 	movb   $0x58,0x203ee7(%rip)        # 21204d <s+0xd>
    e166:	c6 05 d9 3e 20 00 5a 	movb   $0x5a,0x203ed9(%rip)        # 212046 <s+0x6>
    e16d:	c6 05 e3 3e 20 00 7a 	movb   $0x7a,0x203ee3(%rip)        # 212057 <s+0x17>
    e174:	c6 05 cb 3e 20 00 32 	movb   $0x32,0x203ecb(%rip)        # 212046 <s+0x6>
    e17b:	c6 05 c0 3e 20 00 32 	movb   $0x32,0x203ec0(%rip)        # 212042 <s+0x2>
    e182:	c6 05 d5 3e 20 00 40 	movb   $0x40,0x203ed5(%rip)        # 21205e <s+0x1e>
    e189:	c6 05 c0 3e 20 00 7b 	movb   $0x7b,0x203ec0(%rip)        # 212050 <s+0x10>
    e190:	c6 05 b7 3e 20 00 4b 	movb   $0x4b,0x203eb7(%rip)        # 21204e <s+0xe>
    e197:	c6 05 a9 3e 20 00 78 	movb   $0x78,0x203ea9(%rip)        # 212047 <s+0x7>
    e19e:	c6 05 9b 3e 20 00 74 	movb   $0x74,0x203e9b(%rip)        # 212040 <s>
    e1a5:	c6 05 ba 3e 20 00 26 	movb   $0x26,0x203eba(%rip)        # 212066 <s+0x26>
    e1ac:	c6 05 93 3e 20 00 29 	movb   $0x29,0x203e93(%rip)        # 212046 <s+0x6>
    e1b3:	c6 05 8d 3e 20 00 45 	movb   $0x45,0x203e8d(%rip)        # 212047 <s+0x7>
    e1ba:	c6 05 91 3e 20 00 70 	movb   $0x70,0x203e91(%rip)        # 212052 <s+0x12>
    e1c1:	c6 05 91 3e 20 00 4a 	movb   $0x4a,0x203e91(%rip)        # 212059 <s+0x19>
    e1c8:	c6 05 83 3e 20 00 42 	movb   $0x42,0x203e83(%rip)        # 212052 <s+0x12>
    e1cf:	c6 05 80 3e 20 00 43 	movb   $0x43,0x203e80(%rip)        # 212056 <s+0x16>
    e1d6:	c6 05 72 3e 20 00 4c 	movb   $0x4c,0x203e72(%rip)        # 21204f <s+0xf>
    e1dd:	c6 05 70 3e 20 00 5e 	movb   $0x5e,0x203e70(%rip)        # 212054 <s+0x14>
    e1e4:	c6 05 5c 3e 20 00 66 	movb   $0x66,0x203e5c(%rip)        # 212047 <s+0x7>
    e1eb:	c6 05 74 3e 20 00 7b 	movb   $0x7b,0x203e74(%rip)        # 212066 <s+0x26>
    e1f2:	c6 05 5e 3e 20 00 37 	movb   $0x37,0x203e5e(%rip)        # 212057 <s+0x17>
    e1f9:	c6 05 48 3e 20 00 50 	movb   $0x50,0x203e48(%rip)        # 212048 <s+0x8>
    e200:	c6 05 43 3e 20 00 5b 	movb   $0x5b,0x203e43(%rip)        # 21204a <s+0xa>
    e207:	c6 05 45 3e 20 00 56 	movb   $0x56,0x203e45(%rip)        # 212053 <s+0x13>
    e20e:	c6 05 36 3e 20 00 6b 	movb   $0x6b,0x203e36(%rip)        # 21204b <s+0xb>
    e215:	c6 05 26 3e 20 00 73 	movb   $0x73,0x203e26(%rip)        # 212042 <s+0x2>
    e21c:	c6 05 2a 3e 20 00 46 	movb   $0x46,0x203e2a(%rip)        # 21204d <s+0xd>
    e223:	c6 05 35 3e 20 00 2d 	movb   $0x2d,0x203e35(%rip)        # 21205f <s+0x1f>
    e22a:	c6 05 36 3e 20 00 7a 	movb   $0x7a,0x203e36(%rip)        # 212067 <s+0x27>
    e231:	c6 05 13 3e 20 00 56 	movb   $0x56,0x203e13(%rip)        # 21204b <s+0xb>
    e238:	c6 05 08 3e 20 00 48 	movb   $0x48,0x203e08(%rip)        # 212047 <s+0x7>
    e23f:	c6 05 0f 3e 20 00 7e 	movb   $0x7e,0x203e0f(%rip)        # 212055 <s+0x15>
    e246:	c6 05 18 3e 20 00 7d 	movb   $0x7d,0x203e18(%rip)        # 212065 <s+0x25>
    e24d:	c6 05 06 3e 20 00 7e 	movb   $0x7e,0x203e06(%rip)        # 21205a <s+0x1a>
    e254:	c6 05 f5 3d 20 00 45 	movb   $0x45,0x203df5(%rip)        # 212050 <s+0x10>
    e25b:	c6 05 fc 3d 20 00 26 	movb   $0x26,0x203dfc(%rip)        # 21205e <s+0x1e>
    e262:	c6 05 f6 3d 20 00 38 	movb   $0x38,0x203df6(%rip)        # 21205f <s+0x1f>
    e269:	c6 05 e6 3d 20 00 79 	movb   $0x79,0x203de6(%rip)        # 212056 <s+0x16>
    e270:	c6 05 d3 3d 20 00 30 	movb   $0x30,0x203dd3(%rip)        # 21204a <s+0xa>
    e277:	c6 05 e3 3d 20 00 6d 	movb   $0x6d,0x203de3(%rip)        # 212061 <s+0x21>
    e27e:	c6 05 e0 3d 20 00 5f 	movb   $0x5f,0x203de0(%rip)        # 212065 <s+0x25>
    e285:	c6 05 b5 3d 20 00 66 	movb   $0x66,0x203db5(%rip)        # 212041 <s+0x1>
    e28c:	c6 05 b5 3d 20 00 71 	movb   $0x71,0x203db5(%rip)        # 212048 <s+0x8>
    e293:	c6 05 cd 3d 20 00 46 	movb   $0x46,0x203dcd(%rip)        # 212067 <s+0x27>
    e29a:	c6 05 b9 3d 20 00 3f 	movb   $0x3f,0x203db9(%rip)        # 21205a <s+0x1a>
    e2a1:	c6 05 ac 3d 20 00 7e 	movb   $0x7e,0x203dac(%rip)        # 212054 <s+0x14>
    e2a8:	c6 05 9e 3d 20 00 24 	movb   $0x24,0x203d9e(%rip)        # 21204d <s+0xd>
    e2af:	c6 05 97 3d 20 00 2d 	movb   $0x2d,0x203d97(%rip)        # 21204d <s+0xd>
    e2b6:	c6 05 95 3d 20 00 7c 	movb   $0x7c,0x203d95(%rip)        # 212052 <s+0x12>
    e2bd:	c6 05 91 3d 20 00 42 	movb   $0x42,0x203d91(%rip)        # 212055 <s+0x15>
    e2c4:	c6 05 85 3d 20 00 5d 	movb   $0x5d,0x203d85(%rip)        # 212050 <s+0x10>
    e2cb:	c6 05 6f 3d 20 00 20 	movb   $0x20,0x203d6f(%rip)        # 212041 <s+0x1>
    e2d2:	c6 05 6b 3d 20 00 2c 	movb   $0x2c,0x203d6b(%rip)        # 212044 <s+0x4>
    e2d9:	c6 05 72 3d 20 00 51 	movb   $0x51,0x203d72(%rip)        # 212052 <s+0x12>
    e2e0:	c6 05 67 3d 20 00 5b 	movb   $0x5b,0x203d67(%rip)        # 21204e <s+0xe>
    e2e7:	c6 05 6b 3d 20 00 36 	movb   $0x36,0x203d6b(%rip)        # 212059 <s+0x19>
    e2ee:	c6 05 65 3d 20 00 3c 	movb   $0x3c,0x203d65(%rip)        # 21205a <s+0x1a>
    e2f5:	c6 05 59 3d 20 00 32 	movb   $0x32,0x203d59(%rip)        # 212055 <s+0x15>
    e2fc:	c6 05 5e 3d 20 00 44 	movb   $0x44,0x203d5e(%rip)        # 212061 <s+0x21>
    e303:	c6 05 4f 3d 20 00 25 	movb   $0x25,0x203d4f(%rip)        # 212059 <s+0x19>
    e30a:	c6 05 3b 3d 20 00 73 	movb   $0x73,0x203d3b(%rip)        # 21204c <s+0xc>
    e311:	c6 05 46 3d 20 00 78 	movb   $0x78,0x203d46(%rip)        # 21205e <s+0x1e>
    e318:	c6 05 44 3d 20 00 20 	movb   $0x20,0x203d44(%rip)        # 212063 <s+0x23>
    e31f:	c6 05 1f 3d 20 00 2c 	movb   $0x2c,0x203d1f(%rip)        # 212045 <s+0x5>
    e326:	c6 05 39 3d 20 00 3a 	movb   $0x3a,0x203d39(%rip)        # 212066 <s+0x26>
    e32d:	c6 05 2c 3d 20 00 5f 	movb   $0x5f,0x203d2c(%rip)        # 212060 <s+0x20>
    e334:	c6 05 10 3d 20 00 2e 	movb   $0x2e,0x203d10(%rip)        # 21204b <s+0xb>
    e33b:	c6 05 05 3d 20 00 47 	movb   $0x47,0x203d05(%rip)        # 212047 <s+0x7>
    e342:	c6 05 19 3d 20 00 75 	movb   $0x75,0x203d19(%rip)        # 212062 <s+0x22>
    e349:	c6 05 13 3d 20 00 42 	movb   $0x42,0x203d13(%rip)        # 212063 <s+0x23>
    e350:	c6 05 f4 3c 20 00 7b 	movb   $0x7b,0x203cf4(%rip)        # 21204b <s+0xb>
    e357:	c6 05 04 3d 20 00 26 	movb   $0x26,0x203d04(%rip)        # 212062 <s+0x22>
    e35e:	c6 05 fc 3c 20 00 3f 	movb   $0x3f,0x203cfc(%rip)        # 212061 <s+0x21>
    e365:	c6 05 f3 3c 20 00 37 	movb   $0x37,0x203cf3(%rip)        # 21205f <s+0x1f>
    e36c:	c6 05 d2 3c 20 00 2f 	movb   $0x2f,0x203cd2(%rip)        # 212045 <s+0x5>
    e373:	c6 05 e2 3c 20 00 66 	movb   $0x66,0x203ce2(%rip)        # 21205c <s+0x1c>
    e37a:	c6 05 dd 3c 20 00 61 	movb   $0x61,0x203cdd(%rip)        # 21205e <s+0x1e>
    e381:	c6 05 ce 3c 20 00 70 	movb   $0x70,0x203cce(%rip)        # 212056 <s+0x16>
    e388:	c6 05 cb 3c 20 00 4f 	movb   $0x4f,0x203ccb(%rip)        # 21205a <s+0x1a>
    e38f:	c6 05 ca 3c 20 00 2e 	movb   $0x2e,0x203cca(%rip)        # 212060 <s+0x20>
    e396:	c6 05 c6 3c 20 00 3d 	movb   $0x3d,0x203cc6(%rip)        # 212063 <s+0x23>
    e39d:	c6 05 b4 3c 20 00 2d 	movb   $0x2d,0x203cb4(%rip)        # 212058 <s+0x18>
    e3a4:	c6 05 b8 3c 20 00 5a 	movb   $0x5a,0x203cb8(%rip)        # 212063 <s+0x23>
    e3ab:	c6 05 95 3c 20 00 77 	movb   $0x77,0x203c95(%rip)        # 212047 <s+0x7>
    e3b2:	c6 05 ab 3c 20 00 5a 	movb   $0x5a,0x203cab(%rip)        # 212064 <s+0x24>
    e3b9:	c6 05 a7 3c 20 00 69 	movb   $0x69,0x203ca7(%rip)        # 212067 <s+0x27>
    e3c0:	c6 05 94 3c 20 00 56 	movb   $0x56,0x203c94(%rip)        # 21205b <s+0x1b>
    e3c7:	c6 05 96 3c 20 00 6f 	movb   $0x6f,0x203c96(%rip)        # 212064 <s+0x24>
    e3ce:	c6 05 8c 3c 20 00 4f 	movb   $0x4f,0x203c8c(%rip)        # 212061 <s+0x21>
    e3d5:	c6 05 75 3c 20 00 4a 	movb   $0x4a,0x203c75(%rip)        # 212051 <s+0x11>
    e3dc:	c6 05 6d 3c 20 00 22 	movb   $0x22,0x203c6d(%rip)        # 212050 <s+0x10>
    e3e3:	c6 05 65 3c 20 00 63 	movb   $0x63,0x203c65(%rip)        # 21204f <s+0xf>
    e3ea:	c6 05 63 3c 20 00 51 	movb   $0x51,0x203c63(%rip)        # 212054 <s+0x14>
    e3f1:	c6 05 56 3c 20 00 29 	movb   $0x29,0x203c56(%rip)        # 21204e <s+0xe>
    e3f8:	c6 05 5a 3c 20 00 71 	movb   $0x71,0x203c5a(%rip)        # 212059 <s+0x19>
    e3ff:	c6 05 3c 3c 20 00 50 	movb   $0x50,0x203c3c(%rip)        # 212042 <s+0x2>
    e406:	c6 05 4e 3c 20 00 3f 	movb   $0x3f,0x203c4e(%rip)        # 21205b <s+0x1b>
    e40d:	c6 05 51 3c 20 00 50 	movb   $0x50,0x203c51(%rip)        # 212065 <s+0x25>
    e414:	c6 05 4b 3c 20 00 7e 	movb   $0x7e,0x203c4b(%rip)        # 212066 <s+0x26>
    e41b:	c6 05 25 3c 20 00 31 	movb   $0x31,0x203c25(%rip)        # 212047 <s+0x7>
    e422:	c6 05 32 3c 20 00 7b 	movb   $0x7b,0x203c32(%rip)        # 21205b <s+0x1b>
    e429:	c6 05 24 3c 20 00 76 	movb   $0x76,0x203c24(%rip)        # 212054 <s+0x14>
    e430:	c6 05 20 3c 20 00 22 	movb   $0x22,0x203c20(%rip)        # 212057 <s+0x17>
    e437:	c6 05 14 3c 20 00 74 	movb   $0x74,0x203c14(%rip)        # 212052 <s+0x12>
    e43e:	c6 05 0f 3c 20 00 57 	movb   $0x57,0x203c0f(%rip)        # 212054 <s+0x14>
    e445:	c6 05 0b 3c 20 00 6a 	movb   $0x6a,0x203c0b(%rip)        # 212057 <s+0x17>
    e44c:	c6 05 03 3c 20 00 31 	movb   $0x31,0x203c03(%rip)        # 212056 <s+0x16>
    e453:	c6 05 ef 3b 20 00 61 	movb   $0x61,0x203bef(%rip)        # 212049 <s+0x9>
    e45a:	c6 05 f0 3b 20 00 49 	movb   $0x49,0x203bf0(%rip)        # 212051 <s+0x11>
    e461:	c6 05 fe 3b 20 00 48 	movb   $0x48,0x203bfe(%rip)        # 212066 <s+0x26>
    e468:	c6 05 f3 3b 20 00 7a 	movb   $0x7a,0x203bf3(%rip)        # 212062 <s+0x22>
    e46f:	c6 05 e8 3b 20 00 70 	movb   $0x70,0x203be8(%rip)        # 21205e <s+0x1e>
    e476:	c6 05 d8 3b 20 00 43 	movb   $0x43,0x203bd8(%rip)        # 212055 <s+0x15>
    e47d:	c6 05 c2 3b 20 00 7b 	movb   $0x7b,0x203bc2(%rip)        # 212046 <s+0x6>
    e484:	c6 05 cf 3b 20 00 57 	movb   $0x57,0x203bcf(%rip)        # 21205a <s+0x1a>
    e48b:	c6 05 ca 3b 20 00 40 	movb   $0x40,0x203bca(%rip)        # 21205c <s+0x1c>
    e492:	c6 05 c6 3b 20 00 56 	movb   $0x56,0x203bc6(%rip)        # 21205f <s+0x1f>
    e499:	c6 05 af 3b 20 00 2f 	movb   $0x2f,0x203baf(%rip)        # 21204f <s+0xf>
    e4a0:	c6 05 a3 3b 20 00 63 	movb   $0x63,0x203ba3(%rip)        # 21204a <s+0xa>
    e4a7:	c6 05 af 3b 20 00 4c 	movb   $0x4c,0x203baf(%rip)        # 21205d <s+0x1d>
    e4ae:	c6 05 9f 3b 20 00 3d 	movb   $0x3d,0x203b9f(%rip)        # 212054 <s+0x14>
    e4b5:	c6 05 8e 3b 20 00 30 	movb   $0x30,0x203b8e(%rip)        # 21204a <s+0xa>
    e4bc:	c6 05 7e 3b 20 00 71 	movb   $0x71,0x203b7e(%rip)        # 212041 <s+0x1>
    e4c3:	c6 05 98 3b 20 00 65 	movb   $0x65,0x203b98(%rip)        # 212062 <s+0x22>
    e4ca:	c6 05 6f 3b 20 00 41 	movb   $0x41,0x203b6f(%rip)        # 212040 <s>
    e4d1:	c6 05 77 3b 20 00 74 	movb   $0x74,0x203b77(%rip)        # 21204f <s+0xf>
    e4d8:	c6 05 83 3b 20 00 3d 	movb   $0x3d,0x203b83(%rip)        # 212062 <s+0x22>
    e4df:	c6 05 77 3b 20 00 24 	movb   $0x24,0x203b77(%rip)        # 21205d <s+0x1d>
    e4e6:	c6 05 74 3b 20 00 32 	movb   $0x32,0x203b74(%rip)        # 212061 <s+0x21>
    e4ed:	c6 05 66 3b 20 00 77 	movb   $0x77,0x203b66(%rip)        # 21205a <s+0x1a>
    e4f4:	c6 05 49 3b 20 00 24 	movb   $0x24,0x203b49(%rip)        # 212044 <s+0x4>
    e4fb:	c6 05 40 3b 20 00 6a 	movb   $0x6a,0x203b40(%rip)        # 212042 <s+0x2>
    e502:	c6 05 38 3b 20 00 50 	movb   $0x50,0x203b38(%rip)        # 212041 <s+0x1>
    e509:	c6 05 36 3b 20 00 4d 	movb   $0x4d,0x203b36(%rip)        # 212046 <s+0x6>
    e510:	c6 05 36 3b 20 00 21 	movb   $0x21,0x203b36(%rip)        # 21204d <s+0xd>
    e517:	c6 05 38 3b 20 00 7d 	movb   $0x7d,0x203b38(%rip)        # 212056 <s+0x16>
    e51e:	c6 05 1c 3b 20 00 53 	movb   $0x53,0x203b1c(%rip)        # 212041 <s+0x1>
    e525:	c6 05 2c 3b 20 00 60 	movb   $0x60,0x203b2c(%rip)        # 212058 <s+0x18>
    e52c:	c6 05 18 3b 20 00 6f 	movb   $0x6f,0x203b18(%rip)        # 21204b <s+0xb>
    e533:	c6 05 0e 3b 20 00 7b 	movb   $0x7b,0x203b0e(%rip)        # 212048 <s+0x8>
    e53a:	c6 05 08 3b 20 00 6c 	movb   $0x6c,0x203b08(%rip)        # 212049 <s+0x9>
    e541:	c6 05 1f 3b 20 00 7a 	movb   $0x7a,0x203b1f(%rip)        # 212067 <s+0x27>
    e548:	c6 05 fa 3a 20 00 32 	movb   $0x32,0x203afa(%rip)        # 212049 <s+0x9>
    e54f:	c6 05 f3 3a 20 00 50 	movb   $0x50,0x203af3(%rip)        # 212049 <s+0x9>
    e556:	c6 05 eb 3a 20 00 58 	movb   $0x58,0x203aeb(%rip)        # 212048 <s+0x8>
    e55d:	c6 05 f0 3a 20 00 74 	movb   $0x74,0x203af0(%rip)        # 212054 <s+0x14>
    e564:	c6 05 f1 3a 20 00 44 	movb   $0x44,0x203af1(%rip)        # 21205c <s+0x1c>
    e56b:	c6 05 d1 3a 20 00 58 	movb   $0x58,0x203ad1(%rip)        # 212043 <s+0x3>
    e572:	c6 05 e0 3a 20 00 75 	movb   $0x75,0x203ae0(%rip)        # 212059 <s+0x19>
    e579:	c6 05 dd 3a 20 00 60 	movb   $0x60,0x203add(%rip)        # 21205d <s+0x1d>
    e580:	c6 05 c7 3a 20 00 24 	movb   $0x24,0x203ac7(%rip)        # 21204e <s+0xe>
    e587:	c6 05 b6 3a 20 00 3a 	movb   $0x3a,0x203ab6(%rip)        # 212044 <s+0x4>
    e58e:	c6 05 c0 3a 20 00 33 	movb   $0x33,0x203ac0(%rip)        # 212055 <s+0x15>
    e595:	c6 05 b7 3a 20 00 69 	movb   $0x69,0x203ab7(%rip)        # 212053 <s+0x13>
    e59c:	c6 05 b7 3a 20 00 60 	movb   $0x60,0x203ab7(%rip)        # 21205a <s+0x1a>
    e5a3:	c6 05 a9 3a 20 00 75 	movb   $0x75,0x203aa9(%rip)        # 212053 <s+0x13>
    e5aa:	c6 05 a8 3a 20 00 2a 	movb   $0x2a,0x203aa8(%rip)        # 212059 <s+0x19>
    e5b1:	c6 05 a1 3a 20 00 50 	movb   $0x50,0x203aa1(%rip)        # 212059 <s+0x19>
    e5b8:	c6 05 83 3a 20 00 50 	movb   $0x50,0x203a83(%rip)        # 212042 <s+0x2>
    e5bf:	c6 05 9f 3a 20 00 62 	movb   $0x62,0x203a9f(%rip)        # 212065 <s+0x25>
    e5c6:	c6 05 99 3a 20 00 39 	movb   $0x39,0x203a99(%rip)        # 212066 <s+0x26>
    e5cd:	c6 05 73 3a 20 00 40 	movb   $0x40,0x203a73(%rip)        # 212047 <s+0x7>
    e5d4:	c6 05 8a 3a 20 00 75 	movb   $0x75,0x203a8a(%rip)        # 212065 <s+0x25>
    e5db:	c6 05 80 3a 20 00 22 	movb   $0x22,0x203a80(%rip)        # 212062 <s+0x22>
    e5e2:	c6 05 76 3a 20 00 52 	movb   $0x52,0x203a76(%rip)        # 21205f <s+0x1f>
    e5e9:	c6 05 53 3a 20 00 72 	movb   $0x72,0x203a53(%rip)        # 212043 <s+0x3>
    e5f0:	c6 05 64 3a 20 00 6c 	movb   $0x6c,0x203a64(%rip)        # 21205b <s+0x1b>
    e5f7:	c6 05 63 3a 20 00 33 	movb   $0x33,0x203a63(%rip)        # 212061 <s+0x21>
    e5fe:	c6 05 62 3a 20 00 2a 	movb   $0x2a,0x203a62(%rip)        # 212067 <s+0x27>
    e605:	c6 05 45 3a 20 00 37 	movb   $0x37,0x203a45(%rip)        # 212051 <s+0x11>
    e60c:	c6 05 4f 3a 20 00 6f 	movb   $0x6f,0x203a4f(%rip)        # 212062 <s+0x22>
    e613:	c6 05 3b 3a 20 00 25 	movb   $0x25,0x203a3b(%rip)        # 212055 <s+0x15>
    e61a:	c6 05 27 3a 20 00 20 	movb   $0x20,0x203a27(%rip)        # 212048 <s+0x8>
    e621:	c6 05 26 3a 20 00 7e 	movb   $0x7e,0x203a26(%rip)        # 21204e <s+0xe>
    e628:	c6 05 18 3a 20 00 42 	movb   $0x42,0x203a18(%rip)        # 212047 <s+0x7>
    e62f:	c6 05 22 3a 20 00 72 	movb   $0x72,0x203a22(%rip)        # 212058 <s+0x18>
    e636:	c6 05 06 3a 20 00 70 	movb   $0x70,0x203a06(%rip)        # 212043 <s+0x3>
    e63d:	c6 05 1d 3a 20 00 67 	movb   $0x67,0x203a1d(%rip)        # 212061 <s+0x21>
    e644:	c6 05 00 3a 20 00 4e 	movb   $0x4e,0x203a00(%rip)        # 21204b <s+0xb>
    e64b:	c6 05 f9 39 20 00 66 	movb   $0x66,0x2039f9(%rip)        # 21204b <s+0xb>
    e652:	c6 05 09 3a 20 00 6c 	movb   $0x6c,0x203a09(%rip)        # 212062 <s+0x22>
    e659:	c6 05 fd 39 20 00 69 	movb   $0x69,0x2039fd(%rip)        # 21205d <s+0x1d>
    e660:	c6 05 f2 39 20 00 40 	movb   $0x40,0x2039f2(%rip)        # 212059 <s+0x19>
    e667:	c6 05 f2 39 20 00 65 	movb   $0x65,0x2039f2(%rip)        # 212060 <s+0x20>
    e66e:	c6 05 cf 39 20 00 79 	movb   $0x79,0x2039cf(%rip)        # 212044 <s+0x4>
    e675:	c6 05 c7 39 20 00 3c 	movb   $0x3c,0x2039c7(%rip)        # 212043 <s+0x3>
    e67c:	c6 05 cb 39 20 00 64 	movb   $0x64,0x2039cb(%rip)        # 21204e <s+0xe>
    e683:	c6 05 d6 39 20 00 35 	movb   $0x35,0x2039d6(%rip)        # 212060 <s+0x20>
    e68a:	c6 05 c2 39 20 00 6b 	movb   $0x6b,0x2039c2(%rip)        # 212053 <s+0x13>
    e691:	c6 05 bd 39 20 00 51 	movb   $0x51,0x2039bd(%rip)        # 212055 <s+0x15>
    e698:	c6 05 bf 39 20 00 3e 	movb   $0x3e,0x2039bf(%rip)        # 21205e <s+0x1e>
    e69f:	c6 05 b9 39 20 00 68 	movb   $0x68,0x2039b9(%rip)        # 21205f <s+0x1f>
    e6a6:	c6 05 a7 39 20 00 32 	movb   $0x32,0x2039a7(%rip)        # 212054 <s+0x14>
    e6ad:	c6 05 99 39 20 00 24 	movb   $0x24,0x203999(%rip)        # 21204d <s+0xd>
    e6b4:	c6 05 87 39 20 00 35 	movb   $0x35,0x203987(%rip)        # 212042 <s+0x2>
    e6bb:	c6 05 9d 39 20 00 4d 	movb   $0x4d,0x20399d(%rip)        # 21205f <s+0x1f>
    e6c2:	c6 05 93 39 20 00 25 	movb   $0x25,0x203993(%rip)        # 21205c <s+0x1c>
    e6c9:	c6 05 74 39 20 00 28 	movb   $0x28,0x203974(%rip)        # 212044 <s+0x4>
    e6d0:	c6 05 8d 39 20 00 2a 	movb   $0x2a,0x20398d(%rip)        # 212064 <s+0x24>
    e6d7:	c6 05 7c 39 20 00 2d 	movb   $0x2d,0x20397c(%rip)        # 21205a <s+0x1a>
    e6de:	c6 05 6c 39 20 00 7c 	movb   $0x7c,0x20396c(%rip)        # 212051 <s+0x11>
    e6e5:	c6 05 78 39 20 00 3c 	movb   $0x3c,0x203978(%rip)        # 212064 <s+0x24>
    e6ec:	c6 05 4f 39 20 00 40 	movb   $0x40,0x20394f(%rip)        # 212042 <s+0x2>
    e6f3:	c6 05 64 39 20 00 6f 	movb   $0x6f,0x203964(%rip)        # 21205e <s+0x1e>
    e6fa:	c6 05 59 39 20 00 36 	movb   $0x36,0x203959(%rip)        # 21205a <s+0x1a>
    e701:	c6 05 4c 39 20 00 4d 	movb   $0x4d,0x20394c(%rip)        # 212054 <s+0x14>
    e708:	c6 05 44 39 20 00 7b 	movb   $0x7b,0x203944(%rip)        # 212053 <s+0x13>
    e70f:	c6 05 31 39 20 00 5a 	movb   $0x5a,0x203931(%rip)        # 212047 <s+0x7>
    e716:	c6 05 36 39 20 00 73 	movb   $0x73,0x203936(%rip)        # 212053 <s+0x13>
    e71d:	c6 05 1d 39 20 00 45 	movb   $0x45,0x20391d(%rip)        # 212041 <s+0x1>
    e724:	c6 05 1e 39 20 00 2a 	movb   $0x2a,0x20391e(%rip)        # 212049 <s+0x9>
    e72b:	c6 05 27 39 20 00 57 	movb   $0x57,0x203927(%rip)        # 212059 <s+0x19>
    e732:	c6 05 1d 39 20 00 39 	movb   $0x39,0x20391d(%rip)        # 212056 <s+0x16>
    e739:	c6 05 03 39 20 00 2b 	movb   $0x2b,0x203903(%rip)        # 212043 <s+0x3>
    e740:	c6 05 1e 39 20 00 6e 	movb   $0x6e,0x20391e(%rip)        # 212065 <s+0x25>
    e747:	c6 05 16 39 20 00 79 	movb   $0x79,0x203916(%rip)        # 212064 <s+0x24>
    e74e:	c6 05 f1 38 20 00 44 	movb   $0x44,0x2038f1(%rip)        # 212046 <s+0x6>
    e755:	c6 05 fc 38 20 00 55 	movb   $0x55,0x2038fc(%rip)        # 212058 <s+0x18>
    e75c:	c6 05 e4 38 20 00 60 	movb   $0x60,0x2038e4(%rip)        # 212047 <s+0x7>
    e763:	c6 05 ee 38 20 00 7d 	movb   $0x7d,0x2038ee(%rip)        # 212058 <s+0x18>
    e76a:	c6 05 e5 38 20 00 47 	movb   $0x47,0x2038e5(%rip)        # 212056 <s+0x16>
    e771:	c6 05 d3 38 20 00 7c 	movb   $0x7c,0x2038d3(%rip)        # 21204b <s+0xb>
    e778:	c6 05 cd 38 20 00 42 	movb   $0x42,0x2038cd(%rip)        # 21204c <s+0xc>
    e77f:	c6 05 c7 38 20 00 56 	movb   $0x56,0x2038c7(%rip)        # 21204d <s+0xd>
    e786:	c6 05 c3 38 20 00 5f 	movb   $0x5f,0x2038c3(%rip)        # 212050 <s+0x10>
    e78d:	c6 05 c9 38 20 00 7e 	movb   $0x7e,0x2038c9(%rip)        # 21205d <s+0x1d>
    e794:	c6 05 c5 38 20 00 69 	movb   $0x69,0x2038c5(%rip)        # 212060 <s+0x20>
    e79b:	c6 05 b2 38 20 00 7e 	movb   $0x7e,0x2038b2(%rip)        # 212054 <s+0x14>
    e7a2:	c6 05 a3 38 20 00 59 	movb   $0x59,0x2038a3(%rip)        # 21204c <s+0xc>
    e7a9:	c6 05 a0 38 20 00 56 	movb   $0x56,0x2038a0(%rip)        # 212050 <s+0x10>
    e7b0:	c6 05 a8 38 20 00 51 	movb   $0x51,0x2038a8(%rip)        # 21205f <s+0x1f>
    e7b7:	c6 05 82 38 20 00 68 	movb   $0x68,0x203882(%rip)        # 212040 <s>
    e7be:	c6 05 96 38 20 00 32 	movb   $0x32,0x203896(%rip)        # 21205b <s+0x1b>
    e7c5:	c6 05 81 38 20 00 4e 	movb   $0x4e,0x203881(%rip)        # 21204d <s+0xd>
    e7cc:	c6 05 74 38 20 00 3d 	movb   $0x3d,0x203874(%rip)        # 212047 <s+0x7>
    e7d3:	c6 05 8a 38 20 00 23 	movb   $0x23,0x20388a(%rip)        # 212064 <s+0x24>
    e7da:	c6 05 66 38 20 00 33 	movb   $0x33,0x203866(%rip)        # 212047 <s+0x7>
    e7e1:	c6 05 7a 38 20 00 3d 	movb   $0x3d,0x20387a(%rip)        # 212062 <s+0x22>
    e7e8:	c6 05 52 38 20 00 33 	movb   $0x33,0x203852(%rip)        # 212041 <s+0x1>
    e7ef:	c6 05 51 38 20 00 6f 	movb   $0x6f,0x203851(%rip)        # 212047 <s+0x7>
    e7f6:	c6 05 50 38 20 00 41 	movb   $0x41,0x203850(%rip)        # 21204d <s+0xd>
    e7fd:	c6 05 4a 38 20 00 7c 	movb   $0x7c,0x20384a(%rip)        # 21204e <s+0xe>
    e804:	c6 05 35 38 20 00 35 	movb   $0x35,0x203835(%rip)        # 212040 <s>
    e80b:	c6 05 45 38 20 00 3f 	movb   $0x3f,0x203845(%rip)        # 212057 <s+0x17>
    e812:	c6 05 38 38 20 00 64 	movb   $0x64,0x203838(%rip)        # 212051 <s+0x11>
    e819:	c6 05 43 38 20 00 7d 	movb   $0x7d,0x203843(%rip)        # 212063 <s+0x23>
    e820:	c6 05 3e 38 20 00 3f 	movb   $0x3f,0x20383e(%rip)        # 212065 <s+0x25>
    e827:	c6 05 18 38 20 00 23 	movb   $0x23,0x203818(%rip)        # 212046 <s+0x6>
    e82e:	c6 05 14 38 20 00 48 	movb   $0x48,0x203814(%rip)        # 212049 <s+0x9>
    e835:	c6 05 07 38 20 00 6c 	movb   $0x6c,0x203807(%rip)        # 212043 <s+0x3>
    e83c:	c6 05 23 38 20 00 4c 	movb   $0x4c,0x203823(%rip)        # 212066 <s+0x26>
    e843:	c6 05 1b 38 20 00 6f 	movb   $0x6f,0x20381b(%rip)        # 212065 <s+0x25>
    e84a:	c6 05 0a 38 20 00 56 	movb   $0x56,0x20380a(%rip)        # 21205b <s+0x1b>
    e851:	c6 05 0c 38 20 00 4d 	movb   $0x4d,0x20380c(%rip)        # 212064 <s+0x24>
    e858:	c6 05 e4 37 20 00 36 	movb   $0x36,0x2037e4(%rip)        # 212043 <s+0x3>
    e85f:	c6 05 e1 37 20 00 26 	movb   $0x26,0x2037e1(%rip)        # 212047 <s+0x7>
    e866:	c6 05 dd 37 20 00 75 	movb   $0x75,0x2037dd(%rip)        # 21204a <s+0xa>
    e86d:	c6 05 e2 37 20 00 75 	movb   $0x75,0x2037e2(%rip)        # 212056 <s+0x16>
    e874:	c6 05 e1 37 20 00 78 	movb   $0x78,0x2037e1(%rip)        # 21205c <s+0x1c>
    e87b:	c6 05 c3 37 20 00 67 	movb   $0x67,0x2037c3(%rip)        # 212045 <s+0x5>
    e882:	c6 05 bc 37 20 00 4f 	movb   $0x4f,0x2037bc(%rip)        # 212045 <s+0x5>
    e889:	c6 05 b0 37 20 00 43 	movb   $0x43,0x2037b0(%rip)        # 212040 <s>
    e890:	c6 05 b2 37 20 00 5a 	movb   $0x5a,0x2037b2(%rip)        # 212049 <s+0x9>
    e897:	c6 05 c0 37 20 00 61 	movb   $0x61,0x2037c0(%rip)        # 21205e <s+0x1e>
    e89e:	c6 05 a7 37 20 00 7c 	movb   $0x7c,0x2037a7(%rip)        # 21204c <s+0xc>
    e8a5:	c6 05 a1 37 20 00 4e 	movb   $0x4e,0x2037a1(%rip)        # 21204d <s+0xd>
    e8ac:	c6 05 b3 37 20 00 33 	movb   $0x33,0x2037b3(%rip)        # 212066 <s+0x26>
    e8b3:	c6 05 8e 37 20 00 7b 	movb   $0x7b,0x20378e(%rip)        # 212048 <s+0x8>
    e8ba:	c6 05 9b 37 20 00 76 	movb   $0x76,0x20379b(%rip)        # 21205c <s+0x1c>
    e8c1:	c6 05 8c 37 20 00 29 	movb   $0x29,0x20378c(%rip)        # 212054 <s+0x14>
    e8c8:	c6 05 7a 37 20 00 43 	movb   $0x43,0x20377a(%rip)        # 212049 <s+0x9>
    e8cf:	c6 05 8d 37 20 00 2b 	movb   $0x2b,0x20378d(%rip)        # 212063 <s+0x23>
    e8d6:	c6 05 65 37 20 00 31 	movb   $0x31,0x203765(%rip)        # 212042 <s+0x2>
    e8dd:	c6 05 70 37 20 00 48 	movb   $0x48,0x203770(%rip)        # 212054 <s+0x14>
    e8e4:	c6 05 5d 37 20 00 46 	movb   $0x46,0x20375d(%rip)        # 212048 <s+0x8>
    e8eb:	c6 05 59 37 20 00 76 	movb   $0x76,0x203759(%rip)        # 21204b <s+0xb>
    e8f2:	c6 05 63 37 20 00 38 	movb   $0x38,0x203763(%rip)        # 21205c <s+0x1c>
    e8f9:	c6 05 5c 37 20 00 72 	movb   $0x72,0x20375c(%rip)        # 21205c <s+0x1c>
    e900:	c6 05 3a 37 20 00 28 	movb   $0x28,0x20373a(%rip)        # 212041 <s+0x1>
    e907:	c6 05 57 37 20 00 59 	movb   $0x59,0x203757(%rip)        # 212065 <s+0x25>
    e90e:	c6 05 3e 37 20 00 36 	movb   $0x36,0x20373e(%rip)        # 212053 <s+0x13>
    e915:	c6 05 36 37 20 00 3e 	movb   $0x3e,0x203736(%rip)        # 212052 <s+0x12>
    e91c:	c6 05 39 37 20 00 2f 	movb   $0x2f,0x203739(%rip)        # 21205c <s+0x1c>
    e923:	c6 05 25 37 20 00 53 	movb   $0x53,0x203725(%rip)        # 21204f <s+0xf>
    e92a:	c6 05 21 37 20 00 58 	movb   $0x58,0x203721(%rip)        # 212052 <s+0x12>
    e931:	c6 05 1d 37 20 00 47 	movb   $0x47,0x20371d(%rip)        # 212055 <s+0x15>
    e938:	c6 05 20 37 20 00 3a 	movb   $0x3a,0x203720(%rip)        # 21205f <s+0x1f>
    e93f:	c6 05 15 37 20 00 33 	movb   $0x33,0x203715(%rip)        # 21205b <s+0x1b>
    e946:	c6 05 12 37 20 00 2d 	movb   $0x2d,0x203712(%rip)        # 21205f <s+0x1f>
    e94d:	c6 05 12 37 20 00 62 	movb   $0x62,0x203712(%rip)        # 212066 <s+0x26>
    e954:	c6 05 04 37 20 00 2f 	movb   $0x2f,0x203704(%rip)        # 21205f <s+0x1f>
    e95b:	c6 05 e2 36 20 00 5f 	movb   $0x5f,0x2036e2(%rip)        # 212044 <s+0x4>
    e962:	c6 05 f5 36 20 00 20 	movb   $0x20,0x2036f5(%rip)        # 21205e <s+0x1e>
    e969:	c6 05 f7 36 20 00 6e 	movb   $0x6e,0x2036f7(%rip)        # 212067 <s+0x27>
    e970:	c6 05 e7 36 20 00 5b 	movb   $0x5b,0x2036e7(%rip)        # 21205e <s+0x1e>
    e977:	c6 05 d7 36 20 00 75 	movb   $0x75,0x2036d7(%rip)        # 212055 <s+0x15>
    e97e:	c6 05 dd 36 20 00 7c 	movb   $0x7c,0x2036dd(%rip)        # 212062 <s+0x22>
    e985:	c6 05 c2 36 20 00 25 	movb   $0x25,0x2036c2(%rip)        # 21204e <s+0xe>
    e98c:	c6 05 d0 36 20 00 43 	movb   $0x43,0x2036d0(%rip)        # 212063 <s+0x23>
    e993:	c6 05 bc 36 20 00 4f 	movb   $0x4f,0x2036bc(%rip)        # 212056 <s+0x16>
    e99a:	c6 05 a9 36 20 00 5d 	movb   $0x5d,0x2036a9(%rip)        # 21204a <s+0xa>
    e9a1:	c6 05 b5 36 20 00 5f 	movb   $0x5f,0x2036b5(%rip)        # 21205d <s+0x1d>
    e9a8:	c6 05 a4 36 20 00 48 	movb   $0x48,0x2036a4(%rip)        # 212053 <s+0x13>
    e9af:	c6 05 9a 36 20 00 28 	movb   $0x28,0x20369a(%rip)        # 212050 <s+0x10>
    e9b6:	c6 05 9c 36 20 00 44 	movb   $0x44,0x20369c(%rip)        # 212059 <s+0x19>
    e9bd:	c6 05 81 36 20 00 60 	movb   $0x60,0x203681(%rip)        # 212045 <s+0x5>
    e9c4:	c6 05 8b 36 20 00 46 	movb   $0x46,0x20368b(%rip)        # 212056 <s+0x16>
    e9cb:	c6 05 86 36 20 00 23 	movb   $0x23,0x203686(%rip)        # 212058 <s+0x18>
    e9d2:	c6 05 7f 36 20 00 50 	movb   $0x50,0x20367f(%rip)        # 212058 <s+0x18>
    e9d9:	c6 05 84 36 20 00 30 	movb   $0x30,0x203684(%rip)        # 212064 <s+0x24>
    e9e0:	c6 05 6b 36 20 00 61 	movb   $0x61,0x20366b(%rip)        # 212052 <s+0x12>
    e9e7:	c6 05 73 36 20 00 41 	movb   $0x41,0x203673(%rip)        # 212061 <s+0x21>
    e9ee:	c6 05 4c 36 20 00 7a 	movb   $0x7a,0x20364c(%rip)        # 212041 <s+0x1>
    e9f5:	c6 05 49 36 20 00 63 	movb   $0x63,0x203649(%rip)        # 212045 <s+0x5>
    e9fc:	c6 05 58 36 20 00 21 	movb   $0x21,0x203658(%rip)        # 21205b <s+0x1b>
    ea03:	c6 05 41 36 20 00 4d 	movb   $0x4d,0x203641(%rip)        # 21204b <s+0xb>
    ea0a:	c6 05 43 36 20 00 36 	movb   $0x36,0x203643(%rip)        # 212054 <s+0x14>
    ea11:	c6 05 32 36 20 00 22 	movb   $0x22,0x203632(%rip)        # 21204a <s+0xa>
    ea18:	c6 05 34 36 20 00 7c 	movb   $0x7c,0x203634(%rip)        # 212053 <s+0x13>
    ea1f:	c6 05 32 36 20 00 7a 	movb   $0x7a,0x203632(%rip)        # 212058 <s+0x18>
    ea26:	c6 05 17 36 20 00 4f 	movb   $0x4f,0x203617(%rip)        # 212044 <s+0x4>
    ea2d:	c6 05 13 36 20 00 70 	movb   $0x70,0x203613(%rip)        # 212047 <s+0x7>
    ea34:	c6 05 25 36 20 00 30 	movb   $0x30,0x203625(%rip)        # 212060 <s+0x20>
    ea3b:	c6 05 24 36 20 00 6d 	movb   $0x6d,0x203624(%rip)        # 212066 <s+0x26>
    ea42:	c6 05 0b 36 20 00 23 	movb   $0x23,0x20360b(%rip)        # 212054 <s+0x14>
    ea49:	c6 05 fb 35 20 00 52 	movb   $0x52,0x2035fb(%rip)        # 21204b <s+0xb>
    ea50:	c6 05 01 36 20 00 58 	movb   $0x58,0x203601(%rip)        # 212058 <s+0x18>
    ea57:	c6 05 ec 35 20 00 5f 	movb   $0x5f,0x2035ec(%rip)        # 21204a <s+0xa>
    ea5e:	c6 05 dc 35 20 00 2e 	movb   $0x2e,0x2035dc(%rip)        # 212041 <s+0x1>
    ea65:	c6 05 d5 35 20 00 31 	movb   $0x31,0x2035d5(%rip)        # 212041 <s+0x1>
    ea6c:	c6 05 d2 35 20 00 49 	movb   $0x49,0x2035d2(%rip)        # 212045 <s+0x5>
    ea73:	c6 05 d5 35 20 00 30 	movb   $0x30,0x2035d5(%rip)        # 21204f <s+0xf>
    ea7a:	c6 05 ca 35 20 00 7d 	movb   $0x7d,0x2035ca(%rip)        # 21204b <s+0xb>
    ea81:	c6 05 da 35 20 00 3e 	movb   $0x3e,0x2035da(%rip)        # 212062 <s+0x22>
    ea88:	c6 05 bc 35 20 00 29 	movb   $0x29,0x2035bc(%rip)        # 21204b <s+0xb>
    ea8f:	c6 05 c3 35 20 00 41 	movb   $0x41,0x2035c3(%rip)        # 212059 <s+0x19>
    ea96:	c6 05 c1 35 20 00 7e 	movb   $0x7e,0x2035c1(%rip)        # 21205e <s+0x1e>
    ea9d:	c6 05 b6 35 20 00 6e 	movb   $0x6e,0x2035b6(%rip)        # 21205a <s+0x1a>
    eaa4:	c6 05 a3 35 20 00 23 	movb   $0x23,0x2035a3(%rip)        # 21204e <s+0xe>
    eaab:	c6 05 a8 35 20 00 71 	movb   $0x71,0x2035a8(%rip)        # 21205a <s+0x1a>
    eab2:	c6 05 a1 35 20 00 3e 	movb   $0x3e,0x2035a1(%rip)        # 21205a <s+0x1a>
    eab9:	c6 05 a1 35 20 00 3c 	movb   $0x3c,0x2035a1(%rip)        # 212061 <s+0x21>
    eac0:	c6 05 8d 35 20 00 49 	movb   $0x49,0x20358d(%rip)        # 212054 <s+0x14>
    eac7:	c6 05 79 35 20 00 6b 	movb   $0x6b,0x203579(%rip)        # 212047 <s+0x7>
    eace:	c6 05 7a 35 20 00 56 	movb   $0x56,0x20357a(%rip)        # 21204f <s+0xf>
    ead5:	c6 05 75 35 20 00 78 	movb   $0x78,0x203575(%rip)        # 212051 <s+0x11>
    eadc:	c6 05 84 35 20 00 45 	movb   $0x45,0x203584(%rip)        # 212067 <s+0x27>
    eae3:	c6 05 77 35 20 00 49 	movb   $0x49,0x203577(%rip)        # 212061 <s+0x21>
    eaea:	c6 05 65 35 20 00 4a 	movb   $0x4a,0x203565(%rip)        # 212056 <s+0x16>
    eaf1:	c6 05 64 35 20 00 4b 	movb   $0x4b,0x203564(%rip)        # 21205c <s+0x1c>
    eaf8:	c6 05 5f 35 20 00 49 	movb   $0x49,0x20355f(%rip)        # 21205e <s+0x1e>
    eaff:	c6 05 5f 35 20 00 6c 	movb   $0x6c,0x20355f(%rip)        # 212065 <s+0x25>
    eb06:	c6 05 45 35 20 00 20 	movb   $0x20,0x203545(%rip)        # 212052 <s+0x12>
    eb0d:	c6 05 4e 35 20 00 6d 	movb   $0x6d,0x20354e(%rip)        # 212062 <s+0x22>
    eb14:	c6 05 2b 35 20 00 38 	movb   $0x38,0x20352b(%rip)        # 212046 <s+0x6>
    eb1b:	c6 05 2f 35 20 00 5e 	movb   $0x5e,0x20352f(%rip)        # 212051 <s+0x11>
    eb22:	c6 05 31 35 20 00 31 	movb   $0x31,0x203531(%rip)        # 21205a <s+0x1a>
    eb29:	c6 05 28 35 20 00 3d 	movb   $0x3d,0x203528(%rip)        # 212058 <s+0x18>
    eb30:	c6 05 09 35 20 00 6b 	movb   $0x6b,0x203509(%rip)        # 212040 <s>
    eb37:	c6 05 11 35 20 00 60 	movb   $0x60,0x203511(%rip)        # 21204f <s+0xf>
    eb3e:	c6 05 1b 35 20 00 31 	movb   $0x31,0x20351b(%rip)        # 212060 <s+0x20>
    eb45:	c6 05 13 35 20 00 36 	movb   $0x36,0x203513(%rip)        # 21205f <s+0x1f>
    eb4c:	c6 05 f2 34 20 00 2b 	movb   $0x2b,0x2034f2(%rip)        # 212045 <s+0x5>
    eb53:	c6 05 ed 34 20 00 6a 	movb   $0x6a,0x2034ed(%rip)        # 212047 <s+0x7>
    eb5a:	c6 05 ff 34 20 00 5d 	movb   $0x5d,0x2034ff(%rip)        # 212060 <s+0x20>
    eb61:	c6 05 f5 34 20 00 75 	movb   $0x75,0x2034f5(%rip)        # 21205d <s+0x1d>
    eb68:	c6 05 e3 34 20 00 68 	movb   $0x68,0x2034e3(%rip)        # 212052 <s+0x12>
    eb6f:	c6 05 d7 34 20 00 47 	movb   $0x47,0x2034d7(%rip)        # 21204d <s+0xd>
    eb76:	c6 05 ca 34 20 00 39 	movb   $0x39,0x2034ca(%rip)        # 212047 <s+0x7>
    eb7d:	c6 05 d8 34 20 00 2c 	movb   $0x2c,0x2034d8(%rip)        # 21205c <s+0x1c>
    eb84:	c6 05 bb 34 20 00 20 	movb   $0x20,0x2034bb(%rip)        # 212046 <s+0x6>
    eb8b:	c6 05 d4 34 20 00 78 	movb   $0x78,0x2034d4(%rip)        # 212066 <s+0x26>
    eb92:	c6 05 bb 34 20 00 4a 	movb   $0x4a,0x2034bb(%rip)        # 212054 <s+0x14>
    eb99:	c6 05 bb 34 20 00 73 	movb   $0x73,0x2034bb(%rip)        # 21205b <s+0x1b>
    eba0:	c6 05 bc 34 20 00 2e 	movb   $0x2e,0x2034bc(%rip)        # 212063 <s+0x23>
    eba7:	c6 05 ac 34 20 00 42 	movb   $0x42,0x2034ac(%rip)        # 21205a <s+0x1a>
    ebae:	c6 05 b2 34 20 00 77 	movb   $0x77,0x2034b2(%rip)        # 212067 <s+0x27>
    ebb5:	c6 05 8b 34 20 00 52 	movb   $0x52,0x20348b(%rip)        # 212047 <s+0x7>
    ebbc:	c6 05 9a 34 20 00 3b 	movb   $0x3b,0x20349a(%rip)        # 21205d <s+0x1d>
    ebc3:	c6 05 89 34 20 00 56 	movb   $0x56,0x203489(%rip)        # 212053 <s+0x13>
    ebca:	c6 05 87 34 20 00 58 	movb   $0x58,0x203487(%rip)        # 212058 <s+0x18>
    ebd1:	c6 05 6a 34 20 00 55 	movb   $0x55,0x20346a(%rip)        # 212042 <s+0x2>
    ebd8:	c6 05 6e 34 20 00 26 	movb   $0x26,0x20346e(%rip)        # 21204d <s+0xd>
    ebdf:	c6 05 62 34 20 00 41 	movb   $0x41,0x203462(%rip)        # 212048 <s+0x8>
    ebe6:	c6 05 56 34 20 00 74 	movb   $0x74,0x203456(%rip)        # 212043 <s+0x3>
    ebed:	c6 05 58 34 20 00 6b 	movb   $0x6b,0x203458(%rip)        # 21204c <s+0xc>
    ebf4:	c6 05 5c 34 20 00 29 	movb   $0x29,0x20345c(%rip)        # 212057 <s+0x17>
    ebfb:	c6 05 5d 34 20 00 72 	movb   $0x72,0x20345d(%rip)        # 21205f <s+0x1f>
    ec02:	c6 05 3e 34 20 00 6b 	movb   $0x6b,0x20343e(%rip)        # 212047 <s+0x7>
    ec09:	c6 05 54 34 20 00 6b 	movb   $0x6b,0x203454(%rip)        # 212064 <s+0x24>
    ec10:	c6 05 2d 34 20 00 44 	movb   $0x44,0x20342d(%rip)        # 212044 <s+0x4>
    ec17:	c6 05 42 34 20 00 4a 	movb   $0x4a,0x203442(%rip)        # 212060 <s+0x20>
    ec1e:	c6 05 32 34 20 00 6f 	movb   $0x6f,0x203432(%rip)        # 212057 <s+0x17>
    ec25:	c6 05 20 34 20 00 68 	movb   $0x68,0x203420(%rip)        # 21204c <s+0xc>
    ec2c:	c6 05 1f 34 20 00 47 	movb   $0x47,0x20341f(%rip)        # 212052 <s+0x12>
    ec33:	c6 05 16 34 20 00 43 	movb   $0x43,0x203416(%rip)        # 212050 <s+0x10>
    ec3a:	c6 05 1d 34 20 00 36 	movb   $0x36,0x20341d(%rip)        # 21205e <s+0x1e>
    ec41:	c6 05 04 34 20 00 42 	movb   $0x42,0x203404(%rip)        # 21204c <s+0xc>
    ec48:	c6 05 10 34 20 00 51 	movb   $0x51,0x203410(%rip)        # 21205f <s+0x1f>
    ec4f:	c6 05 02 34 20 00 23 	movb   $0x23,0x203402(%rip)        # 212058 <s+0x18>
    ec56:	c6 05 fb 33 20 00 3c 	movb   $0x3c,0x2033fb(%rip)        # 212058 <s+0x18>
    ec5d:	c6 05 fa 33 20 00 2e 	movb   $0x2e,0x2033fa(%rip)        # 21205e <s+0x1e>
    ec64:	c6 05 ee 33 20 00 3c 	movb   $0x3c,0x2033ee(%rip)        # 212059 <s+0x19>
    ec6b:	c6 05 f5 33 20 00 5b 	movb   $0x5b,0x2033f5(%rip)        # 212067 <s+0x27>
    ec72:	c6 05 ee 33 20 00 24 	movb   $0x24,0x2033ee(%rip)        # 212067 <s+0x27>
    ec79:	c6 05 e7 33 20 00 77 	movb   $0x77,0x2033e7(%rip)        # 212067 <s+0x27>
    ec80:	c6 05 cd 33 20 00 41 	movb   $0x41,0x2033cd(%rip)        # 212054 <s+0x14>
    ec87:	c6 05 be 33 20 00 5f 	movb   $0x5f,0x2033be(%rip)        # 21204c <s+0xc>
    ec8e:	c6 05 bb 33 20 00 57 	movb   $0x57,0x2033bb(%rip)        # 212050 <s+0x10>
    ec95:	c6 05 cb 33 20 00 3e 	movb   $0x3e,0x2033cb(%rip)        # 212067 <s+0x27>
    ec9c:	c6 05 a0 33 20 00 6c 	movb   $0x6c,0x2033a0(%rip)        # 212043 <s+0x3>
    eca3:	c6 05 a8 33 20 00 69 	movb   $0x69,0x2033a8(%rip)        # 212052 <s+0x12>
    ecaa:	c6 05 b2 33 20 00 31 	movb   $0x31,0x2033b2(%rip)        # 212063 <s+0x23>
    ecb1:	c6 05 af 33 20 00 77 	movb   $0x77,0x2033af(%rip)        # 212067 <s+0x27>
    ecb8:	c6 05 9f 33 20 00 41 	movb   $0x41,0x20339f(%rip)        # 21205e <s+0x1e>
    ecbf:	c6 05 7c 33 20 00 63 	movb   $0x63,0x20337c(%rip)        # 212042 <s+0x2>
    ecc6:	c6 05 93 33 20 00 72 	movb   $0x72,0x203393(%rip)        # 212060 <s+0x20>
    eccd:	c6 05 8e 33 20 00 3a 	movb   $0x3a,0x20338e(%rip)        # 212062 <s+0x22>
    ecd4:	c6 05 7e 33 20 00 59 	movb   $0x59,0x20337e(%rip)        # 212059 <s+0x19>
    ecdb:	c6 05 64 33 20 00 60 	movb   $0x60,0x203364(%rip)        # 212046 <s+0x6>
    ece2:	c6 05 6e 33 20 00 56 	movb   $0x56,0x20336e(%rip)        # 212057 <s+0x17>
    ece9:	c6 05 65 33 20 00 3e 	movb   $0x3e,0x203365(%rip)        # 212055 <s+0x15>
    ecf0:	c6 05 65 33 20 00 34 	movb   $0x34,0x203365(%rip)        # 21205c <s+0x1c>
    ecf7:	c6 05 51 33 20 00 7e 	movb   $0x7e,0x203351(%rip)        # 21204f <s+0xf>
    ecfe:	c6 05 59 33 20 00 79 	movb   $0x79,0x203359(%rip)        # 21205e <s+0x1e>
    ed05:	c6 05 51 33 20 00 7d 	movb   $0x7d,0x203351(%rip)        # 21205d <s+0x1d>
    ed0c:	c6 05 2f 33 20 00 48 	movb   $0x48,0x20332f(%rip)        # 212042 <s+0x2>
    ed13:	c6 05 39 33 20 00 56 	movb   $0x56,0x203339(%rip)        # 212053 <s+0x13>
    ed1a:	c6 05 1f 33 20 00 40 	movb   $0x40,0x20331f(%rip)        # 212040 <s>
    ed21:	c6 05 2b 33 20 00 2f 	movb   $0x2f,0x20332b(%rip)        # 212053 <s+0x13>
    ed28:	c6 05 29 33 20 00 52 	movb   $0x52,0x203329(%rip)        # 212058 <s+0x18>
    ed2f:	c6 05 15 33 20 00 29 	movb   $0x29,0x203315(%rip)        # 21204b <s+0xb>
    ed36:	c6 05 22 33 20 00 7e 	movb   $0x7e,0x203322(%rip)        # 21205f <s+0x1f>
    ed3d:	c6 05 15 33 20 00 3d 	movb   $0x3d,0x203315(%rip)        # 212059 <s+0x19>
    ed44:	c6 05 07 33 20 00 43 	movb   $0x43,0x203307(%rip)        # 212052 <s+0x12>
    ed4b:	c6 05 00 33 20 00 29 	movb   $0x29,0x203300(%rip)        # 212052 <s+0x12>
    ed52:	c6 05 01 33 20 00 20 	movb   $0x20,0x203301(%rip)        # 21205a <s+0x1a>
    ed59:	c6 05 01 33 20 00 37 	movb   $0x37,0x203301(%rip)        # 212061 <s+0x21>
    ed60:	c6 05 f5 32 20 00 23 	movb   $0x23,0x2032f5(%rip)        # 21205c <s+0x1c>
    ed67:	c6 05 da 32 20 00 50 	movb   $0x50,0x2032da(%rip)        # 212048 <s+0x8>
    ed6e:	c6 05 e1 32 20 00 7a 	movb   $0x7a,0x2032e1(%rip)        # 212056 <s+0x16>
    ed75:	c6 05 ea 32 20 00 4c 	movb   $0x4c,0x2032ea(%rip)        # 212066 <s+0x26>
    ed7c:	c6 05 e2 32 20 00 3a 	movb   $0x3a,0x2032e2(%rip)        # 212065 <s+0x25>
    ed83:	c6 05 d1 32 20 00 2a 	movb   $0x2a,0x2032d1(%rip)        # 21205b <s+0x1b>
    ed8a:	c6 05 d2 32 20 00 50 	movb   $0x50,0x2032d2(%rip)        # 212063 <s+0x23>
    ed91:	c6 05 cc 32 20 00 35 	movb   $0x35,0x2032cc(%rip)        # 212064 <s+0x24>
    ed98:	c6 05 bc 32 20 00 33 	movb   $0x33,0x2032bc(%rip)        # 21205b <s+0x1b>
    ed9f:	c6 05 a2 32 20 00 75 	movb   $0x75,0x2032a2(%rip)        # 212048 <s+0x8>
    eda6:	c6 05 b0 32 20 00 50 	movb   $0x50,0x2032b0(%rip)        # 21205d <s+0x1d>
    edad:	c6 05 b3 32 20 00 37 	movb   $0x37,0x2032b3(%rip)        # 212067 <s+0x27>
    edb4:	c6 05 a6 32 20 00 7d 	movb   $0x7d,0x2032a6(%rip)        # 212061 <s+0x21>
    edbb:	c6 05 9d 32 20 00 59 	movb   $0x59,0x20329d(%rip)        # 21205f <s+0x1f>
    edc2:	c6 05 7b 32 20 00 4f 	movb   $0x4f,0x20327b(%rip)        # 212044 <s+0x4>
    edc9:	c6 05 87 32 20 00 46 	movb   $0x46,0x203287(%rip)        # 212057 <s+0x17>
    edd0:	c6 05 76 32 20 00 7d 	movb   $0x7d,0x203276(%rip)        # 21204d <s+0xd>
    edd7:	c6 05 6b 32 20 00 79 	movb   $0x79,0x20326b(%rip)        # 212049 <s+0x9>
    edde:	c6 05 7a 32 20 00 28 	movb   $0x28,0x20327a(%rip)        # 21205f <s+0x1f>
    ede5:	c6 05 70 32 20 00 25 	movb   $0x25,0x203270(%rip)        # 21205c <s+0x1c>
    edec:	c6 05 6d 32 20 00 72 	movb   $0x72,0x20326d(%rip)        # 212060 <s+0x20>
    edf3:	c6 05 5f 32 20 00 7a 	movb   $0x7a,0x20325f(%rip)        # 212059 <s+0x19>
    edfa:	c6 05 51 32 20 00 5e 	movb   $0x5e,0x203251(%rip)        # 212052 <s+0x12>
    ee01:	c6 05 5d 32 20 00 37 	movb   $0x37,0x20325d(%rip)        # 212065 <s+0x25>
    ee08:	c6 05 33 32 20 00 47 	movb   $0x47,0x203233(%rip)        # 212042 <s+0x2>
    ee0f:	c6 05 46 32 20 00 50 	movb   $0x50,0x203246(%rip)        # 21205c <s+0x1c>
    ee16:	c6 05 24 32 20 00 20 	movb   $0x20,0x203224(%rip)        # 212041 <s+0x1>
    ee1d:	c6 05 2c 32 20 00 24 	movb   $0x24,0x20322c(%rip)        # 212050 <s+0x10>
    ee24:	c6 05 21 32 20 00 57 	movb   $0x57,0x203221(%rip)        # 21204c <s+0xc>
    ee2b:	c6 05 0f 32 20 00 42 	movb   $0x42,0x20320f(%rip)        # 212041 <s+0x1>
    ee32:	c6 05 0b 32 20 00 62 	movb   $0x62,0x20320b(%rip)        # 212044 <s+0x4>
    ee39:	c6 05 13 32 20 00 45 	movb   $0x45,0x203213(%rip)        # 212053 <s+0x13>
    ee40:	c6 05 17 32 20 00 25 	movb   $0x25,0x203217(%rip)        # 21205e <s+0x1e>
    ee47:	c6 05 05 32 20 00 50 	movb   $0x50,0x203205(%rip)        # 212053 <s+0x13>
    ee4e:	c6 05 06 32 20 00 6a 	movb   $0x6a,0x203206(%rip)        # 21205b <s+0x1b>
    ee55:	c6 05 07 32 20 00 77 	movb   $0x77,0x203207(%rip)        # 212063 <s+0x23>
    ee5c:	c6 05 fa 31 20 00 7a 	movb   $0x7a,0x2031fa(%rip)        # 21205d <s+0x1d>
    ee63:	c6 05 dd 31 20 00 3a 	movb   $0x3a,0x2031dd(%rip)        # 212047 <s+0x7>
    ee6a:	c6 05 f4 31 20 00 26 	movb   $0x26,0x2031f4(%rip)        # 212065 <s+0x25>
    ee71:	c6 05 eb 31 20 00 33 	movb   $0x33,0x2031eb(%rip)        # 212063 <s+0x23>
    ee78:	c6 05 ca 31 20 00 3a 	movb   $0x3a,0x2031ca(%rip)        # 212049 <s+0x9>
    ee7f:	c6 05 c1 31 20 00 2d 	movb   $0x2d,0x2031c1(%rip)        # 212047 <s+0x7>
    ee86:	c6 05 d7 31 20 00 3a 	movb   $0x3a,0x2031d7(%rip)        # 212064 <s+0x24>
    ee8d:	c6 05 be 31 20 00 7b 	movb   $0x7b,0x2031be(%rip)        # 212052 <s+0x12>
    ee94:	c6 05 ad 31 20 00 2d 	movb   $0x2d,0x2031ad(%rip)        # 212048 <s+0x8>
    ee9b:	c6 05 a7 31 20 00 26 	movb   $0x26,0x2031a7(%rip)        # 212049 <s+0x9>
    eea2:	c6 05 a3 31 20 00 4b 	movb   $0x4b,0x2031a3(%rip)        # 21204c <s+0xc>
    eea9:	c6 05 ae 31 20 00 46 	movb   $0x46,0x2031ae(%rip)        # 21205e <s+0x1e>
    eeb0:	c6 05 93 31 20 00 7a 	movb   $0x7a,0x203193(%rip)        # 21204a <s+0xa>
    eeb7:	c6 05 a1 31 20 00 72 	movb   $0x72,0x2031a1(%rip)        # 21205f <s+0x1f>
    eebe:	c6 05 9e 31 20 00 6a 	movb   $0x6a,0x20319e(%rip)        # 212063 <s+0x23>
    eec5:	c6 05 88 31 20 00 33 	movb   $0x33,0x203188(%rip)        # 212054 <s+0x14>
    eecc:	c6 05 89 31 20 00 68 	movb   $0x68,0x203189(%rip)        # 21205c <s+0x1c>
    eed3:	c6 05 8a 31 20 00 3f 	movb   $0x3f,0x20318a(%rip)        # 212064 <s+0x24>
    eeda:	c6 05 85 31 20 00 4f 	movb   $0x4f,0x203185(%rip)        # 212066 <s+0x26>
    eee1:	c6 05 61 31 20 00 36 	movb   $0x36,0x203161(%rip)        # 212049 <s+0x9>
    eee8:	c6 05 68 31 20 00 64 	movb   $0x64,0x203168(%rip)        # 212057 <s+0x17>
    eeef:	c6 05 4e 31 20 00 44 	movb   $0x44,0x20314e(%rip)        # 212044 <s+0x4>
    eef6:	c6 05 5c 31 20 00 28 	movb   $0x28,0x20315c(%rip)        # 212059 <s+0x19>
    eefd:	c6 05 41 31 20 00 5b 	movb   $0x5b,0x203141(%rip)        # 212045 <s+0x5>
    ef04:	c6 05 5c 31 20 00 3b 	movb   $0x3b,0x20315c(%rip)        # 212067 <s+0x27>
    ef0b:	c6 05 39 31 20 00 42 	movb   $0x42,0x203139(%rip)        # 21204b <s+0xb>
    ef12:	c6 05 3f 31 20 00 54 	movb   $0x54,0x20313f(%rip)        # 212058 <s+0x18>
    ef19:	c6 05 20 31 20 00 70 	movb   $0x70,0x203120(%rip)        # 212040 <s>
    ef20:	c6 05 19 31 20 00 7d 	movb   $0x7d,0x203119(%rip)        # 212040 <s>
    ef27:	c6 05 16 31 20 00 4a 	movb   $0x4a,0x203116(%rip)        # 212044 <s+0x4>
    ef2e:	c6 05 2e 31 20 00 29 	movb   $0x29,0x20312e(%rip)        # 212063 <s+0x23>
    ef35:	c6 05 28 31 20 00 6d 	movb   $0x6d,0x203128(%rip)        # 212064 <s+0x24>
    ef3c:	c6 05 fe 30 20 00 52 	movb   $0x52,0x2030fe(%rip)        # 212041 <s+0x1>
    ef43:	c6 05 0d 31 20 00 6a 	movb   $0x6a,0x20310d(%rip)        # 212057 <s+0x17>
    ef4a:	c6 05 11 31 20 00 51 	movb   $0x51,0x203111(%rip)        # 212062 <s+0x22>
    ef51:	c6 05 07 31 20 00 44 	movb   $0x44,0x203107(%rip)        # 21205f <s+0x1f>
    ef58:	c6 05 01 31 20 00 34 	movb   $0x34,0x203101(%rip)        # 212060 <s+0x20>
    ef5f:	c6 05 dd 30 20 00 33 	movb   $0x33,0x2030dd(%rip)        # 212043 <s+0x3>
    ef66:	c6 05 e7 30 20 00 65 	movb   $0x65,0x2030e7(%rip)        # 212054 <s+0x14>
    ef6d:	c6 05 f3 30 20 00 53 	movb   $0x53,0x2030f3(%rip)        # 212067 <s+0x27>
    ef74:	c6 05 ca 30 20 00 66 	movb   $0x66,0x2030ca(%rip)        # 212045 <s+0x5>
    ef7b:	c6 05 c3 30 20 00 39 	movb   $0x39,0x2030c3(%rip)        # 212045 <s+0x5>
    ef82:	c6 05 d2 30 20 00 3a 	movb   $0x3a,0x2030d2(%rip)        # 21205b <s+0x1b>
    ef89:	c6 05 d6 30 20 00 6f 	movb   $0x6f,0x2030d6(%rip)        # 212066 <s+0x26>
    ef90:	c6 05 c2 30 20 00 3f 	movb   $0x3f,0x2030c2(%rip)        # 212059 <s+0x19>
    ef97:	c6 05 c5 30 20 00 3d 	movb   $0x3d,0x2030c5(%rip)        # 212063 <s+0x23>
    ef9e:	c6 05 9e 30 20 00 43 	movb   $0x43,0x20309e(%rip)        # 212043 <s+0x3>
    efa5:	c6 05 a2 30 20 00 4c 	movb   $0x4c,0x2030a2(%rip)        # 21204e <s+0xe>
    efac:	c6 05 8e 30 20 00 2f 	movb   $0x2f,0x20308e(%rip)        # 212041 <s+0x1>
    efb3:	c6 05 9e 30 20 00 48 	movb   $0x48,0x20309e(%rip)        # 212058 <s+0x18>
    efba:	c6 05 92 30 20 00 2c 	movb   $0x2c,0x203092(%rip)        # 212053 <s+0x13>
    efc1:	c6 05 83 30 20 00 3d 	movb   $0x3d,0x203083(%rip)        # 21204b <s+0xb>
    efc8:	c6 05 7d 30 20 00 4b 	movb   $0x4b,0x20307d(%rip)        # 21204c <s+0xc>
    efcf:	c6 05 72 30 20 00 67 	movb   $0x67,0x203072(%rip)        # 212048 <s+0x8>
    efd6:	c6 05 7b 30 20 00 7a 	movb   $0x7a,0x20307b(%rip)        # 212058 <s+0x18>
    efdd:	c6 05 66 30 20 00 5e 	movb   $0x5e,0x203066(%rip)        # 21204a <s+0xa>
    efe4:	c6 05 5a 30 20 00 25 	movb   $0x25,0x20305a(%rip)        # 212045 <s+0x5>
    efeb:	c6 05 73 30 20 00 23 	movb   $0x23,0x203073(%rip)        # 212065 <s+0x25>
    eff2:	c6 05 47 30 20 00 7e 	movb   $0x7e,0x203047(%rip)        # 212040 <s>
    eff9:	c6 05 45 30 20 00 3a 	movb   $0x3a,0x203045(%rip)        # 212045 <s+0x5>
    f000:	c6 05 57 30 20 00 32 	movb   $0x32,0x203057(%rip)        # 21205e <s+0x1e>
    f007:	c6 05 3c 30 20 00 31 	movb   $0x31,0x20303c(%rip)        # 21204a <s+0xa>
    f00e:	c6 05 43 30 20 00 34 	movb   $0x34,0x203043(%rip)        # 212058 <s+0x18>
    f015:	c6 05 45 30 20 00 4f 	movb   $0x4f,0x203045(%rip)        # 212061 <s+0x21>
    f01c:	c6 05 3d 30 20 00 4a 	movb   $0x4a,0x20303d(%rip)        # 212060 <s+0x20>
    f023:	c6 05 22 30 20 00 67 	movb   $0x67,0x203022(%rip)        # 21204c <s+0xc>
    f02a:	c6 05 35 30 20 00 50 	movb   $0x50,0x203035(%rip)        # 212066 <s+0x26>
    f031:	c6 05 27 30 20 00 70 	movb   $0x70,0x203027(%rip)        # 21205f <s+0x1f>
    f038:	c6 05 1d 30 20 00 51 	movb   $0x51,0x20301d(%rip)        # 21205c <s+0x1c>
    f03f:	c6 05 0f 30 20 00 61 	movb   $0x61,0x20300f(%rip)        # 212055 <s+0x15>
    f046:	c6 05 ff 2f 20 00 4f 	movb   $0x4f,0x202fff(%rip)        # 21204c <s+0xc>
    f04d:	c6 05 f9 2f 20 00 47 	movb   $0x47,0x202ff9(%rip)        # 21204d <s+0xd>
    f054:	c6 05 ed 2f 20 00 55 	movb   $0x55,0x202fed(%rip)        # 212048 <s+0x8>
    f05b:	c6 05 fc 2f 20 00 70 	movb   $0x70,0x202ffc(%rip)        # 21205e <s+0x1e>
    f062:	c6 05 f1 2f 20 00 6a 	movb   $0x6a,0x202ff1(%rip)        # 21205a <s+0x1a>
    f069:	c6 05 f7 2f 20 00 72 	movb   $0x72,0x202ff7(%rip)        # 212067 <s+0x27>
    f070:	c6 05 ca 2f 20 00 7c 	movb   $0x7c,0x202fca(%rip)        # 212041 <s+0x1>
    f077:	c6 05 d3 2f 20 00 4a 	movb   $0x4a,0x202fd3(%rip)        # 212051 <s+0x11>
    f07e:	c6 05 da 2f 20 00 4a 	movb   $0x4a,0x202fda(%rip)        # 21205f <s+0x1f>
    f085:	c6 05 bd 2f 20 00 33 	movb   $0x33,0x202fbd(%rip)        # 212049 <s+0x9>
    f08c:	c6 05 bb 2f 20 00 64 	movb   $0x64,0x202fbb(%rip)        # 21204e <s+0xe>
    f093:	c6 05 ae 2f 20 00 7b 	movb   $0x7b,0x202fae(%rip)        # 212048 <s+0x8>
    f09a:	c6 05 ad 2f 20 00 28 	movb   $0x28,0x202fad(%rip)        # 21204e <s+0xe>
    f0a1:	c6 05 a7 2f 20 00 62 	movb   $0x62,0x202fa7(%rip)        # 21204f <s+0xf>
    f0a8:	c6 05 aa 2f 20 00 64 	movb   $0x64,0x202faa(%rip)        # 212059 <s+0x19>
    f0af:	c6 05 b1 2f 20 00 4f 	movb   $0x4f,0x202fb1(%rip)        # 212067 <s+0x27>
    f0b6:	c6 05 89 2f 20 00 77 	movb   $0x77,0x202f89(%rip)        # 212046 <s+0x6>
    f0bd:	c6 05 8d 2f 20 00 40 	movb   $0x40,0x202f8d(%rip)        # 212051 <s+0x11>
    f0c4:	c6 05 7d 2f 20 00 37 	movb   $0x37,0x202f7d(%rip)        # 212048 <s+0x8>
    f0cb:	c6 05 91 2f 20 00 63 	movb   $0x63,0x202f91(%rip)        # 212063 <s+0x23>
    f0d2:	c6 05 6d 2f 20 00 6d 	movb   $0x6d,0x202f6d(%rip)        # 212046 <s+0x6>
    f0d9:	c6 05 87 2f 20 00 26 	movb   $0x26,0x202f87(%rip)        # 212067 <s+0x27>
    f0e0:	c6 05 71 2f 20 00 37 	movb   $0x37,0x202f71(%rip)        # 212058 <s+0x18>
    f0e7:	c6 05 5b 2f 20 00 26 	movb   $0x26,0x202f5b(%rip)        # 212049 <s+0x9>
    f0ee:	c6 05 6a 2f 20 00 62 	movb   $0x62,0x202f6a(%rip)        # 21205f <s+0x1f>
    f0f5:	c6 05 5a 2f 20 00 3c 	movb   $0x3c,0x202f5a(%rip)        # 212056 <s+0x16>
    f0fc:	c6 05 4a 2f 20 00 2a 	movb   $0x2a,0x202f4a(%rip)        # 21204d <s+0xd>
    f103:	c6 05 4d 2f 20 00 25 	movb   $0x25,0x202f4d(%rip)        # 212057 <s+0x17>
    f10a:	c6 05 4d 2f 20 00 7a 	movb   $0x7a,0x202f4d(%rip)        # 21205e <s+0x1e>
    f111:	c6 05 2f 2f 20 00 3c 	movb   $0x3c,0x202f2f(%rip)        # 212047 <s+0x7>
    f118:	c6 05 40 2f 20 00 73 	movb   $0x73,0x202f40(%rip)        # 21205f <s+0x1f>
    f11f:	c6 05 2a 2f 20 00 75 	movb   $0x75,0x202f2a(%rip)        # 212050 <s+0x10>
    f126:	c6 05 2f 2f 20 00 2d 	movb   $0x2d,0x202f2f(%rip)        # 21205c <s+0x1c>
    f12d:	c6 05 19 2f 20 00 5e 	movb   $0x5e,0x202f19(%rip)        # 21204d <s+0xd>
    f134:	c6 05 2b 2f 20 00 5a 	movb   $0x5a,0x202f2b(%rip)        # 212066 <s+0x26>
    f13b:	c6 05 21 2f 20 00 33 	movb   $0x33,0x202f21(%rip)        # 212063 <s+0x23>
    f142:	c6 05 0a 2f 20 00 74 	movb   $0x74,0x202f0a(%rip)        # 212053 <s+0x13>
    f149:	c6 05 02 2f 20 00 65 	movb   $0x65,0x202f02(%rip)        # 212052 <s+0x12>
    f150:	c6 05 03 2f 20 00 47 	movb   $0x47,0x202f03(%rip)        # 21205a <s+0x1a>
    f157:	c6 05 ee 2e 20 00 76 	movb   $0x76,0x202eee(%rip)        # 21204c <s+0xc>
    f15e:	c6 05 db 2e 20 00 5b 	movb   $0x5b,0x202edb(%rip)        # 212040 <s>
    f165:	c6 05 f3 2e 20 00 42 	movb   $0x42,0x202ef3(%rip)        # 21205f <s+0x1f>
    f16c:	c6 05 f2 2e 20 00 32 	movb   $0x32,0x202ef2(%rip)        # 212065 <s+0x25>
    f173:	c6 05 e9 2e 20 00 7e 	movb   $0x7e,0x202ee9(%rip)        # 212063 <s+0x23>
    f17a:	c6 05 c8 2e 20 00 5d 	movb   $0x5d,0x202ec8(%rip)        # 212049 <s+0x9>
    f181:	c6 05 db 2e 20 00 5b 	movb   $0x5b,0x202edb(%rip)        # 212063 <s+0x23>
    f188:	c6 05 c1 2e 20 00 72 	movb   $0x72,0x202ec1(%rip)        # 212050 <s+0x10>
    f18f:	c6 05 bc 2e 20 00 2c 	movb   $0x2c,0x202ebc(%rip)        # 212052 <s+0x12>
    f196:	c6 05 c3 2e 20 00 4a 	movb   $0x4a,0x202ec3(%rip)        # 212060 <s+0x20>
    f19d:	c6 05 9d 2e 20 00 2d 	movb   $0x2d,0x202e9d(%rip)        # 212041 <s+0x1>
    f1a4:	c6 05 9a 2e 20 00 42 	movb   $0x42,0x202e9a(%rip)        # 212045 <s+0x5>
    f1ab:	c6 05 b1 2e 20 00 2d 	movb   $0x2d,0x202eb1(%rip)        # 212063 <s+0x23>
    f1b2:	c6 05 a2 2e 20 00 58 	movb   $0x58,0x202ea2(%rip)        # 21205b <s+0x1b>
    f1b9:	c6 05 91 2e 20 00 4f 	movb   $0x4f,0x202e91(%rip)        # 212051 <s+0x11>
    f1c0:	c6 05 97 2e 20 00 59 	movb   $0x59,0x202e97(%rip)        # 21205e <s+0x1e>
    f1c7:	c6 05 86 2e 20 00 2d 	movb   $0x2d,0x202e86(%rip)        # 212054 <s+0x14>
    f1ce:	c6 05 90 2e 20 00 7d 	movb   $0x7d,0x202e90(%rip)        # 212065 <s+0x25>
    f1d5:	c6 05 71 2e 20 00 59 	movb   $0x59,0x202e71(%rip)        # 21204d <s+0xd>
    f1dc:	c6 05 64 2e 20 00 41 	movb   $0x41,0x202e64(%rip)        # 212047 <s+0x7>
    f1e3:	c6 05 74 2e 20 00 3e 	movb   $0x3e,0x202e74(%rip)        # 21205e <s+0x1e>
    f1ea:	c6 05 6c 2e 20 00 5a 	movb   $0x5a,0x202e6c(%rip)        # 21205d <s+0x1d>
    f1f1:	c6 05 6e 2e 20 00 2f 	movb   $0x2f,0x202e6e(%rip)        # 212066 <s+0x26>
    f1f8:	c6 05 49 2e 20 00 33 	movb   $0x33,0x202e49(%rip)        # 212048 <s+0x8>
    f1ff:	c6 05 5e 2e 20 00 3f 	movb   $0x3f,0x202e5e(%rip)        # 212064 <s+0x24>
    f206:	c6 05 57 2e 20 00 34 	movb   $0x34,0x202e57(%rip)        # 212064 <s+0x24>
    f20d:	c6 05 33 2e 20 00 71 	movb   $0x71,0x202e33(%rip)        # 212047 <s+0x7>
    f214:	c6 05 2a 2e 20 00 53 	movb   $0x53,0x202e2a(%rip)        # 212045 <s+0x5>
    f21b:	c6 05 20 2e 20 00 33 	movb   $0x33,0x202e20(%rip)        # 212042 <s+0x2>
    f222:	c6 05 3a 2e 20 00 48 	movb   $0x48,0x202e3a(%rip)        # 212063 <s+0x23>
    f229:	c6 05 2d 2e 20 00 74 	movb   $0x74,0x202e2d(%rip)        # 21205d <s+0x1d>
    f230:	c6 05 13 2e 20 00 6e 	movb   $0x6e,0x202e13(%rip)        # 21204a <s+0xa>
    f237:	c6 05 06 2e 20 00 2b 	movb   $0x2b,0x202e06(%rip)        # 212044 <s+0x4>
    f23e:	c6 05 1f 2e 20 00 32 	movb   $0x32,0x202e1f(%rip)        # 212064 <s+0x24>
    f245:	c6 05 f4 2d 20 00 41 	movb   $0x41,0x202df4(%rip)        # 212040 <s>
    f24c:	c6 05 f0 2d 20 00 3c 	movb   $0x3c,0x202df0(%rip)        # 212043 <s+0x3>
    f253:	c6 05 0c 2e 20 00 32 	movb   $0x32,0x202e0c(%rip)        # 212066 <s+0x26>
    f25a:	c6 05 f0 2d 20 00 3b 	movb   $0x3b,0x202df0(%rip)        # 212051 <s+0x11>
    f261:	c6 05 fd 2d 20 00 70 	movb   $0x70,0x202dfd(%rip)        # 212065 <s+0x25>
    f268:	c6 05 e7 2d 20 00 35 	movb   $0x35,0x202de7(%rip)        # 212056 <s+0x16>
    f26f:	c6 05 e4 2d 20 00 75 	movb   $0x75,0x202de4(%rip)        # 21205a <s+0x1a>
    f276:	c6 05 d2 2d 20 00 6c 	movb   $0x6c,0x202dd2(%rip)        # 21204f <s+0xf>
    f27d:	c6 05 bc 2d 20 00 7b 	movb   $0x7b,0x202dbc(%rip)        # 212040 <s>
    f284:	c6 05 c6 2d 20 00 66 	movb   $0x66,0x202dc6(%rip)        # 212051 <s+0x11>
    f28b:	c6 05 cf 2d 20 00 38 	movb   $0x38,0x202dcf(%rip)        # 212061 <s+0x21>
    f292:	c6 05 bb 2d 20 00 4d 	movb   $0x4d,0x202dbb(%rip)        # 212054 <s+0x14>
    f299:	c6 05 c7 2d 20 00 47 	movb   $0x47,0x202dc7(%rip)        # 212067 <s+0x27>
    f2a0:	c6 05 a3 2d 20 00 49 	movb   $0x49,0x202da3(%rip)        # 21204a <s+0xa>
    f2a7:	c6 05 a7 2d 20 00 34 	movb   $0x34,0x202da7(%rip)        # 212055 <s+0x15>
    f2ae:	c6 05 a9 2d 20 00 37 	movb   $0x37,0x202da9(%rip)        # 21205e <s+0x1e>
    f2b5:	c6 05 96 2d 20 00 3a 	movb   $0x3a,0x202d96(%rip)        # 212052 <s+0x12>
    f2bc:	c6 05 9d 2d 20 00 70 	movb   $0x70,0x202d9d(%rip)        # 212060 <s+0x20>
    f2c3:	c6 05 94 2d 20 00 7d 	movb   $0x7d,0x202d94(%rip)        # 21205e <s+0x1e>
    f2ca:	c6 05 93 2d 20 00 2b 	movb   $0x2b,0x202d93(%rip)        # 212064 <s+0x24>
    f2d1:	c6 05 8f 2d 20 00 6b 	movb   $0x6b,0x202d8f(%rip)        # 212067 <s+0x27>
    f2d8:	c6 05 7f 2d 20 00 7e 	movb   $0x7e,0x202d7f(%rip)        # 21205e <s+0x1e>
    f2df:	c6 05 69 2d 20 00 5d 	movb   $0x5d,0x202d69(%rip)        # 21204f <s+0xf>
    f2e6:	c6 05 56 2d 20 00 4c 	movb   $0x4c,0x202d56(%rip)        # 212043 <s+0x3>
    f2ed:	c6 05 60 2d 20 00 6f 	movb   $0x6f,0x202d60(%rip)        # 212054 <s+0x14>
    f2f4:	c6 05 4d 2d 20 00 35 	movb   $0x35,0x202d4d(%rip)        # 212048 <s+0x8>
    f2fb:	c6 05 63 2d 20 00 38 	movb   $0x38,0x202d63(%rip)        # 212065 <s+0x25>
    f302:	c6 05 4a 2d 20 00 22 	movb   $0x22,0x202d4a(%rip)        # 212053 <s+0x13>
    f309:	c6 05 3f 2d 20 00 32 	movb   $0x32,0x202d3f(%rip)        # 21204f <s+0xf>
    f310:	c6 05 3d 2d 20 00 57 	movb   $0x57,0x202d3d(%rip)        # 212054 <s+0x14>
    f317:	c6 05 3e 2d 20 00 20 	movb   $0x20,0x202d3e(%rip)        # 21205c <s+0x1c>
    f31e:	c6 05 1d 2d 20 00 25 	movb   $0x25,0x202d1d(%rip)        # 212042 <s+0x2>
    f325:	c6 05 2b 2d 20 00 28 	movb   $0x28,0x202d2b(%rip)        # 212057 <s+0x17>
    f32c:	c6 05 19 2d 20 00 6d 	movb   $0x6d,0x202d19(%rip)        # 21204c <s+0xc>
    f333:	c6 05 0d 2d 20 00 2f 	movb   $0x2f,0x202d0d(%rip)        # 212047 <s+0x7>
    f33a:	c6 05 0d 2d 20 00 33 	movb   $0x33,0x202d0d(%rip)        # 21204e <s+0xe>
    f341:	c6 05 fa 2c 20 00 59 	movb   $0x59,0x202cfa(%rip)        # 212042 <s+0x2>
    f348:	c6 05 0a 2d 20 00 5e 	movb   $0x5e,0x202d0a(%rip)        # 212059 <s+0x19>
    f34f:	c6 05 ea 2c 20 00 51 	movb   $0x51,0x202cea(%rip)        # 212040 <s>
    f356:	c6 05 eb 2c 20 00 22 	movb   $0x22,0x202ceb(%rip)        # 212048 <s+0x8>
    f35d:	c6 05 e7 2c 20 00 4a 	movb   $0x4a,0x202ce7(%rip)        # 21204b <s+0xb>
    f364:	c6 05 f3 2c 20 00 51 	movb   $0x51,0x202cf3(%rip)        # 21205e <s+0x1e>
    f36b:	c6 05 f4 2c 20 00 2b 	movb   $0x2b,0x202cf4(%rip)        # 212066 <s+0x26>
    f372:	c6 05 db 2c 20 00 48 	movb   $0x48,0x202cdb(%rip)        # 212054 <s+0x14>
    f379:	c6 05 c8 2c 20 00 7c 	movb   $0x7c,0x202cc8(%rip)        # 212048 <s+0x8>
    f380:	c6 05 bf 2c 20 00 48 	movb   $0x48,0x202cbf(%rip)        # 212046 <s+0x6>
    f387:	c6 05 b6 2c 20 00 23 	movb   $0x23,0x202cb6(%rip)        # 212044 <s+0x4>
    f38e:	c6 05 cb 2c 20 00 50 	movb   $0x50,0x202ccb(%rip)        # 212060 <s+0x20>
    f395:	c6 05 b5 2c 20 00 69 	movb   $0x69,0x202cb5(%rip)        # 212051 <s+0x11>
    f39c:	c6 05 af 2c 20 00 24 	movb   $0x24,0x202caf(%rip)        # 212052 <s+0x12>
    f3a3:	c6 05 a1 2c 20 00 33 	movb   $0x33,0x202ca1(%rip)        # 21204b <s+0xb>
    f3aa:	c6 05 a1 2c 20 00 6a 	movb   $0x6a,0x202ca1(%rip)        # 212052 <s+0x12>
    f3b1:	c6 05 ae 2c 20 00 43 	movb   $0x43,0x202cae(%rip)        # 212066 <s+0x26>
    f3b8:	c6 05 9a 2c 20 00 5a 	movb   $0x5a,0x202c9a(%rip)        # 212059 <s+0x19>
    f3bf:	c6 05 81 2c 20 00 61 	movb   $0x61,0x202c81(%rip)        # 212047 <s+0x7>
    f3c6:	c6 05 7c 2c 20 00 2e 	movb   $0x2e,0x202c7c(%rip)        # 212049 <s+0x9>
    f3cd:	c6 05 82 2c 20 00 28 	movb   $0x28,0x202c82(%rip)        # 212056 <s+0x16>
    f3d4:	c6 05 8a 2c 20 00 59 	movb   $0x59,0x202c8a(%rip)        # 212065 <s+0x25>
    f3db:	c6 05 62 2c 20 00 34 	movb   $0x34,0x202c62(%rip)        # 212044 <s+0x4>
    f3e2:	c6 05 63 2c 20 00 24 	movb   $0x24,0x202c63(%rip)        # 21204c <s+0xc>
    f3e9:	c6 05 5f 2c 20 00 67 	movb   $0x67,0x202c5f(%rip)        # 21204f <s+0xf>
    f3f0:	c6 05 51 2c 20 00 68 	movb   $0x68,0x202c51(%rip)        # 212048 <s+0x8>
    f3f7:	c6 05 5b 2c 20 00 46 	movb   $0x46,0x202c5b(%rip)        # 212059 <s+0x19>
    f3fe:	c6 05 56 2c 20 00 49 	movb   $0x49,0x202c56(%rip)        # 21205b <s+0x1b>
    f405:	c6 05 52 2c 20 00 74 	movb   $0x74,0x202c52(%rip)        # 21205e <s+0x1e>
    f40c:	c6 05 2e 2c 20 00 71 	movb   $0x71,0x202c2e(%rip)        # 212041 <s+0x1>
    f413:	c6 05 43 2c 20 00 66 	movb   $0x66,0x202c43(%rip)        # 21205d <s+0x1d>
    f41a:	c6 05 33 2c 20 00 5f 	movb   $0x5f,0x202c33(%rip)        # 212054 <s+0x14>
    f421:	c6 05 2f 2c 20 00 6c 	movb   $0x6c,0x202c2f(%rip)        # 212057 <s+0x17>
    f428:	c6 05 28 2c 20 00 68 	movb   $0x68,0x202c28(%rip)        # 212057 <s+0x17>
    f42f:	c6 05 26 2c 20 00 29 	movb   $0x29,0x202c26(%rip)        # 21205c <s+0x1c>
    f436:	c6 05 0f 2c 20 00 7e 	movb   $0x7e,0x202c0f(%rip)        # 21204c <s+0xc>
    f43d:	c6 05 13 2c 20 00 47 	movb   $0x47,0x202c13(%rip)        # 212057 <s+0x17>
    f444:	c6 05 06 2c 20 00 5e 	movb   $0x5e,0x202c06(%rip)        # 212051 <s+0x11>
    f44b:	c6 05 ff 2b 20 00 40 	movb   $0x40,0x202bff(%rip)        # 212051 <s+0x11>
    f452:	c6 05 ff 2b 20 00 6e 	movb   $0x6e,0x202bff(%rip)        # 212058 <s+0x18>
    f459:	c6 05 f1 2b 20 00 3d 	movb   $0x3d,0x202bf1(%rip)        # 212051 <s+0x11>
    f460:	c6 05 e0 2b 20 00 48 	movb   $0x48,0x202be0(%rip)        # 212047 <s+0x7>
    f467:	c6 05 da 2b 20 00 26 	movb   $0x26,0x202bda(%rip)        # 212048 <s+0x8>
    f46e:	c6 05 e1 2b 20 00 59 	movb   $0x59,0x202be1(%rip)        # 212056 <s+0x16>
    f475:	c6 05 d2 2b 20 00 22 	movb   $0x22,0x202bd2(%rip)        # 21204e <s+0xe>
    f47c:	c6 05 e0 2b 20 00 76 	movb   $0x76,0x202be0(%rip)        # 212063 <s+0x23>
    f483:	c6 05 d8 2b 20 00 29 	movb   $0x29,0x202bd8(%rip)        # 212062 <s+0x22>
    f48a:	c6 05 b7 2b 20 00 4a 	movb   $0x4a,0x202bb7(%rip)        # 212048 <s+0x8>
    f491:	c6 05 a8 2b 20 00 58 	movb   $0x58,0x202ba8(%rip)        # 212040 <s>
    f498:	c6 05 a7 2b 20 00 7e 	movb   $0x7e,0x202ba7(%rip)        # 212046 <s+0x6>
    f49f:	c6 05 ab 2b 20 00 24 	movb   $0x24,0x202bab(%rip)        # 212051 <s+0x11>
    f4a6:	c6 05 b4 2b 20 00 51 	movb   $0x51,0x202bb4(%rip)        # 212061 <s+0x21>
    f4ad:	c6 05 93 2b 20 00 7a 	movb   $0x7a,0x202b93(%rip)        # 212047 <s+0x7>
    f4b4:	c6 05 9f 2b 20 00 59 	movb   $0x59,0x202b9f(%rip)        # 21205a <s+0x1a>
    f4bb:	c6 05 81 2b 20 00 32 	movb   $0x32,0x202b81(%rip)        # 212043 <s+0x3>
    f4c2:	c6 05 93 2b 20 00 34 	movb   $0x34,0x202b93(%rip)        # 21205c <s+0x1c>
    f4c9:	c6 05 7c 2b 20 00 2a 	movb   $0x2a,0x202b7c(%rip)        # 21204c <s+0xc>
    f4d0:	c6 05 6a 2b 20 00 25 	movb   $0x25,0x202b6a(%rip)        # 212041 <s+0x1>
    f4d7:	c6 05 80 2b 20 00 75 	movb   $0x75,0x202b80(%rip)        # 21205e <s+0x1e>
    f4de:	c6 05 6e 2b 20 00 69 	movb   $0x69,0x202b6e(%rip)        # 212053 <s+0x13>
    f4e5:	c6 05 58 2b 20 00 53 	movb   $0x53,0x202b58(%rip)        # 212044 <s+0x4>
    f4ec:	c6 05 51 2b 20 00 7d 	movb   $0x7d,0x202b51(%rip)        # 212044 <s+0x4>
    f4f3:	c6 05 46 2b 20 00 36 	movb   $0x36,0x202b46(%rip)        # 212040 <s>
    f4fa:	c6 05 4d 2b 20 00 7e 	movb   $0x7e,0x202b4d(%rip)        # 21204e <s+0xe>
    f501:	c6 05 5f 2b 20 00 49 	movb   $0x49,0x202b5f(%rip)        # 212067 <s+0x27>
    f508:	c6 05 54 2b 20 00 2a 	movb   $0x2a,0x202b54(%rip)        # 212063 <s+0x23>
    f50f:	c6 05 2d 2b 20 00 72 	movb   $0x72,0x202b2d(%rip)        # 212043 <s+0x3>
    f516:	c6 05 2e 2b 20 00 33 	movb   $0x33,0x202b2e(%rip)        # 21204b <s+0xb>
    f51d:	c6 05 29 2b 20 00 22 	movb   $0x22,0x202b29(%rip)        # 21204d <s+0xd>
    f524:	c6 05 2b 2b 20 00 47 	movb   $0x47,0x202b2b(%rip)        # 212056 <s+0x16>
    f52b:	c6 05 31 2b 20 00 67 	movb   $0x67,0x202b31(%rip)        # 212063 <s+0x23>
    f532:	c6 05 21 2b 20 00 3a 	movb   $0x3a,0x202b21(%rip)        # 21205a <s+0x1a>
    f539:	c6 05 22 2b 20 00 35 	movb   $0x35,0x202b22(%rip)        # 212062 <s+0x22>
    f540:	c6 05 07 2b 20 00 23 	movb   $0x23,0x202b07(%rip)        # 21204e <s+0xe>
    f547:	c6 05 11 2b 20 00 3e 	movb   $0x3e,0x202b11(%rip)        # 21205f <s+0x1f>
    f54e:	c6 05 f7 2a 20 00 40 	movb   $0x40,0x202af7(%rip)        # 21204c <s+0xc>
    f555:	c6 05 02 2b 20 00 47 	movb   $0x47,0x202b02(%rip)        # 21205e <s+0x1e>
    f55c:	c6 05 de 2a 20 00 5f 	movb   $0x5f,0x202ade(%rip)        # 212041 <s+0x1>
    f563:	c6 05 db 2a 20 00 49 	movb   $0x49,0x202adb(%rip)        # 212045 <s+0x5>
    f56a:	c6 05 df 2a 20 00 4f 	movb   $0x4f,0x202adf(%rip)        # 212050 <s+0x10>
    f571:	c6 05 dd 2a 20 00 68 	movb   $0x68,0x202add(%rip)        # 212055 <s+0x15>
    f578:	c6 05 c8 2a 20 00 54 	movb   $0x54,0x202ac8(%rip)        # 212047 <s+0x7>
    f57f:	c6 05 e0 2a 20 00 6d 	movb   $0x6d,0x202ae0(%rip)        # 212066 <s+0x26>
    f586:	c6 05 c2 2a 20 00 7e 	movb   $0x7e,0x202ac2(%rip)        # 21204f <s+0xf>
    f58d:	c6 05 ce 2a 20 00 44 	movb   $0x44,0x202ace(%rip)        # 212062 <s+0x22>
    f594:	c6 05 b5 2a 20 00 56 	movb   $0x56,0x202ab5(%rip)        # 212050 <s+0x10>
    f59b:	c6 05 a7 2a 20 00 33 	movb   $0x33,0x202aa7(%rip)        # 212049 <s+0x9>
    f5a2:	c6 05 9e 2a 20 00 74 	movb   $0x74,0x202a9e(%rip)        # 212047 <s+0x7>
    f5a9:	c6 05 a6 2a 20 00 7a 	movb   $0x7a,0x202aa6(%rip)        # 212056 <s+0x16>
    f5b0:	c6 05 95 2a 20 00 5a 	movb   $0x5a,0x202a95(%rip)        # 21204c <s+0xc>
    f5b7:	c6 05 8a 2a 20 00 23 	movb   $0x23,0x202a8a(%rip)        # 212048 <s+0x8>
    f5be:	c6 05 98 2a 20 00 7c 	movb   $0x7c,0x202a98(%rip)        # 21205d <s+0x1d>
    f5c5:	c6 05 97 2a 20 00 70 	movb   $0x70,0x202a97(%rip)        # 212063 <s+0x23>
    f5cc:	c6 05 7b 2a 20 00 43 	movb   $0x43,0x202a7b(%rip)        # 21204e <s+0xe>
    f5d3:	c6 05 89 2a 20 00 45 	movb   $0x45,0x202a89(%rip)        # 212063 <s+0x23>
    f5da:	c6 05 80 2a 20 00 3c 	movb   $0x3c,0x202a80(%rip)        # 212061 <s+0x21>
    f5e1:	c6 05 70 2a 20 00 33 	movb   $0x33,0x202a70(%rip)        # 212058 <s+0x18>
    f5e8:	c6 05 5a 2a 20 00 66 	movb   $0x66,0x202a5a(%rip)        # 212049 <s+0x9>
    f5ef:	c6 05 50 2a 20 00 69 	movb   $0x69,0x202a50(%rip)        # 212046 <s+0x6>
    f5f6:	c6 05 48 2a 20 00 63 	movb   $0x63,0x202a48(%rip)        # 212045 <s+0x5>
    f5fd:	c6 05 63 2a 20 00 50 	movb   $0x50,0x202a63(%rip)        # 212067 <s+0x27>
    f604:	c6 05 3f 2a 20 00 57 	movb   $0x57,0x202a3f(%rip)        # 21204a <s+0xa>
    f60b:	c6 05 3c 2a 20 00 7c 	movb   $0x7c,0x202a3c(%rip)        # 21204e <s+0xe>
    f612:	c6 05 44 2a 20 00 5f 	movb   $0x5f,0x202a44(%rip)        # 21205d <s+0x1d>
    f619:	c6 05 39 2a 20 00 29 	movb   $0x29,0x202a39(%rip)        # 212059 <s+0x19>
    f620:	c6 05 32 2a 20 00 30 	movb   $0x30,0x202a32(%rip)        # 212059 <s+0x19>
    f627:	c6 05 28 2a 20 00 45 	movb   $0x45,0x202a28(%rip)        # 212056 <s+0x16>
    f62e:	c6 05 0b 2a 20 00 77 	movb   $0x77,0x202a0b(%rip)        # 212040 <s>
    f635:	c6 05 1e 2a 20 00 42 	movb   $0x42,0x202a1e(%rip)        # 21205a <s+0x1a>
    f63c:	c6 05 1c 2a 20 00 6b 	movb   $0x6b,0x202a1c(%rip)        # 21205f <s+0x1f>
    f643:	c6 05 11 2a 20 00 50 	movb   $0x50,0x202a11(%rip)        # 21205b <s+0x1b>
    f64a:	c6 05 15 2a 20 00 3a 	movb   $0x3a,0x202a15(%rip)        # 212066 <s+0x26>
    f651:	c6 05 f8 29 20 00 42 	movb   $0x42,0x2029f8(%rip)        # 212050 <s+0x10>
    f658:	c6 05 05 2a 20 00 7e 	movb   $0x7e,0x202a05(%rip)        # 212064 <s+0x24>
    f65f:	c6 05 dc 29 20 00 43 	movb   $0x43,0x2029dc(%rip)        # 212042 <s+0x2>
    f666:	c6 05 e3 29 20 00 79 	movb   $0x79,0x2029e3(%rip)        # 212050 <s+0x10>
    f66d:	c6 05 d8 29 20 00 7e 	movb   $0x7e,0x2029d8(%rip)        # 21204c <s+0xc>
    f674:	c6 05 ce 29 20 00 5a 	movb   $0x5a,0x2029ce(%rip)        # 212049 <s+0x9>
    f67b:	c6 05 c0 29 20 00 75 	movb   $0x75,0x2029c0(%rip)        # 212042 <s+0x2>
    f682:	c6 05 da 29 20 00 3c 	movb   $0x3c,0x2029da(%rip)        # 212063 <s+0x23>
    f689:	c6 05 cd 29 20 00 52 	movb   $0x52,0x2029cd(%rip)        # 21205d <s+0x1d>
    f690:	c6 05 c2 29 20 00 35 	movb   $0x35,0x2029c2(%rip)        # 212059 <s+0x19>
    f697:	c6 05 af 29 20 00 3b 	movb   $0x3b,0x2029af(%rip)        # 21204d <s+0xd>
    f69e:	c6 05 a9 29 20 00 72 	movb   $0x72,0x2029a9(%rip)        # 21204e <s+0xe>
    f6a5:	c6 05 b0 29 20 00 53 	movb   $0x53,0x2029b0(%rip)        # 21205c <s+0x1c>
    f6ac:	c6 05 9b 29 20 00 6d 	movb   $0x6d,0x20299b(%rip)        # 21204e <s+0xe>
    f6b3:	c6 05 9f 29 20 00 2c 	movb   $0x2c,0x20299f(%rip)        # 212059 <s+0x19>
    f6ba:	c6 05 9f 29 20 00 56 	movb   $0x56,0x20299f(%rip)        # 212060 <s+0x20>
    f6c1:	c6 05 9a 29 20 00 4a 	movb   $0x4a,0x20299a(%rip)        # 212062 <s+0x22>
    f6c8:	c6 05 92 29 20 00 4b 	movb   $0x4b,0x202992(%rip)        # 212061 <s+0x21>
    f6cf:	c6 05 70 29 20 00 57 	movb   $0x57,0x202970(%rip)        # 212046 <s+0x6>
    f6d6:	c6 05 68 29 20 00 50 	movb   $0x50,0x202968(%rip)        # 212045 <s+0x5>
    f6dd:	c6 05 62 29 20 00 6a 	movb   $0x6a,0x202962(%rip)        # 212046 <s+0x6>
    f6e4:	c6 05 63 29 20 00 42 	movb   $0x42,0x202963(%rip)        # 21204e <s+0xe>
    f6eb:	c6 05 5e 29 20 00 20 	movb   $0x20,0x20295e(%rip)        # 212050 <s+0x10>
    f6f2:	c6 05 4d 29 20 00 4d 	movb   $0x4d,0x20294d(%rip)        # 212046 <s+0x6>
    f6f9:	c6 05 54 29 20 00 7b 	movb   $0x7b,0x202954(%rip)        # 212054 <s+0x14>
    f700:	c6 05 4a 29 20 00 73 	movb   $0x73,0x20294a(%rip)        # 212051 <s+0x11>
    f707:	c6 05 49 29 20 00 2b 	movb   $0x2b,0x202949(%rip)        # 212057 <s+0x17>
    f70e:	c6 05 2f 29 20 00 77 	movb   $0x77,0x20292f(%rip)        # 212044 <s+0x4>
    f715:	c6 05 2f 29 20 00 61 	movb   $0x61,0x20292f(%rip)        # 21204b <s+0xb>
    f71c:	c6 05 31 29 20 00 47 	movb   $0x47,0x202931(%rip)        # 212054 <s+0x14>
    f723:	c6 05 1c 29 20 00 30 	movb   $0x30,0x20291c(%rip)        # 212046 <s+0x6>
    f72a:	c6 05 2e 29 20 00 3e 	movb   $0x3e,0x20292e(%rip)        # 21205f <s+0x1f>
    f731:	c6 05 16 29 20 00 35 	movb   $0x35,0x202916(%rip)        # 21204e <s+0xe>
    f738:	c6 05 25 29 20 00 62 	movb   $0x62,0x202925(%rip)        # 212064 <s+0x24>
    f73f:	c6 05 1d 29 20 00 5e 	movb   $0x5e,0x20291d(%rip)        # 212063 <s+0x23>
    f746:	c6 05 f8 28 20 00 20 	movb   $0x20,0x2028f8(%rip)        # 212045 <s+0x5>
    f74d:	c6 05 0c 29 20 00 64 	movb   $0x64,0x20290c(%rip)        # 212060 <s+0x20>
    f754:	c6 05 08 29 20 00 29 	movb   $0x29,0x202908(%rip)        # 212063 <s+0x23>
    f75b:	c6 05 e9 28 20 00 71 	movb   $0x71,0x2028e9(%rip)        # 21204b <s+0xb>
    f762:	c6 05 de 28 20 00 2d 	movb   $0x2d,0x2028de(%rip)        # 212047 <s+0x7>
    f769:	c6 05 dc 28 20 00 67 	movb   $0x67,0x2028dc(%rip)        # 21204c <s+0xc>
    f770:	c6 05 d2 28 20 00 69 	movb   $0x69,0x2028d2(%rip)        # 212049 <s+0x9>
    f777:	c6 05 cf 28 20 00 64 	movb   $0x64,0x2028cf(%rip)        # 21204d <s+0xd>
    f77e:	c6 05 d3 28 20 00 36 	movb   $0x36,0x2028d3(%rip)        # 212058 <s+0x18>
    f785:	c6 05 ba 28 20 00 6c 	movb   $0x6c,0x2028ba(%rip)        # 212046 <s+0x6>
    f78c:	c6 05 b5 28 20 00 6b 	movb   $0x6b,0x2028b5(%rip)        # 212048 <s+0x8>
    f793:	c6 05 b2 28 20 00 24 	movb   $0x24,0x2028b2(%rip)        # 21204c <s+0xc>
    f79a:	c6 05 c5 28 20 00 47 	movb   $0x47,0x2028c5(%rip)        # 212066 <s+0x26>
    f7a1:	c6 05 b5 28 20 00 20 	movb   $0x20,0x2028b5(%rip)        # 21205d <s+0x1d>
    f7a8:	c6 05 b6 28 20 00 2f 	movb   $0x2f,0x2028b6(%rip)        # 212065 <s+0x25>
    f7af:	c6 05 9f 28 20 00 34 	movb   $0x34,0x20289f(%rip)        # 212055 <s+0x15>
    f7b6:	c6 05 95 28 20 00 2c 	movb   $0x2c,0x202895(%rip)        # 212052 <s+0x12>
    f7bd:	c6 05 92 28 20 00 55 	movb   $0x55,0x202892(%rip)        # 212056 <s+0x16>
    f7c4:	c6 05 89 28 20 00 46 	movb   $0x46,0x202889(%rip)        # 212054 <s+0x14>
    f7cb:	c6 05 71 28 20 00 7b 	movb   $0x7b,0x202871(%rip)        # 212043 <s+0x3>
    f7d2:	c6 05 8d 28 20 00 6a 	movb   $0x6a,0x20288d(%rip)        # 212066 <s+0x26>
    f7d9:	c6 05 83 28 20 00 42 	movb   $0x42,0x202883(%rip)        # 212063 <s+0x23>
    f7e0:	c6 05 5d 28 20 00 31 	movb   $0x31,0x20285d(%rip)        # 212044 <s+0x4>
    f7e7:	c6 05 63 28 20 00 66 	movb   $0x66,0x202863(%rip)        # 212051 <s+0x11>
    f7ee:	c6 05 5c 28 20 00 7e 	movb   $0x7e,0x20285c(%rip)        # 212051 <s+0x11>
    f7f5:	c6 05 4c 28 20 00 48 	movb   $0x48,0x20284c(%rip)        # 212048 <s+0x8>
    f7fc:	c6 05 60 28 20 00 5f 	movb   $0x5f,0x202860(%rip)        # 212063 <s+0x23>
    f803:	c6 05 4e 28 20 00 62 	movb   $0x62,0x20284e(%rip)        # 212058 <s+0x18>
    f80a:	c6 05 3d 28 20 00 2e 	movb   $0x2e,0x20283d(%rip)        # 21204e <s+0xe>
    f811:	c6 05 4b 28 20 00 3d 	movb   $0x3d,0x20284b(%rip)        # 212063 <s+0x23>
    f818:	c6 05 3e 28 20 00 51 	movb   $0x51,0x20283e(%rip)        # 21205d <s+0x1d>
    f81f:	c6 05 3e 28 20 00 36 	movb   $0x36,0x20283e(%rip)        # 212064 <s+0x24>
    f826:	c6 05 2b 28 20 00 56 	movb   $0x56,0x20282b(%rip)        # 212058 <s+0x18>
    f82d:	c6 05 1f 28 20 00 6e 	movb   $0x6e,0x20281f(%rip)        # 212053 <s+0x13>
    f834:	c6 05 2b 28 20 00 72 	movb   $0x72,0x20282b(%rip)        # 212066 <s+0x26>
    f83b:	c6 05 22 28 20 00 6b 	movb   $0x6b,0x202822(%rip)        # 212064 <s+0x24>
    f842:	c6 05 09 28 20 00 24 	movb   $0x24,0x202809(%rip)        # 212052 <s+0x12>
    f849:	c6 05 12 28 20 00 32 	movb   $0x32,0x202812(%rip)        # 212062 <s+0x22>
    f850:	c6 05 f4 27 20 00 2d 	movb   $0x2d,0x2027f4(%rip)        # 21204b <s+0xb>
    f857:	c6 05 e6 27 20 00 21 	movb   $0x21,0x2027e6(%rip)        # 212044 <s+0x4>
    f85e:	c6 05 fb 27 20 00 23 	movb   $0x23,0x2027fb(%rip)        # 212060 <s+0x20>
    f865:	c6 05 e0 27 20 00 51 	movb   $0x51,0x2027e0(%rip)        # 21204c <s+0xc>
    f86c:	c6 05 e5 27 20 00 26 	movb   $0x26,0x2027e5(%rip)        # 212058 <s+0x18>
    f873:	c6 05 de 27 20 00 24 	movb   $0x24,0x2027de(%rip)        # 212058 <s+0x18>
    f87a:	c6 05 e5 27 20 00 52 	movb   $0x52,0x2027e5(%rip)        # 212066 <s+0x26>
    f881:	c6 05 c0 27 20 00 71 	movb   $0x71,0x2027c0(%rip)        # 212048 <s+0x8>
    f888:	c6 05 b9 27 20 00 55 	movb   $0x55,0x2027b9(%rip)        # 212048 <s+0x8>
    f88f:	c6 05 b3 27 20 00 41 	movb   $0x41,0x2027b3(%rip)        # 212049 <s+0x9>
    f896:	c6 05 c7 27 20 00 74 	movb   $0x74,0x2027c7(%rip)        # 212064 <s+0x24>
    f89d:	c6 05 af 27 20 00 5a 	movb   $0x5a,0x2027af(%rip)        # 212053 <s+0x13>
    f8a4:	c6 05 bc 27 20 00 3a 	movb   $0x3a,0x2027bc(%rip)        # 212067 <s+0x27>
    f8ab:	c6 05 91 27 20 00 51 	movb   $0x51,0x202791(%rip)        # 212043 <s+0x3>
    f8b2:	c6 05 87 27 20 00 34 	movb   $0x34,0x202787(%rip)        # 212040 <s>
    f8b9:	c6 05 98 27 20 00 5f 	movb   $0x5f,0x202798(%rip)        # 212058 <s+0x18>
    f8c0:	c6 05 9b 27 20 00 7b 	movb   $0x7b,0x20279b(%rip)        # 212062 <s+0x22>
    f8c7:	c6 05 96 27 20 00 7e 	movb   $0x7e,0x202796(%rip)        # 212064 <s+0x24>
    f8ce:	c6 05 78 27 20 00 38 	movb   $0x38,0x202778(%rip)        # 21204d <s+0xd>
    f8d5:	c6 05 73 27 20 00 76 	movb   $0x76,0x202773(%rip)        # 21204f <s+0xf>
    f8dc:	c6 05 7a 27 20 00 71 	movb   $0x71,0x20277a(%rip)        # 21205d <s+0x1d>
    f8e3:	c6 05 69 27 20 00 46 	movb   $0x46,0x202769(%rip)        # 212053 <s+0x13>
    f8ea:	c6 05 6f 27 20 00 50 	movb   $0x50,0x20276f(%rip)        # 212060 <s+0x20>
    f8f1:	c6 05 50 27 20 00 6e 	movb   $0x6e,0x202750(%rip)        # 212048 <s+0x8>
    f8f8:	c6 05 4f 27 20 00 3d 	movb   $0x3d,0x20274f(%rip)        # 21204e <s+0xe>
    f8ff:	c6 05 5c 27 20 00 67 	movb   $0x67,0x20275c(%rip)        # 212062 <s+0x22>
    f906:	c6 05 45 27 20 00 73 	movb   $0x73,0x202745(%rip)        # 212052 <s+0x12>
    f90d:	c6 05 32 27 20 00 70 	movb   $0x70,0x202732(%rip)        # 212046 <s+0x6>
    f914:	c6 05 25 27 20 00 62 	movb   $0x62,0x202725(%rip)        # 212040 <s>
    f91b:	c6 05 3d 27 20 00 36 	movb   $0x36,0x20273d(%rip)        # 21205f <s+0x1f>
    f922:	c6 05 31 27 20 00 2d 	movb   $0x2d,0x202731(%rip)        # 21205a <s+0x1a>
    f929:	c6 05 26 27 20 00 6b 	movb   $0x6b,0x202726(%rip)        # 212056 <s+0x16>
    f930:	c6 05 1d 27 20 00 3f 	movb   $0x3f,0x20271d(%rip)        # 212054 <s+0x14>
    f937:	c6 05 1b 27 20 00 65 	movb   $0x65,0x20271b(%rip)        # 212059 <s+0x19>
    f93e:	c6 05 20 27 20 00 7a 	movb   $0x7a,0x202720(%rip)        # 212065 <s+0x25>
    f945:	c6 05 f6 26 20 00 3b 	movb   $0x3b,0x2026f6(%rip)        # 212042 <s+0x2>
    f94c:	c6 05 ef 26 20 00 6b 	movb   $0x6b,0x2026ef(%rip)        # 212042 <s+0x2>
    f953:	c6 05 e9 26 20 00 3c 	movb   $0x3c,0x2026e9(%rip)        # 212043 <s+0x3>
    f95a:	c6 05 e9 26 20 00 3b 	movb   $0x3b,0x2026e9(%rip)        # 21204a <s+0xa>
    f961:	c6 05 dd 26 20 00 3c 	movb   $0x3c,0x2026dd(%rip)        # 212045 <s+0x5>
    f968:	c6 05 f6 26 20 00 7e 	movb   $0x7e,0x2026f6(%rip)        # 212065 <s+0x25>
    f96f:	c6 05 e4 26 20 00 58 	movb   $0x58,0x2026e4(%rip)        # 21205a <s+0x1a>
    f976:	c6 05 d4 26 20 00 64 	movb   $0x64,0x2026d4(%rip)        # 212051 <s+0x11>
    f97d:	c6 05 d6 26 20 00 44 	movb   $0x44,0x2026d6(%rip)        # 21205a <s+0x1a>
    f984:	c6 05 c8 26 20 00 3c 	movb   $0x3c,0x2026c8(%rip)        # 212053 <s+0x13>
    f98b:	c6 05 d0 26 20 00 3e 	movb   $0x3e,0x2026d0(%rip)        # 212062 <s+0x22>
    f992:	c6 05 b9 26 20 00 52 	movb   $0x52,0x2026b9(%rip)        # 212052 <s+0x12>
    f999:	c6 05 bc 26 20 00 79 	movb   $0x79,0x2026bc(%rip)        # 21205c <s+0x1c>
    f9a0:	c6 05 ab 26 20 00 26 	movb   $0x26,0x2026ab(%rip)        # 212052 <s+0x12>
    f9a7:	c6 05 9a 26 20 00 6b 	movb   $0x6b,0x20269a(%rip)        # 212048 <s+0x8>
    f9ae:	c6 05 aa 26 20 00 7e 	movb   $0x7e,0x2026aa(%rip)        # 21205f <s+0x1f>
    f9b5:	c6 05 90 26 20 00 56 	movb   $0x56,0x202690(%rip)        # 21204c <s+0xc>
    f9bc:	c6 05 7e 26 20 00 52 	movb   $0x52,0x20267e(%rip)        # 212041 <s+0x1>
    f9c3:	c6 05 91 26 20 00 4e 	movb   $0x4e,0x202691(%rip)        # 21205b <s+0x1b>
    f9ca:	c6 05 8a 26 20 00 69 	movb   $0x69,0x20268a(%rip)        # 21205b <s+0x1b>
    f9d1:	c6 05 88 26 20 00 45 	movb   $0x45,0x202688(%rip)        # 212060 <s+0x20>
    f9d8:	c6 05 72 26 20 00 48 	movb   $0x48,0x202672(%rip)        # 212051 <s+0x11>
    f9df:	c6 05 62 26 20 00 53 	movb   $0x53,0x202662(%rip)        # 212048 <s+0x8>
    f9e6:	c6 05 76 26 20 00 25 	movb   $0x25,0x202676(%rip)        # 212063 <s+0x23>
    f9ed:	c6 05 62 26 20 00 35 	movb   $0x35,0x202662(%rip)        # 212056 <s+0x16>
    f9f4:	c6 05 55 26 20 00 44 	movb   $0x44,0x202655(%rip)        # 212050 <s+0x10>
    f9fb:	c6 05 59 26 20 00 58 	movb   $0x58,0x202659(%rip)        # 21205b <s+0x1b>
    fa02:	c6 05 45 26 20 00 6a 	movb   $0x6a,0x202645(%rip)        # 21204e <s+0xe>
    fa09:	c6 05 3e 26 20 00 6a 	movb   $0x6a,0x20263e(%rip)        # 21204e <s+0xe>
    fa10:	c6 05 29 26 20 00 24 	movb   $0x24,0x202629(%rip)        # 212040 <s>
    fa17:	c6 05 39 26 20 00 5f 	movb   $0x5f,0x202639(%rip)        # 212057 <s+0x17>
    fa1e:	c6 05 29 26 20 00 29 	movb   $0x29,0x202629(%rip)        # 21204e <s+0xe>
    fa25:	c6 05 16 26 20 00 63 	movb   $0x63,0x202616(%rip)        # 212042 <s+0x2>
    fa2c:	c6 05 34 26 20 00 46 	movb   $0x46,0x202634(%rip)        # 212067 <s+0x27>
    fa33:	c6 05 0b 26 20 00 57 	movb   $0x57,0x20260b(%rip)        # 212045 <s+0x5>
    fa3a:	c6 05 26 26 20 00 28 	movb   $0x28,0x202626(%rip)        # 212067 <s+0x27>
    fa41:	c6 05 1a 26 20 00 5e 	movb   $0x5e,0x20261a(%rip)        # 212062 <s+0x22>
    fa48:	c6 05 0f 26 20 00 2b 	movb   $0x2b,0x20260f(%rip)        # 21205e <s+0x1e>
    fa4f:	c6 05 0b 26 20 00 30 	movb   $0x30,0x20260b(%rip)        # 212061 <s+0x21>
    fa56:	c6 05 f0 25 20 00 49 	movb   $0x49,0x2025f0(%rip)        # 21204d <s+0xd>
    fa5d:	c6 05 f8 25 20 00 64 	movb   $0x64,0x2025f8(%rip)        # 21205c <s+0x1c>
    fa64:	c6 05 f8 25 20 00 36 	movb   $0x36,0x2025f8(%rip)        # 212063 <s+0x23>
    fa6b:	c6 05 d2 25 20 00 77 	movb   $0x77,0x2025d2(%rip)        # 212044 <s+0x4>
    fa72:	c6 05 cd 25 20 00 73 	movb   $0x73,0x2025cd(%rip)        # 212046 <s+0x6>
    fa79:	c6 05 c2 25 20 00 4e 	movb   $0x4e,0x2025c2(%rip)        # 212042 <s+0x2>
    fa80:	c6 05 bb 25 20 00 51 	movb   $0x51,0x2025bb(%rip)        # 212042 <s+0x2>
    fa87:	c6 05 b9 25 20 00 47 	movb   $0x47,0x2025b9(%rip)        # 212047 <s+0x7>
    fa8e:	c6 05 b5 25 20 00 4a 	movb   $0x4a,0x2025b5(%rip)        # 21204a <s+0xa>
    fa95:	c6 05 bf 25 20 00 57 	movb   $0x57,0x2025bf(%rip)        # 21205b <s+0x1b>
    fa9c:	c6 05 a8 25 20 00 65 	movb   $0x65,0x2025a8(%rip)        # 21204b <s+0xb>
    faa3:	c6 05 9d 25 20 00 21 	movb   $0x21,0x20259d(%rip)        # 212047 <s+0x7>
    faaa:	c6 05 ae 25 20 00 42 	movb   $0x42,0x2025ae(%rip)        # 21205f <s+0x1f>
    fab1:	c6 05 94 25 20 00 38 	movb   $0x38,0x202594(%rip)        # 21204c <s+0xc>
    fab8:	c6 05 81 25 20 00 69 	movb   $0x69,0x202581(%rip)        # 212040 <s>
    fabf:	c6 05 95 25 20 00 7e 	movb   $0x7e,0x202595(%rip)        # 21205b <s+0x1b>
    fac6:	c6 05 89 25 20 00 26 	movb   $0x26,0x202589(%rip)        # 212056 <s+0x16>
    facd:	c6 05 88 25 20 00 29 	movb   $0x29,0x202588(%rip)        # 21205c <s+0x1c>
    fad4:	c6 05 69 25 20 00 30 	movb   $0x30,0x202569(%rip)        # 212044 <s+0x4>
    fadb:	c6 05 61 25 20 00 2a 	movb   $0x2a,0x202561(%rip)        # 212043 <s+0x3>
    fae2:	c6 05 71 25 20 00 34 	movb   $0x34,0x202571(%rip)        # 21205a <s+0x1a>
    fae9:	c6 05 53 25 20 00 36 	movb   $0x36,0x202553(%rip)        # 212043 <s+0x3>
    faf0:	c6 05 64 25 20 00 20 	movb   $0x20,0x202564(%rip)        # 21205b <s+0x1b>
    faf7:	c6 05 66 25 20 00 6e 	movb   $0x6e,0x202566(%rip)        # 212064 <s+0x24>
    fafe:	c6 05 5b 25 20 00 3a 	movb   $0x3a,0x20255b(%rip)        # 212060 <s+0x20>
    fb05:	c6 05 3d 25 20 00 29 	movb   $0x29,0x20253d(%rip)        # 212049 <s+0x9>
    fb0c:	c6 05 37 25 20 00 47 	movb   $0x47,0x202537(%rip)        # 21204a <s+0xa>
    fb13:	c6 05 34 25 20 00 3e 	movb   $0x3e,0x202534(%rip)        # 21204e <s+0xe>
    fb1a:	c6 05 24 25 20 00 32 	movb   $0x32,0x202524(%rip)        # 212045 <s+0x5>
    fb21:	c6 05 39 25 20 00 5b 	movb   $0x5b,0x202539(%rip)        # 212061 <s+0x21>
    fb28:	c6 05 32 25 20 00 7c 	movb   $0x7c,0x202532(%rip)        # 212061 <s+0x21>
    fb2f:	c6 05 12 25 20 00 5d 	movb   $0x5d,0x202512(%rip)        # 212048 <s+0x8>
    fb36:	c6 05 14 25 20 00 74 	movb   $0x74,0x202514(%rip)        # 212051 <s+0x11>
    fb3d:	c6 05 20 25 20 00 3d 	movb   $0x3d,0x202520(%rip)        # 212064 <s+0x24>
    fb44:	c6 05 13 25 20 00 22 	movb   $0x22,0x202513(%rip)        # 21205e <s+0x1e>
    fb4b:	c6 05 f6 24 20 00 77 	movb   $0x77,0x2024f6(%rip)        # 212048 <s+0x8>
    fb52:	c6 05 00 25 20 00 51 	movb   $0x51,0x202500(%rip)        # 212059 <s+0x19>
    fb59:	c6 05 fd 24 20 00 71 	movb   $0x71,0x2024fd(%rip)        # 21205d <s+0x1d>
    fb60:	c6 05 eb 24 20 00 55 	movb   $0x55,0x2024eb(%rip)        # 212052 <s+0x12>
    fb67:	c6 05 e5 24 20 00 74 	movb   $0x74,0x2024e5(%rip)        # 212053 <s+0x13>
    fb6e:	c6 05 df 24 20 00 5d 	movb   $0x5d,0x2024df(%rip)        # 212054 <s+0x14>
    fb75:	c6 05 dc 24 20 00 3b 	movb   $0x3b,0x2024dc(%rip)        # 212058 <s+0x18>
    fb7c:	c6 05 c7 24 20 00 6d 	movb   $0x6d,0x2024c7(%rip)        # 21204a <s+0xa>
    fb83:	c6 05 be 24 20 00 72 	movb   $0x72,0x2024be(%rip)        # 212048 <s+0x8>
    fb8a:	c6 05 b2 24 20 00 30 	movb   $0x30,0x2024b2(%rip)        # 212043 <s+0x3>
    fb91:	c6 05 bb 24 20 00 5e 	movb   $0x5e,0x2024bb(%rip)        # 212053 <s+0x13>
    fb98:	c6 05 b3 24 20 00 2e 	movb   $0x2e,0x2024b3(%rip)        # 212052 <s+0x12>
    fb9f:	c6 05 b6 24 20 00 66 	movb   $0x66,0x2024b6(%rip)        # 21205c <s+0x1c>
    fba6:	c6 05 9f 24 20 00 57 	movb   $0x57,0x20249f(%rip)        # 21204c <s+0xc>
    fbad:	c6 05 a1 24 20 00 65 	movb   $0x65,0x2024a1(%rip)        # 212055 <s+0x15>
    fbb4:	c6 05 ac 24 20 00 52 	movb   $0x52,0x2024ac(%rip)        # 212067 <s+0x27>
    fbbb:	c6 05 a1 24 20 00 20 	movb   $0x20,0x2024a1(%rip)        # 212063 <s+0x23>
    fbc2:	c6 05 96 24 20 00 4e 	movb   $0x4e,0x202496(%rip)        # 21205f <s+0x1f>
    fbc9:	c6 05 91 24 20 00 2f 	movb   $0x2f,0x202491(%rip)        # 212061 <s+0x21>
    fbd0:	c6 05 7f 24 20 00 7b 	movb   $0x7b,0x20247f(%rip)        # 212056 <s+0x16>
    fbd7:	c6 05 76 24 20 00 22 	movb   $0x22,0x202476(%rip)        # 212054 <s+0x14>
    fbde:	c6 05 70 24 20 00 69 	movb   $0x69,0x202470(%rip)        # 212055 <s+0x15>
    fbe5:	c6 05 5b 24 20 00 7b 	movb   $0x7b,0x20245b(%rip)        # 212047 <s+0x7>
    fbec:	c6 05 74 24 20 00 53 	movb   $0x53,0x202474(%rip)        # 212067 <s+0x27>
    fbf3:	c6 05 55 24 20 00 62 	movb   $0x62,0x202455(%rip)        # 21204f <s+0xf>
    fbfa:	c6 05 63 24 20 00 50 	movb   $0x50,0x202463(%rip)        # 212064 <s+0x24>
    fc01:	c6 05 4f 24 20 00 69 	movb   $0x69,0x20244f(%rip)        # 212057 <s+0x17>
    fc08:	c6 05 36 24 20 00 44 	movb   $0x44,0x202436(%rip)        # 212045 <s+0x5>
    fc0f:	c6 05 49 24 20 00 6e 	movb   $0x6e,0x202449(%rip)        # 21205f <s+0x1f>
    fc16:	c6 05 26 24 20 00 38 	movb   $0x38,0x202426(%rip)        # 212043 <s+0x3>
    fc1d:	c6 05 22 24 20 00 70 	movb   $0x70,0x202422(%rip)        # 212046 <s+0x6>
    fc24:	c6 05 2f 24 20 00 64 	movb   $0x64,0x20242f(%rip)        # 21205a <s+0x1a>
    fc2b:	c6 05 31 24 20 00 2e 	movb   $0x2e,0x202431(%rip)        # 212063 <s+0x23>
    fc32:	c6 05 19 24 20 00 2b 	movb   $0x2b,0x202419(%rip)        # 212052 <s+0x12>
    fc39:	c6 05 1e 24 20 00 59 	movb   $0x59,0x20241e(%rip)        # 21205e <s+0x1e>
    fc40:	c6 05 1e 24 20 00 7c 	movb   $0x7c,0x20241e(%rip)        # 212065 <s+0x25>
    fc47:	c6 05 03 24 20 00 6c 	movb   $0x6c,0x202403(%rip)        # 212051 <s+0x11>
    fc4e:	c6 05 05 24 20 00 2c 	movb   $0x2c,0x202405(%rip)        # 21205a <s+0x1a>
    fc55:	c6 05 e9 23 20 00 70 	movb   $0x70,0x2023e9(%rip)        # 212045 <s+0x5>
    fc5c:	c6 05 e5 23 20 00 45 	movb   $0x45,0x2023e5(%rip)        # 212048 <s+0x8>
    fc63:	c6 05 f1 23 20 00 26 	movb   $0x26,0x2023f1(%rip)        # 21205b <s+0x1b>
    fc6a:	c6 05 eb 23 20 00 7d 	movb   $0x7d,0x2023eb(%rip)        # 21205c <s+0x1c>
    fc71:	c6 05 dc 23 20 00 2c 	movb   $0x2c,0x2023dc(%rip)        # 212054 <s+0x14>
    fc78:	c6 05 d4 23 20 00 51 	movb   $0x51,0x2023d4(%rip)        # 212053 <s+0x13>
    fc7f:	c6 05 c3 23 20 00 3e 	movb   $0x3e,0x2023c3(%rip)        # 212049 <s+0x9>
    fc86:	c6 05 cf 23 20 00 4f 	movb   $0x4f,0x2023cf(%rip)        # 21205c <s+0x1c>
    fc8d:	c6 05 b6 23 20 00 69 	movb   $0x69,0x2023b6(%rip)        # 21204a <s+0xa>
    fc94:	c6 05 c3 23 20 00 6a 	movb   $0x6a,0x2023c3(%rip)        # 21205e <s+0x1e>
    fc9b:	c6 05 aa 23 20 00 20 	movb   $0x20,0x2023aa(%rip)        # 21204c <s+0xc>
    fca2:	c6 05 97 23 20 00 53 	movb   $0x53,0x202397(%rip)        # 212040 <s>
    fca9:	c6 05 a7 23 20 00 4b 	movb   $0x4b,0x2023a7(%rip)        # 212057 <s+0x17>
    fcb0:	c6 05 8a 23 20 00 23 	movb   $0x23,0x20238a(%rip)        # 212041 <s+0x1>
    fcb7:	c6 05 a4 23 20 00 35 	movb   $0x35,0x2023a4(%rip)        # 212062 <s+0x22>
    fcbe:	c6 05 8b 23 20 00 3b 	movb   $0x3b,0x20238b(%rip)        # 212050 <s+0x10>
    fcc5:	c6 05 76 23 20 00 35 	movb   $0x35,0x202376(%rip)        # 212042 <s+0x2>
    fccc:	c6 05 85 23 20 00 3f 	movb   $0x3f,0x202385(%rip)        # 212058 <s+0x18>
    fcd3:	c6 05 88 23 20 00 25 	movb   $0x25,0x202388(%rip)        # 212062 <s+0x22>
    fcda:	c6 05 70 23 20 00 75 	movb   $0x75,0x202370(%rip)        # 212051 <s+0x11>
    fce1:	c6 05 61 23 20 00 24 	movb   $0x24,0x202361(%rip)        # 212049 <s+0x9>
    fce8:	c6 05 6d 23 20 00 24 	movb   $0x24,0x20236d(%rip)        # 21205c <s+0x1c>
    fcef:	c6 05 6a 23 20 00 65 	movb   $0x65,0x20236a(%rip)        # 212060 <s+0x20>
    fcf6:	c6 05 4b 23 20 00 62 	movb   $0x62,0x20234b(%rip)        # 212048 <s+0x8>
    fcfd:	c6 05 63 23 20 00 6e 	movb   $0x6e,0x202363(%rip)        # 212067 <s+0x27>
    fd04:	c6 05 39 23 20 00 78 	movb   $0x78,0x202339(%rip)        # 212044 <s+0x4>
    fd0b:	c6 05 51 23 20 00 5f 	movb   $0x5f,0x202351(%rip)        # 212063 <s+0x23>
    fd12:	c6 05 2b 23 20 00 6c 	movb   $0x6c,0x20232b(%rip)        # 212044 <s+0x4>
    fd19:	c6 05 38 23 20 00 72 	movb   $0x72,0x202338(%rip)        # 212058 <s+0x18>
    fd20:	c6 05 2b 23 20 00 38 	movb   $0x38,0x20232b(%rip)        # 212052 <s+0x12>
    fd27:	c6 05 1c 23 20 00 22 	movb   $0x22,0x20231c(%rip)        # 21204a <s+0xa>
    fd2e:	c6 05 30 23 20 00 2e 	movb   $0x2e,0x202330(%rip)        # 212065 <s+0x25>
    fd35:	c6 05 20 23 20 00 22 	movb   $0x22,0x202320(%rip)        # 21205c <s+0x1c>
    fd3c:	c6 05 17 23 20 00 6b 	movb   $0x6b,0x202317(%rip)        # 21205a <s+0x1a>
    fd43:	c6 05 04 23 20 00 42 	movb   $0x42,0x202304(%rip)        # 21204e <s+0xe>
    fd4a:	c6 05 fe 22 20 00 2b 	movb   $0x2b,0x2022fe(%rip)        # 21204f <s+0xf>
    fd51:	c6 05 f8 22 20 00 46 	movb   $0x46,0x2022f8(%rip)        # 212050 <s+0x10>
    fd58:	c6 05 ea 22 20 00 2b 	movb   $0x2b,0x2022ea(%rip)        # 212049 <s+0x9>
    fd5f:	c6 05 ee 22 20 00 6d 	movb   $0x6d,0x2022ee(%rip)        # 212054 <s+0x14>
    fd66:	c6 05 ed 22 20 00 3c 	movb   $0x3c,0x2022ed(%rip)        # 21205a <s+0x1a>
    fd6d:	c6 05 f1 22 20 00 73 	movb   $0x73,0x2022f1(%rip)        # 212065 <s+0x25>
    fd74:	c6 05 dd 22 20 00 76 	movb   $0x76,0x2022dd(%rip)        # 212058 <s+0x18>
    fd7b:	c6 05 cd 22 20 00 38 	movb   $0x38,0x2022cd(%rip)        # 21204f <s+0xf>
    fd82:	c6 05 c7 22 20 00 33 	movb   $0x33,0x2022c7(%rip)        # 212050 <s+0x10>
    fd89:	c6 05 cc 22 20 00 78 	movb   $0x78,0x2022cc(%rip)        # 21205c <s+0x1c>
    fd90:	c6 05 ba 22 20 00 37 	movb   $0x37,0x2022ba(%rip)        # 212051 <s+0x11>
    fd97:	c6 05 bd 22 20 00 3a 	movb   $0x3a,0x2022bd(%rip)        # 21205b <s+0x1b>
    fd9e:	c6 05 b1 22 20 00 2e 	movb   $0x2e,0x2022b1(%rip)        # 212056 <s+0x16>
    fda5:	c6 05 97 22 20 00 3b 	movb   $0x3b,0x202297(%rip)        # 212043 <s+0x3>
    fdac:	c6 05 94 22 20 00 28 	movb   $0x28,0x202294(%rip)        # 212047 <s+0x7>
    fdb3:	c6 05 88 22 20 00 7e 	movb   $0x7e,0x202288(%rip)        # 212042 <s+0x2>
    fdba:	c6 05 8e 22 20 00 6e 	movb   $0x6e,0x20228e(%rip)        # 21204f <s+0xf>
    fdc1:	c6 05 84 22 20 00 56 	movb   $0x56,0x202284(%rip)        # 21204c <s+0xc>
    fdc8:	c6 05 78 22 20 00 38 	movb   $0x38,0x202278(%rip)        # 212047 <s+0x7>
    fdcf:	c6 05 7a 22 20 00 58 	movb   $0x58,0x20227a(%rip)        # 212050 <s+0x10>
    fdd6:	c6 05 66 22 20 00 6e 	movb   $0x6e,0x202266(%rip)        # 212043 <s+0x3>
    fddd:	c6 05 83 22 20 00 6c 	movb   $0x6c,0x202283(%rip)        # 212067 <s+0x27>
    fde4:	c6 05 5a 22 20 00 7b 	movb   $0x7b,0x20225a(%rip)        # 212045 <s+0x5>
    fdeb:	c6 05 65 22 20 00 65 	movb   $0x65,0x202265(%rip)        # 212057 <s+0x17>
    fdf2:	c6 05 65 22 20 00 37 	movb   $0x37,0x202265(%rip)        # 21205e <s+0x1e>
    fdf9:	c6 05 4b 22 20 00 6c 	movb   $0x6c,0x20224b(%rip)        # 21204b <s+0xb>
    fe00:	c6 05 4d 22 20 00 3c 	movb   $0x3c,0x20224d(%rip)        # 212054 <s+0x14>
    fe07:	c6 05 57 22 20 00 28 	movb   $0x28,0x202257(%rip)        # 212065 <s+0x25>
    fe0e:	c6 05 38 22 20 00 5f 	movb   $0x5f,0x202238(%rip)        # 21204d <s+0xd>
    fe15:	c6 05 38 22 20 00 58 	movb   $0x58,0x202238(%rip)        # 212054 <s+0x14>
    fe1c:	c6 05 32 22 20 00 21 	movb   $0x21,0x202232(%rip)        # 212055 <s+0x15>
    fe23:	c6 05 1a 22 20 00 4b 	movb   $0x4b,0x20221a(%rip)        # 212044 <s+0x4>
    fe2a:	c6 05 27 22 20 00 70 	movb   $0x70,0x202227(%rip)        # 212058 <s+0x18>
    fe31:	c6 05 19 22 20 00 72 	movb   $0x72,0x202219(%rip)        # 212051 <s+0x11>
    fe38:	c6 05 04 22 20 00 22 	movb   $0x22,0x202204(%rip)        # 212043 <s+0x3>
    fe3f:	c6 05 0f 22 20 00 7d 	movb   $0x7d,0x20220f(%rip)        # 212055 <s+0x15>
    fe46:	c6 05 01 22 20 00 77 	movb   $0x77,0x202201(%rip)        # 21204e <s+0xe>
    fe4d:	c6 05 06 22 20 00 6a 	movb   $0x6a,0x202206(%rip)        # 21205a <s+0x1a>
    fe54:	c6 05 00 22 20 00 2b 	movb   $0x2b,0x202200(%rip)        # 21205b <s+0x1b>
    fe5b:	c6 05 e5 21 20 00 2d 	movb   $0x2d,0x2021e5(%rip)        # 212047 <s+0x7>
    fe62:	c6 05 e2 21 20 00 36 	movb   $0x36,0x2021e2(%rip)        # 21204b <s+0xb>
    fe69:	c6 05 e0 21 20 00 68 	movb   $0x68,0x2021e0(%rip)        # 212050 <s+0x10>
    fe70:	c6 05 e2 21 20 00 55 	movb   $0x55,0x2021e2(%rip)        # 212059 <s+0x19>
    fe77:	c6 05 ca 21 20 00 3a 	movb   $0x3a,0x2021ca(%rip)        # 212048 <s+0x8>
    fe7e:	c6 05 d4 21 20 00 59 	movb   $0x59,0x2021d4(%rip)        # 212059 <s+0x19>
    fe85:	c6 05 c5 21 20 00 2e 	movb   $0x2e,0x2021c5(%rip)        # 212051 <s+0x11>
    fe8c:	c6 05 cf 21 20 00 21 	movb   $0x21,0x2021cf(%rip)        # 212062 <s+0x22>
    fe93:	c6 05 c9 21 20 00 20 	movb   $0x20,0x2021c9(%rip)        # 212063 <s+0x23>
    fe9a:	c6 05 a5 21 20 00 53 	movb   $0x53,0x2021a5(%rip)        # 212046 <s+0x6>
    fea1:	c6 05 a9 21 20 00 3a 	movb   $0x3a,0x2021a9(%rip)        # 212051 <s+0x11>
    fea8:	c6 05 9d 21 20 00 61 	movb   $0x61,0x20219d(%rip)        # 21204c <s+0xc>
    feaf:	c6 05 94 21 20 00 61 	movb   $0x61,0x202194(%rip)        # 21204a <s+0xa>
    feb6:	c6 05 89 21 20 00 74 	movb   $0x74,0x202189(%rip)        # 212046 <s+0x6>
    febd:	c6 05 7c 21 20 00 24 	movb   $0x24,0x20217c(%rip)        # 212040 <s>
    fec4:	c6 05 84 21 20 00 30 	movb   $0x30,0x202184(%rip)        # 21204f <s+0xf>
    fecb:	c6 05 6f 21 20 00 24 	movb   $0x24,0x20216f(%rip)        # 212041 <s+0x1>
    fed2:	c6 05 77 21 20 00 33 	movb   $0x33,0x202177(%rip)        # 212050 <s+0x10>
    fed9:	c6 05 67 21 20 00 7e 	movb   $0x7e,0x202167(%rip)        # 212047 <s+0x7>
    fee0:	c6 05 6c 21 20 00 3c 	movb   $0x3c,0x20216c(%rip)        # 212053 <s+0x13>
    fee7:	c6 05 59 21 20 00 44 	movb   $0x44,0x202159(%rip)        # 212047 <s+0x7>
    feee:	c6 05 5f 21 20 00 6b 	movb   $0x6b,0x20215f(%rip)        # 212054 <s+0x14>
    fef5:	c6 05 4a 21 20 00 26 	movb   $0x26,0x20214a(%rip)        # 212046 <s+0x6>
    fefc:	c6 05 52 21 20 00 34 	movb   $0x34,0x202152(%rip)        # 212055 <s+0x15>
    ff03:	c6 05 3a 21 20 00 38 	movb   $0x38,0x20213a(%rip)        # 212044 <s+0x4>
    ff0a:	c6 05 2f 21 20 00 42 	movb   $0x42,0x20212f(%rip)        # 212040 <s>
    ff11:	c6 05 32 21 20 00 35 	movb   $0x35,0x202132(%rip)        # 21204a <s+0xa>
    ff18:	c6 05 30 21 20 00 3e 	movb   $0x3e,0x202130(%rip)        # 21204f <s+0xf>
    ff1f:	c6 05 37 21 20 00 73 	movb   $0x73,0x202137(%rip)        # 21205d <s+0x1d>
    ff26:	c6 05 27 21 20 00 7e 	movb   $0x7e,0x202127(%rip)        # 212054 <s+0x14>
    ff2d:	c6 05 1a 21 20 00 25 	movb   $0x25,0x20211a(%rip)        # 21204e <s+0xe>
    ff34:	c6 05 19 21 20 00 2b 	movb   $0x2b,0x202119(%rip)        # 212054 <s+0x14>
    ff3b:	c6 05 09 21 20 00 61 	movb   $0x61,0x202109(%rip)        # 21204b <s+0xb>
    ff42:	c6 05 09 21 20 00 48 	movb   $0x48,0x202109(%rip)        # 212052 <s+0x12>
    ff49:	c6 05 05 21 20 00 78 	movb   $0x78,0x202105(%rip)        # 212055 <s+0x15>
    ff50:	c6 05 eb 20 20 00 7e 	movb   $0x7e,0x2020eb(%rip)        # 212042 <s+0x2>
    ff57:	c6 05 ef 20 20 00 21 	movb   $0x21,0x2020ef(%rip)        # 21204d <s+0xd>
    ff5e:	c6 05 ff 20 20 00 66 	movb   $0x66,0x2020ff(%rip)        # 212064 <s+0x24>
    ff65:	c6 05 de 20 20 00 68 	movb   $0x68,0x2020de(%rip)        # 21204a <s+0xa>
    ff6c:	c6 05 f3 20 20 00 75 	movb   $0x75,0x2020f3(%rip)        # 212066 <s+0x26>
    ff73:	c6 05 d3 20 20 00 64 	movb   $0x64,0x2020d3(%rip)        # 21204d <s+0xd>
    ff7a:	c6 05 e0 20 20 00 2c 	movb   $0x2c,0x2020e0(%rip)        # 212061 <s+0x21>
    ff81:	c6 05 bd 20 20 00 77 	movb   $0x77,0x2020bd(%rip)        # 212045 <s+0x5>
    ff88:	c6 05 b1 20 20 00 76 	movb   $0x76,0x2020b1(%rip)        # 212040 <s>
    ff8f:	c6 05 c9 20 20 00 63 	movb   $0x63,0x2020c9(%rip)        # 21205f <s+0x1f>
    ff96:	c6 05 c1 20 20 00 62 	movb   $0x62,0x2020c1(%rip)        # 21205e <s+0x1e>
    ff9d:	c6 05 a2 20 20 00 4a 	movb   $0x4a,0x2020a2(%rip)        # 212046 <s+0x6>
    ffa4:	c6 05 9d 20 20 00 6d 	movb   $0x6d,0x20209d(%rip)        # 212048 <s+0x8>
    ffab:	c6 05 9c 20 20 00 2d 	movb   $0x2d,0x20209c(%rip)        # 21204e <s+0xe>
    ffb2:	c6 05 a8 20 20 00 73 	movb   $0x73,0x2020a8(%rip)        # 212061 <s+0x21>
    ffb9:	c6 05 9b 20 20 00 5f 	movb   $0x5f,0x20209b(%rip)        # 21205b <s+0x1b>
    ffc0:	c6 05 8b 20 20 00 5a 	movb   $0x5a,0x20208b(%rip)        # 212052 <s+0x12>
    ffc7:	c6 05 82 20 20 00 67 	movb   $0x67,0x202082(%rip)        # 212050 <s+0x10>
    ffce:	c6 05 7c 20 20 00 4d 	movb   $0x4d,0x20207c(%rip)        # 212051 <s+0x11>
    ffd5:	c6 05 6a 20 20 00 77 	movb   $0x77,0x20206a(%rip)        # 212046 <s+0x6>
    ffdc:	c6 05 7d 20 20 00 63 	movb   $0x63,0x20207d(%rip)        # 212060 <s+0x20>
    ffe3:	c6 05 7d 20 20 00 28 	movb   $0x28,0x20207d(%rip)        # 212067 <s+0x27>
    ffea:	c6 05 5f 20 20 00 65 	movb   $0x65,0x20205f(%rip)        # 212050 <s+0x10>
    fff1:	c6 05 51 20 20 00 3a 	movb   $0x3a,0x202051(%rip)        # 212049 <s+0x9>
    fff8:	c6 05 68 20 20 00 21 	movb   $0x21,0x202068(%rip)        # 212067 <s+0x27>
    ffff:	c6 05 50 20 20 00 37 	movb   $0x37,0x202050(%rip)        # 212056 <s+0x16>
   10006:	c6 05 41 20 20 00 38 	movb   $0x38,0x202041(%rip)        # 21204e <s+0xe>
   1000d:	c6 05 2e 20 20 00 54 	movb   $0x54,0x20202e(%rip)        # 212042 <s+0x2>
   10014:	c6 05 42 20 20 00 38 	movb   $0x38,0x202042(%rip)        # 21205d <s+0x1d>
   1001b:	c6 05 3a 20 20 00 37 	movb   $0x37,0x20203a(%rip)        # 21205c <s+0x1c>
   10022:	c6 05 2a 20 20 00 54 	movb   $0x54,0x20202a(%rip)        # 212053 <s+0x13>
   10029:	c6 05 1d 20 20 00 72 	movb   $0x72,0x20201d(%rip)        # 21204d <s+0xd>
   10030:	c6 05 22 20 20 00 25 	movb   $0x25,0x202022(%rip)        # 212059 <s+0x19>
   10037:	c6 05 04 20 20 00 7c 	movb   $0x7c,0x202004(%rip)        # 212042 <s+0x2>
   1003e:	c6 05 21 20 20 00 36 	movb   $0x36,0x202021(%rip)        # 212066 <s+0x26>
   10045:	c6 05 fa 1f 20 00 6c 	movb   $0x6c,0x201ffa(%rip)        # 212046 <s+0x6>
   1004c:	c6 05 07 20 20 00 7b 	movb   $0x7b,0x202007(%rip)        # 21205a <s+0x1a>
   10053:	c6 05 f6 1f 20 00 69 	movb   $0x69,0x201ff6(%rip)        # 212050 <s+0x10>
   1005a:	c6 05 e1 1f 20 00 36 	movb   $0x36,0x201fe1(%rip)        # 212042 <s+0x2>
   10061:	c6 05 e6 1f 20 00 2c 	movb   $0x2c,0x201fe6(%rip)        # 21204e <s+0xe>
   10068:	c6 05 df 1f 20 00 59 	movb   $0x59,0x201fdf(%rip)        # 21204e <s+0xe>
   1006f:	c6 05 ca 1f 20 00 5f 	movb   $0x5f,0x201fca(%rip)        # 212040 <s>
   10076:	c6 05 c6 1f 20 00 4e 	movb   $0x4e,0x201fc6(%rip)        # 212043 <s+0x3>
   1007d:	c6 05 c1 1f 20 00 35 	movb   $0x35,0x201fc1(%rip)        # 212045 <s+0x5>
   10084:	c6 05 bb 1f 20 00 5a 	movb   $0x5a,0x201fbb(%rip)        # 212046 <s+0x6>
   1008b:	c6 05 d2 1f 20 00 3a 	movb   $0x3a,0x201fd2(%rip)        # 212064 <s+0x24>
   10092:	c6 05 c4 1f 20 00 29 	movb   $0x29,0x201fc4(%rip)        # 21205d <s+0x1d>
   10099:	c6 05 c6 1f 20 00 47 	movb   $0x47,0x201fc6(%rip)        # 212066 <s+0x26>
   100a0:	c6 05 b5 1f 20 00 52 	movb   $0x52,0x201fb5(%rip)        # 21205c <s+0x1c>
   100a7:	c6 05 99 1f 20 00 33 	movb   $0x33,0x201f99(%rip)        # 212047 <s+0x7>
   100ae:	c6 05 8c 1f 20 00 5f 	movb   $0x5f,0x201f8c(%rip)        # 212041 <s+0x1>
   100b5:	c6 05 9b 1f 20 00 2d 	movb   $0x2d,0x201f9b(%rip)        # 212057 <s+0x17>
   100bc:	c6 05 9e 1f 20 00 6d 	movb   $0x6d,0x201f9e(%rip)        # 212061 <s+0x21>
   100c3:	c6 05 7b 1f 20 00 4d 	movb   $0x4d,0x201f7b(%rip)        # 212045 <s+0x5>
   100ca:	c6 05 79 1f 20 00 71 	movb   $0x71,0x201f79(%rip)        # 21204a <s+0xa>
   100d1:	c6 05 75 1f 20 00 71 	movb   $0x71,0x201f75(%rip)        # 21204d <s+0xd>
   100d8:	c6 05 69 1f 20 00 64 	movb   $0x64,0x201f69(%rip)        # 212048 <s+0x8>
   100df:	c6 05 81 1f 20 00 2c 	movb   $0x2c,0x201f81(%rip)        # 212067 <s+0x27>
   100e6:	c6 05 6b 1f 20 00 4e 	movb   $0x4e,0x201f6b(%rip)        # 212058 <s+0x18>
   100ed:	c6 05 5d 1f 20 00 43 	movb   $0x43,0x201f5d(%rip)        # 212051 <s+0x11>
   100f4:	c6 05 67 1f 20 00 63 	movb   $0x63,0x201f67(%rip)        # 212062 <s+0x22>
   100fb:	c6 05 45 1f 20 00 36 	movb   $0x36,0x201f45(%rip)        # 212047 <s+0x7>
   10102:	c6 05 42 1f 20 00 7a 	movb   $0x7a,0x201f42(%rip)        # 21204b <s+0xb>
   10109:	c6 05 47 1f 20 00 55 	movb   $0x55,0x201f47(%rip)        # 212057 <s+0x17>
   10110:	c6 05 4c 1f 20 00 3c 	movb   $0x3c,0x201f4c(%rip)        # 212063 <s+0x23>
   10117:	c6 05 30 1f 20 00 44 	movb   $0x44,0x201f30(%rip)        # 21204e <s+0xe>
   1011e:	c6 05 30 1f 20 00 39 	movb   $0x39,0x201f30(%rip)        # 212055 <s+0x15>
   10125:	c6 05 38 1f 20 00 2d 	movb   $0x2d,0x201f38(%rip)        # 212064 <s+0x24>
   1012c:	c6 05 33 1f 20 00 60 	movb   $0x60,0x201f33(%rip)        # 212066 <s+0x26>
   10133:	c6 05 23 1f 20 00 51 	movb   $0x51,0x201f23(%rip)        # 21205d <s+0x1d>
   1013a:	c6 05 02 1f 20 00 28 	movb   $0x28,0x201f02(%rip)        # 212043 <s+0x3>
   10141:	c6 05 04 1f 20 00 58 	movb   $0x58,0x201f04(%rip)        # 21204c <s+0xc>
   10148:	c6 05 10 1f 20 00 7e 	movb   $0x7e,0x201f10(%rip)        # 21205f <s+0x1f>
   1014f:	c6 05 06 1f 20 00 46 	movb   $0x46,0x201f06(%rip)        # 21205c <s+0x1c>
   10156:	c6 05 ff 1e 20 00 74 	movb   $0x74,0x201eff(%rip)        # 21205c <s+0x1c>
   1015d:	c6 05 e5 1e 20 00 63 	movb   $0x63,0x201ee5(%rip)        # 212049 <s+0x9>
   10164:	c6 05 d9 1e 20 00 3c 	movb   $0x3c,0x201ed9(%rip)        # 212044 <s+0x4>
   1016b:	c6 05 d6 1e 20 00 2a 	movb   $0x2a,0x201ed6(%rip)        # 212048 <s+0x8>
   10172:	c6 05 c7 1e 20 00 59 	movb   $0x59,0x201ec7(%rip)        # 212040 <s>
   10179:	c6 05 d3 1e 20 00 78 	movb   $0x78,0x201ed3(%rip)        # 212053 <s+0x13>
   10180:	c6 05 d4 1e 20 00 63 	movb   $0x63,0x201ed4(%rip)        # 21205b <s+0x1b>
   10187:	c6 05 ca 1e 20 00 7b 	movb   $0x7b,0x201eca(%rip)        # 212058 <s+0x18>
   1018e:	c6 05 b2 1e 20 00 49 	movb   $0x49,0x201eb2(%rip)        # 212047 <s+0x7>
   10195:	c6 05 c1 1e 20 00 26 	movb   $0x26,0x201ec1(%rip)        # 21205d <s+0x1d>
   1019c:	c6 05 a0 1e 20 00 63 	movb   $0x63,0x201ea0(%rip)        # 212043 <s+0x3>
   101a3:	c6 05 b8 1e 20 00 7d 	movb   $0x7d,0x201eb8(%rip)        # 212062 <s+0x22>
   101aa:	c6 05 a6 1e 20 00 73 	movb   $0x73,0x201ea6(%rip)        # 212057 <s+0x17>
   101b1:	c6 05 96 1e 20 00 73 	movb   $0x73,0x201e96(%rip)        # 21204e <s+0xe>
   101b8:	c6 05 84 1e 20 00 37 	movb   $0x37,0x201e84(%rip)        # 212043 <s+0x3>
   101bf:	c6 05 8e 1e 20 00 5f 	movb   $0x5f,0x201e8e(%rip)        # 212054 <s+0x14>
   101c6:	c6 05 81 1e 20 00 2d 	movb   $0x2d,0x201e81(%rip)        # 21204e <s+0xe>
   101cd:	c6 05 85 1e 20 00 6a 	movb   $0x6a,0x201e85(%rip)        # 212059 <s+0x19>
   101d4:	c6 05 84 1e 20 00 44 	movb   $0x44,0x201e84(%rip)        # 21205f <s+0x1f>
   101db:	c6 05 68 1e 20 00 23 	movb   $0x23,0x201e68(%rip)        # 21204a <s+0xa>
   101e2:	c6 05 6b 1e 20 00 4d 	movb   $0x4d,0x201e6b(%rip)        # 212054 <s+0x14>
   101e9:	c6 05 6c 1e 20 00 24 	movb   $0x24,0x201e6c(%rip)        # 21205c <s+0x1c>
   101f0:	c6 05 5d 1e 20 00 53 	movb   $0x53,0x201e5d(%rip)        # 212054 <s+0x14>
   101f7:	c6 05 51 1e 20 00 79 	movb   $0x79,0x201e51(%rip)        # 21204f <s+0xf>
   101fe:	c6 05 4a 1e 20 00 36 	movb   $0x36,0x201e4a(%rip)        # 21204f <s+0xf>
   10205:	c6 05 58 1e 20 00 61 	movb   $0x61,0x201e58(%rip)        # 212064 <s+0x24>
   1020c:	c6 05 37 1e 20 00 68 	movb   $0x68,0x201e37(%rip)        # 21204a <s+0xa>
   10213:	c6 05 46 1e 20 00 67 	movb   $0x67,0x201e46(%rip)        # 212060 <s+0x20>
   1021a:	c6 05 2c 1e 20 00 4e 	movb   $0x4e,0x201e2c(%rip)        # 21204d <s+0xd>
   10221:	c6 05 32 1e 20 00 64 	movb   $0x64,0x201e32(%rip)        # 21205a <s+0x1a>
   10228:	c6 05 1b 1e 20 00 65 	movb   $0x65,0x201e1b(%rip)        # 21204a <s+0xa>
   1022f:	c6 05 0a 1e 20 00 60 	movb   $0x60,0x201e0a(%rip)        # 212040 <s>
   10236:	c6 05 28 1e 20 00 68 	movb   $0x68,0x201e28(%rip)        # 212065 <s+0x25>
   1023d:	c6 05 09 1e 20 00 20 	movb   $0x20,0x201e09(%rip)        # 21204d <s+0xd>
   10244:	c6 05 17 1e 20 00 48 	movb   $0x48,0x201e17(%rip)        # 212062 <s+0x22>
   1024b:	c6 05 ee 1d 20 00 40 	movb   $0x40,0x201dee(%rip)        # 212040 <s>
   10252:	c6 05 04 1e 20 00 5b 	movb   $0x5b,0x201e04(%rip)        # 21205d <s+0x1d>
   10259:	c6 05 07 1e 20 00 64 	movb   $0x64,0x201e07(%rip)        # 212067 <s+0x27>
   10260:	c6 05 e4 1d 20 00 33 	movb   $0x33,0x201de4(%rip)        # 21204b <s+0xb>
   10267:	c6 05 dc 1d 20 00 63 	movb   $0x63,0x201ddc(%rip)        # 21204a <s+0xa>
   1026e:	c6 05 d0 1d 20 00 7e 	movb   $0x7e,0x201dd0(%rip)        # 212045 <s+0x5>
   10275:	c6 05 e6 1d 20 00 7b 	movb   $0x7b,0x201de6(%rip)        # 212062 <s+0x22>
   1027c:	c6 05 d8 1d 20 00 6f 	movb   $0x6f,0x201dd8(%rip)        # 21205b <s+0x1b>
   10283:	c6 05 bd 1d 20 00 68 	movb   $0x68,0x201dbd(%rip)        # 212047 <s+0x7>
   1028a:	c6 05 b3 1d 20 00 66 	movb   $0x66,0x201db3(%rip)        # 212044 <s+0x4>
   10291:	c6 05 c6 1d 20 00 22 	movb   $0x22,0x201dc6(%rip)        # 21205e <s+0x1e>
   10298:	c6 05 bd 1d 20 00 75 	movb   $0x75,0x201dbd(%rip)        # 21205c <s+0x1c>
   1029f:	c6 05 9b 1d 20 00 64 	movb   $0x64,0x201d9b(%rip)        # 212041 <s+0x1>
   102a6:	c6 05 9e 1d 20 00 46 	movb   $0x46,0x201d9e(%rip)        # 21204b <s+0xb>
   102ad:	c6 05 a8 1d 20 00 62 	movb   $0x62,0x201da8(%rip)        # 21205c <s+0x1c>
   102b4:	c6 05 8b 1d 20 00 4f 	movb   $0x4f,0x201d8b(%rip)        # 212046 <s+0x6>
   102bb:	c6 05 9f 1d 20 00 7e 	movb   $0x7e,0x201d9f(%rip)        # 212061 <s+0x21>
   102c2:	c6 05 7c 1d 20 00 7e 	movb   $0x7e,0x201d7c(%rip)        # 212045 <s+0x5>
   102c9:	c6 05 83 1d 20 00 55 	movb   $0x55,0x201d83(%rip)        # 212053 <s+0x13>
   102d0:	c6 05 85 1d 20 00 47 	movb   $0x47,0x201d85(%rip)        # 21205c <s+0x1c>
   102d7:	c6 05 84 1d 20 00 2a 	movb   $0x2a,0x201d84(%rip)        # 212062 <s+0x22>
   102de:	c6 05 7a 1d 20 00 5d 	movb   $0x5d,0x201d7a(%rip)        # 21205f <s+0x1f>
   102e5:	c6 05 5c 1d 20 00 2f 	movb   $0x2f,0x201d5c(%rip)        # 212048 <s+0x8>
   102ec:	c6 05 50 1d 20 00 64 	movb   $0x64,0x201d50(%rip)        # 212043 <s+0x3>
   102f3:	c6 05 5a 1d 20 00 5d 	movb   $0x5d,0x201d5a(%rip)        # 212054 <s+0x14>
   102fa:	c6 05 41 1d 20 00 23 	movb   $0x23,0x201d41(%rip)        # 212042 <s+0x2>
   10301:	c6 05 3f 1d 20 00 7e 	movb   $0x7e,0x201d3f(%rip)        # 212047 <s+0x7>
   10308:	c6 05 4b 1d 20 00 69 	movb   $0x69,0x201d4b(%rip)        # 21205a <s+0x1a>
   1030f:	c6 05 43 1d 20 00 4c 	movb   $0x4c,0x201d43(%rip)        # 212059 <s+0x19>
   10316:	c6 05 3a 1d 20 00 4a 	movb   $0x4a,0x201d3a(%rip)        # 212057 <s+0x17>
   1031d:	c6 05 30 1d 20 00 46 	movb   $0x46,0x201d30(%rip)        # 212054 <s+0x14>
   10324:	c6 05 33 1d 20 00 73 	movb   $0x73,0x201d33(%rip)        # 21205e <s+0x1e>
   1032b:	c6 05 2f 1d 20 00 58 	movb   $0x58,0x201d2f(%rip)        # 212061 <s+0x21>
   10332:	c6 05 08 1d 20 00 31 	movb   $0x31,0x201d08(%rip)        # 212041 <s+0x1>
   10339:	c6 05 0b 1d 20 00 2c 	movb   $0x2c,0x201d0b(%rip)        # 21204b <s+0xb>
   10340:	c6 05 03 1d 20 00 59 	movb   $0x59,0x201d03(%rip)        # 21204a <s+0xa>
   10347:	c6 05 f7 1c 20 00 29 	movb   $0x29,0x201cf7(%rip)        # 212045 <s+0x5>
   1034e:	c6 05 12 1d 20 00 7e 	movb   $0x7e,0x201d12(%rip)        # 212067 <s+0x27>
   10355:	c6 05 fe 1c 20 00 7c 	movb   $0x7c,0x201cfe(%rip)        # 21205a <s+0x1a>
   1035c:	c6 05 e3 1c 20 00 55 	movb   $0x55,0x201ce3(%rip)        # 212046 <s+0x6>
   10363:	c6 05 d7 1c 20 00 79 	movb   $0x79,0x201cd7(%rip)        # 212041 <s+0x1>
   1036a:	c6 05 ed 1c 20 00 29 	movb   $0x29,0x201ced(%rip)        # 21205e <s+0x1e>
   10371:	c6 05 e5 1c 20 00 71 	movb   $0x71,0x201ce5(%rip)        # 21205d <s+0x1d>
   10378:	c6 05 cf 1c 20 00 2f 	movb   $0x2f,0x201ccf(%rip)        # 21204e <s+0xe>
   1037f:	c6 05 d0 1c 20 00 49 	movb   $0x49,0x201cd0(%rip)        # 212056 <s+0x16>
   10386:	c6 05 bf 1c 20 00 47 	movb   $0x47,0x201cbf(%rip)        # 21204c <s+0xc>
   1038d:	c6 05 b7 1c 20 00 2f 	movb   $0x2f,0x201cb7(%rip)        # 21204b <s+0xb>
   10394:	c6 05 b8 1c 20 00 64 	movb   $0x64,0x201cb8(%rip)        # 212053 <s+0x13>
   1039b:	c6 05 c1 1c 20 00 20 	movb   $0x20,0x201cc1(%rip)        # 212063 <s+0x23>
   103a2:	c6 05 b7 1c 20 00 74 	movb   $0x74,0x201cb7(%rip)        # 212060 <s+0x20>
   103a9:	c6 05 98 1c 20 00 71 	movb   $0x71,0x201c98(%rip)        # 212048 <s+0x8>
   103b0:	c6 05 89 1c 20 00 2f 	movb   $0x2f,0x201c89(%rip)        # 212040 <s>
   103b7:	c6 05 82 1c 20 00 6d 	movb   $0x6d,0x201c82(%rip)        # 212040 <s>
   103be:	c6 05 7b 1c 20 00 52 	movb   $0x52,0x201c7b(%rip)        # 212040 <s>
   103c5:	c6 05 90 1c 20 00 66 	movb   $0x66,0x201c90(%rip)        # 21205c <s+0x1c>
   103cc:	c6 05 7d 1c 20 00 3c 	movb   $0x3c,0x201c7d(%rip)        # 212050 <s+0x10>
   103d3:	c6 05 8d 1c 20 00 2c 	movb   $0x2c,0x201c8d(%rip)        # 212067 <s+0x27>
   103da:	c6 05 78 1c 20 00 4d 	movb   $0x4d,0x201c78(%rip)        # 212059 <s+0x19>
   103e1:	c6 05 74 1c 20 00 7d 	movb   $0x7d,0x201c74(%rip)        # 21205c <s+0x1c>
   103e8:	c6 05 55 1c 20 00 4f 	movb   $0x4f,0x201c55(%rip)        # 212044 <s+0x4>
   103ef:	c6 05 52 1c 20 00 45 	movb   $0x45,0x201c52(%rip)        # 212048 <s+0x8>
   103f6:	c6 05 5a 1c 20 00 62 	movb   $0x62,0x201c5a(%rip)        # 212057 <s+0x17>
   103fd:	c6 05 3d 1c 20 00 56 	movb   $0x56,0x201c3d(%rip)        # 212041 <s+0x1>
   10404:	c6 05 58 1c 20 00 3e 	movb   $0x3e,0x201c58(%rip)        # 212063 <s+0x23>
   1040b:	c6 05 37 1c 20 00 39 	movb   $0x39,0x201c37(%rip)        # 212049 <s+0x9>
   10412:	c6 05 2c 1c 20 00 23 	movb   $0x23,0x201c2c(%rip)        # 212045 <s+0x5>
   10419:	c6 05 21 1c 20 00 20 	movb   $0x20,0x201c21(%rip)        # 212041 <s+0x1>
   10420:	c6 05 2c 1c 20 00 7e 	movb   $0x7e,0x201c2c(%rip)        # 212053 <s+0x13>
   10427:	c6 05 39 1c 20 00 79 	movb   $0x79,0x201c39(%rip)        # 212067 <s+0x27>
   1042e:	c6 05 2f 1c 20 00 4d 	movb   $0x4d,0x201c2f(%rip)        # 212064 <s+0x24>
   10435:	c6 05 04 1c 20 00 49 	movb   $0x49,0x201c04(%rip)        # 212040 <s>
   1043c:	c6 05 08 1c 20 00 40 	movb   $0x40,0x201c08(%rip)        # 21204b <s+0xb>
   10443:	c6 05 f8 1b 20 00 72 	movb   $0x72,0x201bf8(%rip)        # 212042 <s+0x2>
   1044a:	c6 05 f5 1b 20 00 3b 	movb   $0x3b,0x201bf5(%rip)        # 212046 <s+0x6>
   10451:	c6 05 eb 1b 20 00 4f 	movb   $0x4f,0x201beb(%rip)        # 212043 <s+0x3>
   10458:	c6 05 f4 1b 20 00 4b 	movb   $0x4b,0x201bf4(%rip)        # 212053 <s+0x13>
   1045f:	c6 05 fd 1b 20 00 39 	movb   $0x39,0x201bfd(%rip)        # 212063 <s+0x23>
   10466:	c6 05 eb 1b 20 00 79 	movb   $0x79,0x201beb(%rip)        # 212058 <s+0x18>
   1046d:	c6 05 e0 1b 20 00 2e 	movb   $0x2e,0x201be0(%rip)        # 212054 <s+0x14>
   10474:	c6 05 d4 1b 20 00 2a 	movb   $0x2a,0x201bd4(%rip)        # 21204f <s+0xf>
   1047b:	c6 05 dc 1b 20 00 65 	movb   $0x65,0x201bdc(%rip)        # 21205e <s+0x1e>
   10482:	c6 05 d6 1b 20 00 5a 	movb   $0x5a,0x201bd6(%rip)        # 21205f <s+0x1f>
   10489:	c6 05 cf 1b 20 00 50 	movb   $0x50,0x201bcf(%rip)        # 21205f <s+0x1f>
   10490:	c6 05 b9 1b 20 00 29 	movb   $0x29,0x201bb9(%rip)        # 212050 <s+0x10>
   10497:	c6 05 c0 1b 20 00 38 	movb   $0x38,0x201bc0(%rip)        # 21205e <s+0x1e>
   1049e:	c6 05 9f 1b 20 00 7d 	movb   $0x7d,0x201b9f(%rip)        # 212044 <s+0x4>
   104a5:	c6 05 a1 1b 20 00 36 	movb   $0x36,0x201ba1(%rip)        # 21204d <s+0xd>
   104ac:	c6 05 b4 1b 20 00 66 	movb   $0x66,0x201bb4(%rip)        # 212067 <s+0x27>
   104b3:	c6 05 ad 1b 20 00 58 	movb   $0x58,0x201bad(%rip)        # 212067 <s+0x27>
   104ba:	c6 05 9d 1b 20 00 67 	movb   $0x67,0x201b9d(%rip)        # 21205e <s+0x1e>
   104c1:	c6 05 9f 1b 20 00 4f 	movb   $0x4f,0x201b9f(%rip)        # 212067 <s+0x27>
   104c8:	c6 05 77 1b 20 00 4c 	movb   $0x4c,0x201b77(%rip)        # 212046 <s+0x6>
   104cf:	c6 05 7d 1b 20 00 30 	movb   $0x30,0x201b7d(%rip)        # 212053 <s+0x13>
   104d6:	c6 05 6b 1b 20 00 31 	movb   $0x31,0x201b6b(%rip)        # 212048 <s+0x8>
   104dd:	c6 05 76 1b 20 00 2f 	movb   $0x2f,0x201b76(%rip)        # 21205a <s+0x1a>
   104e4:	c6 05 7a 1b 20 00 2b 	movb   $0x2b,0x201b7a(%rip)        # 212065 <s+0x25>
   104eb:	c6 05 58 1b 20 00 68 	movb   $0x68,0x201b58(%rip)        # 21204a <s+0xa>
   104f2:	c6 05 4f 1b 20 00 6d 	movb   $0x6d,0x201b4f(%rip)        # 212048 <s+0x8>
   104f9:	c6 05 62 1b 20 00 4b 	movb   $0x4b,0x201b62(%rip)        # 212062 <s+0x22>
   10500:	c6 05 3a 1b 20 00 6d 	movb   $0x6d,0x201b3a(%rip)        # 212041 <s+0x1>
   10507:	c6 05 4f 1b 20 00 6d 	movb   $0x6d,0x201b4f(%rip)        # 21205d <s+0x1d>
   1050e:	c6 05 3c 1b 20 00 43 	movb   $0x43,0x201b3c(%rip)        # 212051 <s+0x11>
   10515:	c6 05 3b 1b 20 00 41 	movb   $0x41,0x201b3b(%rip)        # 212057 <s+0x17>
   1051c:	c6 05 36 1b 20 00 59 	movb   $0x59,0x201b36(%rip)        # 212059 <s+0x19>
   10523:	c6 05 1e 1b 20 00 7a 	movb   $0x7a,0x201b1e(%rip)        # 212048 <s+0x8>
   1052a:	c6 05 2e 1b 20 00 3d 	movb   $0x3d,0x201b2e(%rip)        # 21205f <s+0x1f>
   10531:	c6 05 0f 1b 20 00 5e 	movb   $0x5e,0x201b0f(%rip)        # 212047 <s+0x7>
   10538:	c6 05 0a 1b 20 00 3b 	movb   $0x3b,0x201b0a(%rip)        # 212049 <s+0x9>
   1053f:	c6 05 20 1b 20 00 49 	movb   $0x49,0x201b20(%rip)        # 212066 <s+0x26>
   10546:	c6 05 06 1b 20 00 21 	movb   $0x21,0x201b06(%rip)        # 212053 <s+0x13>
   1054d:	c6 05 fc 1a 20 00 3a 	movb   $0x3a,0x201afc(%rip)        # 212050 <s+0x10>
   10554:	c6 05 00 1b 20 00 78 	movb   $0x78,0x201b00(%rip)        # 21205b <s+0x1b>
   1055b:	c6 05 fc 1a 20 00 62 	movb   $0x62,0x201afc(%rip)        # 21205e <s+0x1e>
   10562:	c6 05 e0 1a 20 00 3d 	movb   $0x3d,0x201ae0(%rip)        # 212049 <s+0x9>
   10569:	c6 05 d3 1a 20 00 22 	movb   $0x22,0x201ad3(%rip)        # 212043 <s+0x3>
   10570:	c6 05 df 1a 20 00 65 	movb   $0x65,0x201adf(%rip)        # 212056 <s+0x16>
   10577:	c6 05 cb 1a 20 00 77 	movb   $0x77,0x201acb(%rip)        # 212049 <s+0x9>
   1057e:	c6 05 cb 1a 20 00 62 	movb   $0x62,0x201acb(%rip)        # 212050 <s+0x10>
   10585:	c6 05 bd 1a 20 00 5d 	movb   $0x5d,0x201abd(%rip)        # 212049 <s+0x9>
   1058c:	c6 05 ce 1a 20 00 71 	movb   $0x71,0x201ace(%rip)        # 212061 <s+0x21>
   10593:	c6 05 ba 1a 20 00 32 	movb   $0x32,0x201aba(%rip)        # 212054 <s+0x14>
   1059a:	c6 05 a5 1a 20 00 47 	movb   $0x47,0x201aa5(%rip)        # 212046 <s+0x6>
   105a1:	c6 05 aa 1a 20 00 25 	movb   $0x25,0x201aaa(%rip)        # 212052 <s+0x12>
   105a8:	c6 05 a0 1a 20 00 59 	movb   $0x59,0x201aa0(%rip)        # 21204f <s+0xf>
   105af:	c6 05 9b 1a 20 00 6b 	movb   $0x6b,0x201a9b(%rip)        # 212051 <s+0x11>
   105b6:	c6 05 88 1a 20 00 2a 	movb   $0x2a,0x201a88(%rip)        # 212045 <s+0x5>
   105bd:	c6 05 8f 1a 20 00 40 	movb   $0x40,0x201a8f(%rip)        # 212053 <s+0x13>
   105c4:	c6 05 79 1a 20 00 64 	movb   $0x64,0x201a79(%rip)        # 212044 <s+0x4>
   105cb:	c6 05 88 1a 20 00 6a 	movb   $0x6a,0x201a88(%rip)        # 21205a <s+0x1a>
   105d2:	c6 05 7f 1a 20 00 78 	movb   $0x78,0x201a7f(%rip)        # 212058 <s+0x18>
   105d9:	c6 05 60 1a 20 00 5f 	movb   $0x5f,0x201a60(%rip)        # 212040 <s>
   105e0:	c6 05 80 1a 20 00 37 	movb   $0x37,0x201a80(%rip)        # 212067 <s+0x27>
   105e7:	c6 05 57 1a 20 00 6a 	movb   $0x6a,0x201a57(%rip)        # 212045 <s+0x5>
   105ee:	c6 05 51 1a 20 00 24 	movb   $0x24,0x201a51(%rip)        # 212046 <s+0x6>
   105f5:	c6 05 5f 1a 20 00 78 	movb   $0x78,0x201a5f(%rip)        # 21205b <s+0x1b>
   105fc:	c6 05 5e 1a 20 00 6a 	movb   $0x6a,0x201a5e(%rip)        # 212061 <s+0x21>
   10603:	c6 05 38 1a 20 00 2c 	movb   $0x2c,0x201a38(%rip)        # 212042 <s+0x2>
   1060a:	c6 05 43 1a 20 00 4e 	movb   $0x4e,0x201a43(%rip)        # 212054 <s+0x14>
   10611:	c6 05 48 1a 20 00 5f 	movb   $0x5f,0x201a48(%rip)        # 212060 <s+0x20>
   10618:	c6 05 31 1a 20 00 53 	movb   $0x53,0x201a31(%rip)        # 212050 <s+0x10>
   1061f:	c6 05 3d 1a 20 00 79 	movb   $0x79,0x201a3d(%rip)        # 212063 <s+0x23>
   10626:	c6 05 33 1a 20 00 48 	movb   $0x48,0x201a33(%rip)        # 212060 <s+0x20>
   1062d:	c6 05 31 1a 20 00 42 	movb   $0x42,0x201a31(%rip)        # 212065 <s+0x25>
   10634:	c6 05 11 1a 20 00 4f 	movb   $0x4f,0x201a11(%rip)        # 21204c <s+0xc>
   1063b:	c6 05 0e 1a 20 00 7c 	movb   $0x7c,0x201a0e(%rip)        # 212050 <s+0x10>
   10642:	c6 05 06 1a 20 00 32 	movb   $0x32,0x201a06(%rip)        # 21204f <s+0xf>
   10649:	c6 05 16 1a 20 00 46 	movb   $0x46,0x201a16(%rip)        # 212066 <s+0x26>
   10650:	c6 05 0c 1a 20 00 7d 	movb   $0x7d,0x201a0c(%rip)        # 212063 <s+0x23>
   10657:	c6 05 ee 19 20 00 74 	movb   $0x74,0x2019ee(%rip)        # 21204c <s+0xc>
   1065e:	c6 05 f0 19 20 00 64 	movb   $0x64,0x2019f0(%rip)        # 212055 <s+0x15>
   10665:	c6 05 d8 19 20 00 6d 	movb   $0x6d,0x2019d8(%rip)        # 212044 <s+0x4>
   1066c:	c6 05 e2 19 20 00 58 	movb   $0x58,0x2019e2(%rip)        # 212055 <s+0x15>
   10673:	c6 05 cf 19 20 00 75 	movb   $0x75,0x2019cf(%rip)        # 212049 <s+0x9>
   1067a:	c6 05 de 19 20 00 70 	movb   $0x70,0x2019de(%rip)        # 21205f <s+0x1f>
   10681:	c6 05 cb 19 20 00 6e 	movb   $0x6e,0x2019cb(%rip)        # 212053 <s+0x13>
   10688:	c6 05 d4 19 20 00 57 	movb   $0x57,0x2019d4(%rip)        # 212063 <s+0x23>
   1068f:	c6 05 cb 19 20 00 3b 	movb   $0x3b,0x2019cb(%rip)        # 212061 <s+0x21>
   10696:	c6 05 b8 19 20 00 78 	movb   $0x78,0x2019b8(%rip)        # 212055 <s+0x15>
   1069d:	c6 05 b6 19 20 00 3e 	movb   $0x3e,0x2019b6(%rip)        # 21205a <s+0x1a>
   106a4:	c6 05 ad 19 20 00 78 	movb   $0x78,0x2019ad(%rip)        # 212058 <s+0x18>
   106ab:	c6 05 99 19 20 00 61 	movb   $0x61,0x201999(%rip)        # 21204b <s+0xb>
   106b2:	c6 05 9c 19 20 00 63 	movb   $0x63,0x20199c(%rip)        # 212055 <s+0x15>
   106b9:	c6 05 81 19 20 00 2d 	movb   $0x2d,0x201981(%rip)        # 212041 <s+0x1>
   106c0:	c6 05 8a 19 20 00 6c 	movb   $0x6c,0x20198a(%rip)        # 212051 <s+0x11>
   106c7:	c6 05 7e 19 20 00 4f 	movb   $0x4f,0x20197e(%rip)        # 21204c <s+0xc>
   106ce:	c6 05 72 19 20 00 7e 	movb   $0x7e,0x201972(%rip)        # 212047 <s+0x7>
   106d5:	c6 05 80 19 20 00 76 	movb   $0x76,0x201980(%rip)        # 21205c <s+0x1c>
   106dc:	c6 05 7b 19 20 00 45 	movb   $0x45,0x20197b(%rip)        # 21205e <s+0x1e>
   106e3:	c6 05 7d 19 20 00 6f 	movb   $0x6f,0x20197d(%rip)        # 212067 <s+0x27>
   106ea:	c6 05 6e 19 20 00 26 	movb   $0x26,0x20196e(%rip)        # 21205f <s+0x1f>
   106f1:	c6 05 52 19 20 00 74 	movb   $0x74,0x201952(%rip)        # 21204a <s+0xa>
   106f8:	c6 05 49 19 20 00 72 	movb   $0x72,0x201949(%rip)        # 212048 <s+0x8>
   106ff:	c6 05 49 19 20 00 75 	movb   $0x75,0x201949(%rip)        # 21204f <s+0xf>
   10706:	c6 05 45 19 20 00 4f 	movb   $0x4f,0x201945(%rip)        # 212052 <s+0x12>
   1070d:	c6 05 2e 19 20 00 4d 	movb   $0x4d,0x20192e(%rip)        # 212042 <s+0x2>
   10714:	c6 05 36 19 20 00 39 	movb   $0x39,0x201936(%rip)        # 212051 <s+0x11>
   1071b:	c6 05 35 19 20 00 30 	movb   $0x30,0x201935(%rip)        # 212057 <s+0x17>
   10722:	c6 05 18 19 20 00 46 	movb   $0x46,0x201918(%rip)        # 212041 <s+0x1>
   10729:	c6 05 35 19 20 00 4f 	movb   $0x4f,0x201935(%rip)        # 212065 <s+0x25>
   10730:	c6 05 2f 19 20 00 73 	movb   $0x73,0x20192f(%rip)        # 212066 <s+0x26>
   10737:	c6 05 20 19 20 00 31 	movb   $0x31,0x201920(%rip)        # 21205e <s+0x1e>
   1073e:	c6 05 03 19 20 00 46 	movb   $0x46,0x201903(%rip)        # 212048 <s+0x8>
   10745:	c6 05 ff 18 20 00 33 	movb   $0x33,0x2018ff(%rip)        # 21204b <s+0xb>
   1074c:	c6 05 0e 19 20 00 67 	movb   $0x67,0x20190e(%rip)        # 212061 <s+0x21>
   10753:	c6 05 03 19 20 00 7e 	movb   $0x7e,0x201903(%rip)        # 21205d <s+0x1d>
   1075a:	c6 05 04 19 20 00 36 	movb   $0x36,0x201904(%rip)        # 212065 <s+0x25>
   10761:	c6 05 ee 18 20 00 41 	movb   $0x41,0x2018ee(%rip)        # 212056 <s+0x16>
   10768:	c6 05 d7 18 20 00 38 	movb   $0x38,0x2018d7(%rip)        # 212046 <s+0x6>
   1076f:	c6 05 ec 18 20 00 30 	movb   $0x30,0x2018ec(%rip)        # 212062 <s+0x22>
   10776:	c6 05 e8 18 20 00 3c 	movb   $0x3c,0x2018e8(%rip)        # 212065 <s+0x25>
   1077d:	c6 05 d2 18 20 00 7c 	movb   $0x7c,0x2018d2(%rip)        # 212056 <s+0x16>
   10784:	c6 05 d4 18 20 00 3d 	movb   $0x3d,0x2018d4(%rip)        # 21205f <s+0x1f>
   1078b:	c6 05 be 18 20 00 30 	movb   $0x30,0x2018be(%rip)        # 212050 <s+0x10>
   10792:	c6 05 b9 18 20 00 6d 	movb   $0x6d,0x2018b9(%rip)        # 212052 <s+0x12>
   10799:	c6 05 a8 18 20 00 53 	movb   $0x53,0x2018a8(%rip)        # 212048 <s+0x8>
   107a0:	c6 05 b2 18 20 00 57 	movb   $0x57,0x2018b2(%rip)        # 212059 <s+0x19>
   107a7:	c6 05 a7 18 20 00 56 	movb   $0x56,0x2018a7(%rip)        # 212055 <s+0x15>
   107ae:	c6 05 8d 18 20 00 2e 	movb   $0x2e,0x20188d(%rip)        # 212042 <s+0x2>
   107b5:	c6 05 a0 18 20 00 6e 	movb   $0x6e,0x2018a0(%rip)        # 21205c <s+0x1c>
   107bc:	c6 05 9b 18 20 00 74 	movb   $0x74,0x20189b(%rip)        # 21205e <s+0x1e>
   107c3:	c6 05 9b 18 20 00 51 	movb   $0x51,0x20189b(%rip)        # 212065 <s+0x25>
   107ca:	c6 05 7c 18 20 00 24 	movb   $0x24,0x20187c(%rip)        # 21204d <s+0xd>
   107d1:	c6 05 81 18 20 00 70 	movb   $0x70,0x201881(%rip)        # 212059 <s+0x19>
   107d8:	c6 05 6f 18 20 00 5d 	movb   $0x5d,0x20186f(%rip)        # 21204e <s+0xe>
   107df:	c6 05 71 18 20 00 49 	movb   $0x49,0x201871(%rip)        # 212057 <s+0x17>
   107e6:	c6 05 6a 18 20 00 63 	movb   $0x63,0x20186a(%rip)        # 212057 <s+0x17>
   107ed:	c6 05 69 18 20 00 4e 	movb   $0x4e,0x201869(%rip)        # 21205d <s+0x1d>
   107f4:	c6 05 51 18 20 00 2c 	movb   $0x2c,0x201851(%rip)        # 21204c <s+0xc>
   107fb:	c6 05 45 18 20 00 30 	movb   $0x30,0x201845(%rip)        # 212047 <s+0x7>
   10802:	c6 05 45 18 20 00 60 	movb   $0x60,0x201845(%rip)        # 21204e <s+0xe>
   10809:	c6 05 3f 18 20 00 50 	movb   $0x50,0x20183f(%rip)        # 21204f <s+0xf>
   10810:	c6 05 3a 18 20 00 30 	movb   $0x30,0x20183a(%rip)        # 212051 <s+0x11>
   10817:	c6 05 35 18 20 00 6b 	movb   $0x6b,0x201835(%rip)        # 212053 <s+0x13>
   1081e:	c6 05 2b 18 20 00 21 	movb   $0x21,0x20182b(%rip)        # 212050 <s+0x10>
   10825:	c6 05 21 18 20 00 25 	movb   $0x25,0x201821(%rip)        # 21204d <s+0xd>
   1082c:	c6 05 1c 18 20 00 7c 	movb   $0x7c,0x20181c(%rip)        # 21204f <s+0xf>
   10833:	c6 05 19 18 20 00 3a 	movb   $0x3a,0x201819(%rip)        # 212053 <s+0x13>
   1083a:	c6 05 00 18 20 00 74 	movb   $0x74,0x201800(%rip)        # 212041 <s+0x1>
   10841:	c6 05 fa 17 20 00 72 	movb   $0x72,0x2017fa(%rip)        # 212042 <s+0x2>
   10848:	c6 05 f6 17 20 00 20 	movb   $0x20,0x2017f6(%rip)        # 212045 <s+0x5>
   1084f:	c6 05 f2 17 20 00 5d 	movb   $0x5d,0x2017f2(%rip)        # 212048 <s+0x8>
   10856:	c6 05 fa 17 20 00 3a 	movb   $0x3a,0x2017fa(%rip)        # 212057 <s+0x17>
   1085d:	c6 05 f7 17 20 00 78 	movb   $0x78,0x2017f7(%rip)        # 21205b <s+0x1b>
   10864:	c6 05 ec 17 20 00 2f 	movb   $0x2f,0x2017ec(%rip)        # 212057 <s+0x17>
   1086b:	c6 05 eb 17 20 00 6c 	movb   $0x6c,0x2017eb(%rip)        # 21205d <s+0x1d>
   10872:	c6 05 d2 17 20 00 4a 	movb   $0x4a,0x2017d2(%rip)        # 21204b <s+0xb>
   10879:	c6 05 c0 17 20 00 53 	movb   $0x53,0x2017c0(%rip)        # 212040 <s>
   10880:	c6 05 be 17 20 00 7d 	movb   $0x7d,0x2017be(%rip)        # 212045 <s+0x5>
   10887:	c6 05 b6 17 20 00 52 	movb   $0x52,0x2017b6(%rip)        # 212044 <s+0x4>
   1088e:	c6 05 ce 17 20 00 70 	movb   $0x70,0x2017ce(%rip)        # 212063 <s+0x23>
   10895:	c6 05 ba 17 20 00 26 	movb   $0x26,0x2017ba(%rip)        # 212056 <s+0x16>
   1089c:	c6 05 ad 17 20 00 6e 	movb   $0x6e,0x2017ad(%rip)        # 212050 <s+0x10>
   108a3:	c6 05 a3 17 20 00 6f 	movb   $0x6f,0x2017a3(%rip)        # 21204d <s+0xd>
   108aa:	c6 05 aa 17 20 00 23 	movb   $0x23,0x2017aa(%rip)        # 21205b <s+0x1b>
   108b1:	c6 05 9d 17 20 00 6b 	movb   $0x6b,0x20179d(%rip)        # 212055 <s+0x15>
   108b8:	c6 05 86 17 20 00 77 	movb   $0x77,0x201786(%rip)        # 212045 <s+0x5>
   108bf:	c6 05 9b 17 20 00 78 	movb   $0x78,0x20179b(%rip)        # 212061 <s+0x21>
   108c6:	c6 05 76 17 20 00 4a 	movb   $0x4a,0x201776(%rip)        # 212043 <s+0x3>
   108cd:	c6 05 93 17 20 00 33 	movb   $0x33,0x201793(%rip)        # 212067 <s+0x27>
   108d4:	c6 05 84 17 20 00 61 	movb   $0x61,0x201784(%rip)        # 21205f <s+0x1f>
   108db:	c6 05 74 17 20 00 78 	movb   $0x78,0x201774(%rip)        # 212056 <s+0x16>
   108e2:	c6 05 78 17 20 00 76 	movb   $0x76,0x201778(%rip)        # 212061 <s+0x21>
   108e9:	c6 05 6d 17 20 00 43 	movb   $0x43,0x20176d(%rip)        # 21205d <s+0x1d>
   108f0:	c6 05 5f 17 20 00 20 	movb   $0x20,0x20175f(%rip)        # 212056 <s+0x16>
   108f7:	c6 05 68 17 20 00 29 	movb   $0x29,0x201768(%rip)        # 212066 <s+0x26>
   108fe:	c6 05 52 17 20 00 72 	movb   $0x72,0x201752(%rip)        # 212057 <s+0x17>
   10905:	c6 05 45 17 20 00 6b 	movb   $0x6b,0x201745(%rip)        # 212051 <s+0x11>
   1090c:	c6 05 3b 17 20 00 22 	movb   $0x22,0x20173b(%rip)        # 21204e <s+0xe>
   10913:	c6 05 33 17 20 00 26 	movb   $0x26,0x201733(%rip)        # 21204d <s+0xd>
   1091a:	c6 05 29 17 20 00 56 	movb   $0x56,0x201729(%rip)        # 21204a <s+0xa>
   10921:	c6 05 2b 17 20 00 49 	movb   $0x49,0x20172b(%rip)        # 212053 <s+0x13>
   10928:	c6 05 21 17 20 00 44 	movb   $0x44,0x201721(%rip)        # 212050 <s+0x10>
   1092f:	c6 05 2e 17 20 00 21 	movb   $0x21,0x20172e(%rip)        # 212064 <s+0x24>
   10936:	c6 05 1e 17 20 00 7a 	movb   $0x7a,0x20171e(%rip)        # 21205b <s+0x1b>
   1093d:	c6 05 01 17 20 00 34 	movb   $0x34,0x201701(%rip)        # 212045 <s+0x5>
   10944:	c6 05 00 17 20 00 2a 	movb   $0x2a,0x201700(%rip)        # 21204b <s+0xb>
   1094b:	c6 05 fe 16 20 00 55 	movb   $0x55,0x2016fe(%rip)        # 212050 <s+0x10>
   10952:	c6 05 fb 16 20 00 67 	movb   $0x67,0x2016fb(%rip)        # 212054 <s+0x14>
   10959:	c6 05 05 17 20 00 69 	movb   $0x69,0x201705(%rip)        # 212065 <s+0x25>
   10960:	c6 05 dc 16 20 00 4c 	movb   $0x4c,0x2016dc(%rip)        # 212043 <s+0x3>
   10967:	c6 05 d8 16 20 00 6e 	movb   $0x6e,0x2016d8(%rip)        # 212046 <s+0x6>
   1096e:	c6 05 d8 16 20 00 32 	movb   $0x32,0x2016d8(%rip)        # 21204d <s+0xd>
   10975:	c6 05 c6 16 20 00 52 	movb   $0x52,0x2016c6(%rip)        # 212042 <s+0x2>
   1097c:	c6 05 c1 16 20 00 57 	movb   $0x57,0x2016c1(%rip)        # 212044 <s+0x4>
   10983:	c6 05 c7 16 20 00 68 	movb   $0x68,0x2016c7(%rip)        # 212051 <s+0x11>
   1098a:	c6 05 d6 16 20 00 5f 	movb   $0x5f,0x2016d6(%rip)        # 212067 <s+0x27>
   10991:	c6 05 c8 16 20 00 42 	movb   $0x42,0x2016c8(%rip)        # 212060 <s+0x20>
   10998:	c6 05 bb 16 20 00 21 	movb   $0x21,0x2016bb(%rip)        # 21205a <s+0x1a>
   1099f:	c6 05 9c 16 20 00 46 	movb   $0x46,0x20169c(%rip)        # 212042 <s+0x2>
   109a6:	c6 05 a0 16 20 00 77 	movb   $0x77,0x2016a0(%rip)        # 21204d <s+0xd>
   109ad:	c6 05 b1 16 20 00 45 	movb   $0x45,0x2016b1(%rip)        # 212065 <s+0x25>
   109b4:	c6 05 a2 16 20 00 3e 	movb   $0x3e,0x2016a2(%rip)        # 21205d <s+0x1d>
   109bb:	c6 05 99 16 20 00 35 	movb   $0x35,0x201699(%rip)        # 21205b <s+0x1b>
   109c2:	c6 05 86 16 20 00 44 	movb   $0x44,0x201686(%rip)        # 21204f <s+0xf>
   109c9:	c6 05 89 16 20 00 71 	movb   $0x71,0x201689(%rip)        # 212059 <s+0x19>
   109d0:	c6 05 6a 16 20 00 5d 	movb   $0x5d,0x20166a(%rip)        # 212041 <s+0x1>
   109d7:	c6 05 73 16 20 00 7b 	movb   $0x7b,0x201673(%rip)        # 212051 <s+0x11>
   109de:	c6 05 82 16 20 00 31 	movb   $0x31,0x201682(%rip)        # 212067 <s+0x27>
   109e5:	c6 05 65 16 20 00 3a 	movb   $0x3a,0x201665(%rip)        # 212051 <s+0x11>
   109ec:	c6 05 6a 16 20 00 48 	movb   $0x48,0x20166a(%rip)        # 21205d <s+0x1d>
   109f3:	c6 05 6d 16 20 00 21 	movb   $0x21,0x20166d(%rip)        # 212067 <s+0x27>
   109fa:	c6 05 5e 16 20 00 62 	movb   $0x62,0x20165e(%rip)        # 21205f <s+0x1f>
   10a01:	c6 05 50 16 20 00 56 	movb   $0x56,0x201650(%rip)        # 212058 <s+0x18>
   10a08:	c6 05 56 16 20 00 30 	movb   $0x30,0x201656(%rip)        # 212065 <s+0x25>
   10a0f:	c6 05 42 16 20 00 53 	movb   $0x53,0x201642(%rip)        # 212058 <s+0x18>
   10a16:	c6 05 49 16 20 00 50 	movb   $0x50,0x201649(%rip)        # 212066 <s+0x26>
   10a1d:	c6 05 2b 16 20 00 2b 	movb   $0x2b,0x20162b(%rip)        # 21204f <s+0xf>
   10a24:	c6 05 1d 16 20 00 71 	movb   $0x71,0x20161d(%rip)        # 212048 <s+0x8>
   10a2b:	c6 05 32 16 20 00 68 	movb   $0x68,0x201632(%rip)        # 212064 <s+0x24>
   10a32:	c6 05 29 16 20 00 21 	movb   $0x21,0x201629(%rip)        # 212062 <s+0x22>
   10a39:	c6 05 04 16 20 00 5d 	movb   $0x5d,0x201604(%rip)        # 212044 <s+0x4>
   10a40:	c6 05 1d 16 20 00 69 	movb   $0x69,0x20161d(%rip)        # 212064 <s+0x24>
   10a47:	c6 05 07 16 20 00 32 	movb   $0x32,0x201607(%rip)        # 212055 <s+0x15>
   10a4e:	c6 05 f8 15 20 00 43 	movb   $0x43,0x2015f8(%rip)        # 21204d <s+0xd>
   10a55:	c6 05 fb 15 20 00 62 	movb   $0x62,0x2015fb(%rip)        # 212057 <s+0x17>
   10a5c:	c6 05 eb 15 20 00 2d 	movb   $0x2d,0x2015eb(%rip)        # 21204e <s+0xe>
   10a63:	c6 05 f5 15 20 00 2b 	movb   $0x2b,0x2015f5(%rip)        # 21205f <s+0x1f>
   10a6a:	c6 05 e0 15 20 00 3a 	movb   $0x3a,0x2015e0(%rip)        # 212051 <s+0x11>
   10a71:	c6 05 d4 15 20 00 49 	movb   $0x49,0x2015d4(%rip)        # 21204c <s+0xc>
   10a78:	c6 05 c2 15 20 00 66 	movb   $0x66,0x2015c2(%rip)        # 212041 <s+0x1>
   10a7f:	c6 05 ca 15 20 00 61 	movb   $0x61,0x2015ca(%rip)        # 212050 <s+0x10>
   10a86:	c6 05 d3 15 20 00 3c 	movb   $0x3c,0x2015d3(%rip)        # 212060 <s+0x20>
   10a8d:	c6 05 ad 15 20 00 5b 	movb   $0x5b,0x2015ad(%rip)        # 212041 <s+0x1>
   10a94:	c6 05 c8 15 20 00 62 	movb   $0x62,0x2015c8(%rip)        # 212063 <s+0x23>
   10a9b:	c6 05 b3 15 20 00 23 	movb   $0x23,0x2015b3(%rip)        # 212055 <s+0x15>
   10aa2:	c6 05 a7 15 20 00 56 	movb   $0x56,0x2015a7(%rip)        # 212050 <s+0x10>
   10aa9:	c6 05 9c 15 20 00 21 	movb   $0x21,0x20159c(%rip)        # 21204c <s+0xc>
   10ab0:	c6 05 98 15 20 00 7a 	movb   $0x7a,0x201598(%rip)        # 21204f <s+0xf>
   10ab7:	c6 05 a1 15 20 00 58 	movb   $0x58,0x2015a1(%rip)        # 21205f <s+0x1f>
   10abe:	c6 05 9f 15 20 00 36 	movb   $0x36,0x20159f(%rip)        # 212064 <s+0x24>
   10ac5:	c6 05 91 15 20 00 25 	movb   $0x25,0x201591(%rip)        # 21205d <s+0x1d>
   10acc:	c6 05 86 15 20 00 5f 	movb   $0x5f,0x201586(%rip)        # 212059 <s+0x19>
   10ad3:	c6 05 7c 15 20 00 21 	movb   $0x21,0x20157c(%rip)        # 212056 <s+0x16>
   10ada:	c6 05 80 15 20 00 2d 	movb   $0x2d,0x201580(%rip)        # 212061 <s+0x21>
   10ae1:	c6 05 6c 15 20 00 41 	movb   $0x41,0x20156c(%rip)        # 212054 <s+0x14>
   10ae8:	c6 05 67 15 20 00 7e 	movb   $0x7e,0x201567(%rip)        # 212056 <s+0x16>
   10aef:	c6 05 67 15 20 00 7b 	movb   $0x7b,0x201567(%rip)        # 21205d <s+0x1d>
   10af6:	c6 05 5a 15 20 00 7b 	movb   $0x7b,0x20155a(%rip)        # 212057 <s+0x17>
   10afd:	c6 05 47 15 20 00 26 	movb   $0x26,0x201547(%rip)        # 21204b <s+0xb>
   10b04:	c6 05 53 15 20 00 3e 	movb   $0x3e,0x201553(%rip)        # 21205e <s+0x1e>
   10b0b:	c6 05 53 15 20 00 63 	movb   $0x63,0x201553(%rip)        # 212065 <s+0x25>
   10b12:	c6 05 4d 15 20 00 3d 	movb   $0x3d,0x20154d(%rip)        # 212066 <s+0x26>
   10b19:	c6 05 2f 15 20 00 7d 	movb   $0x7d,0x20152f(%rip)        # 21204f <s+0xf>
   10b20:	c6 05 3c 15 20 00 2d 	movb   $0x2d,0x20153c(%rip)        # 212063 <s+0x23>
   10b27:	c6 05 1a 15 20 00 79 	movb   $0x79,0x20151a(%rip)        # 212048 <s+0x8>
   10b2e:	c6 05 30 15 20 00 72 	movb   $0x72,0x201530(%rip)        # 212065 <s+0x25>
   10b35:	c6 05 15 15 20 00 5f 	movb   $0x5f,0x201515(%rip)        # 212051 <s+0x11>
   10b3c:	c6 05 fe 14 20 00 3c 	movb   $0x3c,0x2014fe(%rip)        # 212041 <s+0x1>
   10b43:	c6 05 0b 15 20 00 4d 	movb   $0x4d,0x20150b(%rip)        # 212055 <s+0x15>
   10b4a:	c6 05 0d 15 20 00 20 	movb   $0x20,0x20150d(%rip)        # 21205e <s+0x1e>
   10b51:	c6 05 f2 14 20 00 29 	movb   $0x29,0x2014f2(%rip)        # 21204a <s+0xa>
   10b58:	c6 05 f5 14 20 00 74 	movb   $0x74,0x2014f5(%rip)        # 212054 <s+0x14>
   10b5f:	c6 05 de 14 20 00 2e 	movb   $0x2e,0x2014de(%rip)        # 212044 <s+0x4>
   10b66:	c6 05 f9 14 20 00 3b 	movb   $0x3b,0x2014f9(%rip)        # 212066 <s+0x26>
   10b6d:	c6 05 cd 14 20 00 4b 	movb   $0x4b,0x2014cd(%rip)        # 212041 <s+0x1>
   10b74:	c6 05 cc 14 20 00 2a 	movb   $0x2a,0x2014cc(%rip)        # 212047 <s+0x7>
   10b7b:	c6 05 c9 14 20 00 2c 	movb   $0x2c,0x2014c9(%rip)        # 21204b <s+0xb>
   10b82:	c6 05 da 14 20 00 7c 	movb   $0x7c,0x2014da(%rip)        # 212063 <s+0x23>
   10b89:	c6 05 d7 14 20 00 4e 	movb   $0x4e,0x2014d7(%rip)        # 212067 <s+0x27>
   10b90:	c6 05 af 14 20 00 36 	movb   $0x36,0x2014af(%rip)        # 212046 <s+0x6>
   10b97:	c6 05 be 14 20 00 5e 	movb   $0x5e,0x2014be(%rip)        # 21205c <s+0x1c>
   10b9e:	c6 05 b4 14 20 00 7a 	movb   $0x7a,0x2014b4(%rip)        # 212059 <s+0x19>
   10ba5:	c6 05 ad 14 20 00 78 	movb   $0x78,0x2014ad(%rip)        # 212059 <s+0x19>
   10bac:	c6 05 99 14 20 00 20 	movb   $0x20,0x201499(%rip)        # 21204c <s+0xc>
   10bb3:	c6 05 98 14 20 00 5d 	movb   $0x5d,0x201498(%rip)        # 212052 <s+0x12>
   10bba:	c6 05 82 14 20 00 46 	movb   $0x46,0x201482(%rip)        # 212043 <s+0x3>
   10bc1:	c6 05 83 14 20 00 79 	movb   $0x79,0x201483(%rip)        # 21204b <s+0xb>
   10bc8:	c6 05 79 14 20 00 50 	movb   $0x50,0x201479(%rip)        # 212048 <s+0x8>
   10bcf:	c6 05 77 14 20 00 39 	movb   $0x39,0x201477(%rip)        # 21204d <s+0xd>
   10bd6:	c6 05 6d 14 20 00 26 	movb   $0x26,0x20146d(%rip)        # 21204a <s+0xa>
   10bdd:	c6 05 6d 14 20 00 7e 	movb   $0x7e,0x20146d(%rip)        # 212051 <s+0x11>
   10be4:	c6 05 5a 14 20 00 75 	movb   $0x75,0x20145a(%rip)        # 212045 <s+0x5>
   10beb:	c6 05 61 14 20 00 3f 	movb   $0x3f,0x201461(%rip)        # 212053 <s+0x13>
   10bf2:	c6 05 66 14 20 00 32 	movb   $0x32,0x201466(%rip)        # 21205f <s+0x1f>
   10bf9:	c6 05 62 14 20 00 50 	movb   $0x50,0x201462(%rip)        # 212062 <s+0x22>
   10c00:	c6 05 48 14 20 00 6e 	movb   $0x6e,0x201448(%rip)        # 21204f <s+0xf>
   10c07:	c6 05 43 14 20 00 39 	movb   $0x39,0x201443(%rip)        # 212051 <s+0x11>
   10c0e:	c6 05 38 14 20 00 5b 	movb   $0x5b,0x201438(%rip)        # 21204d <s+0xd>
   10c15:	c6 05 2f 14 20 00 66 	movb   $0x66,0x20142f(%rip)        # 21204b <s+0xb>
   10c1c:	c6 05 1d 14 20 00 77 	movb   $0x77,0x20141d(%rip)        # 212040 <s>
   10c23:	c6 05 38 14 20 00 75 	movb   $0x75,0x201438(%rip)        # 212062 <s+0x22>
   10c2a:	c6 05 34 14 20 00 7e 	movb   $0x7e,0x201434(%rip)        # 212065 <s+0x25>
   10c31:	c6 05 0e 14 20 00 48 	movb   $0x48,0x20140e(%rip)        # 212046 <s+0x6>
   10c38:	c6 05 18 14 20 00 3e 	movb   $0x3e,0x201418(%rip)        # 212057 <s+0x17>
   10c3f:	c6 05 21 14 20 00 64 	movb   $0x64,0x201421(%rip)        # 212067 <s+0x27>
   10c46:	c6 05 fe 13 20 00 74 	movb   $0x74,0x2013fe(%rip)        # 21204b <s+0xb>
   10c4d:	c6 05 ec 13 20 00 7e 	movb   $0x7e,0x2013ec(%rip)        # 212040 <s>
   10c54:	c6 05 08 14 20 00 70 	movb   $0x70,0x201408(%rip)        # 212063 <s+0x23>
   10c5b:	c6 05 de 13 20 00 3b 	movb   $0x3b,0x2013de(%rip)        # 212040 <s>
   10c62:	c6 05 e8 13 20 00 69 	movb   $0x69,0x2013e8(%rip)        # 212051 <s+0x11>
   10c69:	c6 05 e7 13 20 00 53 	movb   $0x53,0x2013e7(%rip)        # 212057 <s+0x17>
   10c70:	c6 05 de 13 20 00 68 	movb   $0x68,0x2013de(%rip)        # 212055 <s+0x15>
   10c77:	c6 05 c6 13 20 00 5b 	movb   $0x5b,0x2013c6(%rip)        # 212044 <s+0x4>
   10c7e:	c6 05 c2 13 20 00 4c 	movb   $0x4c,0x2013c2(%rip)        # 212047 <s+0x7>
   10c85:	c6 05 cd 13 20 00 33 	movb   $0x33,0x2013cd(%rip)        # 212059 <s+0x19>
   10c8c:	c6 05 cf 13 20 00 2f 	movb   $0x2f,0x2013cf(%rip)        # 212062 <s+0x22>
   10c93:	c6 05 ac 13 20 00 4b 	movb   $0x4b,0x2013ac(%rip)        # 212046 <s+0x6>
   10c9a:	c6 05 a4 13 20 00 7e 	movb   $0x7e,0x2013a4(%rip)        # 212045 <s+0x5>
   10ca1:	c6 05 ae 13 20 00 20 	movb   $0x20,0x2013ae(%rip)        # 212056 <s+0x16>
   10ca8:	c6 05 9f 13 20 00 40 	movb   $0x40,0x20139f(%rip)        # 21204e <s+0xe>
   10caf:	c6 05 af 13 20 00 7a 	movb   $0x7a,0x2013af(%rip)        # 212065 <s+0x25>
   10cb6:	c6 05 83 13 20 00 3d 	movb   $0x3d,0x201383(%rip)        # 212040 <s>
   10cbd:	c6 05 7d 13 20 00 37 	movb   $0x37,0x20137d(%rip)        # 212041 <s+0x1>
   10cc4:	c6 05 85 13 20 00 32 	movb   $0x32,0x201385(%rip)        # 212050 <s+0x10>
   10ccb:	c6 05 92 13 20 00 66 	movb   $0x66,0x201392(%rip)        # 212064 <s+0x24>
   10cd2:	c6 05 7e 13 20 00 7c 	movb   $0x7c,0x20137e(%rip)        # 212057 <s+0x17>
   10cd9:	c6 05 71 13 20 00 37 	movb   $0x37,0x201371(%rip)        # 212051 <s+0x11>
   10ce0:	c6 05 80 13 20 00 32 	movb   $0x32,0x201380(%rip)        # 212067 <s+0x27>
   10ce7:	c6 05 5d 13 20 00 38 	movb   $0x38,0x20135d(%rip)        # 21204b <s+0xb>
   10cee:	c6 05 68 13 20 00 26 	movb   $0x26,0x201368(%rip)        # 21205d <s+0x1d>
   10cf5:	c6 05 51 13 20 00 31 	movb   $0x31,0x201351(%rip)        # 21204d <s+0xd>
   10cfc:	c6 05 5c 13 20 00 3d 	movb   $0x3d,0x20135c(%rip)        # 21205f <s+0x1f>
   10d03:	c6 05 36 13 20 00 6f 	movb   $0x6f,0x201336(%rip)        # 212040 <s>
   10d0a:	c6 05 45 13 20 00 47 	movb   $0x47,0x201345(%rip)        # 212056 <s+0x16>
   10d11:	c6 05 3a 13 20 00 49 	movb   $0x49,0x20133a(%rip)        # 212052 <s+0x12>
   10d18:	c6 05 24 13 20 00 65 	movb   $0x65,0x201324(%rip)        # 212043 <s+0x3>
   10d1f:	c6 05 3e 13 20 00 57 	movb   $0x57,0x20133e(%rip)        # 212064 <s+0x24>
   10d26:	c6 05 18 13 20 00 71 	movb   $0x71,0x201318(%rip)        # 212045 <s+0x5>
   10d2d:	c6 05 29 13 20 00 65 	movb   $0x65,0x201329(%rip)        # 21205d <s+0x1d>
   10d34:	c6 05 1c 13 20 00 35 	movb   $0x35,0x20131c(%rip)        # 212057 <s+0x17>
   10d3b:	c6 05 23 13 20 00 71 	movb   $0x71,0x201323(%rip)        # 212065 <s+0x25>
   10d42:	c6 05 13 13 20 00 32 	movb   $0x32,0x201313(%rip)        # 21205c <s+0x1c>
   10d49:	c6 05 0e 13 20 00 46 	movb   $0x46,0x20130e(%rip)        # 21205e <s+0x1e>
   10d50:	c6 05 03 13 20 00 2d 	movb   $0x2d,0x201303(%rip)        # 21205a <s+0x1a>
   10d57:	c6 05 05 13 20 00 42 	movb   $0x42,0x201305(%rip)        # 212063 <s+0x23>
   10d5e:	c6 05 f8 12 20 00 33 	movb   $0x33,0x2012f8(%rip)        # 21205d <s+0x1d>
   10d65:	c6 05 f3 12 20 00 41 	movb   $0x41,0x2012f3(%rip)        # 21205f <s+0x1f>
   10d6c:	c6 05 f4 12 20 00 59 	movb   $0x59,0x2012f4(%rip)        # 212067 <s+0x27>
   10d73:	c6 05 e6 12 20 00 45 	movb   $0x45,0x2012e6(%rip)        # 212060 <s+0x20>
   10d7a:	c6 05 d0 12 20 00 47 	movb   $0x47,0x2012d0(%rip)        # 212051 <s+0x11>
   10d81:	c6 05 b9 12 20 00 7b 	movb   $0x7b,0x2012b9(%rip)        # 212041 <s+0x1>
   10d88:	c6 05 d3 12 20 00 59 	movb   $0x59,0x2012d3(%rip)        # 212062 <s+0x22>
   10d8f:	c6 05 b1 12 20 00 43 	movb   $0x43,0x2012b1(%rip)        # 212047 <s+0x7>
   10d96:	c6 05 a7 12 20 00 62 	movb   $0x62,0x2012a7(%rip)        # 212044 <s+0x4>
   10d9d:	c6 05 c1 12 20 00 3f 	movb   $0x3f,0x2012c1(%rip)        # 212065 <s+0x25>
   10da4:	c6 05 98 12 20 00 3c 	movb   $0x3c,0x201298(%rip)        # 212043 <s+0x3>
   10dab:	c6 05 9b 12 20 00 63 	movb   $0x63,0x20129b(%rip)        # 21204d <s+0xd>
   10db2:	c6 05 a7 12 20 00 60 	movb   $0x60,0x2012a7(%rip)        # 212060 <s+0x20>
   10db9:	c6 05 93 12 20 00 38 	movb   $0x38,0x201293(%rip)        # 212053 <s+0x13>
   10dc0:	c6 05 9d 12 20 00 72 	movb   $0x72,0x20129d(%rip)        # 212064 <s+0x24>
   10dc7:	c6 05 7c 12 20 00 64 	movb   $0x64,0x20127c(%rip)        # 21204a <s+0xa>
   10dce:	c6 05 87 12 20 00 5f 	movb   $0x5f,0x201287(%rip)        # 21205c <s+0x1c>
   10dd5:	c6 05 6f 12 20 00 64 	movb   $0x64,0x20126f(%rip)        # 21204b <s+0xb>
   10ddc:	c6 05 7f 12 20 00 77 	movb   $0x77,0x20127f(%rip)        # 212062 <s+0x22>
   10de3:	c6 05 72 12 20 00 3f 	movb   $0x3f,0x201272(%rip)        # 21205c <s+0x1c>
   10dea:	c6 05 62 12 20 00 71 	movb   $0x71,0x201262(%rip)        # 212053 <s+0x13>
   10df1:	c6 05 6d 12 20 00 4c 	movb   $0x4c,0x20126d(%rip)        # 212065 <s+0x25>
   10df8:	c6 05 46 12 20 00 73 	movb   $0x73,0x201246(%rip)        # 212045 <s+0x5>
   10dff:	c6 05 50 12 20 00 6e 	movb   $0x6e,0x201250(%rip)        # 212056 <s+0x16>
   10e06:	c6 05 33 12 20 00 74 	movb   $0x74,0x201233(%rip)        # 212040 <s>
   10e0d:	c6 05 49 12 20 00 79 	movb   $0x79,0x201249(%rip)        # 21205d <s+0x1d>
   10e14:	c6 05 4a 12 20 00 62 	movb   $0x62,0x20124a(%rip)        # 212065 <s+0x25>
   10e1b:	c6 05 2f 12 20 00 66 	movb   $0x66,0x20122f(%rip)        # 212051 <s+0x11>
   10e22:	c6 05 1d 12 20 00 20 	movb   $0x20,0x20121d(%rip)        # 212046 <s+0x6>
   10e29:	c6 05 31 12 20 00 78 	movb   $0x78,0x201231(%rip)        # 212061 <s+0x21>
   10e30:	c6 05 0d 12 20 00 39 	movb   $0x39,0x20120d(%rip)        # 212044 <s+0x4>
   10e37:	c6 05 08 12 20 00 68 	movb   $0x68,0x201208(%rip)        # 212046 <s+0x6>
   10e3e:	c6 05 15 12 20 00 23 	movb   $0x23,0x201215(%rip)        # 21205a <s+0x1a>
   10e45:	c6 05 01 12 20 00 4d 	movb   $0x4d,0x201201(%rip)        # 21204d <s+0xd>
   10e4c:	c6 05 f0 11 20 00 29 	movb   $0x29,0x2011f0(%rip)        # 212043 <s+0x3>
   10e53:	c6 05 f7 11 20 00 7e 	movb   $0x7e,0x2011f7(%rip)        # 212051 <s+0x11>
   10e5a:	c6 05 05 12 20 00 51 	movb   $0x51,0x201205(%rip)        # 212066 <s+0x26>
   10e61:	c6 05 ec 11 20 00 54 	movb   $0x54,0x2011ec(%rip)        # 212054 <s+0x14>
   10e68:	c6 05 d6 11 20 00 58 	movb   $0x58,0x2011d6(%rip)        # 212045 <s+0x5>
   10e6f:	c6 05 e4 11 20 00 48 	movb   $0x48,0x2011e4(%rip)        # 21205a <s+0x1a>
   10e76:	c6 05 cf 11 20 00 45 	movb   $0x45,0x2011cf(%rip)        # 21204c <s+0xc>
   10e7d:	c6 05 e0 11 20 00 40 	movb   $0x40,0x2011e0(%rip)        # 212064 <s+0x24>
   10e84:	c6 05 be 11 20 00 23 	movb   $0x23,0x2011be(%rip)        # 212049 <s+0x9>
   10e8b:	c6 05 ce 11 20 00 3d 	movb   $0x3d,0x2011ce(%rip)        # 212060 <s+0x20>
   10e92:	c6 05 b3 11 20 00 6d 	movb   $0x6d,0x2011b3(%rip)        # 21204c <s+0xc>
   10e99:	c6 05 c4 11 20 00 7e 	movb   $0x7e,0x2011c4(%rip)        # 212064 <s+0x24>
   10ea0:	c6 05 ae 11 20 00 44 	movb   $0x44,0x2011ae(%rip)        # 212055 <s+0x15>
   10ea7:	c6 05 a0 11 20 00 3c 	movb   $0x3c,0x2011a0(%rip)        # 21204e <s+0xe>
   10eae:	c6 05 9b 11 20 00 3f 	movb   $0x3f,0x20119b(%rip)        # 212050 <s+0x10>
   10eb5:	c6 05 92 11 20 00 44 	movb   $0x44,0x201192(%rip)        # 21204e <s+0xe>
   10ebc:	c6 05 85 11 20 00 44 	movb   $0x44,0x201185(%rip)        # 212048 <s+0x8>
   10ec3:	c6 05 96 11 20 00 31 	movb   $0x31,0x201196(%rip)        # 212060 <s+0x20>
   10eca:	c6 05 77 11 20 00 3a 	movb   $0x3a,0x201177(%rip)        # 212048 <s+0x8>
   10ed1:	c6 05 7b 11 20 00 7c 	movb   $0x7c,0x20117b(%rip)        # 212053 <s+0x13>
   10ed8:	c6 05 7f 11 20 00 3a 	movb   $0x3a,0x20117f(%rip)        # 21205e <s+0x1e>
   10edf:	c6 05 6a 11 20 00 3e 	movb   $0x3e,0x20116a(%rip)        # 212050 <s+0x10>
   10ee6:	c6 05 58 11 20 00 24 	movb   $0x24,0x201158(%rip)        # 212045 <s+0x5>
   10eed:	c6 05 5a 11 20 00 34 	movb   $0x34,0x20115a(%rip)        # 21204e <s+0xe>
   10ef4:	c6 05 45 11 20 00 52 	movb   $0x52,0x201145(%rip)        # 212040 <s>
   10efb:	c6 05 61 11 20 00 72 	movb   $0x72,0x201161(%rip)        # 212063 <s+0x23>
   10f02:	c6 05 5d 11 20 00 72 	movb   $0x72,0x20115d(%rip)        # 212066 <s+0x26>
   10f09:	c6 05 38 11 20 00 28 	movb   $0x28,0x201138(%rip)        # 212048 <s+0x8>
   10f10:	c6 05 36 11 20 00 45 	movb   $0x45,0x201136(%rip)        # 21204d <s+0xd>
   10f17:	c6 05 23 11 20 00 47 	movb   $0x47,0x201123(%rip)        # 212041 <s+0x1>
   10f1e:	c6 05 1b 11 20 00 2c 	movb   $0x2c,0x20111b(%rip)        # 212040 <s>
   10f25:	c6 05 1d 11 20 00 2e 	movb   $0x2e,0x20111d(%rip)        # 212049 <s+0x9>
   10f2c:	c6 05 11 11 20 00 22 	movb   $0x22,0x201111(%rip)        # 212044 <s+0x4>
   10f33:	c6 05 2a 11 20 00 48 	movb   $0x48,0x20112a(%rip)        # 212064 <s+0x24>
   10f3a:	c6 05 03 11 20 00 2b 	movb   $0x2b,0x201103(%rip)        # 212044 <s+0x4>
   10f41:	c6 05 00 11 20 00 60 	movb   $0x60,0x201100(%rip)        # 212048 <s+0x8>
   10f48:	c6 05 14 11 20 00 6a 	movb   $0x6a,0x201114(%rip)        # 212063 <s+0x23>
   10f4f:	c6 05 0e 11 20 00 48 	movb   $0x48,0x20110e(%rip)        # 212064 <s+0x24>
   10f56:	c6 05 fe 10 20 00 54 	movb   $0x54,0x2010fe(%rip)        # 21205b <s+0x1b>
   10f5d:	c6 05 e0 10 20 00 6b 	movb   $0x6b,0x2010e0(%rip)        # 212044 <s+0x4>
   10f64:	c6 05 e6 10 20 00 5a 	movb   $0x5a,0x2010e6(%rip)        # 212051 <s+0x11>
   10f6b:	c6 05 f5 10 20 00 40 	movb   $0x40,0x2010f5(%rip)        # 212067 <s+0x27>
   10f72:	c6 05 e1 10 20 00 4b 	movb   $0x4b,0x2010e1(%rip)        # 21205a <s+0x1a>
   10f79:	c6 05 c9 10 20 00 75 	movb   $0x75,0x2010c9(%rip)        # 212049 <s+0x9>
   10f80:	c6 05 c9 10 20 00 58 	movb   $0x58,0x2010c9(%rip)        # 212050 <s+0x10>
   10f87:	c6 05 d6 10 20 00 5a 	movb   $0x5a,0x2010d6(%rip)        # 212064 <s+0x24>
   10f8e:	c6 05 be 10 20 00 43 	movb   $0x43,0x2010be(%rip)        # 212053 <s+0x13>
   10f95:	c6 05 b1 10 20 00 7e 	movb   $0x7e,0x2010b1(%rip)        # 21204d <s+0xd>
   10f9c:	c6 05 a1 10 20 00 3b 	movb   $0x3b,0x2010a1(%rip)        # 212044 <s+0x4>
   10fa3:	c6 05 b4 10 20 00 33 	movb   $0x33,0x2010b4(%rip)        # 21205e <s+0x1e>
   10faa:	c6 05 a8 10 20 00 73 	movb   $0x73,0x2010a8(%rip)        # 212059 <s+0x19>
   10fb1:	c6 05 97 10 20 00 59 	movb   $0x59,0x201097(%rip)        # 21204f <s+0xf>
   10fb8:	c6 05 88 10 20 00 40 	movb   $0x40,0x201088(%rip)        # 212047 <s+0x7>
   10fbf:	c6 05 82 10 20 00 32 	movb   $0x32,0x201082(%rip)        # 212048 <s+0x8>
   10fc6:	c6 05 89 10 20 00 76 	movb   $0x76,0x201089(%rip)        # 212056 <s+0x16>
   10fcd:	c6 05 8a 10 20 00 2c 	movb   $0x2c,0x20108a(%rip)        # 21205e <s+0x1e>
   10fd4:	c6 05 8a 10 20 00 65 	movb   $0x65,0x20108a(%rip)        # 212065 <s+0x25>
   10fdb:	c6 05 6e 10 20 00 7c 	movb   $0x7c,0x20106e(%rip)        # 212050 <s+0x10>
   10fe2:	c6 05 71 10 20 00 57 	movb   $0x57,0x201071(%rip)        # 21205a <s+0x1a>
   10fe9:	c6 05 60 10 20 00 2b 	movb   $0x2b,0x201060(%rip)        # 212050 <s+0x10>
   10ff0:	c6 05 4d 10 20 00 31 	movb   $0x31,0x20104d(%rip)        # 212044 <s+0x4>
   10ff7:	c6 05 4d 10 20 00 6d 	movb   $0x6d,0x20104d(%rip)        # 21204b <s+0xb>
   10ffe:	c6 05 60 10 20 00 62 	movb   $0x62,0x201060(%rip)        # 212065 <s+0x25>
   11005:	c6 05 3f 10 20 00 68 	movb   $0x68,0x20103f(%rip)        # 21204b <s+0xb>
   1100c:	c6 05 49 10 20 00 5d 	movb   $0x5d,0x201049(%rip)        # 21205c <s+0x1c>
   11013:	c6 05 3d 10 20 00 73 	movb   $0x73,0x20103d(%rip)        # 212057 <s+0x17>
   1101a:	c6 05 35 10 20 00 37 	movb   $0x37,0x201035(%rip)        # 212056 <s+0x16>
   11021:	c6 05 38 10 20 00 55 	movb   $0x55,0x201038(%rip)        # 212060 <s+0x20>
   11028:	c6 05 30 10 20 00 7c 	movb   $0x7c,0x201030(%rip)        # 21205f <s+0x1f>
   1102f:	c6 05 20 10 20 00 77 	movb   $0x77,0x201020(%rip)        # 212056 <s+0x16>
   11036:	c6 05 29 10 20 00 4a 	movb   $0x4a,0x201029(%rip)        # 212066 <s+0x26>
   1103d:	c6 05 0b 10 20 00 28 	movb   $0x28,0x20100b(%rip)        # 21204f <s+0xf>
   11044:	c6 05 15 10 20 00 50 	movb   $0x50,0x201015(%rip)        # 212060 <s+0x20>
   1104b:	c6 05 02 10 20 00 46 	movb   $0x46,0x201002(%rip)        # 212054 <s+0x14>
   11052:	c6 05 fa 0f 20 00 7e 	movb   $0x7e,0x200ffa(%rip)        # 212053 <s+0x13>
   11059:	c6 05 e2 0f 20 00 23 	movb   $0x23,0x200fe2(%rip)        # 212042 <s+0x2>
   11060:	c6 05 ef 0f 20 00 44 	movb   $0x44,0x200fef(%rip)        # 212056 <s+0x16>
   11067:	c6 05 f5 0f 20 00 44 	movb   $0x44,0x200ff5(%rip)        # 212063 <s+0x23>
   1106e:	c6 05 ed 0f 20 00 6b 	movb   $0x6b,0x200fed(%rip)        # 212062 <s+0x22>
   11075:	c6 05 c7 0f 20 00 40 	movb   $0x40,0x200fc7(%rip)        # 212043 <s+0x3>
   1107c:	c6 05 c7 0f 20 00 48 	movb   $0x48,0x200fc7(%rip)        # 21204a <s+0xa>
   11083:	c6 05 c1 0f 20 00 26 	movb   $0x26,0x200fc1(%rip)        # 21204b <s+0xb>
   1108a:	c6 05 ce 0f 20 00 3e 	movb   $0x3e,0x200fce(%rip)        # 21205f <s+0x1f>
   11091:	c6 05 b1 0f 20 00 2f 	movb   $0x2f,0x200fb1(%rip)        # 212049 <s+0x9>
   11098:	c6 05 a1 0f 20 00 2b 	movb   $0x2b,0x200fa1(%rip)        # 212040 <s>
   1109f:	c6 05 bf 0f 20 00 52 	movb   $0x52,0x200fbf(%rip)        # 212065 <s+0x25>
   110a6:	c6 05 a7 0f 20 00 30 	movb   $0x30,0x200fa7(%rip)        # 212054 <s+0x14>
   110ad:	c6 05 91 0f 20 00 76 	movb   $0x76,0x200f91(%rip)        # 212045 <s+0x5>
   110b4:	c6 05 8e 0f 20 00 74 	movb   $0x74,0x200f8e(%rip)        # 212049 <s+0x9>
   110bb:	c6 05 82 0f 20 00 62 	movb   $0x62,0x200f82(%rip)        # 212044 <s+0x4>
   110c2:	c6 05 8b 0f 20 00 65 	movb   $0x65,0x200f8b(%rip)        # 212054 <s+0x14>
   110c9:	c6 05 79 0f 20 00 25 	movb   $0x25,0x200f79(%rip)        # 212049 <s+0x9>
   110d0:	c6 05 82 0f 20 00 33 	movb   $0x33,0x200f82(%rip)        # 212059 <s+0x19>
   110d7:	c6 05 83 0f 20 00 68 	movb   $0x68,0x200f83(%rip)        # 212061 <s+0x21>
   110de:	c6 05 5f 0f 20 00 20 	movb   $0x20,0x200f5f(%rip)        # 212044 <s+0x4>
   110e5:	c6 05 6a 0f 20 00 68 	movb   $0x68,0x200f6a(%rip)        # 212056 <s+0x16>
   110ec:	c6 05 5b 0f 20 00 51 	movb   $0x51,0x200f5b(%rip)        # 21204e <s+0xe>
   110f3:	c6 05 66 0f 20 00 6f 	movb   $0x6f,0x200f66(%rip)        # 212060 <s+0x20>
   110fa:	c6 05 4e 0f 20 00 57 	movb   $0x57,0x200f4e(%rip)        # 21204f <s+0xf>
   11101:	c6 05 3c 0f 20 00 5d 	movb   $0x5d,0x200f3c(%rip)        # 212044 <s+0x4>
   11108:	c6 05 43 0f 20 00 65 	movb   $0x65,0x200f43(%rip)        # 212052 <s+0x12>
   1110f:	c6 05 39 0f 20 00 4e 	movb   $0x4e,0x200f39(%rip)        # 21204f <s+0xf>
   11116:	c6 05 45 0f 20 00 6d 	movb   $0x6d,0x200f45(%rip)        # 212062 <s+0x22>
   1111d:	c6 05 36 0f 20 00 25 	movb   $0x25,0x200f36(%rip)        # 21205a <s+0x1a>
   11124:	c6 05 34 0f 20 00 7b 	movb   $0x7b,0x200f34(%rip)        # 21205f <s+0x1f>
   1112b:	c6 05 12 0f 20 00 20 	movb   $0x20,0x200f12(%rip)        # 212044 <s+0x4>
   11132:	c6 05 2a 0f 20 00 3e 	movb   $0x3e,0x200f2a(%rip)        # 212063 <s+0x23>
   11139:	c6 05 1d 0f 20 00 69 	movb   $0x69,0x200f1d(%rip)        # 21205d <s+0x1d>
   11140:	c6 05 fe 0e 20 00 7e 	movb   $0x7e,0x200efe(%rip)        # 212045 <s+0x5>
   11147:	c6 05 01 0f 20 00 7e 	movb   $0x7e,0x200f01(%rip)        # 21204f <s+0xf>
   1114e:	c6 05 f5 0e 20 00 77 	movb   $0x77,0x200ef5(%rip)        # 21204a <s+0xa>
   11155:	c6 05 03 0f 20 00 58 	movb   $0x58,0x200f03(%rip)        # 21205f <s+0x1f>
   1115c:	c6 05 dd 0e 20 00 4f 	movb   $0x4f,0x200edd(%rip)        # 212040 <s>
   11163:	c6 05 e2 0e 20 00 46 	movb   $0x46,0x200ee2(%rip)        # 21204c <s+0xc>
   1116a:	c6 05 d8 0e 20 00 24 	movb   $0x24,0x200ed8(%rip)        # 212049 <s+0x9>
   11171:	c6 05 d3 0e 20 00 28 	movb   $0x28,0x200ed3(%rip)        # 21204b <s+0xb>
   11178:	c6 05 c2 0e 20 00 4b 	movb   $0x4b,0x200ec2(%rip)        # 212041 <s+0x1>
   1117f:	c6 05 bf 0e 20 00 25 	movb   $0x25,0x200ebf(%rip)        # 212045 <s+0x5>
   11186:	c6 05 bf 0e 20 00 52 	movb   $0x52,0x200ebf(%rip)        # 21204c <s+0xc>
   1118d:	c6 05 af 0e 20 00 4c 	movb   $0x4c,0x200eaf(%rip)        # 212043 <s+0x3>
   11194:	c6 05 c6 0e 20 00 47 	movb   $0x47,0x200ec6(%rip)        # 212061 <s+0x21>
   1119b:	c6 05 c3 0e 20 00 6a 	movb   $0x6a,0x200ec3(%rip)        # 212065 <s+0x25>
   111a2:	c6 05 a9 0e 20 00 65 	movb   $0x65,0x200ea9(%rip)        # 212052 <s+0x12>
   111a9:	c6 05 92 0e 20 00 48 	movb   $0x48,0x200e92(%rip)        # 212042 <s+0x2>
   111b0:	c6 05 8d 0e 20 00 24 	movb   $0x24,0x200e8d(%rip)        # 212044 <s+0x4>
   111b7:	c6 05 8e 0e 20 00 3e 	movb   $0x3e,0x200e8e(%rip)        # 21204c <s+0xc>
   111be:	c6 05 93 0e 20 00 3c 	movb   $0x3c,0x200e93(%rip)        # 212058 <s+0x18>
   111c5:	c6 05 91 0e 20 00 22 	movb   $0x22,0x200e91(%rip)        # 21205d <s+0x1d>
   111cc:	c6 05 8c 0e 20 00 48 	movb   $0x48,0x200e8c(%rip)        # 21205f <s+0x1f>
   111d3:	c6 05 69 0e 20 00 33 	movb   $0x33,0x200e69(%rip)        # 212043 <s+0x3>
   111da:	c6 05 81 0e 20 00 21 	movb   $0x21,0x200e81(%rip)        # 212062 <s+0x22>
   111e1:	c6 05 6d 0e 20 00 61 	movb   $0x61,0x200e6d(%rip)        # 212055 <s+0x15>
   111e8:	c6 05 52 0e 20 00 26 	movb   $0x26,0x200e52(%rip)        # 212041 <s+0x1>
   111ef:	c6 05 6e 0e 20 00 38 	movb   $0x38,0x200e6e(%rip)        # 212064 <s+0x24>
   111f6:	c6 05 48 0e 20 00 54 	movb   $0x54,0x200e48(%rip)        # 212045 <s+0x5>
   111fd:	c6 05 57 0e 20 00 2a 	movb   $0x2a,0x200e57(%rip)        # 21205b <s+0x1b>
   11204:	c6 05 3c 0e 20 00 3b 	movb   $0x3b,0x200e3c(%rip)        # 212047 <s+0x7>
   1120b:	c6 05 37 0e 20 00 79 	movb   $0x79,0x200e37(%rip)        # 212049 <s+0x9>
   11212:	c6 05 43 0e 20 00 50 	movb   $0x50,0x200e43(%rip)        # 21205c <s+0x1c>
   11219:	c6 05 39 0e 20 00 53 	movb   $0x53,0x200e39(%rip)        # 212059 <s+0x19>
   11220:	c6 05 3b 0e 20 00 29 	movb   $0x29,0x200e3b(%rip)        # 212062 <s+0x22>
   11227:	c6 05 27 0e 20 00 32 	movb   $0x32,0x200e27(%rip)        # 212055 <s+0x15>
   1122e:	c6 05 18 0e 20 00 4e 	movb   $0x4e,0x200e18(%rip)        # 21204d <s+0xd>
   11235:	c6 05 0c 0e 20 00 58 	movb   $0x58,0x200e0c(%rip)        # 212048 <s+0x8>
   1123c:	c6 05 0f 0e 20 00 4d 	movb   $0x4d,0x200e0f(%rip)        # 212052 <s+0x12>
   11243:	c6 05 09 0e 20 00 47 	movb   $0x47,0x200e09(%rip)        # 212053 <s+0x13>
   1124a:	c6 05 00 0e 20 00 25 	movb   $0x25,0x200e00(%rip)        # 212051 <s+0x11>
   11251:	c6 05 f5 0d 20 00 31 	movb   $0x31,0x200df5(%rip)        # 21204d <s+0xd>
   11258:	c6 05 f1 0d 20 00 39 	movb   $0x39,0x200df1(%rip)        # 212050 <s+0x10>
   1125f:	c6 05 e7 0d 20 00 41 	movb   $0x41,0x200de7(%rip)        # 21204d <s+0xd>
   11266:	c6 05 f7 0d 20 00 25 	movb   $0x25,0x200df7(%rip)        # 212064 <s+0x24>
   1126d:	c6 05 e9 0d 20 00 6d 	movb   $0x6d,0x200de9(%rip)        # 21205d <s+0x1d>
   11274:	c6 05 e6 0d 20 00 47 	movb   $0x47,0x200de6(%rip)        # 212061 <s+0x21>
   1127b:	c6 05 e1 0d 20 00 39 	movb   $0x39,0x200de1(%rip)        # 212063 <s+0x23>
   11282:	c6 05 d5 0d 20 00 54 	movb   $0x54,0x200dd5(%rip)        # 21205e <s+0x1e>
   11289:	c6 05 d3 0d 20 00 2c 	movb   $0x2c,0x200dd3(%rip)        # 212063 <s+0x23>
   11290:	c6 05 c6 0d 20 00 6e 	movb   $0x6e,0x200dc6(%rip)        # 21205d <s+0x1d>
   11297:	c6 05 b1 0d 20 00 44 	movb   $0x44,0x200db1(%rip)        # 21204f <s+0xf>
   1129e:	c6 05 a0 0d 20 00 37 	movb   $0x37,0x200da0(%rip)        # 212045 <s+0x5>
   112a5:	c6 05 94 0d 20 00 3d 	movb   $0x3d,0x200d94(%rip)        # 212040 <s>
   112ac:	c6 05 93 0d 20 00 55 	movb   $0x55,0x200d93(%rip)        # 212046 <s+0x6>
   112b3:	c6 05 95 0d 20 00 29 	movb   $0x29,0x200d95(%rip)        # 21204f <s+0xf>
   112ba:	c6 05 a4 0d 20 00 42 	movb   $0x42,0x200da4(%rip)        # 212065 <s+0x25>
   112c1:	c6 05 83 0d 20 00 20 	movb   $0x20,0x200d83(%rip)        # 21204b <s+0xb>
   112c8:	c6 05 94 0d 20 00 56 	movb   $0x56,0x200d94(%rip)        # 212063 <s+0x23>
   112cf:	c6 05 72 0d 20 00 2a 	movb   $0x2a,0x200d72(%rip)        # 212048 <s+0x8>
   112d6:	c6 05 64 0d 20 00 53 	movb   $0x53,0x200d64(%rip)        # 212041 <s+0x1>
   112dd:	c6 05 60 0d 20 00 7c 	movb   $0x7c,0x200d60(%rip)        # 212044 <s+0x4>
   112e4:	c6 05 74 0d 20 00 2d 	movb   $0x2d,0x200d74(%rip)        # 21205f <s+0x1f>
   112eb:	c6 05 57 0d 20 00 78 	movb   $0x78,0x200d57(%rip)        # 212049 <s+0x9>
   112f2:	c6 05 64 0d 20 00 55 	movb   $0x55,0x200d64(%rip)        # 21205d <s+0x1d>
   112f9:	c6 05 67 0d 20 00 41 	movb   $0x41,0x200d67(%rip)        # 212067 <s+0x27>
   11300:	c6 05 5b 0d 20 00 24 	movb   $0x24,0x200d5b(%rip)        # 212062 <s+0x22>
   11307:	c6 05 4d 0d 20 00 3d 	movb   $0x3d,0x200d4d(%rip)        # 21205b <s+0x1b>
   1130e:	c6 05 4f 0d 20 00 31 	movb   $0x31,0x200d4f(%rip)        # 212064 <s+0x24>
   11315:	c6 05 35 0d 20 00 5d 	movb   $0x5d,0x200d35(%rip)        # 212051 <s+0x11>
   1131c:	c6 05 24 0d 20 00 6b 	movb   $0x6b,0x200d24(%rip)        # 212047 <s+0x7>
   11323:	c6 05 2f 0d 20 00 35 	movb   $0x35,0x200d2f(%rip)        # 212059 <s+0x19>
   1132a:	c6 05 23 0d 20 00 4c 	movb   $0x4c,0x200d23(%rip)        # 212054 <s+0x14>
   11331:	c6 05 2b 0d 20 00 53 	movb   $0x53,0x200d2b(%rip)        # 212063 <s+0x23>
   11338:	c6 05 25 0d 20 00 54 	movb   $0x54,0x200d25(%rip)        # 212064 <s+0x24>
   1133f:	c6 05 1e 0d 20 00 59 	movb   $0x59,0x200d1e(%rip)        # 212064 <s+0x24>
   11346:	c6 05 f5 0c 20 00 77 	movb   $0x77,0x200cf5(%rip)        # 212042 <s+0x2>
   1134d:	c6 05 fc 0c 20 00 5f 	movb   $0x5f,0x200cfc(%rip)        # 212050 <s+0x10>
   11354:	c6 05 08 0d 20 00 60 	movb   $0x60,0x200d08(%rip)        # 212063 <s+0x23>
   1135b:	c6 05 fe 0c 20 00 2d 	movb   $0x2d,0x200cfe(%rip)        # 212060 <s+0x20>
   11362:	c6 05 f4 0c 20 00 7e 	movb   $0x7e,0x200cf4(%rip)        # 21205d <s+0x1d>
   11369:	c6 05 d3 0c 20 00 55 	movb   $0x55,0x200cd3(%rip)        # 212043 <s+0x3>
   11370:	c6 05 d3 0c 20 00 2b 	movb   $0x2b,0x200cd3(%rip)        # 21204a <s+0xa>
   11377:	c6 05 e2 0c 20 00 28 	movb   $0x28,0x200ce2(%rip)        # 212060 <s+0x20>
   1137e:	c6 05 c4 0c 20 00 74 	movb   $0x74,0x200cc4(%rip)        # 212049 <s+0x9>
   11385:	c6 05 bd 0c 20 00 39 	movb   $0x39,0x200cbd(%rip)        # 212049 <s+0x9>
   1138c:	c6 05 b1 0c 20 00 3d 	movb   $0x3d,0x200cb1(%rip)        # 212044 <s+0x4>
   11393:	c6 05 bd 0c 20 00 3d 	movb   $0x3d,0x200cbd(%rip)        # 212057 <s+0x17>
   1139a:	c6 05 be 0c 20 00 23 	movb   $0x23,0x200cbe(%rip)        # 21205f <s+0x1f>
   113a1:	c6 05 a9 0c 20 00 22 	movb   $0x22,0x200ca9(%rip)        # 212051 <s+0x11>
   113a8:	c6 05 b8 0c 20 00 6a 	movb   $0x6a,0x200cb8(%rip)        # 212067 <s+0x27>
   113af:	c6 05 8e 0c 20 00 48 	movb   $0x48,0x200c8e(%rip)        # 212044 <s+0x4>
   113b6:	c6 05 86 0c 20 00 33 	movb   $0x33,0x200c86(%rip)        # 212043 <s+0x3>
   113bd:	c6 05 92 0c 20 00 26 	movb   $0x26,0x200c92(%rip)        # 212056 <s+0x16>
   113c4:	c6 05 97 0c 20 00 78 	movb   $0x78,0x200c97(%rip)        # 212062 <s+0x22>
   113cb:	c6 05 86 0c 20 00 54 	movb   $0x54,0x200c86(%rip)        # 212058 <s+0x18>
   113d2:	c6 05 7f 0c 20 00 3e 	movb   $0x3e,0x200c7f(%rip)        # 212058 <s+0x18>
   113d9:	c6 05 66 0c 20 00 36 	movb   $0x36,0x200c66(%rip)        # 212046 <s+0x6>
   113e0:	c6 05 61 0c 20 00 21 	movb   $0x21,0x200c61(%rip)        # 212048 <s+0x8>
   113e7:	c6 05 5e 0c 20 00 7e 	movb   $0x7e,0x200c5e(%rip)        # 21204c <s+0xc>
   113ee:	c6 05 4c 0c 20 00 3a 	movb   $0x3a,0x200c4c(%rip)        # 212041 <s+0x1>
   113f5:	c6 05 52 0c 20 00 6c 	movb   $0x6c,0x200c52(%rip)        # 21204e <s+0xe>
   113fc:	c6 05 4f 0c 20 00 59 	movb   $0x59,0x200c4f(%rip)        # 212052 <s+0x12>
   11403:	c6 05 4d 0c 20 00 70 	movb   $0x70,0x200c4d(%rip)        # 212057 <s+0x17>
   1140a:	c6 05 42 0c 20 00 4a 	movb   $0x4a,0x200c42(%rip)        # 212053 <s+0x13>
   11411:	c6 05 4f 0c 20 00 6c 	movb   $0x6c,0x200c4f(%rip)        # 212067 <s+0x27>
   11418:	c6 05 3c 0c 20 00 6c 	movb   $0x6c,0x200c3c(%rip)        # 21205b <s+0x1b>
   1141f:	c6 05 27 0c 20 00 63 	movb   $0x63,0x200c27(%rip)        # 21204d <s+0xd>
   11426:	c6 05 17 0c 20 00 54 	movb   $0x54,0x200c17(%rip)        # 212044 <s+0x4>
   1142d:	c6 05 20 0c 20 00 72 	movb   $0x72,0x200c20(%rip)        # 212054 <s+0x14>
   11434:	c6 05 29 0c 20 00 79 	movb   $0x79,0x200c29(%rip)        # 212064 <s+0x24>
   1143b:	c6 05 20 0c 20 00 48 	movb   $0x48,0x200c20(%rip)        # 212062 <s+0x22>
   11442:	c6 05 06 0c 20 00 57 	movb   $0x57,0x200c06(%rip)        # 21204f <s+0xf>
   11449:	c6 05 f9 0b 20 00 26 	movb   $0x26,0x200bf9(%rip)        # 212049 <s+0x9>
   11450:	c6 05 fd 0b 20 00 3c 	movb   $0x3c,0x200bfd(%rip)        # 212054 <s+0x14>
   11457:	c6 05 f3 0b 20 00 2b 	movb   $0x2b,0x200bf3(%rip)        # 212051 <s+0x11>
   1145e:	c6 05 f8 0b 20 00 5d 	movb   $0x5d,0x200bf8(%rip)        # 21205d <s+0x1d>
   11465:	c6 05 d7 0b 20 00 32 	movb   $0x32,0x200bd7(%rip)        # 212043 <s+0x3>
   1146c:	c6 05 db 0b 20 00 48 	movb   $0x48,0x200bdb(%rip)        # 21204e <s+0xe>
   11473:	c6 05 d3 0b 20 00 69 	movb   $0x69,0x200bd3(%rip)        # 21204d <s+0xd>
   1147a:	c6 05 d7 0b 20 00 73 	movb   $0x73,0x200bd7(%rip)        # 212058 <s+0x18>
   11481:	c6 05 c3 0b 20 00 29 	movb   $0x29,0x200bc3(%rip)        # 21204b <s+0xb>
   11488:	c6 05 bf 0b 20 00 73 	movb   $0x73,0x200bbf(%rip)        # 21204e <s+0xe>
   1148f:	c6 05 b0 0b 20 00 42 	movb   $0x42,0x200bb0(%rip)        # 212046 <s+0x6>
   11496:	c6 05 ad 0b 20 00 66 	movb   $0x66,0x200bad(%rip)        # 21204a <s+0xa>
   1149d:	c6 05 b6 0b 20 00 36 	movb   $0x36,0x200bb6(%rip)        # 21205a <s+0x1a>
   114a4:	c6 05 aa 0b 20 00 7e 	movb   $0x7e,0x200baa(%rip)        # 212055 <s+0x15>
   114ab:	c6 05 96 0b 20 00 20 	movb   $0x20,0x200b96(%rip)        # 212048 <s+0x8>
   114b2:	c6 05 a6 0b 20 00 56 	movb   $0x56,0x200ba6(%rip)        # 21205f <s+0x1f>
   114b9:	c6 05 90 0b 20 00 66 	movb   $0x66,0x200b90(%rip)        # 212050 <s+0x10>
   114c0:	c6 05 7f 0b 20 00 58 	movb   $0x58,0x200b7f(%rip)        # 212046 <s+0x6>
   114c7:	c6 05 8e 0b 20 00 68 	movb   $0x68,0x200b8e(%rip)        # 21205c <s+0x1c>
   114ce:	c6 05 72 0b 20 00 7d 	movb   $0x7d,0x200b72(%rip)        # 212047 <s+0x7>
   114d5:	c6 05 71 0b 20 00 7e 	movb   $0x7e,0x200b71(%rip)        # 21204d <s+0xd>
   114dc:	c6 05 7f 0b 20 00 58 	movb   $0x58,0x200b7f(%rip)        # 212062 <s+0x22>
   114e3:	c6 05 66 0b 20 00 59 	movb   $0x59,0x200b66(%rip)        # 212050 <s+0x10>
   114ea:	c6 05 56 0b 20 00 58 	movb   $0x58,0x200b56(%rip)        # 212047 <s+0x7>
   114f1:	c6 05 4a 0b 20 00 36 	movb   $0x36,0x200b4a(%rip)        # 212042 <s+0x2>
   114f8:	c6 05 4b 0b 20 00 43 	movb   $0x43,0x200b4b(%rip)        # 21204a <s+0xa>
   114ff:	c6 05 41 0b 20 00 7e 	movb   $0x7e,0x200b41(%rip)        # 212047 <s+0x7>
   11506:	c6 05 4d 0b 20 00 2a 	movb   $0x2a,0x200b4d(%rip)        # 21205a <s+0x1a>
   1150d:	c6 05 2f 0b 20 00 38 	movb   $0x38,0x200b2f(%rip)        # 212043 <s+0x3>
   11514:	c6 05 3b 0b 20 00 7e 	movb   $0x7e,0x200b3b(%rip)        # 212056 <s+0x16>
   1151b:	c6 05 23 0b 20 00 4f 	movb   $0x4f,0x200b23(%rip)        # 212045 <s+0x5>
   11522:	c6 05 27 0b 20 00 7c 	movb   $0x7c,0x200b27(%rip)        # 212050 <s+0x10>
   11529:	c6 05 16 0b 20 00 43 	movb   $0x43,0x200b16(%rip)        # 212046 <s+0x6>
   11530:	c6 05 16 0b 20 00 6c 	movb   $0x6c,0x200b16(%rip)        # 21204d <s+0xd>
   11537:	c6 05 21 0b 20 00 5d 	movb   $0x5d,0x200b21(%rip)        # 21205f <s+0x1f>
   1153e:	c6 05 0e 0b 20 00 29 	movb   $0x29,0x200b0e(%rip)        # 212053 <s+0x13>
   11545:	c6 05 19 0b 20 00 54 	movb   $0x54,0x200b19(%rip)        # 212065 <s+0x25>
   1154c:	c6 05 ef 0a 20 00 68 	movb   $0x68,0x200aef(%rip)        # 212042 <s+0x2>
   11553:	c6 05 eb 0a 20 00 68 	movb   $0x68,0x200aeb(%rip)        # 212045 <s+0x5>
   1155a:	c6 05 00 0b 20 00 4d 	movb   $0x4d,0x200b00(%rip)        # 212061 <s+0x21>
   11561:	c6 05 ea 0a 20 00 54 	movb   $0x54,0x200aea(%rip)        # 212052 <s+0x12>
   11568:	c6 05 e6 0a 20 00 20 	movb   $0x20,0x200ae6(%rip)        # 212055 <s+0x15>
   1156f:	c6 05 d9 0a 20 00 67 	movb   $0x67,0x200ad9(%rip)        # 21204f <s+0xf>
   11576:	c6 05 ea 0a 20 00 5f 	movb   $0x5f,0x200aea(%rip)        # 212067 <s+0x27>
   1157d:	c6 05 da 0a 20 00 4c 	movb   $0x4c,0x200ada(%rip)        # 21205e <s+0x1e>
   11584:	c6 05 c4 0a 20 00 2a 	movb   $0x2a,0x200ac4(%rip)        # 21204f <s+0xf>
   1158b:	c6 05 b0 0a 20 00 33 	movb   $0x33,0x200ab0(%rip)        # 212042 <s+0x2>
   11592:	c6 05 c4 0a 20 00 7e 	movb   $0x7e,0x200ac4(%rip)        # 21205d <s+0x1d>
   11599:	c6 05 c4 0a 20 00 77 	movb   $0x77,0x200ac4(%rip)        # 212064 <s+0x24>
   115a0:	c6 05 ac 0a 20 00 53 	movb   $0x53,0x200aac(%rip)        # 212053 <s+0x13>
   115a7:	c6 05 93 0a 20 00 3c 	movb   $0x3c,0x200a93(%rip)        # 212041 <s+0x1>
   115ae:	c6 05 a6 0a 20 00 33 	movb   $0x33,0x200aa6(%rip)        # 21205b <s+0x1b>
   115b5:	c6 05 a8 0a 20 00 66 	movb   $0x66,0x200aa8(%rip)        # 212064 <s+0x24>
   115bc:	c6 05 9b 0a 20 00 6c 	movb   $0x6c,0x200a9b(%rip)        # 21205e <s+0x1e>
   115c3:	c6 05 85 0a 20 00 79 	movb   $0x79,0x200a85(%rip)        # 21204f <s+0xf>
   115ca:	c6 05 77 0a 20 00 3c 	movb   $0x3c,0x200a77(%rip)        # 212048 <s+0x8>
   115d1:	c6 05 87 0a 20 00 6f 	movb   $0x6f,0x200a87(%rip)        # 21205f <s+0x1f>
   115d8:	c6 05 63 0a 20 00 7b 	movb   $0x7b,0x200a63(%rip)        # 212042 <s+0x2>
   115df:	c6 05 69 0a 20 00 60 	movb   $0x60,0x200a69(%rip)        # 21204f <s+0xf>
   115e6:	c6 05 67 0a 20 00 31 	movb   $0x31,0x200a67(%rip)        # 212054 <s+0x14>
   115ed:	c6 05 4c 0a 20 00 2f 	movb   $0x2f,0x200a4c(%rip)        # 212040 <s>
   115f4:	c6 05 61 0a 20 00 74 	movb   $0x74,0x200a61(%rip)        # 21205c <s+0x1c>
   115fb:	c6 05 45 0a 20 00 6d 	movb   $0x6d,0x200a45(%rip)        # 212047 <s+0x7>
   11602:	c6 05 3e 0a 20 00 6d 	movb   $0x6d,0x200a3e(%rip)        # 212047 <s+0x7>
   11609:	c6 05 49 0a 20 00 26 	movb   $0x26,0x200a49(%rip)        # 212059 <s+0x19>
   11610:	c6 05 31 0a 20 00 7e 	movb   $0x7e,0x200a31(%rip)        # 212048 <s+0x8>
   11617:	c6 05 2f 0a 20 00 61 	movb   $0x61,0x200a2f(%rip)        # 21204d <s+0xd>
   1161e:	c6 05 1c 0a 20 00 31 	movb   $0x31,0x200a1c(%rip)        # 212041 <s+0x1>
   11625:	c6 05 30 0a 20 00 28 	movb   $0x28,0x200a30(%rip)        # 21205c <s+0x1c>
   1162c:	c6 05 32 0a 20 00 7e 	movb   $0x7e,0x200a32(%rip)        # 212065 <s+0x25>
   11633:	c6 05 22 0a 20 00 7c 	movb   $0x7c,0x200a22(%rip)        # 21205c <s+0x1c>
   1163a:	c6 05 14 0a 20 00 6f 	movb   $0x6f,0x200a14(%rip)        # 212055 <s+0x15>
   11641:	c6 05 16 0a 20 00 7c 	movb   $0x7c,0x200a16(%rip)        # 21205e <s+0x1e>
   11648:	c6 05 0b 0a 20 00 61 	movb   $0x61,0x200a0b(%rip)        # 21205a <s+0x1a>
   1164f:	c6 05 f9 09 20 00 78 	movb   $0x78,0x2009f9(%rip)        # 21204f <s+0xf>
   11656:	c6 05 e7 09 20 00 6f 	movb   $0x6f,0x2009e7(%rip)        # 212044 <s+0x4>
   1165d:	c6 05 e5 09 20 00 37 	movb   $0x37,0x2009e5(%rip)        # 212049 <s+0x9>
   11664:	c6 05 ea 09 20 00 26 	movb   $0x26,0x2009ea(%rip)        # 212055 <s+0x15>
   1166b:	c6 05 d6 09 20 00 42 	movb   $0x42,0x2009d6(%rip)        # 212048 <s+0x8>
   11672:	c6 05 d8 09 20 00 78 	movb   $0x78,0x2009d8(%rip)        # 212051 <s+0x11>
   11679:	c6 05 cc 09 20 00 4f 	movb   $0x4f,0x2009cc(%rip)        # 21204c <s+0xc>
   11680:	c6 05 d5 09 20 00 4b 	movb   $0x4b,0x2009d5(%rip)        # 21205c <s+0x1c>
   11687:	c6 05 cb 09 20 00 28 	movb   $0x28,0x2009cb(%rip)        # 212059 <s+0x19>
   1168e:	c6 05 c0 09 20 00 54 	movb   $0x54,0x2009c0(%rip)        # 212055 <s+0x15>
   11695:	c6 05 a9 09 20 00 75 	movb   $0x75,0x2009a9(%rip)        # 212045 <s+0x5>
   1169c:	c6 05 b1 09 20 00 73 	movb   $0x73,0x2009b1(%rip)        # 212054 <s+0x14>
   116a3:	c6 05 ba 09 20 00 75 	movb   $0x75,0x2009ba(%rip)        # 212064 <s+0x24>
   116aa:	c6 05 99 09 20 00 3d 	movb   $0x3d,0x200999(%rip)        # 21204a <s+0xa>
   116b1:	c6 05 a0 09 20 00 76 	movb   $0x76,0x2009a0(%rip)        # 212058 <s+0x18>
   116b8:	c6 05 8b 09 20 00 36 	movb   $0x36,0x20098b(%rip)        # 21204a <s+0xa>
   116bf:	c6 05 82 09 20 00 47 	movb   $0x47,0x200982(%rip)        # 212048 <s+0x8>
   116c6:	c6 05 84 09 20 00 31 	movb   $0x31,0x200984(%rip)        # 212051 <s+0x11>
   116cd:	c6 05 83 09 20 00 71 	movb   $0x71,0x200983(%rip)        # 212057 <s+0x17>
   116d4:	c6 05 65 09 20 00 5a 	movb   $0x5a,0x200965(%rip)        # 212040 <s>
   116db:	c6 05 7a 09 20 00 35 	movb   $0x35,0x20097a(%rip)        # 21205c <s+0x1c>
   116e2:	c6 05 5b 09 20 00 73 	movb   $0x73,0x20095b(%rip)        # 212044 <s+0x4>
   116e9:	c6 05 63 09 20 00 7e 	movb   $0x7e,0x200963(%rip)        # 212053 <s+0x13>
   116f0:	c6 05 60 09 20 00 63 	movb   $0x63,0x200960(%rip)        # 212057 <s+0x17>
   116f7:	c6 05 63 09 20 00 51 	movb   $0x51,0x200963(%rip)        # 212061 <s+0x21>
   116fe:	c6 05 3e 09 20 00 4d 	movb   $0x4d,0x20093e(%rip)        # 212043 <s+0x3>
   11705:	c6 05 41 09 20 00 53 	movb   $0x53,0x200941(%rip)        # 21204d <s+0xd>
   1170c:	c6 05 40 09 20 00 26 	movb   $0x26,0x200940(%rip)        # 212053 <s+0x13>
   11713:	c6 05 29 09 20 00 7d 	movb   $0x7d,0x200929(%rip)        # 212043 <s+0x3>
   1171a:	c6 05 23 09 20 00 26 	movb   $0x26,0x200923(%rip)        # 212044 <s+0x4>
   11721:	c6 05 30 09 20 00 78 	movb   $0x78,0x200930(%rip)        # 212058 <s+0x18>
   11728:	c6 05 12 09 20 00 2f 	movb   $0x2f,0x200912(%rip)        # 212041 <s+0x1>
   1172f:	c6 05 24 09 20 00 41 	movb   $0x41,0x200924(%rip)        # 21205a <s+0x1a>
   11736:	c6 05 09 09 20 00 37 	movb   $0x37,0x200909(%rip)        # 212046 <s+0x6>
   1173d:	c6 05 0f 09 20 00 3c 	movb   $0x3c,0x20090f(%rip)        # 212053 <s+0x13>
   11744:	c6 05 16 09 20 00 5a 	movb   $0x5a,0x200916(%rip)        # 212061 <s+0x21>
   1174b:	c6 05 ee 08 20 00 54 	movb   $0x54,0x2008ee(%rip)        # 212040 <s>
   11752:	c6 05 05 09 20 00 6e 	movb   $0x6e,0x200905(%rip)        # 21205e <s+0x1e>
   11759:	c6 05 f2 08 20 00 7e 	movb   $0x7e,0x2008f2(%rip)        # 212052 <s+0x12>
   11760:	c6 05 e8 08 20 00 60 	movb   $0x60,0x2008e8(%rip)        # 21204f <s+0xf>
   11767:	c6 05 d2 08 20 00 58 	movb   $0x58,0x2008d2(%rip)        # 212040 <s>
   1176e:	c6 05 e5 08 20 00 74 	movb   $0x74,0x2008e5(%rip)        # 21205a <s+0x1a>
   11775:	c6 05 d8 08 20 00 58 	movb   $0x58,0x2008d8(%rip)        # 212054 <s+0x14>
   1177c:	c6 05 c0 08 20 00 25 	movb   $0x25,0x2008c0(%rip)        # 212043 <s+0x3>
   11783:	c6 05 db 08 20 00 44 	movb   $0x44,0x2008db(%rip)        # 212065 <s+0x25>
   1178a:	c6 05 cd 08 20 00 7e 	movb   $0x7e,0x2008cd(%rip)        # 21205e <s+0x1e>
   11791:	c6 05 b6 08 20 00 3b 	movb   $0x3b,0x2008b6(%rip)        # 21204e <s+0xe>
   11798:	c6 05 a7 08 20 00 2b 	movb   $0x2b,0x2008a7(%rip)        # 212046 <s+0x6>
   1179f:	c6 05 c1 08 20 00 79 	movb   $0x79,0x2008c1(%rip)        # 212067 <s+0x27>
   117a6:	c6 05 9b 08 20 00 33 	movb   $0x33,0x20089b(%rip)        # 212048 <s+0x8>
   117ad:	c6 05 9d 08 20 00 7a 	movb   $0x7a,0x20089d(%rip)        # 212051 <s+0x11>
   117b4:	c6 05 a3 08 20 00 55 	movb   $0x55,0x2008a3(%rip)        # 21205e <s+0x1e>
   117bb:	c6 05 9d 08 20 00 36 	movb   $0x36,0x20089d(%rip)        # 21205f <s+0x1f>
   117c2:	c6 05 95 08 20 00 65 	movb   $0x65,0x200895(%rip)        # 21205e <s+0x1e>
   117c9:	c6 05 8e 08 20 00 49 	movb   $0x49,0x20088e(%rip)        # 21205e <s+0x1e>
   117d0:	c6 05 8b 08 20 00 23 	movb   $0x23,0x20088b(%rip)        # 212062 <s+0x22>
   117d7:	c6 05 75 08 20 00 61 	movb   $0x61,0x200875(%rip)        # 212053 <s+0x13>
   117de:	c6 05 78 08 20 00 4c 	movb   $0x4c,0x200878(%rip)        # 21205d <s+0x1d>
   117e5:	c6 05 65 08 20 00 7c 	movb   $0x7c,0x200865(%rip)        # 212051 <s+0x11>
   117ec:	c6 05 52 08 20 00 76 	movb   $0x76,0x200852(%rip)        # 212045 <s+0x5>
   117f3:	c6 05 5d 08 20 00 79 	movb   $0x79,0x20085d(%rip)        # 212057 <s+0x17>
   117fa:	c6 05 4c 08 20 00 6d 	movb   $0x6d,0x20084c(%rip)        # 21204d <s+0xd>
   11801:	c6 05 4a 08 20 00 4b 	movb   $0x4b,0x20084a(%rip)        # 212052 <s+0x12>
   11808:	c6 05 4f 08 20 00 5b 	movb   $0x5b,0x20084f(%rip)        # 21205e <s+0x1e>
   1180f:	c6 05 36 08 20 00 3f 	movb   $0x3f,0x200836(%rip)        # 21204c <s+0xc>
   11816:	c6 05 47 08 20 00 3d 	movb   $0x3d,0x200847(%rip)        # 212064 <s+0x24>
   1181d:	c6 05 2b 08 20 00 6d 	movb   $0x6d,0x20082b(%rip)        # 21204f <s+0xf>
   11824:	c6 05 35 08 20 00 44 	movb   $0x44,0x200835(%rip)        # 212060 <s+0x20>
   1182b:	c6 05 22 08 20 00 62 	movb   $0x62,0x200822(%rip)        # 212054 <s+0x14>
   11832:	c6 05 1e 08 20 00 61 	movb   $0x61,0x20081e(%rip)        # 212057 <s+0x17>
   11839:	c6 05 21 08 20 00 5b 	movb   $0x5b,0x200821(%rip)        # 212061 <s+0x21>
   11840:	c6 05 06 08 20 00 53 	movb   $0x53,0x200806(%rip)        # 21204d <s+0xd>
   11847:	c6 05 03 08 20 00 7c 	movb   $0x7c,0x200803(%rip)        # 212051 <s+0x11>
   1184e:	c6 05 0b 08 20 00 3f 	movb   $0x3f,0x20080b(%rip)        # 212060 <s+0x20>
   11855:	c6 05 fa 07 20 00 40 	movb   $0x40,0x2007fa(%rip)        # 212056 <s+0x16>
   1185c:	c6 05 e4 07 20 00 2c 	movb   $0x2c,0x2007e4(%rip)        # 212047 <s+0x7>
   11863:	c6 05 df 07 20 00 6d 	movb   $0x6d,0x2007df(%rip)        # 212049 <s+0x9>
   1186a:	c6 05 dd 07 20 00 63 	movb   $0x63,0x2007dd(%rip)        # 21204e <s+0xe>
   11871:	c6 05 cd 07 20 00 53 	movb   $0x53,0x2007cd(%rip)        # 212045 <s+0x5>
   11878:	c6 05 d0 07 20 00 6b 	movb   $0x6b,0x2007d0(%rip)        # 21204f <s+0xf>
   1187f:	c6 05 de 07 20 00 55 	movb   $0x55,0x2007de(%rip)        # 212064 <s+0x24>
   11886:	c6 05 be 07 20 00 55 	movb   $0x55,0x2007be(%rip)        # 21204b <s+0xb>
   1188d:	c6 05 bb 07 20 00 43 	movb   $0x43,0x2007bb(%rip)        # 21204f <s+0xf>
   11894:	c6 05 ba 07 20 00 47 	movb   $0x47,0x2007ba(%rip)        # 212055 <s+0x15>
   1189b:	c6 05 ac 07 20 00 57 	movb   $0x57,0x2007ac(%rip)        # 21204e <s+0xe>
   118a2:	c6 05 9c 07 20 00 57 	movb   $0x57,0x20079c(%rip)        # 212045 <s+0x5>
   118a9:	c6 05 ac 07 20 00 56 	movb   $0x56,0x2007ac(%rip)        # 21205c <s+0x1c>
   118b0:	c6 05 93 07 20 00 67 	movb   $0x67,0x200793(%rip)        # 21204a <s+0xa>
   118b7:	c6 05 a2 07 20 00 79 	movb   $0x79,0x2007a2(%rip)        # 212060 <s+0x20>
   118be:	c6 05 a2 07 20 00 71 	movb   $0x71,0x2007a2(%rip)        # 212067 <s+0x27>
   118c5:	c6 05 76 07 20 00 67 	movb   $0x67,0x200776(%rip)        # 212042 <s+0x2>
   118cc:	c6 05 74 07 20 00 51 	movb   $0x51,0x200774(%rip)        # 212047 <s+0x7>
   118d3:	c6 05 6d 07 20 00 28 	movb   $0x28,0x20076d(%rip)        # 212047 <s+0x7>
   118da:	c6 05 83 07 20 00 7c 	movb   $0x7c,0x200783(%rip)        # 212064 <s+0x24>
   118e1:	c6 05 69 07 20 00 4f 	movb   $0x4f,0x200769(%rip)        # 212051 <s+0x11>
   118e8:	c6 05 63 07 20 00 79 	movb   $0x79,0x200763(%rip)        # 212052 <s+0x12>
   118ef:	90                   	nop
   118f0:	5d                   	pop    %rbp
   118f1:	c3                   	retq   
   118f2:	66 2e 0f 1f 84 00 00 	nopw   %cs:0x0(%rax,%rax,1)
   118f9:	00 00 00 
   118fc:	0f 1f 40 00          	nopl   0x0(%rax)

0000000000011900 <__libc_csu_init>:
   11900:	41 57                	push   %r15
   11902:	41 56                	push   %r14
   11904:	41 89 ff             	mov    %edi,%r15d
   11907:	41 55                	push   %r13
   11909:	41 54                	push   %r12
   1190b:	4c 8d 25 c6 04 20 00 	lea    0x2004c6(%rip),%r12        # 211dd8 <__frame_dummy_init_array_entry>
   11912:	55                   	push   %rbp
   11913:	48 8d 2d c6 04 20 00 	lea    0x2004c6(%rip),%rbp        # 211de0 <__do_global_dtors_aux_fini_array_entry>
   1191a:	53                   	push   %rbx
   1191b:	49 89 f6             	mov    %rsi,%r14
   1191e:	49 89 d5             	mov    %rdx,%r13
   11921:	4c 29 e5             	sub    %r12,%rbp
   11924:	48 83 ec 08          	sub    $0x8,%rsp
   11928:	48 c1 fd 03          	sar    $0x3,%rbp
   1192c:	e8 ff eb fe ff       	callq  530 <_init>
   11931:	48 85 ed             	test   %rbp,%rbp
   11934:	74 20                	je     11956 <__libc_csu_init+0x56>
   11936:	31 db                	xor    %ebx,%ebx
   11938:	0f 1f 84 00 00 00 00 	nopl   0x0(%rax,%rax,1)
   1193f:	00 
   11940:	4c 89 ea             	mov    %r13,%rdx
   11943:	4c 89 f6             	mov    %r14,%rsi
   11946:	44 89 ff             	mov    %r15d,%edi
   11949:	41 ff 14 dc          	callq  *(%r12,%rbx,8)
   1194d:	48 83 c3 01          	add    $0x1,%rbx
   11951:	48 39 dd             	cmp    %rbx,%rbp
   11954:	75 ea                	jne    11940 <__libc_csu_init+0x40>
   11956:	48 83 c4 08          	add    $0x8,%rsp
   1195a:	5b                   	pop    %rbx
   1195b:	5d                   	pop    %rbp
   1195c:	41 5c                	pop    %r12
   1195e:	41 5d                	pop    %r13
   11960:	41 5e                	pop    %r14
   11962:	41 5f                	pop    %r15
   11964:	c3                   	retq   
   11965:	90                   	nop
   11966:	66 2e 0f 1f 84 00 00 	nopw   %cs:0x0(%rax,%rax,1)
   1196d:	00 00 00 

0000000000011970 <__libc_csu_fini>:
   11970:	f3 c3                	repz retq 

.fini 區段的反組譯：

0000000000011974 <_fini>:
   11974:	48 83 ec 08          	sub    $0x8,%rsp
   11978:	48 83 c4 08          	add    $0x8,%rsp
   1197c:	c3                   	retq   
